ARM GAS  /tmp/ccjNhGDP.s 			page 1


   1              		.syntax unified
   2              		.cpu cortex-m4
   3              		.fpu softvfp
   4              		.eabi_attribute 20, 1
   5              		.eabi_attribute 21, 1
   6              		.eabi_attribute 23, 3
   7              		.eabi_attribute 24, 1
   8              		.eabi_attribute 25, 1
   9              		.eabi_attribute 26, 1
  10              		.eabi_attribute 30, 2
  11              		.eabi_attribute 34, 1
  12              		.eabi_attribute 18, 4
  13              		.thumb
  14              		.file	"chcore_v7m.c"
  15              		.text
  16              	.Ltext0:
  17              		.cfi_sections	.debug_frame
  18              		.section	.text._port_switch_from_isr,"ax",%progbits
  19              		.align	2
  20              		.p2align 4,,15
  21              		.global	_port_switch_from_isr
  22              		.thumb
  23              		.thumb_func
  24              		.type	_port_switch_from_isr, %function
  25              	_port_switch_from_isr:
  26              	.LFB11:
  27              		.file 1 "../../os/ports/GCC/ARMCMx/chcore_v7m.c"
  28              		.loc 1 200 0
  29              		.cfi_startproc
  30              		@ Naked Function: prologue and epilogue provided by programmer.
  31              		@ args = 0, pretend = 0, frame = 0
  32              		@ frame_needed = 0, uses_anonymous_args = 0
  33              		.loc 1 203 0
  34 0000 FFF7FEFF 		bl	chSchDoReschedule
  35              	.LVL0:
  36              		.loc 1 205 0
  37              	@ 205 "../../os/ports/GCC/ARMCMx/chcore_v7m.c" 1
  38              		_port_exit_from_isr:
  39              	@ 0 "" 2
  40              		.loc 1 207 0
  41              	@ 207 "../../os/ports/GCC/ARMCMx/chcore_v7m.c" 1
  42 0004 00DF     		svc     #0
  43              	@ 0 "" 2
  44              		.loc 1 214 0
  45              		.thumb
  46              		.cfi_endproc
  47              	.LFE11:
  48              		.size	_port_switch_from_isr, .-_port_switch_from_isr
  49 0006 00BFAFF3 		.section	.text.SVCallVector,"ax",%progbits
  49      0080AFF3 
  49      0080
  50              		.align	2
  51              		.p2align 4,,15
  52              		.global	SVCallVector
  53              		.thumb
  54              		.thumb_func
  55              		.type	SVCallVector, %function
ARM GAS  /tmp/ccjNhGDP.s 			page 2


  56              	SVCallVector:
  57              	.LFB8:
  58              		.loc 1 58 0
  59              		.cfi_startproc
  60              		@ args = 0, pretend = 0, frame = 0
  61              		@ frame_needed = 0, uses_anonymous_args = 0
  62              		@ link register save eliminated.
  63              		.loc 1 62 0
  64              	@ 62 "../../os/ports/GCC/ARMCMx/chcore_v7m.c" 1
  65 0000 EFF30983 		mrs     r3, PSP
  66              	@ 0 "" 2
  67              	.LVL1:
  68              		.loc 1 66 0
  69              		.thumb
  70 0004 2033     		adds	r3, r3, #32
  71              	.LVL2:
  72              		.loc 1 73 0
  73              	@ 73 "../../os/ports/GCC/ARMCMx/chcore_v7m.c" 1
  74 0006 83F30988 		msr     PSP, r3
  75              	@ 0 "" 2
  76              		.thumb
  77              	.LBB2:
  78              		.loc 1 74 0
  79 000a 0023     		movs	r3, #0
  80              	.LVL3:
  81              	@ 74 "../../os/ports/GCC/ARMCMx/chcore_v7m.c" 1
  82 000c 83F31188 		msr     BASEPRI, r3
  83              	@ 0 "" 2
  84              		.thumb
  85 0010 7047     		bx	lr
  86              	.LBE2:
  87              		.cfi_endproc
  88              	.LFE8:
  89              		.size	SVCallVector, .-SVCallVector
  90 0012 00BFAFF3 		.section	.text._port_init,"ax",%progbits
  90      0080AFF3 
  90      0080AFF3 
  90      0080
  91              		.align	2
  92              		.p2align 4,,15
  93              		.global	_port_init
  94              		.thumb
  95              		.thumb_func
  96              		.type	_port_init, %function
  97              	_port_init:
  98              	.LFB9:
  99              		.loc 1 111 0
 100              		.cfi_startproc
 101              		@ args = 0, pretend = 0, frame = 0
 102              		@ frame_needed = 0, uses_anonymous_args = 0
 103 0000 08B5     		push	{r3, lr}
 104              		.cfi_def_cfa_offset 8
 105              		.cfi_offset 3, -8
 106              		.cfi_offset 14, -4
 107              		.loc 1 114 0
 108 0002 094B     		ldr	r3, .L4
 109              		.loc 1 115 0
ARM GAS  /tmp/ccjNhGDP.s 			page 3


 110 0004 094A     		ldr	r2, .L4+4
 111              		.loc 1 114 0
 112 0006 0021     		movs	r1, #0
 113 0008 9960     		str	r1, [r3, #8]
 114              		.loc 1 118 0
 115 000a 0720     		movs	r0, #7
 116              		.loc 1 115 0
 117 000c DA60     		str	r2, [r3, #12]
 118              		.loc 1 118 0
 119 000e 1021     		movs	r1, #16
 120 0010 FFF7FEFF 		bl	nvicSetSystemHandlerPriority
 121              	.LVL4:
 122              		.loc 1 120 0
 123 0014 0A20     		movs	r0, #10
 124 0016 2021     		movs	r1, #32
 125 0018 FFF7FEFF 		bl	nvicSetSystemHandlerPriority
 126              	.LVL5:
 127              		.loc 1 122 0
 128 001c 0B20     		movs	r0, #11
 129 001e 8021     		movs	r1, #128
 130              		.loc 1 124 0
 131 0020 BDE80840 		pop	{r3, lr}
 132              		.loc 1 122 0
 133 0024 FFF7FEBF 		b	nvicSetSystemHandlerPriority
 134              	.LVL6:
 135              	.L5:
 136              		.align	2
 137              	.L4:
 138 0028 00ED00E0 		.word	-536810240
 139 002c 0003FA05 		.word	100270848
 140              		.cfi_endproc
 141              	.LFE9:
 142              		.size	_port_init, .-_port_init
 143              		.section	.text._port_irq_epilogue,"ax",%progbits
 144              		.align	2
 145              		.p2align 4,,15
 146              		.global	_port_irq_epilogue
 147              		.thumb
 148              		.thumb_func
 149              		.type	_port_irq_epilogue, %function
 150              	_port_irq_epilogue:
 151              	.LFB10:
 152              		.loc 1 141 0
 153              		.cfi_startproc
 154              		@ args = 0, pretend = 0, frame = 0
 155              		@ frame_needed = 0, uses_anonymous_args = 0
 156              		@ link register save eliminated.
 157              	.LBB3:
 158              		.loc 1 143 0
 159 0000 2023     		movs	r3, #32
 160              	@ 143 "../../os/ports/GCC/ARMCMx/chcore_v7m.c" 1
 161 0002 83F31188 		msr     BASEPRI, r3
 162              	@ 0 "" 2
 163              		.thumb
 164              	.LBE3:
 165              		.loc 1 144 0
 166 0006 164B     		ldr	r3, .L14
ARM GAS  /tmp/ccjNhGDP.s 			page 4


 167 0008 5B68     		ldr	r3, [r3, #4]
 168 000a 13F40063 		ands	r3, r3, #2048
 169 000e 19D0     		beq	.L7
 170              	.LBB4:
 171              		.loc 1 148 0
 172              	@ 148 "../../os/ports/GCC/ARMCMx/chcore_v7m.c" 1
 173 0010 EFF30983 		mrs     r3, PSP
 174              	@ 0 "" 2
 175              	.LVL7:
 176              		.loc 1 152 0
 177              		.thumb
 178 0014 A3F12002 		sub	r2, r3, #32
 179              	.LVL8:
 180              		.loc 1 153 0
 181              	@ 153 "../../os/ports/GCC/ARMCMx/chcore_v7m.c" 1
 182 0018 82F30988 		msr     PSP, r2
 183              	@ 0 "" 2
 184              		.loc 1 158 0
 185              		.thumb
 186 001c 1149     		ldr	r1, .L14+4
 187              		.loc 1 154 0
 188 001e 4FF08070 		mov	r0, #16777216
 189              		.loc 1 158 0
 190 0022 8A69     		ldr	r2, [r1, #24]
 191              	.LVL9:
 192              		.loc 1 154 0
 193 0024 43F8040C 		str	r0, [r3, #-4]
 194              		.loc 1 158 0
 195 0028 D07F     		ldrb	r0, [r2, #31]	@ zero_extendqisi2
 196 002a 0968     		ldr	r1, [r1]
 197 002c 9268     		ldr	r2, [r2, #8]
 198 002e 8968     		ldr	r1, [r1, #8]
 199 0030 58B1     		cbz	r0, .L8
 200              		.loc 1 158 0 is_stmt 0 discriminator 1
 201 0032 9142     		cmp	r1, r2
 202 0034 94BF     		ite	ls
 203 0036 0022     		movls	r2, #0
 204 0038 0122     		movhi	r2, #1
 205 003a 62B1     		cbz	r2, .L10
 206              	.L13:
 207              		.loc 1 160 0 is_stmt 1
 208 003c 0A4A     		ldr	r2, .L14+8
 209 003e 43F8082C 		str	r2, [r3, #-8]
 210 0042 7047     		bx	lr
 211              	.LVL10:
 212              	.L7:
 213              	.LBE4:
 214              	.LBB5:
 215              		.loc 1 190 0
 216              	@ 190 "../../os/ports/GCC/ARMCMx/chcore_v7m.c" 1
 217 0044 83F31188 		msr     BASEPRI, r3
 218              	@ 0 "" 2
 219              		.thumb
 220 0048 7047     		bx	lr
 221              	.LVL11:
 222              	.L8:
 223              	.LBE5:
ARM GAS  /tmp/ccjNhGDP.s 			page 5


 224              	.LBB6:
 225              		.loc 1 158 0 discriminator 2
 226 004a 9142     		cmp	r1, r2
 227 004c 34BF     		ite	cc
 228 004e 0022     		movcc	r2, #0
 229 0050 0122     		movcs	r2, #1
 230 0052 002A     		cmp	r2, #0
 231 0054 F2D1     		bne	.L13
 232              	.L10:
 233              		.loc 1 169 0
 234 0056 054A     		ldr	r2, .L14+12
 235 0058 43F8082C 		str	r2, [r3, #-8]
 236 005c 7047     		bx	lr
 237              	.L15:
 238 005e 00BF     		.align	2
 239              	.L14:
 240 0060 00ED00E0 		.word	-536810240
 241 0064 00000000 		.word	rlist
 242 0068 00000000 		.word	_port_switch_from_isr
 243 006c 04000000 		.word	_port_exit_from_isr
 244              	.LBE6:
 245              		.cfi_endproc
 246              	.LFE10:
 247              		.size	_port_irq_epilogue, .-_port_irq_epilogue
 248              		.section	.text.SysTickVector,"ax",%progbits
 249              		.align	2
 250              		.p2align 4,,15
 251              		.global	SysTickVector
 252              		.thumb
 253              		.thumb_func
 254              		.type	SysTickVector, %function
 255              	SysTickVector:
 256              	.LFB7:
 257              		.loc 1 40 0
 258              		.cfi_startproc
 259              		@ args = 0, pretend = 0, frame = 0
 260              		@ frame_needed = 0, uses_anonymous_args = 0
 261 0000 08B5     		push	{r3, lr}
 262              		.cfi_def_cfa_offset 8
 263              		.cfi_offset 3, -8
 264              		.cfi_offset 14, -4
 265              	.LBB7:
 266              		.loc 1 44 0
 267 0002 2023     		movs	r3, #32
 268              	@ 44 "../../os/ports/GCC/ARMCMx/chcore_v7m.c" 1
 269 0004 83F31188 		msr     BASEPRI, r3
 270              	@ 0 "" 2
 271              		.thumb
 272              	.LBE7:
 273              		.loc 1 45 0
 274 0008 FFF7FEFF 		bl	chSysTimerHandlerI
 275              	.LVL12:
 276              	.LBB8:
 277              		.loc 1 46 0
 278 000c 0023     		movs	r3, #0
 279              	@ 46 "../../os/ports/GCC/ARMCMx/chcore_v7m.c" 1
 280 000e 83F31188 		msr     BASEPRI, r3
ARM GAS  /tmp/ccjNhGDP.s 			page 6


 281              	@ 0 "" 2
 282              		.thumb
 283              	.LBE8:
 284              		.loc 1 49 0
 285 0012 BDE80840 		pop	{r3, lr}
 286              		.loc 1 48 0
 287 0016 FFF7FEBF 		b	_port_irq_epilogue
 288              	.LVL13:
 289              		.cfi_endproc
 290              	.LFE7:
 291              		.size	SysTickVector, .-SysTickVector
 292 001a 00BFAFF3 		.section	.text._port_switch,"ax",%progbits
 292      0080
 293              		.align	2
 294              		.p2align 4,,15
 295              		.global	_port_switch
 296              		.thumb
 297              		.thumb_func
 298              		.type	_port_switch, %function
 299              	_port_switch:
 300              	.LFB12:
 301              		.loc 1 229 0
 302              		.cfi_startproc
 303              		@ Naked Function: prologue and epilogue provided by programmer.
 304              		@ args = 0, pretend = 0, frame = 0
 305              		@ frame_needed = 0, uses_anonymous_args = 0
 306              	.LVL14:
 307              		.loc 1 231 0
 308              	@ 231 "../../os/ports/GCC/ARMCMx/chcore_v7m.c" 1
 309 0000 2DE9F04F 		push    {r4, r5, r6, r7, r8, r9, r10, r11, lr}
 310              	@ 0 "" 2
 311              		.loc 1 237 0
 312              	@ 237 "../../os/ports/GCC/ARMCMx/chcore_v7m.c" 1
 313 0004 C1F80CD0 		str     sp, [r1, #12]                          
 314 0008 D0F80CD0 		ldr     sp, [r0, #12]
 315              	@ 0 "" 2
 316              		.loc 1 243 0
 317              	@ 243 "../../os/ports/GCC/ARMCMx/chcore_v7m.c" 1
 318 000c BDE8F08F 		pop     {r4, r5, r6, r7, r8, r9, r10, r11, pc}
 319              	@ 0 "" 2
 320              		.loc 1 245 0
 321              		.thumb
 322              		.cfi_endproc
 323              	.LFE12:
 324              		.size	_port_switch, .-_port_switch
 325              		.section	.text._port_thread_start,"ax",%progbits
 326              		.align	2
 327              		.p2align 4,,15
 328              		.global	_port_thread_start
 329              		.thumb
 330              		.thumb_func
 331              		.type	_port_thread_start, %function
 332              	_port_thread_start:
 333              	.LFB13:
 334              		.loc 1 252 0
 335              		.cfi_startproc
 336              		@ args = 0, pretend = 0, frame = 0
ARM GAS  /tmp/ccjNhGDP.s 			page 7


 337              		@ frame_needed = 0, uses_anonymous_args = 0
 338              		@ link register save eliminated.
 339              	.LBB9:
 340              		.loc 1 254 0
 341 0000 0023     		movs	r3, #0
 342              	@ 254 "../../os/ports/GCC/ARMCMx/chcore_v7m.c" 1
 343 0002 83F31188 		msr     BASEPRI, r3
 344              	@ 0 "" 2
 345              		.thumb
 346              	.LBE9:
 347              		.loc 1 255 0
 348              	@ 255 "../../os/ports/GCC/ARMCMx/chcore_v7m.c" 1
 349 0006 2846     		mov     r0, r5                                 
 350 0008 A047     		blx     r4                                     
 351 000a FFF7FEFF 		bl      chThdExit
 352              	@ 0 "" 2
 353              		.thumb
 354 000e 7047     		bx	lr
 355              		.cfi_endproc
 356              	.LFE13:
 357              		.size	_port_thread_start, .-_port_thread_start
 358              		.text
 359              	.Letext0:
 360              		.file 2 "/usr/arm-none-eabi/include/stdint.h"
 361              		.file 3 "../../os/ports/GCC/ARMCMx/chtypes.h"
 362              		.file 4 "../../os/kernel/include/chlists.h"
 363              		.file 5 "../../os/kernel/include/chthreads.h"
 364              		.file 6 "../../os/ports/GCC/ARMCMx/chcore_v7m.h"
 365              		.file 7 "../../os/ports/common/ARMCMx/nvic.h"
 366              		.file 8 "../../os/kernel/include/chschd.h"
 367              		.file 9 "../../os/kernel/include/chmtx.h"
 368              		.file 10 "../../os/kernel/include/chsys.h"