ARM GAS  /tmp/ccjNhGDP.s 			page 1


   1              		.syntax unified
   2              		.cpu cortex-m4
   3              		.fpu softvfp
   4              		.eabi_attribute 20, 1
   5              		.eabi_attribute 21, 1
   6              		.eabi_attribute 23, 3
   7              		.eabi_attribute 24, 1
   8              		.eabi_attribute 25, 1
   9              		.eabi_attribute 26, 1
  10              		.eabi_attribute 30, 2
  11              		.eabi_attribute 34, 1
  12              		.eabi_attribute 18, 4
  13              		.thumb
  14              		.file	"chcore_v7m.c"
  15              		.text
  16              	.Ltext0:
  17              		.cfi_sections	.debug_frame
  18              		.section	.text._port_switch_from_isr,"ax",%progbits
  19              		.align	2
  20              		.p2align 4,,15
  21              		.global	_port_switch_from_isr
  22              		.thumb
  23              		.thumb_func
  24              		.type	_port_switch_from_isr, %function
  25              	_port_switch_from_isr:
  26              	.LFB11:
  27              		.file 1 "../../os/ports/GCC/ARMCMx/chcore_v7m.c"
  28              		.loc 1 200 0
  29              		.cfi_startproc
  30              		@ Naked Function: prologue and epilogue provided by programmer.
  31              		@ args = 0, pretend = 0, frame = 0
  32              		@ frame_needed = 0, uses_anonymous_args = 0
  33              		.loc 1 203 0
  34 0000 FFF7FEFF 		bl	chSchDoReschedule
  35              	.LVL0:
  36              		.loc 1 205 0
  37              	@ 205 "../../os/ports/GCC/ARMCMx/chcore_v7m.c" 1
  38              		_port_exit_from_isr:
  39              	@ 0 "" 2
  40              		.loc 1 207 0
  41              	@ 207 "../../os/ports/GCC/ARMCMx/chcore_v7m.c" 1
  42 0004 00DF     		svc     #0
  43              	@ 0 "" 2
  44              		.loc 1 214 0
  45              		.thumb
  46              		.cfi_endproc
  47              	.LFE11:
  48              		.size	_port_switch_from_isr, .-_port_switch_from_isr
  49 0006 00BFAFF3 		.section	.text.SVCallVector,"ax",%progbits
  49      0080AFF3 
  49      0080
  50              		.align	2
  51              		.p2align 4,,15
  52              		.global	SVCallVector
  53              		.thumb
  54              		.thumb_func
  55              		.type	SVCallVector, %function
ARM GAS  /tmp/ccjNhGDP.s 			page 2


  56              	SVCallVector:
  57              	.LFB8:
  58              		.loc 1 58 0
  59              		.cfi_startproc
  60              		@ args = 0, pretend = 0, frame = 0
  61              		@ frame_needed = 0, uses_anonymous_args = 0
  62              		@ link register save eliminated.
  63              		.loc 1 62 0
  64              	@ 62 "../../os/ports/GCC/ARMCMx/chcore_v7m.c" 1
  65 0000 EFF30983 		mrs     r3, PSP
  66              	@ 0 "" 2
  67              	.LVL1:
  68              		.loc 1 66 0
  69              		.thumb
  70 0004 2033     		adds	r3, r3, #32
  71              	.LVL2:
  72              		.loc 1 73 0
  73              	@ 73 "../../os/ports/GCC/ARMCMx/chcore_v7m.c" 1
  74 0006 83F30988 		msr     PSP, r3
  75              	@ 0 "" 2
  76              		.thumb
  77              	.LBB2:
  78              		.loc 1 74 0
  79 000a 0023     		movs	r3, #0
  80              	.LVL3:
  81              	@ 74 "../../os/ports/GCC/ARMCMx/chcore_v7m.c" 1
  82 000c 83F31188 		msr     BASEPRI, r3
  83              	@ 0 "" 2
  84              		.thumb
  85 0010 7047     		bx	lr
  86              	.LBE2:
  87              		.cfi_endproc
  88              	.LFE8:
  89              		.size	SVCallVector, .-SVCallVector
  90 0012 00BFAFF3 		.section	.text._port_init,"ax",%progbits
  90      0080AFF3 
  90      0080AFF3 
  90      0080
  91              		.align	2
  92              		.p2align 4,,15
  93              		.global	_port_init
  94              		.thumb
  95              		.thumb_func
  96              		.type	_port_init, %function
  97              	_port_init:
  98              	.LFB9:
  99              		.loc 1 111 0
 100              		.cfi_startproc
 101              		@ args = 0, pretend = 0, frame = 0
 102              		@ frame_needed = 0, uses_anonymous_args = 0
 103 0000 08B5     		push	{r3, lr}
 104              		.cfi_def_cfa_offset 8
 105              		.cfi_offset 3, -8
 106              		.cfi_offset 14, -4
 107              		.loc 1 114 0
 108 0002 094B     		ldr	r3, .L4
 109              		.loc 1 115 0
ARM GAS  /tmp/ccjNhGDP.s 			page 3


 110 0004 094A     		ldr	r2, .L4+4
 111              		.loc 1 114 0
 112 0006 0021     		movs	r1, #0
 113 0008 9960     		str	r1, [r3, #8]
 114              		.loc 1 118 0
 115 000a 0720     		movs	r0, #7
 116              		.loc 1 115 0
 117 000c DA60     		str	r2, [r3, #12]
 118              		.loc 1 118 0
 119 000e 1021     		movs	r1, #16
 120 0010 FFF7FEFF 		bl	nvicSetSystemHandlerPriority
 121              	.LVL4:
 122              		.loc 1 120 0
 123 0014 0A20     		movs	r0, #10
 124 0016 2021     		movs	r1, #32
 125 0018 FFF7FEFF 		bl	nvicSetSystemHandlerPriority
 126              	.LVL5:
 127              		.loc 1 122 0
 128 001c 0B20     		movs	r0, #11
 129 001e 8021     		movs	r1, #128
 130              		.loc 1 124 0
 131 0020 BDE80840 		pop	{r3, lr}
 132              		.loc 1 122 0
 133 0024 FFF7FEBF 		b	nvicSetSystemHandlerPriority
 134              	.LVL6:
 135              	.L5:
 136              		.align	2
 137              	.L4:
 138 0028 00ED00E0 		.word	-536810240
 139 002c 0003FA05 		.word	100270848
 140              		.cfi_endproc
 141              	.LFE9:
 142              		.size	_port_init, .-_port_init
 143              		.section	.text._port_irq_epilogue,"ax",%progbits
 144              		.align	2
 145              		.p2align 4,,15
 146              		.global	_port_irq_epilogue
 147              		.thumb
 148              		.thumb_func
 149              		.type	_port_irq_epilogue, %function
 150              	_port_irq_epilogue:
 151              	.LFB10:
 152              		.loc 1 141 0
 153              		.cfi_startproc
 154              		@ args = 0, pretend = 0, frame = 0
 155              		@ frame_needed = 0, uses_anonymous_args = 0
 156              		@ link register save eliminated.
 157              	.LBB3:
 158              		.loc 1 143 0
 159 0000 2023     		movs	r3, #32
 160              	@ 143 "../../os/ports/GCC/ARMCMx/chcore_v7m.c" 1
 161 0002 83F31188 		msr     BASEPRI, r3
 162              	@ 0 "" 2
 163              		.thumb
 164              	.LBE3:
 165              		.loc 1 144 0
 166 0006 164B     		ldr	r3, .L14
ARM GAS  /tmp/ccjNhGDP.s 			page 4


 167 0008 5B68     		ldr	r3, [r3, #4]
 168 000a 13F40063 		ands	r3, r3, #2048
 169 000e 19D0     		beq	.L7
 170              	.LBB4:
 171              		.loc 1 148 0
 172              	@ 148 "../../os/ports/GCC/ARMCMx/chcore_v7m.c" 1
 173 0010 EFF30983 		mrs     r3, PSP
 174              	@ 0 "" 2
 175              	.LVL7:
 176              		.loc 1 152 0
 177              		.thumb
 178 0014 A3F12002 		sub	r2, r3, #32
 179              	.LVL8:
 180              		.loc 1 153 0
 181              	@ 153 "../../os/ports/GCC/ARMCMx/chcore_v7m.c" 1
 182 0018 82F30988 		msr     PSP, r2
 183              	@ 0 "" 2
 184              		.loc 1 158 0
 185              		.thumb
 186 001c 1149     		ldr	r1, .L14+4
 187              		.loc 1 154 0
 188 001e 4FF08070 		mov	r0, #16777216
 189              		.loc 1 158 0
 190 0022 8A69     		ldr	r2, [r1, #24]
 191              	.LVL9:
 192              		.loc 1 154 0
 193 0024 43F8040C 		str	r0, [r3, #-4]
 194              		.loc 1 158 0
 195 0028 D07F     		ldrb	r0, [r2, #31]	@ zero_extendqisi2
 196 002a 0968     		ldr	r1, [r1]
 197 002c 9268     		ldr	r2, [r2, #8]
 198 002e 8968     		ldr	r1, [r1, #8]
 199 0030 58B1     		cbz	r0, .L8
 200              		.loc 1 158 0 is_stmt 0 discriminator 1
 201 0032 9142     		cmp	r1, r2
 202 0034 94BF     		ite	ls
 203 0036 0022     		movls	r2, #0
 204 0038 0122     		movhi	r2, #1
 205 003a 62B1     		cbz	r2, .L10
 206              	.L13:
 207              		.loc 1 160 0 is_stmt 1
 208 003c 0A4A     		ldr	r2, .L14+8
 209 003e 43F8082C 		str	r2, [r3, #-8]
 210 0042 7047     		bx	lr
 211              	.LVL10:
 212              	.L7:
 213              	.LBE4:
 214              	.LBB5:
 215              		.loc 1 190 0
 216              	@ 190 "../../os/ports/GCC/ARMCMx/chcore_v7m.c" 1
 217 0044 83F31188 		msr     BASEPRI, r3
 218              	@ 0 "" 2
 219              		.thumb
 220 0048 7047     		bx	lr
 221              	.LVL11:
 222              	.L8:
 223              	.LBE5:
ARM GAS  /tmp/ccjNhGDP.s 			page 5


 224              	.LBB6:
 225              		.loc 1 158 0 discriminator 2
 226 004a 9142     		cmp	r1, r2
 227 004c 34BF     		ite	cc
 228 004e 0022     		movcc	r2, #0
 229 0050 0122     		movcs	r2, #1
 230 0052 002A     		cmp	r2, #0
 231 0054 F2D1     		bne	.L13
 232              	.L10:
 233              		.loc 1 169 0
 234 0056 054A     		ldr	r2, .L14+12
 235 0058 43F8082C 		str	r2, [r3, #-8]
 236 005c 7047     		bx	lr
 237              	.L15:
 238 005e 00BF     		.align	2
 239              	.L14:
 240 0060 00ED00E0 		.word	-536810240
 241 0064 00000000 		.word	rlist
 242 0068 00000000 		.word	_port_switch_from_isr
 243 006c 04000000 		.word	_port_exit_from_isr
 244              	.LBE6:
 245              		.cfi_endproc
 246              	.LFE10:
 247              		.size	_port_irq_epilogue, .-_port_irq_epilogue
 248              		.section	.text.SysTickVector,"ax",%progbits
 249              		.align	2
 250              		.p2align 4,,15
 251              		.global	SysTickVector
 252              		.thumb
 253              		.thumb_func
 254              		.type	SysTickVector, %function
 255              	SysTickVector:
 256              	.LFB7:
 257              		.loc 1 40 0
 258              		.cfi_startproc
 259              		@ args = 0, pretend = 0, frame = 0
 260              		@ frame_needed = 0, uses_anonymous_args = 0
 261 0000 08B5     		push	{r3, lr}
 262              		.cfi_def_cfa_offset 8
 263              		.cfi_offset 3, -8
 264              		.cfi_offset 14, -4
 265              	.LBB7:
 266              		.loc 1 44 0
 267 0002 2023     		movs	r3, #32
 268              	@ 44 "../../os/ports/GCC/ARMCMx/chcore_v7m.c" 1
 269 0004 83F31188 		msr     BASEPRI, r3
 270              	@ 0 "" 2
 271              		.thumb
 272              	.LBE7:
 273              		.loc 1 45 0
 274 0008 FFF7FEFF 		bl	chSysTimerHandlerI
 275              	.LVL12:
 276              	.LBB8:
 277              		.loc 1 46 0
 278 000c 0023     		movs	r3, #0
 279              	@ 46 "../../os/ports/GCC/ARMCMx/chcore_v7m.c" 1
 280 000e 83F31188 		msr     BASEPRI, r3
ARM GAS  /tmp/ccjNhGDP.s 			page 6


 281              	@ 0 "" 2
 282              		.thumb
 283              	.LBE8:
 284              		.loc 1 49 0
 285 0012 BDE80840 		pop	{r3, lr}
 286              		.loc 1 48 0
 287 0016 FFF7FEBF 		b	_port_irq_epilogue
 288              	.LVL13:
 289              		.cfi_endproc
 290              	.LFE7:
 291              		.size	SysTickVector, .-SysTickVector
 292 001a 00BFAFF3 		.section	.text._port_switch,"ax",%progbits
 292      0080
 293              		.align	2
 294              		.p2align 4,,15
 295              		.global	_port_switch
 296              		.thumb
 297              		.thumb_func
 298              		.type	_port_switch, %function
 299              	_port_switch:
 300              	.LFB12:
 301              		.loc 1 229 0
 302              		.cfi_startproc
 303              		@ Naked Function: prologue and epilogue provided by programmer.
 304              		@ args = 0, pretend = 0, frame = 0
 305              		@ frame_needed = 0, uses_anonymous_args = 0
 306              	.LVL14:
 307              		.loc 1 231 0
 308              	@ 231 "../../os/ports/GCC/ARMCMx/chcore_v7m.c" 1
 309 0000 2DE9F04F 		push    {r4, r5, r6, r7, r8, r9, r10, r11, lr}
 310              	@ 0 "" 2
 311              		.loc 1 237 0
 312              	@ 237 "../../os/ports/GCC/ARMCMx/chcore_v7m.c" 1
 313 0004 C1F80CD0 		str     sp, [r1, #12]                          
 314 0008 D0F80CD0 		ldr     sp, [r0, #12]
 315              	@ 0 "" 2
 316              		.loc 1 243 0
 317              	@ 243 "../../os/ports/GCC/ARMCMx/chcore_v7m.c" 1
 318 000c BDE8F08F 		pop     {r4, r5, r6, r7, r8, r9, r10, r11, pc}
 319              	@ 0 "" 2
 320              		.loc 1 245 0
 321              		.thumb
 322              		.cfi_endproc
 323              	.LFE12:
 324              		.size	_port_switch, .-_port_switch
 325              		.section	.text._port_thread_start,"ax",%progbits
 326              		.align	2
 327              		.p2align 4,,15
 328              		.global	_port_thread_start
 329              		.thumb
 330              		.thumb_func
 331              		.type	_port_thread_start, %function
 332              	_port_thread_start:
 333              	.LFB13:
 334              		.loc 1 252 0
 335              		.cfi_startproc
 336              		@ args = 0, pretend = 0, frame = 0
ARM GAS  /tmp/ccjNhGDP.s 			page 7


 337              		@ frame_needed = 0, uses_anonymous_args = 0
 338              		@ link register save eliminated.
 339              	.LBB9:
 340              		.loc 1 254 0
 341 0000 0023     		movs	r3, #0
 342              	@ 254 "../../os/ports/GCC/ARMCMx/chcore_v7m.c" 1
 343 0002 83F31188 		msr     BASEPRI, r3
 344              	@ 0 "" 2
 345              		.thumb
 346              	.LBE9:
 347              		.loc 1 255 0
 348              	@ 255 "../../os/ports/GCC/ARMCMx/chcore_v7m.c" 1
 349 0006 2846     		mov     r0, r5                                 
 350 0008 A047     		blx     r4                                     
 351 000a FFF7FEFF 		bl      chThdExit
 352              	@ 0 "" 2
 353              		.thumb
 354 000e 7047     		bx	lr
 355              		.cfi_endproc
 356              	.LFE13:
 357              		.size	_port_thread_start, .-_port_thread_start
 358              		.text
 359              	.Letext0:
 360              		.file 2 "/usr/arm-none-eabi/include/stdint.h"
 361              		.file 3 "../../os/ports/GCC/ARMCMx/chtypes.h"
 362              		.file 4 "../../os/kernel/include/chlists.h"
 363              		.file 5 "../../os/kernel/include/chthreads.h"
 364              		.file 6 "../../os/ports/GCC/ARMCMx/chcore_v7m.h"
 365              		.file 7 "../../os/ports/common/ARMCMx/nvic.h"
 366              		.file 8 "../../os/kernel/include/chschd.h"
 367              		.file 9 "../../os/kernel/include/chmtx.h"
 368              		.file 10 "../../os/kernel/include/chsys.h"
 369              		.section	.debug_info,"",%progbits
 370              	.Ldebug_info0:
 371 0000 CD070000 		.4byte	0x7cd
 372 0004 0400     		.2byte	0x4
 373 0006 00000000 		.4byte	.Ldebug_abbrev0
 374 000a 04       		.byte	0x4
 375 000b 01       		.uleb128 0x1
 376 000c 60020000 		.4byte	.LASF93
 377 0010 01       		.byte	0x1
 378 0011 E1030000 		.4byte	.LASF94
 379 0015 8F010000 		.4byte	.LASF95
 380 0019 18000000 		.4byte	.Ldebug_ranges0+0x18
 381 001d 00000000 		.4byte	0
 382 0021 00000000 		.4byte	.Ldebug_line0
 383 0025 02       		.uleb128 0x2
 384 0026 04       		.byte	0x4
 385 0027 05       		.byte	0x5
 386 0028 696E7400 		.ascii	"int\000"
 387 002c 03       		.uleb128 0x3
 388 002d 04       		.byte	0x4
 389 002e 07       		.byte	0x7
 390 002f 09010000 		.4byte	.LASF0
 391 0033 03       		.uleb128 0x3
 392 0034 01       		.byte	0x1
 393 0035 06       		.byte	0x6
ARM GAS  /tmp/ccjNhGDP.s 			page 8


 394 0036 71000000 		.4byte	.LASF1
 395 003a 04       		.uleb128 0x4
 396 003b 6B040000 		.4byte	.LASF5
 397 003f 02       		.byte	0x2
 398 0040 2A       		.byte	0x2a
 399 0041 45000000 		.4byte	0x45
 400 0045 03       		.uleb128 0x3
 401 0046 01       		.byte	0x1
 402 0047 08       		.byte	0x8
 403 0048 48030000 		.4byte	.LASF2
 404 004c 03       		.uleb128 0x3
 405 004d 02       		.byte	0x2
 406 004e 05       		.byte	0x5
 407 004f 66030000 		.4byte	.LASF3
 408 0053 03       		.uleb128 0x3
 409 0054 02       		.byte	0x2
 410 0055 07       		.byte	0x7
 411 0056 66010000 		.4byte	.LASF4
 412 005a 04       		.uleb128 0x4
 413 005b 40030000 		.4byte	.LASF6
 414 005f 02       		.byte	0x2
 415 0060 4F       		.byte	0x4f
 416 0061 65000000 		.4byte	0x65
 417 0065 03       		.uleb128 0x3
 418 0066 04       		.byte	0x4
 419 0067 05       		.byte	0x5
 420 0068 97000000 		.4byte	.LASF7
 421 006c 04       		.uleb128 0x4
 422 006d B6030000 		.4byte	.LASF8
 423 0071 02       		.byte	0x2
 424 0072 50       		.byte	0x50
 425 0073 77000000 		.4byte	0x77
 426 0077 03       		.uleb128 0x3
 427 0078 04       		.byte	0x4
 428 0079 07       		.byte	0x7
 429 007a 31010000 		.4byte	.LASF9
 430 007e 03       		.uleb128 0x3
 431 007f 08       		.byte	0x8
 432 0080 05       		.byte	0x5
 433 0081 63000000 		.4byte	.LASF10
 434 0085 03       		.uleb128 0x3
 435 0086 08       		.byte	0x8
 436 0087 07       		.byte	0x7
 437 0088 36000000 		.4byte	.LASF11
 438 008c 03       		.uleb128 0x3
 439 008d 01       		.byte	0x1
 440 008e 02       		.byte	0x2
 441 008f 3A030000 		.4byte	.LASF12
 442 0093 04       		.uleb128 0x4
 443 0094 E3010000 		.4byte	.LASF13
 444 0098 03       		.byte	0x3
 445 0099 25       		.byte	0x25
 446 009a 3A000000 		.4byte	0x3a
 447 009e 04       		.uleb128 0x4
 448 009f A0000000 		.4byte	.LASF14
 449 00a3 03       		.byte	0x3
 450 00a4 26       		.byte	0x26
ARM GAS  /tmp/ccjNhGDP.s 			page 9


 451 00a5 3A000000 		.4byte	0x3a
 452 00a9 04       		.uleb128 0x4
 453 00aa 44020000 		.4byte	.LASF15
 454 00ae 03       		.byte	0x3
 455 00af 27       		.byte	0x27
 456 00b0 3A000000 		.4byte	0x3a
 457 00b4 04       		.uleb128 0x4
 458 00b5 8D000000 		.4byte	.LASF16
 459 00b9 03       		.byte	0x3
 460 00ba 28       		.byte	0x28
 461 00bb 3A000000 		.4byte	0x3a
 462 00bf 04       		.uleb128 0x4
 463 00c0 58020000 		.4byte	.LASF17
 464 00c4 03       		.byte	0x3
 465 00c5 29       		.byte	0x29
 466 00c6 6C000000 		.4byte	0x6c
 467 00ca 04       		.uleb128 0x4
 468 00cb 7E010000 		.4byte	.LASF18
 469 00cf 03       		.byte	0x3
 470 00d0 2A       		.byte	0x2a
 471 00d1 5A000000 		.4byte	0x5a
 472 00d5 04       		.uleb128 0x4
 473 00d6 F7010000 		.4byte	.LASF19
 474 00da 03       		.byte	0x3
 475 00db 2C       		.byte	0x2c
 476 00dc 6C000000 		.4byte	0x6c
 477 00e0 04       		.uleb128 0x4
 478 00e1 0F040000 		.4byte	.LASF20
 479 00e5 03       		.byte	0x3
 480 00e6 2E       		.byte	0x2e
 481 00e7 6C000000 		.4byte	0x6c
 482 00eb 04       		.uleb128 0x4
 483 00ec A4030000 		.4byte	.LASF21
 484 00f0 04       		.byte	0x4
 485 00f1 23       		.byte	0x23
 486 00f2 F6000000 		.4byte	0xf6
 487 00f6 05       		.uleb128 0x5
 488 00f7 A4030000 		.4byte	.LASF21
 489 00fb 48       		.byte	0x48
 490 00fc 05       		.byte	0x5
 491 00fd 57       		.byte	0x57
 492 00fe F3010000 		.4byte	0x1f3
 493 0102 06       		.uleb128 0x6
 494 0103 95030000 		.4byte	.LASF22
 495 0107 05       		.byte	0x5
 496 0108 58       		.byte	0x58
 497 0109 14020000 		.4byte	0x214
 498 010d 00       		.byte	0
 499 010e 06       		.uleb128 0x6
 500 010f 51020000 		.4byte	.LASF23
 501 0113 05       		.byte	0x5
 502 0114 5A       		.byte	0x5a
 503 0115 14020000 		.4byte	0x214
 504 0119 04       		.byte	0x4
 505 011a 06       		.uleb128 0x6
 506 011b 5C000000 		.4byte	.LASF24
 507 011f 05       		.byte	0x5
ARM GAS  /tmp/ccjNhGDP.s 			page 10


 508 0120 5C       		.byte	0x5c
 509 0121 BF000000 		.4byte	0xbf
 510 0125 08       		.byte	0x8
 511 0126 06       		.uleb128 0x6
 512 0127 9F040000 		.4byte	.LASF25
 513 012b 05       		.byte	0x5
 514 012c 5D       		.byte	0x5d
 515 012d 36030000 		.4byte	0x336
 516 0131 0C       		.byte	0xc
 517 0132 06       		.uleb128 0x6
 518 0133 BC000000 		.4byte	.LASF26
 519 0137 05       		.byte	0x5
 520 0138 5F       		.byte	0x5f
 521 0139 14020000 		.4byte	0x214
 522 013d 10       		.byte	0x10
 523 013e 06       		.uleb128 0x6
 524 013f 17020000 		.4byte	.LASF27
 525 0143 05       		.byte	0x5
 526 0144 60       		.byte	0x60
 527 0145 14020000 		.4byte	0x214
 528 0149 14       		.byte	0x14
 529 014a 06       		.uleb128 0x6
 530 014b 85040000 		.4byte	.LASF28
 531 014f 05       		.byte	0x5
 532 0150 67       		.byte	0x67
 533 0151 AF050000 		.4byte	0x5af
 534 0155 18       		.byte	0x18
 535 0156 06       		.uleb128 0x6
 536 0157 70030000 		.4byte	.LASF29
 537 015b 05       		.byte	0x5
 538 015c 72       		.byte	0x72
 539 015d 9E000000 		.4byte	0x9e
 540 0161 1C       		.byte	0x1c
 541 0162 06       		.uleb128 0x6
 542 0163 9C030000 		.4byte	.LASF30
 543 0167 05       		.byte	0x5
 544 0168 76       		.byte	0x76
 545 0169 93000000 		.4byte	0x93
 546 016d 1D       		.byte	0x1d
 547 016e 06       		.uleb128 0x6
 548 016f 4F040000 		.4byte	.LASF31
 549 0173 05       		.byte	0x5
 550 0174 7B       		.byte	0x7b
 551 0175 A9000000 		.4byte	0xa9
 552 0179 1E       		.byte	0x1e
 553 017a 06       		.uleb128 0x6
 554 017b 78030000 		.4byte	.LASF32
 555 017f 05       		.byte	0x5
 556 0180 81       		.byte	0x81
 557 0181 B4000000 		.4byte	0xb4
 558 0185 1F       		.byte	0x1f
 559 0186 06       		.uleb128 0x6
 560 0187 31040000 		.4byte	.LASF33
 561 018b 05       		.byte	0x5
 562 018c 88       		.byte	0x88
 563 018d D7040000 		.4byte	0x4d7
 564 0191 20       		.byte	0x20
ARM GAS  /tmp/ccjNhGDP.s 			page 11


 565 0192 07       		.uleb128 0x7
 566 0193 705F7500 		.ascii	"p_u\000"
 567 0197 05       		.byte	0x5
 568 0198 AD       		.byte	0xad
 569 0199 7A050000 		.4byte	0x57a
 570 019d 24       		.byte	0x24
 571 019e 06       		.uleb128 0x6
 572 019f A5040000 		.4byte	.LASF34
 573 01a3 05       		.byte	0x5
 574 01a4 B2       		.byte	0xb2
 575 01a5 3A020000 		.4byte	0x23a
 576 01a9 28       		.byte	0x28
 577 01aa 06       		.uleb128 0x6
 578 01ab 44040000 		.4byte	.LASF35
 579 01af 05       		.byte	0x5
 580 01b0 B8       		.byte	0xb8
 581 01b1 1A020000 		.4byte	0x21a
 582 01b5 2C       		.byte	0x2c
 583 01b6 06       		.uleb128 0x6
 584 01b7 00000000 		.4byte	.LASF36
 585 01bb 05       		.byte	0x5
 586 01bc BC       		.byte	0xbc
 587 01bd CA000000 		.4byte	0xca
 588 01c1 34       		.byte	0x34
 589 01c2 06       		.uleb128 0x6
 590 01c3 AB030000 		.4byte	.LASF37
 591 01c7 05       		.byte	0x5
 592 01c8 C2       		.byte	0xc2
 593 01c9 D5000000 		.4byte	0xd5
 594 01cd 38       		.byte	0x38
 595 01ce 06       		.uleb128 0x6
 596 01cf 5C030000 		.4byte	.LASF38
 597 01d3 05       		.byte	0x5
 598 01d4 C9       		.byte	0xc9
 599 01d5 C1050000 		.4byte	0x5c1
 600 01d9 3C       		.byte	0x3c
 601 01da 06       		.uleb128 0x6
 602 01db 19040000 		.4byte	.LASF39
 603 01df 05       		.byte	0x5
 604 01e0 CD       		.byte	0xcd
 605 01e1 BF000000 		.4byte	0xbf
 606 01e5 40       		.byte	0x40
 607 01e6 06       		.uleb128 0x6
 608 01e7 7D000000 		.4byte	.LASF40
 609 01eb 05       		.byte	0x5
 610 01ec D3       		.byte	0xd3
 611 01ed 50020000 		.4byte	0x250
 612 01f1 44       		.byte	0x44
 613 01f2 00       		.byte	0
 614 01f3 08       		.uleb128 0x8
 615 01f4 08       		.byte	0x8
 616 01f5 04       		.byte	0x4
 617 01f6 5A       		.byte	0x5a
 618 01f7 14020000 		.4byte	0x214
 619 01fb 06       		.uleb128 0x6
 620 01fc 95030000 		.4byte	.LASF22
 621 0200 04       		.byte	0x4
ARM GAS  /tmp/ccjNhGDP.s 			page 12


 622 0201 5B       		.byte	0x5b
 623 0202 14020000 		.4byte	0x214
 624 0206 00       		.byte	0
 625 0207 06       		.uleb128 0x6
 626 0208 51020000 		.4byte	.LASF23
 627 020c 04       		.byte	0x4
 628 020d 5D       		.byte	0x5d
 629 020e 14020000 		.4byte	0x214
 630 0212 04       		.byte	0x4
 631 0213 00       		.byte	0
 632 0214 09       		.uleb128 0x9
 633 0215 04       		.byte	0x4
 634 0216 EB000000 		.4byte	0xeb
 635 021a 04       		.uleb128 0x4
 636 021b 25020000 		.4byte	.LASF41
 637 021f 04       		.byte	0x4
 638 0220 5F       		.byte	0x5f
 639 0221 F3010000 		.4byte	0x1f3
 640 0225 08       		.uleb128 0x8
 641 0226 04       		.byte	0x4
 642 0227 04       		.byte	0x4
 643 0228 64       		.byte	0x64
 644 0229 3A020000 		.4byte	0x23a
 645 022d 06       		.uleb128 0x6
 646 022e 95030000 		.4byte	.LASF22
 647 0232 04       		.byte	0x4
 648 0233 66       		.byte	0x66
 649 0234 14020000 		.4byte	0x214
 650 0238 00       		.byte	0
 651 0239 00       		.byte	0
 652 023a 04       		.uleb128 0x4
 653 023b EB010000 		.4byte	.LASF42
 654 023f 04       		.byte	0x4
 655 0240 69       		.byte	0x69
 656 0241 25020000 		.4byte	0x225
 657 0245 04       		.uleb128 0x4
 658 0246 EE000000 		.4byte	.LASF43
 659 024a 06       		.byte	0x6
 660 024b DE       		.byte	0xde
 661 024c 50020000 		.4byte	0x250
 662 0250 0A       		.uleb128 0xa
 663 0251 04       		.byte	0x4
 664 0252 05       		.uleb128 0x5
 665 0253 1D010000 		.4byte	.LASF44
 666 0257 20       		.byte	0x20
 667 0258 06       		.byte	0x6
 668 0259 E6       		.byte	0xe6
 669 025a BA020000 		.4byte	0x2ba
 670 025e 07       		.uleb128 0x7
 671 025f 723000   		.ascii	"r0\000"
 672 0262 06       		.byte	0x6
 673 0263 E7       		.byte	0xe7
 674 0264 45020000 		.4byte	0x245
 675 0268 00       		.byte	0
 676 0269 07       		.uleb128 0x7
 677 026a 723100   		.ascii	"r1\000"
 678 026d 06       		.byte	0x6
ARM GAS  /tmp/ccjNhGDP.s 			page 13


 679 026e E8       		.byte	0xe8
 680 026f 45020000 		.4byte	0x245
 681 0273 04       		.byte	0x4
 682 0274 07       		.uleb128 0x7
 683 0275 723200   		.ascii	"r2\000"
 684 0278 06       		.byte	0x6
 685 0279 E9       		.byte	0xe9
 686 027a 45020000 		.4byte	0x245
 687 027e 08       		.byte	0x8
 688 027f 07       		.uleb128 0x7
 689 0280 723300   		.ascii	"r3\000"
 690 0283 06       		.byte	0x6
 691 0284 EA       		.byte	0xea
 692 0285 45020000 		.4byte	0x245
 693 0289 0C       		.byte	0xc
 694 028a 07       		.uleb128 0x7
 695 028b 72313200 		.ascii	"r12\000"
 696 028f 06       		.byte	0x6
 697 0290 EB       		.byte	0xeb
 698 0291 45020000 		.4byte	0x245
 699 0295 10       		.byte	0x10
 700 0296 06       		.uleb128 0x6
 701 0297 16010000 		.4byte	.LASF45
 702 029b 06       		.byte	0x6
 703 029c EC       		.byte	0xec
 704 029d 45020000 		.4byte	0x245
 705 02a1 14       		.byte	0x14
 706 02a2 07       		.uleb128 0x7
 707 02a3 706300   		.ascii	"pc\000"
 708 02a6 06       		.byte	0x6
 709 02a7 ED       		.byte	0xed
 710 02a8 45020000 		.4byte	0x245
 711 02ac 18       		.byte	0x18
 712 02ad 06       		.uleb128 0x6
 713 02ae 82030000 		.4byte	.LASF46
 714 02b2 06       		.byte	0x6
 715 02b3 EE       		.byte	0xee
 716 02b4 45020000 		.4byte	0x245
 717 02b8 1C       		.byte	0x1c
 718 02b9 00       		.byte	0
 719 02ba 0B       		.uleb128 0xb
 720 02bb 3D040000 		.4byte	.LASF47
 721 02bf 24       		.byte	0x24
 722 02c0 06       		.byte	0x6
 723 02c1 0501     		.2byte	0x105
 724 02c3 36030000 		.4byte	0x336
 725 02c7 0C       		.uleb128 0xc
 726 02c8 723400   		.ascii	"r4\000"
 727 02cb 06       		.byte	0x6
 728 02cc 1801     		.2byte	0x118
 729 02ce 45020000 		.4byte	0x245
 730 02d2 00       		.byte	0
 731 02d3 0C       		.uleb128 0xc
 732 02d4 723500   		.ascii	"r5\000"
 733 02d7 06       		.byte	0x6
 734 02d8 1901     		.2byte	0x119
 735 02da 45020000 		.4byte	0x245
ARM GAS  /tmp/ccjNhGDP.s 			page 14


 736 02de 04       		.byte	0x4
 737 02df 0C       		.uleb128 0xc
 738 02e0 723600   		.ascii	"r6\000"
 739 02e3 06       		.byte	0x6
 740 02e4 1A01     		.2byte	0x11a
 741 02e6 45020000 		.4byte	0x245
 742 02ea 08       		.byte	0x8
 743 02eb 0C       		.uleb128 0xc
 744 02ec 723700   		.ascii	"r7\000"
 745 02ef 06       		.byte	0x6
 746 02f0 1B01     		.2byte	0x11b
 747 02f2 45020000 		.4byte	0x245
 748 02f6 0C       		.byte	0xc
 749 02f7 0C       		.uleb128 0xc
 750 02f8 723800   		.ascii	"r8\000"
 751 02fb 06       		.byte	0x6
 752 02fc 1C01     		.2byte	0x11c
 753 02fe 45020000 		.4byte	0x245
 754 0302 10       		.byte	0x10
 755 0303 0C       		.uleb128 0xc
 756 0304 723900   		.ascii	"r9\000"
 757 0307 06       		.byte	0x6
 758 0308 1D01     		.2byte	0x11d
 759 030a 45020000 		.4byte	0x245
 760 030e 14       		.byte	0x14
 761 030f 0C       		.uleb128 0xc
 762 0310 72313000 		.ascii	"r10\000"
 763 0314 06       		.byte	0x6
 764 0315 1E01     		.2byte	0x11e
 765 0317 45020000 		.4byte	0x245
 766 031b 18       		.byte	0x18
 767 031c 0C       		.uleb128 0xc
 768 031d 72313100 		.ascii	"r11\000"
 769 0321 06       		.byte	0x6
 770 0322 1F01     		.2byte	0x11f
 771 0324 45020000 		.4byte	0x245
 772 0328 1C       		.byte	0x1c
 773 0329 0C       		.uleb128 0xc
 774 032a 6C7200   		.ascii	"lr\000"
 775 032d 06       		.byte	0x6
 776 032e 2001     		.2byte	0x120
 777 0330 45020000 		.4byte	0x245
 778 0334 20       		.byte	0x20
 779 0335 00       		.byte	0
 780 0336 0B       		.uleb128 0xb
 781 0337 5E010000 		.4byte	.LASF48
 782 033b 04       		.byte	0x4
 783 033c 06       		.byte	0x6
 784 033d 2A01     		.2byte	0x12a
 785 033f 51030000 		.4byte	0x351
 786 0343 0C       		.uleb128 0xc
 787 0344 72313300 		.ascii	"r13\000"
 788 0348 06       		.byte	0x6
 789 0349 2B01     		.2byte	0x12b
 790 034b 51030000 		.4byte	0x351
 791 034f 00       		.byte	0
 792 0350 00       		.byte	0
ARM GAS  /tmp/ccjNhGDP.s 			page 15


 793 0351 09       		.uleb128 0x9
 794 0352 04       		.byte	0x4
 795 0353 BA020000 		.4byte	0x2ba
 796 0357 04       		.uleb128 0x4
 797 0358 D9030000 		.4byte	.LASF49
 798 035c 07       		.byte	0x7
 799 035d 33       		.byte	0x33
 800 035e 62030000 		.4byte	0x362
 801 0362 0D       		.uleb128 0xd
 802 0363 6C000000 		.4byte	0x6c
 803 0367 03       		.uleb128 0x3
 804 0368 04       		.byte	0x4
 805 0369 07       		.byte	0x7
 806 036a 09020000 		.4byte	.LASF50
 807 036e 08       		.uleb128 0x8
 808 036f 8C       		.byte	0x8c
 809 0370 07       		.byte	0x7
 810 0371 82       		.byte	0x82
 811 0372 73040000 		.4byte	0x473
 812 0376 06       		.uleb128 0x6
 813 0377 56000000 		.4byte	.LASF51
 814 037b 07       		.byte	0x7
 815 037c 83       		.byte	0x83
 816 037d 57030000 		.4byte	0x357
 817 0381 00       		.byte	0
 818 0382 06       		.uleb128 0x6
 819 0383 79010000 		.4byte	.LASF52
 820 0387 07       		.byte	0x7
 821 0388 84       		.byte	0x84
 822 0389 57030000 		.4byte	0x357
 823 038d 04       		.byte	0x4
 824 038e 06       		.uleb128 0x6
 825 038f 43010000 		.4byte	.LASF53
 826 0393 07       		.byte	0x7
 827 0394 85       		.byte	0x85
 828 0395 57030000 		.4byte	0x357
 829 0399 08       		.byte	0x8
 830 039a 06       		.uleb128 0x6
 831 039b 84010000 		.4byte	.LASF54
 832 039f 07       		.byte	0x7
 833 03a0 86       		.byte	0x86
 834 03a1 57030000 		.4byte	0x357
 835 03a5 0C       		.byte	0xc
 836 03a6 07       		.uleb128 0x7
 837 03a7 53435200 		.ascii	"SCR\000"
 838 03ab 07       		.byte	0x7
 839 03ac 87       		.byte	0x87
 840 03ad 57030000 		.4byte	0x357
 841 03b1 10       		.byte	0x10
 842 03b2 07       		.uleb128 0x7
 843 03b3 43435200 		.ascii	"CCR\000"
 844 03b7 07       		.byte	0x7
 845 03b8 88       		.byte	0x88
 846 03b9 57030000 		.4byte	0x357
 847 03bd 14       		.byte	0x14
 848 03be 06       		.uleb128 0x6
 849 03bf 38040000 		.4byte	.LASF55
ARM GAS  /tmp/ccjNhGDP.s 			page 16


 850 03c3 07       		.byte	0x7
 851 03c4 89       		.byte	0x89
 852 03c5 83040000 		.4byte	0x483
 853 03c9 18       		.byte	0x18
 854 03ca 06       		.uleb128 0x6
 855 03cb 56030000 		.4byte	.LASF56
 856 03cf 07       		.byte	0x7
 857 03d0 8A       		.byte	0x8a
 858 03d1 57030000 		.4byte	0x357
 859 03d5 24       		.byte	0x24
 860 03d6 06       		.uleb128 0x6
 861 03d7 12020000 		.4byte	.LASF57
 862 03db 07       		.byte	0x7
 863 03dc 8B       		.byte	0x8b
 864 03dd 57030000 		.4byte	0x357
 865 03e1 28       		.byte	0x28
 866 03e2 06       		.uleb128 0x6
 867 03e3 92040000 		.4byte	.LASF58
 868 03e7 07       		.byte	0x7
 869 03e8 8C       		.byte	0x8c
 870 03e9 57030000 		.4byte	0x357
 871 03ed 2C       		.byte	0x2c
 872 03ee 06       		.uleb128 0x6
 873 03ef 8A010000 		.4byte	.LASF59
 874 03f3 07       		.byte	0x7
 875 03f4 8D       		.byte	0x8d
 876 03f5 57030000 		.4byte	0x357
 877 03f9 30       		.byte	0x30
 878 03fa 06       		.uleb128 0x6
 879 03fb CA010000 		.4byte	.LASF60
 880 03ff 07       		.byte	0x7
 881 0400 8E       		.byte	0x8e
 882 0401 57030000 		.4byte	0x357
 883 0405 34       		.byte	0x34
 884 0406 06       		.uleb128 0x6
 885 0407 C4000000 		.4byte	.LASF61
 886 040b 07       		.byte	0x7
 887 040c 8F       		.byte	0x8f
 888 040d 57030000 		.4byte	0x357
 889 0411 38       		.byte	0x38
 890 0412 06       		.uleb128 0x6
 891 0413 C7030000 		.4byte	.LASF62
 892 0417 07       		.byte	0x7
 893 0418 90       		.byte	0x90
 894 0419 57030000 		.4byte	0x357
 895 041d 3C       		.byte	0x3c
 896 041e 07       		.uleb128 0x7
 897 041f 50465200 		.ascii	"PFR\000"
 898 0423 07       		.byte	0x7
 899 0424 91       		.byte	0x91
 900 0425 98040000 		.4byte	0x498
 901 0429 40       		.byte	0x40
 902 042a 07       		.uleb128 0x7
 903 042b 44465200 		.ascii	"DFR\000"
 904 042f 07       		.byte	0x7
 905 0430 92       		.byte	0x92
 906 0431 57030000 		.4byte	0x357
ARM GAS  /tmp/ccjNhGDP.s 			page 17


 907 0435 48       		.byte	0x48
 908 0436 07       		.uleb128 0x7
 909 0437 41445200 		.ascii	"ADR\000"
 910 043b 07       		.byte	0x7
 911 043c 93       		.byte	0x93
 912 043d 57030000 		.4byte	0x357
 913 0441 4C       		.byte	0x4c
 914 0442 06       		.uleb128 0x6
 915 0443 60040000 		.4byte	.LASF63
 916 0447 07       		.byte	0x7
 917 0448 94       		.byte	0x94
 918 0449 AD040000 		.4byte	0x4ad
 919 044d 50       		.byte	0x50
 920 044e 07       		.uleb128 0x7
 921 044f 53415200 		.ascii	"SAR\000"
 922 0453 07       		.byte	0x7
 923 0454 95       		.byte	0x95
 924 0455 C2040000 		.4byte	0x4c2
 925 0459 60       		.byte	0x60
 926 045a 06       		.uleb128 0x6
 927 045b CC030000 		.4byte	.LASF64
 928 045f 07       		.byte	0x7
 929 0460 96       		.byte	0x96
 930 0461 C7040000 		.4byte	0x4c7
 931 0465 74       		.byte	0x74
 932 0466 06       		.uleb128 0x6
 933 0467 8C040000 		.4byte	.LASF65
 934 046b 07       		.byte	0x7
 935 046c 97       		.byte	0x97
 936 046d 57030000 		.4byte	0x357
 937 0471 88       		.byte	0x88
 938 0472 00       		.byte	0
 939 0473 0E       		.uleb128 0xe
 940 0474 57030000 		.4byte	0x357
 941 0478 83040000 		.4byte	0x483
 942 047c 0F       		.uleb128 0xf
 943 047d 67030000 		.4byte	0x367
 944 0481 02       		.byte	0x2
 945 0482 00       		.byte	0
 946 0483 0D       		.uleb128 0xd
 947 0484 73040000 		.4byte	0x473
 948 0488 0E       		.uleb128 0xe
 949 0489 57030000 		.4byte	0x357
 950 048d 98040000 		.4byte	0x498
 951 0491 0F       		.uleb128 0xf
 952 0492 67030000 		.4byte	0x367
 953 0496 01       		.byte	0x1
 954 0497 00       		.byte	0
 955 0498 0D       		.uleb128 0xd
 956 0499 88040000 		.4byte	0x488
 957 049d 0E       		.uleb128 0xe
 958 049e 57030000 		.4byte	0x357
 959 04a2 AD040000 		.4byte	0x4ad
 960 04a6 0F       		.uleb128 0xf
 961 04a7 67030000 		.4byte	0x367
 962 04ab 03       		.byte	0x3
 963 04ac 00       		.byte	0
ARM GAS  /tmp/ccjNhGDP.s 			page 18


 964 04ad 0D       		.uleb128 0xd
 965 04ae 9D040000 		.4byte	0x49d
 966 04b2 0E       		.uleb128 0xe
 967 04b3 57030000 		.4byte	0x357
 968 04b7 C2040000 		.4byte	0x4c2
 969 04bb 0F       		.uleb128 0xf
 970 04bc 67030000 		.4byte	0x367
 971 04c0 04       		.byte	0x4
 972 04c1 00       		.byte	0
 973 04c2 0D       		.uleb128 0xd
 974 04c3 B2040000 		.4byte	0x4b2
 975 04c7 0D       		.uleb128 0xd
 976 04c8 B2040000 		.4byte	0x4b2
 977 04cc 04       		.uleb128 0x4
 978 04cd 0D000000 		.4byte	.LASF66
 979 04d1 07       		.byte	0x7
 980 04d2 98       		.byte	0x98
 981 04d3 6E030000 		.4byte	0x36e
 982 04d7 0D       		.uleb128 0xd
 983 04d8 E0000000 		.4byte	0xe0
 984 04dc 08       		.uleb128 0x8
 985 04dd 1C       		.byte	0x1c
 986 04de 08       		.byte	0x8
 987 04df 57       		.byte	0x57
 988 04e0 2D050000 		.4byte	0x52d
 989 04e4 06       		.uleb128 0x6
 990 04e5 BF030000 		.4byte	.LASF67
 991 04e9 08       		.byte	0x8
 992 04ea 58       		.byte	0x58
 993 04eb 1A020000 		.4byte	0x21a
 994 04ef 00       		.byte	0
 995 04f0 06       		.uleb128 0x6
 996 04f1 87030000 		.4byte	.LASF68
 997 04f5 08       		.byte	0x8
 998 04f6 59       		.byte	0x59
 999 04f7 BF000000 		.4byte	0xbf
 1000 04fb 08       		.byte	0x8
 1001 04fc 06       		.uleb128 0x6
 1002 04fd 1F020000 		.4byte	.LASF69
 1003 0501 08       		.byte	0x8
 1004 0502 5B       		.byte	0x5b
 1005 0503 36030000 		.4byte	0x336
 1006 0507 0C       		.byte	0xc
 1007 0508 06       		.uleb128 0x6
 1008 0509 C9000000 		.4byte	.LASF70
 1009 050d 08       		.byte	0x8
 1010 050e 5E       		.byte	0x5e
 1011 050f 14020000 		.4byte	0x214
 1012 0513 10       		.byte	0x10
 1013 0514 06       		.uleb128 0x6
 1014 0515 3C020000 		.4byte	.LASF71
 1015 0519 08       		.byte	0x8
 1016 051a 5F       		.byte	0x5f
 1017 051b 14020000 		.4byte	0x214
 1018 051f 14       		.byte	0x14
 1019 0520 06       		.uleb128 0x6
 1020 0521 32020000 		.4byte	.LASF72
ARM GAS  /tmp/ccjNhGDP.s 			page 19


 1021 0525 08       		.byte	0x8
 1022 0526 62       		.byte	0x62
 1023 0527 14020000 		.4byte	0x214
 1024 052b 18       		.byte	0x18
 1025 052c 00       		.byte	0
 1026 052d 04       		.uleb128 0x4
 1027 052e 56040000 		.4byte	.LASF73
 1028 0532 08       		.byte	0x8
 1029 0533 64       		.byte	0x64
 1030 0534 DC040000 		.4byte	0x4dc
 1031 0538 05       		.uleb128 0x5
 1032 0539 03020000 		.4byte	.LASF74
 1033 053d 10       		.byte	0x10
 1034 053e 09       		.byte	0x9
 1035 053f 25       		.byte	0x25
 1036 0540 69050000 		.4byte	0x569
 1037 0544 06       		.uleb128 0x6
 1038 0545 85000000 		.4byte	.LASF75
 1039 0549 09       		.byte	0x9
 1040 054a 26       		.byte	0x26
 1041 054b 1A020000 		.4byte	0x21a
 1042 054f 00       		.byte	0
 1043 0550 06       		.uleb128 0x6
 1044 0551 97040000 		.4byte	.LASF76
 1045 0555 09       		.byte	0x9
 1046 0556 28       		.byte	0x28
 1047 0557 14020000 		.4byte	0x214
 1048 055b 08       		.byte	0x8
 1049 055c 06       		.uleb128 0x6
 1050 055d 08040000 		.4byte	.LASF77
 1051 0561 09       		.byte	0x9
 1052 0562 2A       		.byte	0x2a
 1053 0563 69050000 		.4byte	0x569
 1054 0567 0C       		.byte	0xc
 1055 0568 00       		.byte	0
 1056 0569 09       		.uleb128 0x9
 1057 056a 04       		.byte	0x4
 1058 056b 38050000 		.4byte	0x538
 1059 056f 04       		.uleb128 0x4
 1060 0570 03020000 		.4byte	.LASF74
 1061 0574 09       		.byte	0x9
 1062 0575 2C       		.byte	0x2c
 1063 0576 38050000 		.4byte	0x538
 1064 057a 10       		.uleb128 0x10
 1065 057b 04       		.byte	0x4
 1066 057c 05       		.byte	0x5
 1067 057d 8F       		.byte	0x8f
 1068 057e AF050000 		.4byte	0x5af
 1069 0582 11       		.uleb128 0x11
 1070 0583 06000000 		.4byte	.LASF78
 1071 0587 05       		.byte	0x5
 1072 0588 96       		.byte	0x96
 1073 0589 CA000000 		.4byte	0xca
 1074 058d 11       		.uleb128 0x11
 1075 058e 4D000000 		.4byte	.LASF79
 1076 0592 05       		.byte	0x5
 1077 0593 9D       		.byte	0x9d
ARM GAS  /tmp/ccjNhGDP.s 			page 20


 1078 0594 CA000000 		.4byte	0xca
 1079 0598 11       		.uleb128 0x11
 1080 0599 7E040000 		.4byte	.LASF80
 1081 059d 05       		.byte	0x5
 1082 059e A4       		.byte	0xa4
 1083 059f 50020000 		.4byte	0x250
 1084 05a3 11       		.uleb128 0x11
 1085 05a4 8E030000 		.4byte	.LASF81
 1086 05a8 05       		.byte	0x5
 1087 05a9 AB       		.byte	0xab
 1088 05aa D5000000 		.4byte	0xd5
 1089 05ae 00       		.byte	0
 1090 05af 09       		.uleb128 0x9
 1091 05b0 04       		.byte	0x4
 1092 05b1 B5050000 		.4byte	0x5b5
 1093 05b5 12       		.uleb128 0x12
 1094 05b6 BA050000 		.4byte	0x5ba
 1095 05ba 03       		.uleb128 0x3
 1096 05bb 01       		.byte	0x1
 1097 05bc 08       		.byte	0x8
 1098 05bd D4030000 		.4byte	.LASF82
 1099 05c1 09       		.uleb128 0x9
 1100 05c2 04       		.byte	0x4
 1101 05c3 6F050000 		.4byte	0x56f
 1102 05c7 13       		.uleb128 0x13
 1103 05c8 48010000 		.4byte	.LASF83
 1104 05cc 01       		.byte	0x1
 1105 05cd C8       		.byte	0xc8
 1106 05ce 00000000 		.4byte	.LFB11
 1107 05d2 06000000 		.4byte	.LFE11-.LFB11
 1108 05d6 01       		.uleb128 0x1
 1109 05d7 9C       		.byte	0x9c
 1110 05d8 E6050000 		.4byte	0x5e6
 1111 05dc 14       		.uleb128 0x14
 1112 05dd 04000000 		.4byte	.LVL0
 1113 05e1 AB070000 		.4byte	0x7ab
 1114 05e5 00       		.byte	0
 1115 05e6 13       		.uleb128 0x13
 1116 05e7 24040000 		.4byte	.LASF84
 1117 05eb 01       		.byte	0x1
 1118 05ec 3A       		.byte	0x3a
 1119 05ed 00000000 		.4byte	.LFB8
 1120 05f1 12000000 		.4byte	.LFE8-.LFB8
 1121 05f5 01       		.uleb128 0x1
 1122 05f6 9C       		.byte	0x9c
 1123 05f7 22060000 		.4byte	0x622
 1124 05fb 15       		.uleb128 0x15
 1125 05fc 4C020000 		.4byte	.LASF85
 1126 0600 01       		.byte	0x1
 1127 0601 3B       		.byte	0x3b
 1128 0602 22060000 		.4byte	0x622
 1129 0606 00000000 		.4byte	.LLST0
 1130 060a 16       		.uleb128 0x16
 1131 060b 0A000000 		.4byte	.LBB2
 1132 060f 08000000 		.4byte	.LBE2-.LBB2
 1133 0613 17       		.uleb128 0x17
 1134 0614 746D7000 		.ascii	"tmp\000"
ARM GAS  /tmp/ccjNhGDP.s 			page 21


 1135 0618 01       		.byte	0x1
 1136 0619 4A       		.byte	0x4a
 1137 061a 6C000000 		.4byte	0x6c
 1138 061e 01       		.uleb128 0x1
 1139 061f 53       		.byte	0x53
 1140 0620 00       		.byte	0
 1141 0621 00       		.byte	0
 1142 0622 09       		.uleb128 0x9
 1143 0623 04       		.byte	0x4
 1144 0624 52020000 		.4byte	0x252
 1145 0628 13       		.uleb128 0x13
 1146 0629 73040000 		.4byte	.LASF86
 1147 062d 01       		.byte	0x1
 1148 062e 6F       		.byte	0x6f
 1149 062f 00000000 		.4byte	.LFB9
 1150 0633 30000000 		.4byte	.LFE9-.LFB9
 1151 0637 01       		.uleb128 0x1
 1152 0638 9C       		.byte	0x9c
 1153 0639 84060000 		.4byte	0x684
 1154 063d 18       		.uleb128 0x18
 1155 063e 14000000 		.4byte	.LVL4
 1156 0642 B2070000 		.4byte	0x7b2
 1157 0646 55060000 		.4byte	0x655
 1158 064a 19       		.uleb128 0x19
 1159 064b 01       		.uleb128 0x1
 1160 064c 51       		.byte	0x51
 1161 064d 01       		.uleb128 0x1
 1162 064e 40       		.byte	0x40
 1163 064f 19       		.uleb128 0x19
 1164 0650 01       		.uleb128 0x1
 1165 0651 50       		.byte	0x50
 1166 0652 01       		.uleb128 0x1
 1167 0653 37       		.byte	0x37
 1168 0654 00       		.byte	0
 1169 0655 18       		.uleb128 0x18
 1170 0656 1C000000 		.4byte	.LVL5
 1171 065a B2070000 		.4byte	0x7b2
 1172 065e 6E060000 		.4byte	0x66e
 1173 0662 19       		.uleb128 0x19
 1174 0663 01       		.uleb128 0x1
 1175 0664 51       		.byte	0x51
 1176 0665 02       		.uleb128 0x2
 1177 0666 08       		.byte	0x8
 1178 0667 20       		.byte	0x20
 1179 0668 19       		.uleb128 0x19
 1180 0669 01       		.uleb128 0x1
 1181 066a 50       		.byte	0x50
 1182 066b 01       		.uleb128 0x1
 1183 066c 3A       		.byte	0x3a
 1184 066d 00       		.byte	0
 1185 066e 1A       		.uleb128 0x1a
 1186 066f 28000000 		.4byte	.LVL6
 1187 0673 B2070000 		.4byte	0x7b2
 1188 0677 19       		.uleb128 0x19
 1189 0678 01       		.uleb128 0x1
 1190 0679 51       		.byte	0x51
 1191 067a 02       		.uleb128 0x2
ARM GAS  /tmp/ccjNhGDP.s 			page 22


 1192 067b 08       		.byte	0x8
 1193 067c 80       		.byte	0x80
 1194 067d 19       		.uleb128 0x19
 1195 067e 01       		.uleb128 0x1
 1196 067f 50       		.byte	0x50
 1197 0680 01       		.uleb128 0x1
 1198 0681 3B       		.byte	0x3b
 1199 0682 00       		.byte	0
 1200 0683 00       		.byte	0
 1201 0684 13       		.uleb128 0x13
 1202 0685 D0010000 		.4byte	.LASF87
 1203 0689 01       		.byte	0x1
 1204 068a 8D       		.byte	0x8d
 1205 068b 00000000 		.4byte	.LFB10
 1206 068f 70000000 		.4byte	.LFE10-.LFB10
 1207 0693 01       		.uleb128 0x1
 1208 0694 9C       		.byte	0x9c
 1209 0695 E5060000 		.4byte	0x6e5
 1210 0699 1B       		.uleb128 0x1b
 1211 069a 00000000 		.4byte	.LBB3
 1212 069e 06000000 		.4byte	.LBE3-.LBB3
 1213 06a2 B4060000 		.4byte	0x6b4
 1214 06a6 17       		.uleb128 0x17
 1215 06a7 746D7000 		.ascii	"tmp\000"
 1216 06ab 01       		.byte	0x1
 1217 06ac 8F       		.byte	0x8f
 1218 06ad 6C000000 		.4byte	0x6c
 1219 06b1 01       		.uleb128 0x1
 1220 06b2 53       		.byte	0x53
 1221 06b3 00       		.byte	0
 1222 06b4 1C       		.uleb128 0x1c
 1223 06b5 00000000 		.4byte	.Ldebug_ranges0+0
 1224 06b9 CD060000 		.4byte	0x6cd
 1225 06bd 15       		.uleb128 0x15
 1226 06be 4C020000 		.4byte	.LASF85
 1227 06c2 01       		.byte	0x1
 1228 06c3 91       		.byte	0x91
 1229 06c4 22060000 		.4byte	0x622
 1230 06c8 20000000 		.4byte	.LLST1
 1231 06cc 00       		.byte	0
 1232 06cd 16       		.uleb128 0x16
 1233 06ce 44000000 		.4byte	.LBB5
 1234 06d2 06000000 		.4byte	.LBE5-.LBB5
 1235 06d6 17       		.uleb128 0x17
 1236 06d7 746D7000 		.ascii	"tmp\000"
 1237 06db 01       		.byte	0x1
 1238 06dc BE       		.byte	0xbe
 1239 06dd 6C000000 		.4byte	0x6c
 1240 06e1 01       		.uleb128 0x1
 1241 06e2 53       		.byte	0x53
 1242 06e3 00       		.byte	0
 1243 06e4 00       		.byte	0
 1244 06e5 13       		.uleb128 0x13
 1245 06e6 28000000 		.4byte	.LASF88
 1246 06ea 01       		.byte	0x1
 1247 06eb 28       		.byte	0x28
 1248 06ec 00000000 		.4byte	.LFB7
ARM GAS  /tmp/ccjNhGDP.s 			page 23


 1249 06f0 1A000000 		.4byte	.LFE7-.LFB7
 1250 06f4 01       		.uleb128 0x1
 1251 06f5 9C       		.byte	0x9c
 1252 06f6 43070000 		.4byte	0x743
 1253 06fa 1B       		.uleb128 0x1b
 1254 06fb 02000000 		.4byte	.LBB7
 1255 06ff 06000000 		.4byte	.LBE7-.LBB7
 1256 0703 15070000 		.4byte	0x715
 1257 0707 17       		.uleb128 0x17
 1258 0708 746D7000 		.ascii	"tmp\000"
 1259 070c 01       		.byte	0x1
 1260 070d 2C       		.byte	0x2c
 1261 070e 6C000000 		.4byte	0x6c
 1262 0712 01       		.uleb128 0x1
 1263 0713 53       		.byte	0x53
 1264 0714 00       		.byte	0
 1265 0715 1B       		.uleb128 0x1b
 1266 0716 0C000000 		.4byte	.LBB8
 1267 071a 06000000 		.4byte	.LBE8-.LBB8
 1268 071e 30070000 		.4byte	0x730
 1269 0722 17       		.uleb128 0x17
 1270 0723 746D7000 		.ascii	"tmp\000"
 1271 0727 01       		.byte	0x1
 1272 0728 2E       		.byte	0x2e
 1273 0729 6C000000 		.4byte	0x6c
 1274 072d 01       		.uleb128 0x1
 1275 072e 53       		.byte	0x53
 1276 072f 00       		.byte	0
 1277 0730 14       		.uleb128 0x14
 1278 0731 0C000000 		.4byte	.LVL12
 1279 0735 C9070000 		.4byte	0x7c9
 1280 0739 1D       		.uleb128 0x1d
 1281 073a 1A000000 		.4byte	.LVL13
 1282 073e 84060000 		.4byte	0x684
 1283 0742 00       		.byte	0
 1284 0743 13       		.uleb128 0x13
 1285 0744 24010000 		.4byte	.LASF89
 1286 0748 01       		.byte	0x1
 1287 0749 E5       		.byte	0xe5
 1288 074a 00000000 		.4byte	.LFB12
 1289 074e 10000000 		.4byte	.LFE12-.LFB12
 1290 0752 01       		.uleb128 0x1
 1291 0753 9C       		.byte	0x9c
 1292 0754 73070000 		.4byte	0x773
 1293 0758 1E       		.uleb128 0x1e
 1294 0759 6E747000 		.ascii	"ntp\000"
 1295 075d 01       		.byte	0x1
 1296 075e E5       		.byte	0xe5
 1297 075f 14020000 		.4byte	0x214
 1298 0763 01       		.uleb128 0x1
 1299 0764 50       		.byte	0x50
 1300 0765 1E       		.uleb128 0x1e
 1301 0766 6F747000 		.ascii	"otp\000"
 1302 076a 01       		.byte	0x1
 1303 076b E5       		.byte	0xe5
 1304 076c 14020000 		.4byte	0x214
 1305 0770 01       		.uleb128 0x1
ARM GAS  /tmp/ccjNhGDP.s 			page 24


 1306 0771 51       		.byte	0x51
 1307 0772 00       		.byte	0
 1308 0773 13       		.uleb128 0x13
 1309 0774 A9000000 		.4byte	.LASF90
 1310 0778 01       		.byte	0x1
 1311 0779 FC       		.byte	0xfc
 1312 077a 00000000 		.4byte	.LFB13
 1313 077e 10000000 		.4byte	.LFE13-.LFB13
 1314 0782 01       		.uleb128 0x1
 1315 0783 9C       		.byte	0x9c
 1316 0784 A0070000 		.4byte	0x7a0
 1317 0788 16       		.uleb128 0x16
 1318 0789 00000000 		.4byte	.LBB9
 1319 078d 06000000 		.4byte	.LBE9-.LBB9
 1320 0791 17       		.uleb128 0x17
 1321 0792 746D7000 		.ascii	"tmp\000"
 1322 0796 01       		.byte	0x1
 1323 0797 FE       		.byte	0xfe
 1324 0798 6C000000 		.4byte	0x6c
 1325 079c 01       		.uleb128 0x1
 1326 079d 53       		.byte	0x53
 1327 079e 00       		.byte	0
 1328 079f 00       		.byte	0
 1329 07a0 1F       		.uleb128 0x1f
 1330 07a1 65040000 		.4byte	.LASF96
 1331 07a5 08       		.byte	0x8
 1332 07a6 68       		.byte	0x68
 1333 07a7 2D050000 		.4byte	0x52d
 1334 07ab 20       		.uleb128 0x20
 1335 07ac F7000000 		.4byte	.LASF91
 1336 07b0 08       		.byte	0x8
 1337 07b1 A1       		.byte	0xa1
 1338 07b2 21       		.uleb128 0x21
 1339 07b3 D1000000 		.4byte	.LASF97
 1340 07b7 07       		.byte	0x7
 1341 07b8 1E01     		.2byte	0x11e
 1342 07ba C9070000 		.4byte	0x7c9
 1343 07be 22       		.uleb128 0x22
 1344 07bf 6C000000 		.4byte	0x6c
 1345 07c3 22       		.uleb128 0x22
 1346 07c4 6C000000 		.4byte	0x6c
 1347 07c8 00       		.byte	0
 1348 07c9 20       		.uleb128 0x20
 1349 07ca 15000000 		.4byte	.LASF92
 1350 07ce 0A       		.byte	0xa
 1351 07cf F0       		.byte	0xf0
 1352 07d0 00       		.byte	0
 1353              		.section	.debug_abbrev,"",%progbits
 1354              	.Ldebug_abbrev0:
 1355 0000 01       		.uleb128 0x1
 1356 0001 11       		.uleb128 0x11
 1357 0002 01       		.byte	0x1
 1358 0003 25       		.uleb128 0x25
 1359 0004 0E       		.uleb128 0xe
 1360 0005 13       		.uleb128 0x13
 1361 0006 0B       		.uleb128 0xb
 1362 0007 03       		.uleb128 0x3
ARM GAS  /tmp/ccjNhGDP.s 			page 25


 1363 0008 0E       		.uleb128 0xe
 1364 0009 1B       		.uleb128 0x1b
 1365 000a 0E       		.uleb128 0xe
 1366 000b 55       		.uleb128 0x55
 1367 000c 17       		.uleb128 0x17
 1368 000d 11       		.uleb128 0x11
 1369 000e 01       		.uleb128 0x1
 1370 000f 10       		.uleb128 0x10
 1371 0010 17       		.uleb128 0x17
 1372 0011 00       		.byte	0
 1373 0012 00       		.byte	0
 1374 0013 02       		.uleb128 0x2
 1375 0014 24       		.uleb128 0x24
 1376 0015 00       		.byte	0
 1377 0016 0B       		.uleb128 0xb
 1378 0017 0B       		.uleb128 0xb
 1379 0018 3E       		.uleb128 0x3e
 1380 0019 0B       		.uleb128 0xb
 1381 001a 03       		.uleb128 0x3
 1382 001b 08       		.uleb128 0x8
 1383 001c 00       		.byte	0
 1384 001d 00       		.byte	0
 1385 001e 03       		.uleb128 0x3
 1386 001f 24       		.uleb128 0x24
 1387 0020 00       		.byte	0
 1388 0021 0B       		.uleb128 0xb
 1389 0022 0B       		.uleb128 0xb
 1390 0023 3E       		.uleb128 0x3e
 1391 0024 0B       		.uleb128 0xb
 1392 0025 03       		.uleb128 0x3
 1393 0026 0E       		.uleb128 0xe
 1394 0027 00       		.byte	0
 1395 0028 00       		.byte	0
 1396 0029 04       		.uleb128 0x4
 1397 002a 16       		.uleb128 0x16
 1398 002b 00       		.byte	0
 1399 002c 03       		.uleb128 0x3
 1400 002d 0E       		.uleb128 0xe
 1401 002e 3A       		.uleb128 0x3a
 1402 002f 0B       		.uleb128 0xb
 1403 0030 3B       		.uleb128 0x3b
 1404 0031 0B       		.uleb128 0xb
 1405 0032 49       		.uleb128 0x49
 1406 0033 13       		.uleb128 0x13
 1407 0034 00       		.byte	0
 1408 0035 00       		.byte	0
 1409 0036 05       		.uleb128 0x5
 1410 0037 13       		.uleb128 0x13
 1411 0038 01       		.byte	0x1
 1412 0039 03       		.uleb128 0x3
 1413 003a 0E       		.uleb128 0xe
 1414 003b 0B       		.uleb128 0xb
 1415 003c 0B       		.uleb128 0xb
 1416 003d 3A       		.uleb128 0x3a
 1417 003e 0B       		.uleb128 0xb
 1418 003f 3B       		.uleb128 0x3b
 1419 0040 0B       		.uleb128 0xb
ARM GAS  /tmp/ccjNhGDP.s 			page 26


 1420 0041 01       		.uleb128 0x1
 1421 0042 13       		.uleb128 0x13
 1422 0043 00       		.byte	0
 1423 0044 00       		.byte	0
 1424 0045 06       		.uleb128 0x6
 1425 0046 0D       		.uleb128 0xd
 1426 0047 00       		.byte	0
 1427 0048 03       		.uleb128 0x3
 1428 0049 0E       		.uleb128 0xe
 1429 004a 3A       		.uleb128 0x3a
 1430 004b 0B       		.uleb128 0xb
 1431 004c 3B       		.uleb128 0x3b
 1432 004d 0B       		.uleb128 0xb
 1433 004e 49       		.uleb128 0x49
 1434 004f 13       		.uleb128 0x13
 1435 0050 38       		.uleb128 0x38
 1436 0051 0B       		.uleb128 0xb
 1437 0052 00       		.byte	0
 1438 0053 00       		.byte	0
 1439 0054 07       		.uleb128 0x7
 1440 0055 0D       		.uleb128 0xd
 1441 0056 00       		.byte	0
 1442 0057 03       		.uleb128 0x3
 1443 0058 08       		.uleb128 0x8
 1444 0059 3A       		.uleb128 0x3a
 1445 005a 0B       		.uleb128 0xb
 1446 005b 3B       		.uleb128 0x3b
 1447 005c 0B       		.uleb128 0xb
 1448 005d 49       		.uleb128 0x49
 1449 005e 13       		.uleb128 0x13
 1450 005f 38       		.uleb128 0x38
 1451 0060 0B       		.uleb128 0xb
 1452 0061 00       		.byte	0
 1453 0062 00       		.byte	0
 1454 0063 08       		.uleb128 0x8
 1455 0064 13       		.uleb128 0x13
 1456 0065 01       		.byte	0x1
 1457 0066 0B       		.uleb128 0xb
 1458 0067 0B       		.uleb128 0xb
 1459 0068 3A       		.uleb128 0x3a
 1460 0069 0B       		.uleb128 0xb
 1461 006a 3B       		.uleb128 0x3b
 1462 006b 0B       		.uleb128 0xb
 1463 006c 01       		.uleb128 0x1
 1464 006d 13       		.uleb128 0x13
 1465 006e 00       		.byte	0
 1466 006f 00       		.byte	0
 1467 0070 09       		.uleb128 0x9
 1468 0071 0F       		.uleb128 0xf
 1469 0072 00       		.byte	0
 1470 0073 0B       		.uleb128 0xb
 1471 0074 0B       		.uleb128 0xb
 1472 0075 49       		.uleb128 0x49
 1473 0076 13       		.uleb128 0x13
 1474 0077 00       		.byte	0
 1475 0078 00       		.byte	0
 1476 0079 0A       		.uleb128 0xa
ARM GAS  /tmp/ccjNhGDP.s 			page 27


 1477 007a 0F       		.uleb128 0xf
 1478 007b 00       		.byte	0
 1479 007c 0B       		.uleb128 0xb
 1480 007d 0B       		.uleb128 0xb
 1481 007e 00       		.byte	0
 1482 007f 00       		.byte	0
 1483 0080 0B       		.uleb128 0xb
 1484 0081 13       		.uleb128 0x13
 1485 0082 01       		.byte	0x1
 1486 0083 03       		.uleb128 0x3
 1487 0084 0E       		.uleb128 0xe
 1488 0085 0B       		.uleb128 0xb
 1489 0086 0B       		.uleb128 0xb
 1490 0087 3A       		.uleb128 0x3a
 1491 0088 0B       		.uleb128 0xb
 1492 0089 3B       		.uleb128 0x3b
 1493 008a 05       		.uleb128 0x5
 1494 008b 01       		.uleb128 0x1
 1495 008c 13       		.uleb128 0x13
 1496 008d 00       		.byte	0
 1497 008e 00       		.byte	0
 1498 008f 0C       		.uleb128 0xc
 1499 0090 0D       		.uleb128 0xd
 1500 0091 00       		.byte	0
 1501 0092 03       		.uleb128 0x3
 1502 0093 08       		.uleb128 0x8
 1503 0094 3A       		.uleb128 0x3a
 1504 0095 0B       		.uleb128 0xb
 1505 0096 3B       		.uleb128 0x3b
 1506 0097 05       		.uleb128 0x5
 1507 0098 49       		.uleb128 0x49
 1508 0099 13       		.uleb128 0x13
 1509 009a 38       		.uleb128 0x38
 1510 009b 0B       		.uleb128 0xb
 1511 009c 00       		.byte	0
 1512 009d 00       		.byte	0
 1513 009e 0D       		.uleb128 0xd
 1514 009f 35       		.uleb128 0x35
 1515 00a0 00       		.byte	0
 1516 00a1 49       		.uleb128 0x49
 1517 00a2 13       		.uleb128 0x13
 1518 00a3 00       		.byte	0
 1519 00a4 00       		.byte	0
 1520 00a5 0E       		.uleb128 0xe
 1521 00a6 01       		.uleb128 0x1
 1522 00a7 01       		.byte	0x1
 1523 00a8 49       		.uleb128 0x49
 1524 00a9 13       		.uleb128 0x13
 1525 00aa 01       		.uleb128 0x1
 1526 00ab 13       		.uleb128 0x13
 1527 00ac 00       		.byte	0
 1528 00ad 00       		.byte	0
 1529 00ae 0F       		.uleb128 0xf
 1530 00af 21       		.uleb128 0x21
 1531 00b0 00       		.byte	0
 1532 00b1 49       		.uleb128 0x49
 1533 00b2 13       		.uleb128 0x13
ARM GAS  /tmp/ccjNhGDP.s 			page 28


 1534 00b3 2F       		.uleb128 0x2f
 1535 00b4 0B       		.uleb128 0xb
 1536 00b5 00       		.byte	0
 1537 00b6 00       		.byte	0
 1538 00b7 10       		.uleb128 0x10
 1539 00b8 17       		.uleb128 0x17
 1540 00b9 01       		.byte	0x1
 1541 00ba 0B       		.uleb128 0xb
 1542 00bb 0B       		.uleb128 0xb
 1543 00bc 3A       		.uleb128 0x3a
 1544 00bd 0B       		.uleb128 0xb
 1545 00be 3B       		.uleb128 0x3b
 1546 00bf 0B       		.uleb128 0xb
 1547 00c0 01       		.uleb128 0x1
 1548 00c1 13       		.uleb128 0x13
 1549 00c2 00       		.byte	0
 1550 00c3 00       		.byte	0
 1551 00c4 11       		.uleb128 0x11
 1552 00c5 0D       		.uleb128 0xd
 1553 00c6 00       		.byte	0
 1554 00c7 03       		.uleb128 0x3
 1555 00c8 0E       		.uleb128 0xe
 1556 00c9 3A       		.uleb128 0x3a
 1557 00ca 0B       		.uleb128 0xb
 1558 00cb 3B       		.uleb128 0x3b
 1559 00cc 0B       		.uleb128 0xb
 1560 00cd 49       		.uleb128 0x49
 1561 00ce 13       		.uleb128 0x13
 1562 00cf 00       		.byte	0
 1563 00d0 00       		.byte	0
 1564 00d1 12       		.uleb128 0x12
 1565 00d2 26       		.uleb128 0x26
 1566 00d3 00       		.byte	0
 1567 00d4 49       		.uleb128 0x49
 1568 00d5 13       		.uleb128 0x13
 1569 00d6 00       		.byte	0
 1570 00d7 00       		.byte	0
 1571 00d8 13       		.uleb128 0x13
 1572 00d9 2E       		.uleb128 0x2e
 1573 00da 01       		.byte	0x1
 1574 00db 3F       		.uleb128 0x3f
 1575 00dc 19       		.uleb128 0x19
 1576 00dd 03       		.uleb128 0x3
 1577 00de 0E       		.uleb128 0xe
 1578 00df 3A       		.uleb128 0x3a
 1579 00e0 0B       		.uleb128 0xb
 1580 00e1 3B       		.uleb128 0x3b
 1581 00e2 0B       		.uleb128 0xb
 1582 00e3 27       		.uleb128 0x27
 1583 00e4 19       		.uleb128 0x19
 1584 00e5 11       		.uleb128 0x11
 1585 00e6 01       		.uleb128 0x1
 1586 00e7 12       		.uleb128 0x12
 1587 00e8 06       		.uleb128 0x6
 1588 00e9 40       		.uleb128 0x40
 1589 00ea 18       		.uleb128 0x18
 1590 00eb 9742     		.uleb128 0x2117
ARM GAS  /tmp/ccjNhGDP.s 			page 29


 1591 00ed 19       		.uleb128 0x19
 1592 00ee 01       		.uleb128 0x1
 1593 00ef 13       		.uleb128 0x13
 1594 00f0 00       		.byte	0
 1595 00f1 00       		.byte	0
 1596 00f2 14       		.uleb128 0x14
 1597 00f3 898201   		.uleb128 0x4109
 1598 00f6 00       		.byte	0
 1599 00f7 11       		.uleb128 0x11
 1600 00f8 01       		.uleb128 0x1
 1601 00f9 31       		.uleb128 0x31
 1602 00fa 13       		.uleb128 0x13
 1603 00fb 00       		.byte	0
 1604 00fc 00       		.byte	0
 1605 00fd 15       		.uleb128 0x15
 1606 00fe 34       		.uleb128 0x34
 1607 00ff 00       		.byte	0
 1608 0100 03       		.uleb128 0x3
 1609 0101 0E       		.uleb128 0xe
 1610 0102 3A       		.uleb128 0x3a
 1611 0103 0B       		.uleb128 0xb
 1612 0104 3B       		.uleb128 0x3b
 1613 0105 0B       		.uleb128 0xb
 1614 0106 49       		.uleb128 0x49
 1615 0107 13       		.uleb128 0x13
 1616 0108 02       		.uleb128 0x2
 1617 0109 17       		.uleb128 0x17
 1618 010a 00       		.byte	0
 1619 010b 00       		.byte	0
 1620 010c 16       		.uleb128 0x16
 1621 010d 0B       		.uleb128 0xb
 1622 010e 01       		.byte	0x1
 1623 010f 11       		.uleb128 0x11
 1624 0110 01       		.uleb128 0x1
 1625 0111 12       		.uleb128 0x12
 1626 0112 06       		.uleb128 0x6
 1627 0113 00       		.byte	0
 1628 0114 00       		.byte	0
 1629 0115 17       		.uleb128 0x17
 1630 0116 34       		.uleb128 0x34
 1631 0117 00       		.byte	0
 1632 0118 03       		.uleb128 0x3
 1633 0119 08       		.uleb128 0x8
 1634 011a 3A       		.uleb128 0x3a
 1635 011b 0B       		.uleb128 0xb
 1636 011c 3B       		.uleb128 0x3b
 1637 011d 0B       		.uleb128 0xb
 1638 011e 49       		.uleb128 0x49
 1639 011f 13       		.uleb128 0x13
 1640 0120 02       		.uleb128 0x2
 1641 0121 18       		.uleb128 0x18
 1642 0122 00       		.byte	0
 1643 0123 00       		.byte	0
 1644 0124 18       		.uleb128 0x18
 1645 0125 898201   		.uleb128 0x4109
 1646 0128 01       		.byte	0x1
 1647 0129 11       		.uleb128 0x11
ARM GAS  /tmp/ccjNhGDP.s 			page 30


 1648 012a 01       		.uleb128 0x1
 1649 012b 31       		.uleb128 0x31
 1650 012c 13       		.uleb128 0x13
 1651 012d 01       		.uleb128 0x1
 1652 012e 13       		.uleb128 0x13
 1653 012f 00       		.byte	0
 1654 0130 00       		.byte	0
 1655 0131 19       		.uleb128 0x19
 1656 0132 8A8201   		.uleb128 0x410a
 1657 0135 00       		.byte	0
 1658 0136 02       		.uleb128 0x2
 1659 0137 18       		.uleb128 0x18
 1660 0138 9142     		.uleb128 0x2111
 1661 013a 18       		.uleb128 0x18
 1662 013b 00       		.byte	0
 1663 013c 00       		.byte	0
 1664 013d 1A       		.uleb128 0x1a
 1665 013e 898201   		.uleb128 0x4109
 1666 0141 01       		.byte	0x1
 1667 0142 11       		.uleb128 0x11
 1668 0143 01       		.uleb128 0x1
 1669 0144 9542     		.uleb128 0x2115
 1670 0146 19       		.uleb128 0x19
 1671 0147 31       		.uleb128 0x31
 1672 0148 13       		.uleb128 0x13
 1673 0149 00       		.byte	0
 1674 014a 00       		.byte	0
 1675 014b 1B       		.uleb128 0x1b
 1676 014c 0B       		.uleb128 0xb
 1677 014d 01       		.byte	0x1
 1678 014e 11       		.uleb128 0x11
 1679 014f 01       		.uleb128 0x1
 1680 0150 12       		.uleb128 0x12
 1681 0151 06       		.uleb128 0x6
 1682 0152 01       		.uleb128 0x1
 1683 0153 13       		.uleb128 0x13
 1684 0154 00       		.byte	0
 1685 0155 00       		.byte	0
 1686 0156 1C       		.uleb128 0x1c
 1687 0157 0B       		.uleb128 0xb
 1688 0158 01       		.byte	0x1
 1689 0159 55       		.uleb128 0x55
 1690 015a 17       		.uleb128 0x17
 1691 015b 01       		.uleb128 0x1
 1692 015c 13       		.uleb128 0x13
 1693 015d 00       		.byte	0
 1694 015e 00       		.byte	0
 1695 015f 1D       		.uleb128 0x1d
 1696 0160 898201   		.uleb128 0x4109
 1697 0163 00       		.byte	0
 1698 0164 11       		.uleb128 0x11
 1699 0165 01       		.uleb128 0x1
 1700 0166 9542     		.uleb128 0x2115
 1701 0168 19       		.uleb128 0x19
 1702 0169 31       		.uleb128 0x31
 1703 016a 13       		.uleb128 0x13
 1704 016b 00       		.byte	0
ARM GAS  /tmp/ccjNhGDP.s 			page 31


 1705 016c 00       		.byte	0
 1706 016d 1E       		.uleb128 0x1e
 1707 016e 05       		.uleb128 0x5
 1708 016f 00       		.byte	0
 1709 0170 03       		.uleb128 0x3
 1710 0171 08       		.uleb128 0x8
 1711 0172 3A       		.uleb128 0x3a
 1712 0173 0B       		.uleb128 0xb
 1713 0174 3B       		.uleb128 0x3b
 1714 0175 0B       		.uleb128 0xb
 1715 0176 49       		.uleb128 0x49
 1716 0177 13       		.uleb128 0x13
 1717 0178 02       		.uleb128 0x2
 1718 0179 18       		.uleb128 0x18
 1719 017a 00       		.byte	0
 1720 017b 00       		.byte	0
 1721 017c 1F       		.uleb128 0x1f
 1722 017d 34       		.uleb128 0x34
 1723 017e 00       		.byte	0
 1724 017f 03       		.uleb128 0x3
 1725 0180 0E       		.uleb128 0xe
 1726 0181 3A       		.uleb128 0x3a
 1727 0182 0B       		.uleb128 0xb
 1728 0183 3B       		.uleb128 0x3b
 1729 0184 0B       		.uleb128 0xb
 1730 0185 49       		.uleb128 0x49
 1731 0186 13       		.uleb128 0x13
 1732 0187 3F       		.uleb128 0x3f
 1733 0188 19       		.uleb128 0x19
 1734 0189 3C       		.uleb128 0x3c
 1735 018a 19       		.uleb128 0x19
 1736 018b 00       		.byte	0
 1737 018c 00       		.byte	0
 1738 018d 20       		.uleb128 0x20
 1739 018e 2E       		.uleb128 0x2e
 1740 018f 00       		.byte	0
 1741 0190 3F       		.uleb128 0x3f
 1742 0191 19       		.uleb128 0x19
 1743 0192 03       		.uleb128 0x3
 1744 0193 0E       		.uleb128 0xe
 1745 0194 3A       		.uleb128 0x3a
 1746 0195 0B       		.uleb128 0xb
 1747 0196 3B       		.uleb128 0x3b
 1748 0197 0B       		.uleb128 0xb
 1749 0198 27       		.uleb128 0x27
 1750 0199 19       		.uleb128 0x19
 1751 019a 3C       		.uleb128 0x3c
 1752 019b 19       		.uleb128 0x19
 1753 019c 00       		.byte	0
 1754 019d 00       		.byte	0
 1755 019e 21       		.uleb128 0x21
 1756 019f 2E       		.uleb128 0x2e
 1757 01a0 01       		.byte	0x1
 1758 01a1 3F       		.uleb128 0x3f
 1759 01a2 19       		.uleb128 0x19
 1760 01a3 03       		.uleb128 0x3
 1761 01a4 0E       		.uleb128 0xe
ARM GAS  /tmp/ccjNhGDP.s 			page 32


 1762 01a5 3A       		.uleb128 0x3a
 1763 01a6 0B       		.uleb128 0xb
 1764 01a7 3B       		.uleb128 0x3b
 1765 01a8 05       		.uleb128 0x5
 1766 01a9 27       		.uleb128 0x27
 1767 01aa 19       		.uleb128 0x19
 1768 01ab 3C       		.uleb128 0x3c
 1769 01ac 19       		.uleb128 0x19
 1770 01ad 01       		.uleb128 0x1
 1771 01ae 13       		.uleb128 0x13
 1772 01af 00       		.byte	0
 1773 01b0 00       		.byte	0
 1774 01b1 22       		.uleb128 0x22
 1775 01b2 05       		.uleb128 0x5
 1776 01b3 00       		.byte	0
 1777 01b4 49       		.uleb128 0x49
 1778 01b5 13       		.uleb128 0x13
 1779 01b6 00       		.byte	0
 1780 01b7 00       		.byte	0
 1781 01b8 00       		.byte	0
 1782              		.section	.debug_loc,"",%progbits
 1783              	.Ldebug_loc0:
 1784              	.LLST0:
 1785 0000 04000000 		.4byte	.LVL1
 1786 0004 06000000 		.4byte	.LVL2
 1787 0008 0300     		.2byte	0x3
 1788 000a 73       		.byte	0x73
 1789 000b 20       		.sleb128 32
 1790 000c 9F       		.byte	0x9f
 1791 000d 06000000 		.4byte	.LVL2
 1792 0011 0C000000 		.4byte	.LVL3
 1793 0015 0100     		.2byte	0x1
 1794 0017 53       		.byte	0x53
 1795 0018 00000000 		.4byte	0
 1796 001c 00000000 		.4byte	0
 1797              	.LLST1:
 1798 0020 14000000 		.4byte	.LVL7
 1799 0024 18000000 		.4byte	.LVL8
 1800 0028 0300     		.2byte	0x3
 1801 002a 73       		.byte	0x73
 1802 002b 60       		.sleb128 -32
 1803 002c 9F       		.byte	0x9f
 1804 002d 18000000 		.4byte	.LVL8
 1805 0031 24000000 		.4byte	.LVL9
 1806 0035 0100     		.2byte	0x1
 1807 0037 52       		.byte	0x52
 1808 0038 24000000 		.4byte	.LVL9
 1809 003c 44000000 		.4byte	.LVL10
 1810 0040 0300     		.2byte	0x3
 1811 0042 73       		.byte	0x73
 1812 0043 60       		.sleb128 -32
 1813 0044 9F       		.byte	0x9f
 1814 0045 4A000000 		.4byte	.LVL11
 1815 0049 70000000 		.4byte	.LFE10
 1816 004d 0300     		.2byte	0x3
 1817 004f 73       		.byte	0x73
 1818 0050 60       		.sleb128 -32
ARM GAS  /tmp/ccjNhGDP.s 			page 33


 1819 0051 9F       		.byte	0x9f
 1820 0052 00000000 		.4byte	0
 1821 0056 00000000 		.4byte	0
 1822              		.section	.debug_aranges,"",%progbits
 1823 0000 4C000000 		.4byte	0x4c
 1824 0004 0200     		.2byte	0x2
 1825 0006 00000000 		.4byte	.Ldebug_info0
 1826 000a 04       		.byte	0x4
 1827 000b 00       		.byte	0
 1828 000c 0000     		.2byte	0
 1829 000e 0000     		.2byte	0
 1830 0010 00000000 		.4byte	.LFB11
 1831 0014 06000000 		.4byte	.LFE11-.LFB11
 1832 0018 00000000 		.4byte	.LFB8
 1833 001c 12000000 		.4byte	.LFE8-.LFB8
 1834 0020 00000000 		.4byte	.LFB9
 1835 0024 30000000 		.4byte	.LFE9-.LFB9
 1836 0028 00000000 		.4byte	.LFB10
 1837 002c 70000000 		.4byte	.LFE10-.LFB10
 1838 0030 00000000 		.4byte	.LFB7
 1839 0034 1A000000 		.4byte	.LFE7-.LFB7
 1840 0038 00000000 		.4byte	.LFB12
 1841 003c 10000000 		.4byte	.LFE12-.LFB12
 1842 0040 00000000 		.4byte	.LFB13
 1843 0044 10000000 		.4byte	.LFE13-.LFB13
 1844 0048 00000000 		.4byte	0
 1845 004c 00000000 		.4byte	0
 1846              		.section	.debug_ranges,"",%progbits
 1847              	.Ldebug_ranges0:
 1848 0000 10000000 		.4byte	.LBB4
 1849 0004 44000000 		.4byte	.LBE4
 1850 0008 4A000000 		.4byte	.LBB6
 1851 000c 70000000 		.4byte	.LBE6
 1852 0010 00000000 		.4byte	0
 1853 0014 00000000 		.4byte	0
 1854 0018 00000000 		.4byte	.LFB11
 1855 001c 06000000 		.4byte	.LFE11
 1856 0020 00000000 		.4byte	.LFB8
 1857 0024 12000000 		.4byte	.LFE8
 1858 0028 00000000 		.4byte	.LFB9
 1859 002c 30000000 		.4byte	.LFE9
 1860 0030 00000000 		.4byte	.LFB10
 1861 0034 70000000 		.4byte	.LFE10
 1862 0038 00000000 		.4byte	.LFB7
 1863 003c 1A000000 		.4byte	.LFE7
 1864 0040 00000000 		.4byte	.LFB12
 1865 0044 10000000 		.4byte	.LFE12
 1866 0048 00000000 		.4byte	.LFB13
 1867 004c 10000000 		.4byte	.LFE13
 1868 0050 00000000 		.4byte	0
 1869 0054 00000000 		.4byte	0
 1870              		.section	.debug_line,"",%progbits
 1871              	.Ldebug_line0:
 1872 0000 B2010000 		.section	.debug_str,"MS",%progbits,1
 1872      0200FE00 
 1872      00000201 
 1872      FB0E0D00 
ARM GAS  /tmp/ccjNhGDP.s 			page 34


 1872      01010101 
 1873              	.LASF36:
 1874 0000 705F6D73 		.ascii	"p_msg\000"
 1874      6700
 1875              	.LASF78:
 1876 0006 7264796D 		.ascii	"rdymsg\000"
 1876      736700
 1877              	.LASF66:
 1878 000d 434D785F 		.ascii	"CMx_SCB\000"
 1878      53434200 
 1879              	.LASF92:
 1880 0015 63685379 		.ascii	"chSysTimerHandlerI\000"
 1880      7354696D 
 1880      65724861 
 1880      6E646C65 
 1880      724900
 1881              	.LASF88:
 1882 0028 53797354 		.ascii	"SysTickVector\000"
 1882      69636B56 
 1882      6563746F 
 1882      7200
 1883              	.LASF11:
 1884 0036 6C6F6E67 		.ascii	"long long unsigned int\000"
 1884      206C6F6E 
 1884      6720756E 
 1884      7369676E 
 1884      65642069 
 1885              	.LASF79:
 1886 004d 65786974 		.ascii	"exitcode\000"
 1886      636F6465 
 1886      00
 1887              	.LASF51:
 1888 0056 43505549 		.ascii	"CPUID\000"
 1888      4400
 1889              	.LASF24:
 1890 005c 705F7072 		.ascii	"p_prio\000"
 1890      696F00
 1891              	.LASF10:
 1892 0063 6C6F6E67 		.ascii	"long long int\000"
 1892      206C6F6E 
 1892      6720696E 
 1892      7400
 1893              	.LASF1:
 1894 0071 7369676E 		.ascii	"signed char\000"
 1894      65642063 
 1894      68617200 
 1895              	.LASF40:
 1896 007d 705F6D70 		.ascii	"p_mpool\000"
 1896      6F6F6C00 
 1897              	.LASF75:
 1898 0085 6D5F7175 		.ascii	"m_queue\000"
 1898      65756500 
 1899              	.LASF16:
 1900 008d 74736C69 		.ascii	"tslices_t\000"
 1900      6365735F 
 1900      7400
 1901              	.LASF7:
ARM GAS  /tmp/ccjNhGDP.s 			page 35


 1902 0097 6C6F6E67 		.ascii	"long int\000"
 1902      20696E74 
 1902      00
 1903              	.LASF14:
 1904 00a0 74737461 		.ascii	"tstate_t\000"
 1904      74655F74 
 1904      00
 1905              	.LASF90:
 1906 00a9 5F706F72 		.ascii	"_port_thread_start\000"
 1906      745F7468 
 1906      72656164 
 1906      5F737461 
 1906      727400
 1907              	.LASF26:
 1908 00bc 705F6E65 		.ascii	"p_newer\000"
 1908      77657200 
 1909              	.LASF61:
 1910 00c4 42464152 		.ascii	"BFAR\000"
 1910      00
 1911              	.LASF70:
 1912 00c9 725F6E65 		.ascii	"r_newer\000"
 1912      77657200 
 1913              	.LASF97:
 1914 00d1 6E766963 		.ascii	"nvicSetSystemHandlerPriority\000"
 1914      53657453 
 1914      79737465 
 1914      6D48616E 
 1914      646C6572 
 1915              	.LASF43:
 1916 00ee 72656761 		.ascii	"regarm_t\000"
 1916      726D5F74 
 1916      00
 1917              	.LASF91:
 1918 00f7 63685363 		.ascii	"chSchDoReschedule\000"
 1918      68446F52 
 1918      65736368 
 1918      6564756C 
 1918      6500
 1919              	.LASF0:
 1920 0109 756E7369 		.ascii	"unsigned int\000"
 1920      676E6564 
 1920      20696E74 
 1920      00
 1921              	.LASF45:
 1922 0116 6C725F74 		.ascii	"lr_thd\000"
 1922      686400
 1923              	.LASF44:
 1924 011d 65787463 		.ascii	"extctx\000"
 1924      747800
 1925              	.LASF89:
 1926 0124 5F706F72 		.ascii	"_port_switch\000"
 1926      745F7377 
 1926      69746368 
 1926      00
 1927              	.LASF9:
 1928 0131 6C6F6E67 		.ascii	"long unsigned int\000"
 1928      20756E73 
ARM GAS  /tmp/ccjNhGDP.s 			page 36


 1928      69676E65 
 1928      6420696E 
 1928      7400
 1929              	.LASF53:
 1930 0143 56544F52 		.ascii	"VTOR\000"
 1930      00
 1931              	.LASF83:
 1932 0148 5F706F72 		.ascii	"_port_switch_from_isr\000"
 1932      745F7377 
 1932      69746368 
 1932      5F66726F 
 1932      6D5F6973 
 1933              	.LASF48:
 1934 015e 636F6E74 		.ascii	"context\000"
 1934      65787400 
 1935              	.LASF4:
 1936 0166 73686F72 		.ascii	"short unsigned int\000"
 1936      7420756E 
 1936      7369676E 
 1936      65642069 
 1936      6E7400
 1937              	.LASF52:
 1938 0179 49435352 		.ascii	"ICSR\000"
 1938      00
 1939              	.LASF18:
 1940 017e 6D73675F 		.ascii	"msg_t\000"
 1940      7400
 1941              	.LASF54:
 1942 0184 41495243 		.ascii	"AIRCR\000"
 1942      5200
 1943              	.LASF59:
 1944 018a 44465352 		.ascii	"DFSR\000"
 1944      00
 1945              	.LASF95:
 1946 018f 2F686F6D 		.ascii	"/home/john/git/ChibiOS-RT/demos/ARMCM4-STM32F303-DI"
 1946      652F6A6F 
 1946      686E2F67 
 1946      69742F43 
 1946      68696269 
 1947 01c2 53434F56 		.ascii	"SCOVERY\000"
 1947      45525900 
 1948              	.LASF60:
 1949 01ca 4D4D4641 		.ascii	"MMFAR\000"
 1949      5200
 1950              	.LASF87:
 1951 01d0 5F706F72 		.ascii	"_port_irq_epilogue\000"
 1951      745F6972 
 1951      715F6570 
 1951      696C6F67 
 1951      756500
 1952              	.LASF13:
 1953 01e3 746D6F64 		.ascii	"tmode_t\000"
 1953      655F7400 
 1954              	.LASF42:
 1955 01eb 54687265 		.ascii	"ThreadsList\000"
 1955      6164734C 
 1955      69737400 
ARM GAS  /tmp/ccjNhGDP.s 			page 37


 1956              	.LASF19:
 1957 01f7 6576656E 		.ascii	"eventmask_t\000"
 1957      746D6173 
 1957      6B5F7400 
 1958              	.LASF74:
 1959 0203 4D757465 		.ascii	"Mutex\000"
 1959      7800
 1960              	.LASF50:
 1961 0209 73697A65 		.ascii	"sizetype\000"
 1961      74797065 
 1961      00
 1962              	.LASF57:
 1963 0212 43465352 		.ascii	"CFSR\000"
 1963      00
 1964              	.LASF27:
 1965 0217 705F6F6C 		.ascii	"p_older\000"
 1965      64657200 
 1966              	.LASF69:
 1967 021f 725F6374 		.ascii	"r_ctx\000"
 1967      7800
 1968              	.LASF41:
 1969 0225 54687265 		.ascii	"ThreadsQueue\000"
 1969      61647351 
 1969      75657565 
 1969      00
 1970              	.LASF72:
 1971 0232 725F6375 		.ascii	"r_current\000"
 1971      7272656E 
 1971      7400
 1972              	.LASF71:
 1973 023c 725F6F6C 		.ascii	"r_older\000"
 1973      64657200 
 1974              	.LASF15:
 1975 0244 74726566 		.ascii	"trefs_t\000"
 1975      735F7400 
 1976              	.LASF85:
 1977 024c 63747870 		.ascii	"ctxp\000"
 1977      00
 1978              	.LASF23:
 1979 0251 705F7072 		.ascii	"p_prev\000"
 1979      657600
 1980              	.LASF17:
 1981 0258 74707269 		.ascii	"tprio_t\000"
 1981      6F5F7400 
 1982              	.LASF93:
 1983 0260 474E5520 		.ascii	"GNU C 4.8.3 20131129 (release) [ARM/embedded-4_8-br"
 1983      4320342E 
 1983      382E3320 
 1983      32303133 
 1983      31313239 
 1984 0293 616E6368 		.ascii	"anch revision 205641] -mcpu=cortex-m4 -mno-thumb-in"
 1984      20726576 
 1984      6973696F 
 1984      6E203230 
 1984      35363431 
 1985 02c6 74657277 		.ascii	"terwork -mthumb -ggdb -O2 -fomit-frame-pointer -fal"
 1985      6F726B20 
ARM GAS  /tmp/ccjNhGDP.s 			page 38


 1985      2D6D7468 
 1985      756D6220 
 1985      2D676764 
 1986 02f9 69676E2D 		.ascii	"ign-functions=16 -ffunction-sections -fdata-section"
 1986      66756E63 
 1986      74696F6E 
 1986      733D3136 
 1986      202D6666 
 1987 032c 73202D66 		.ascii	"s -fno-common\000"
 1987      6E6F2D63 
 1987      6F6D6D6F 
 1987      6E00
 1988              	.LASF12:
 1989 033a 5F426F6F 		.ascii	"_Bool\000"
 1989      6C00
 1990              	.LASF6:
 1991 0340 696E7433 		.ascii	"int32_t\000"
 1991      325F7400 
 1992              	.LASF2:
 1993 0348 756E7369 		.ascii	"unsigned char\000"
 1993      676E6564 
 1993      20636861 
 1993      7200
 1994              	.LASF56:
 1995 0356 53484353 		.ascii	"SHCSR\000"
 1995      5200
 1996              	.LASF38:
 1997 035c 705F6D74 		.ascii	"p_mtxlist\000"
 1997      786C6973 
 1997      7400
 1998              	.LASF3:
 1999 0366 73686F72 		.ascii	"short int\000"
 1999      7420696E 
 1999      7400
 2000              	.LASF29:
 2001 0370 705F7374 		.ascii	"p_state\000"
 2001      61746500 
 2002              	.LASF32:
 2003 0378 705F7072 		.ascii	"p_preempt\000"
 2003      65656D70 
 2003      7400
 2004              	.LASF46:
 2005 0382 78707372 		.ascii	"xpsr\000"
 2005      00
 2006              	.LASF68:
 2007 0387 725F7072 		.ascii	"r_prio\000"
 2007      696F00
 2008              	.LASF81:
 2009 038e 65776D61 		.ascii	"ewmask\000"
 2009      736B00
 2010              	.LASF22:
 2011 0395 705F6E65 		.ascii	"p_next\000"
 2011      787400
 2012              	.LASF30:
 2013 039c 705F666C 		.ascii	"p_flags\000"
 2013      61677300 
 2014              	.LASF21:
ARM GAS  /tmp/ccjNhGDP.s 			page 39


 2015 03a4 54687265 		.ascii	"Thread\000"
 2015      616400
 2016              	.LASF37:
 2017 03ab 705F6570 		.ascii	"p_epending\000"
 2017      656E6469 
 2017      6E6700
 2018              	.LASF8:
 2019 03b6 75696E74 		.ascii	"uint32_t\000"
 2019      33325F74 
 2019      00
 2020              	.LASF67:
 2021 03bf 725F7175 		.ascii	"r_queue\000"
 2021      65756500 
 2022              	.LASF62:
 2023 03c7 41465352 		.ascii	"AFSR\000"
 2023      00
 2024              	.LASF64:
 2025 03cc 756E7573 		.ascii	"unused1\000"
 2025      65643100 
 2026              	.LASF82:
 2027 03d4 63686172 		.ascii	"char\000"
 2027      00
 2028              	.LASF49:
 2029 03d9 494F5245 		.ascii	"IOREG32\000"
 2029      47333200 
 2030              	.LASF94:
 2031 03e1 2E2E2F2E 		.ascii	"../../os/ports/GCC/ARMCMx/chcore_v7m.c\000"
 2031      2E2F6F73 
 2031      2F706F72 
 2031      74732F47 
 2031      43432F41 
 2032              	.LASF77:
 2033 0408 6D5F6E65 		.ascii	"m_next\000"
 2033      787400
 2034              	.LASF20:
 2035 040f 73797374 		.ascii	"systime_t\000"
 2035      696D655F 
 2035      7400
 2036              	.LASF39:
 2037 0419 705F7265 		.ascii	"p_realprio\000"
 2037      616C7072 
 2037      696F00
 2038              	.LASF84:
 2039 0424 53564361 		.ascii	"SVCallVector\000"
 2039      6C6C5665 
 2039      63746F72 
 2039      00
 2040              	.LASF33:
 2041 0431 705F7469 		.ascii	"p_time\000"
 2041      6D6500
 2042              	.LASF55:
 2043 0438 53485052 		.ascii	"SHPR\000"
 2043      00
 2044              	.LASF47:
 2045 043d 696E7463 		.ascii	"intctx\000"
 2045      747800
 2046              	.LASF35:
ARM GAS  /tmp/ccjNhGDP.s 			page 40


 2047 0444 705F6D73 		.ascii	"p_msgqueue\000"
 2047      67717565 
 2047      756500
 2048              	.LASF31:
 2049 044f 705F7265 		.ascii	"p_refs\000"
 2049      667300
 2050              	.LASF73:
 2051 0456 52656164 		.ascii	"ReadyList\000"
 2051      794C6973 
 2051      7400
 2052              	.LASF63:
 2053 0460 4D4D4652 		.ascii	"MMFR\000"
 2053      00
 2054              	.LASF96:
 2055 0465 726C6973 		.ascii	"rlist\000"
 2055      7400
 2056              	.LASF5:
 2057 046b 75696E74 		.ascii	"uint8_t\000"
 2057      385F7400 
 2058              	.LASF86:
 2059 0473 5F706F72 		.ascii	"_port_init\000"
 2059      745F696E 
 2059      697400
 2060              	.LASF80:
 2061 047e 77746F62 		.ascii	"wtobjp\000"
 2061      6A7000
 2062              	.LASF28:
 2063 0485 705F6E61 		.ascii	"p_name\000"
 2063      6D6500
 2064              	.LASF65:
 2065 048c 43504143 		.ascii	"CPACR\000"
 2065      5200
 2066              	.LASF58:
 2067 0492 48465352 		.ascii	"HFSR\000"
 2067      00
 2068              	.LASF76:
 2069 0497 6D5F6F77 		.ascii	"m_owner\000"
 2069      6E657200 
 2070              	.LASF25:
 2071 049f 705F6374 		.ascii	"p_ctx\000"
 2071      7800
 2072              	.LASF34:
 2073 04a5 705F7761 		.ascii	"p_waiting\000"
 2073      6974696E 
 2073      6700
 2074              		.ident	"GCC: (GNU Tools for ARM Embedded Processors) 4.8.3 20131129 (release) [ARM/embedded-4_8-br
ARM GAS  /tmp/ccjNhGDP.s 			page 41


DEFINED SYMBOLS
                            *ABS*:0000000000000000 chcore_v7m.c
     /tmp/ccjNhGDP.s:19     .text._port_switch_from_isr:0000000000000000 $t
     /tmp/ccjNhGDP.s:25     .text._port_switch_from_isr:0000000000000000 _port_switch_from_isr
     /tmp/ccjNhGDP.s:38     .text._port_switch_from_isr:0000000000000004 _port_exit_from_isr
     /tmp/ccjNhGDP.s:50     .text.SVCallVector:0000000000000000 $t
     /tmp/ccjNhGDP.s:56     .text.SVCallVector:0000000000000000 SVCallVector
     /tmp/ccjNhGDP.s:91     .text._port_init:0000000000000000 $t
     /tmp/ccjNhGDP.s:97     .text._port_init:0000000000000000 _port_init
     /tmp/ccjNhGDP.s:138    .text._port_init:0000000000000028 $d
     /tmp/ccjNhGDP.s:144    .text._port_irq_epilogue:0000000000000000 $t
     /tmp/ccjNhGDP.s:150    .text._port_irq_epilogue:0000000000000000 _port_irq_epilogue
     /tmp/ccjNhGDP.s:240    .text._port_irq_epilogue:0000000000000060 $d
     /tmp/ccjNhGDP.s:249    .text.SysTickVector:0000000000000000 $t
     /tmp/ccjNhGDP.s:255    .text.SysTickVector:0000000000000000 SysTickVector
     /tmp/ccjNhGDP.s:293    .text._port_switch:0000000000000000 $t
     /tmp/ccjNhGDP.s:299    .text._port_switch:0000000000000000 _port_switch
     /tmp/ccjNhGDP.s:326    .text._port_thread_start:0000000000000000 $t
     /tmp/ccjNhGDP.s:332    .text._port_thread_start:0000000000000000 _port_thread_start
                     .debug_frame:0000000000000010 $d

UNDEFINED SYMBOLS
chSchDoReschedule
nvicSetSystemHandlerPriority
rlist
chSysTimerHandlerI
chThdExit
