ARM GAS  /tmp/cc41dfeQ.s 			page 1


   1              		.syntax unified
   2              		.cpu cortex-m4
   3              		.fpu softvfp
   4              		.eabi_attribute 20, 1
   5              		.eabi_attribute 21, 1
   6              		.eabi_attribute 23, 3
   7              		.eabi_attribute 24, 1
   8              		.eabi_attribute 25, 1
   9              		.eabi_attribute 26, 1
  10              		.eabi_attribute 30, 2
  11              		.eabi_attribute 34, 1
  12              		.eabi_attribute 18, 4
  13              		.thumb
  14              		.file	"serial_lld.c"
  15              		.text
  16              	.Ltext0:
  17              		.cfi_sections	.debug_frame
  18              		.section	.text.notify1,"ax",%progbits
  19              		.align	2
  20              		.p2align 4,,15
  21              		.thumb
  22              		.thumb_func
  23              		.type	notify1, %function
  24              	notify1:
  25              	.LFB122:
  26              		.file 1 "../../os/hal/platforms/STM32/USARTv2/serial_lld.c"
  27              		.loc 1 198 0
  28              		.cfi_startproc
  29              		@ args = 0, pretend = 0, frame = 0
  30              		@ frame_needed = 0, uses_anonymous_args = 0
  31              		@ link register save eliminated.
  32              	.LVL0:
  33              		.loc 1 201 0
  34 0000 024B     		ldr	r3, .L2
  35 0002 1A68     		ldr	r2, [r3]
  36 0004 42F08002 		orr	r2, r2, #128
  37 0008 1A60     		str	r2, [r3]
  38 000a 7047     		bx	lr
  39              	.L3:
  40              		.align	2
  41              	.L2:
  42 000c 00380140 		.word	1073821696
  43              		.cfi_endproc
  44              	.LFE122:
  45              		.size	notify1, .-notify1
  46              		.section	.text.VectorD4,"ax",%progbits
  47              		.align	2
  48              		.p2align 4,,15
  49              		.global	VectorD4
  50              		.thumb
  51              		.thumb_func
  52              		.type	VectorD4, %function
  53              	VectorD4:
  54              	.LFB123:
  55              		.loc 1 258 0
  56              		.cfi_startproc
  57              		@ args = 0, pretend = 0, frame = 0
ARM GAS  /tmp/cc41dfeQ.s 			page 2


  58              		@ frame_needed = 0, uses_anonymous_args = 0
  59              	.LVL1:
  60              	.LBB32:
  61              	.LBB33:
  62              		.loc 1 148 0
  63 0000 364B     		ldr	r3, .L50
  64              	.LBE33:
  65              	.LBE32:
  66              		.loc 1 258 0
  67 0002 70B5     		push	{r4, r5, r6, lr}
  68              		.cfi_def_cfa_offset 16
  69              		.cfi_offset 4, -16
  70              		.cfi_offset 5, -12
  71              		.cfi_offset 6, -8
  72              		.cfi_offset 14, -4
  73              	.LBB49:
  74              	.LBB47:
  75              		.loc 1 148 0
  76 0004 5D6F     		ldr	r5, [r3, #116]
  77              	.LVL2:
  78              		.loc 1 149 0
  79 0006 2E68     		ldr	r6, [r5]
  80              	.LVL3:
  81              		.loc 1 153 0
  82 0008 EC69     		ldr	r4, [r5, #28]
  83              	.LVL4:
  84              		.loc 1 154 0
  85 000a 2C62     		str	r4, [r5, #32]
  86              		.loc 1 157 0
  87 000c 2207     		lsls	r2, r4, #28
  88 000e 32D1     		bne	.L45
  89              	.L5:
  90              		.loc 1 161 0
  91 0010 E305     		lsls	r3, r4, #23
  92 0012 24D4     		bmi	.L46
  93              	.L10:
  94              		.loc 1 168 0
  95 0014 A006     		lsls	r0, r4, #26
  96 0016 16D4     		bmi	.L47
  97              	.L11:
  98              		.loc 1 175 0
  99 0018 3106     		lsls	r1, r6, #24
 100 001a 01D5     		bpl	.L12
 101 001c 2206     		lsls	r2, r4, #24
 102 001e 45D4     		bmi	.L48
 103              	.L12:
 104              		.loc 1 189 0
 105 0020 6306     		lsls	r3, r4, #25
 106 0022 0CD5     		bpl	.L15
 107              	.LBB34:
 108              		.loc 1 190 0
 109 0024 2023     		movs	r3, #32
 110              	@ 190 "../../os/hal/platforms/STM32/USARTv2/serial_lld.c" 1
 111 0026 83F31188 		msr     BASEPRI, r3
 112              	@ 0 "" 2
 113              		.thumb
 114              	.LBE34:
ARM GAS  /tmp/cc41dfeQ.s 			page 3


 115              		.loc 1 191 0
 116 002a 2D48     		ldr	r0, .L50+4
 117 002c 1021     		movs	r1, #16
 118 002e FFF7FEFF 		bl	chEvtBroadcastFlagsI
 119              	.LVL5:
 120              	.LBB35:
 121              		.loc 1 192 0
 122 0032 0023     		movs	r3, #0
 123              	@ 192 "../../os/hal/platforms/STM32/USARTv2/serial_lld.c" 1
 124 0034 83F31188 		msr     BASEPRI, r3
 125              	@ 0 "" 2
 126              		.thumb
 127              	.LBE35:
 128              		.loc 1 193 0
 129 0038 26F04006 		bic	r6, r6, #64
 130              	.LVL6:
 131 003c 2E60     		str	r6, [r5]
 132              	.L15:
 133              	.LBE47:
 134              	.LBE49:
 135              		.loc 1 265 0
 136 003e BDE87040 		pop	{r4, r5, r6, lr}
 137              	.LVL7:
 138              		.loc 1 264 0
 139 0042 FFF7FEBF 		b	_port_irq_epilogue
 140              	.LVL8:
 141              	.L47:
 142              	.LBB50:
 143              	.LBB48:
 144              	.LBB36:
 145              		.loc 1 169 0
 146 0046 2023     		movs	r3, #32
 147              	@ 169 "../../os/hal/platforms/STM32/USARTv2/serial_lld.c" 1
 148 0048 83F31188 		msr     BASEPRI, r3
 149              	@ 0 "" 2
 150              		.thumb
 151              	.LBE36:
 152              		.loc 1 170 0
 153 004c A98C     		ldrh	r1, [r5, #36]
 154 004e 2348     		ldr	r0, .L50
 155 0050 C9B2     		uxtb	r1, r1
 156 0052 FFF7FEFF 		bl	sdIncomingDataI
 157              	.LVL9:
 158              	.LBB37:
 159              		.loc 1 171 0
 160 0056 0023     		movs	r3, #0
 161              	@ 171 "../../os/hal/platforms/STM32/USARTv2/serial_lld.c" 1
 162 0058 83F31188 		msr     BASEPRI, r3
 163              	@ 0 "" 2
 164              		.thumb
 165 005c DCE7     		b	.L11
 166              	.L46:
 167              	.LBE37:
 168              	.LBB38:
 169              		.loc 1 162 0
 170 005e 2023     		movs	r3, #32
 171              	@ 162 "../../os/hal/platforms/STM32/USARTv2/serial_lld.c" 1
ARM GAS  /tmp/cc41dfeQ.s 			page 4


 172 0060 83F31188 		msr     BASEPRI, r3
 173              	@ 0 "" 2
 174              		.thumb
 175              	.LBE38:
 176              		.loc 1 163 0
 177 0064 1E48     		ldr	r0, .L50+4
 178 0066 4FF40071 		mov	r1, #512
 179 006a FFF7FEFF 		bl	chEvtBroadcastFlagsI
 180              	.LVL10:
 181              	.LBB39:
 182              		.loc 1 164 0
 183 006e 0023     		movs	r3, #0
 184              	@ 164 "../../os/hal/platforms/STM32/USARTv2/serial_lld.c" 1
 185 0070 83F31188 		msr     BASEPRI, r3
 186              	@ 0 "" 2
 187              		.thumb
 188 0074 CEE7     		b	.L10
 189              	.L45:
 190              	.LVL11:
 191              	.LBE39:
 192              	.LBB40:
 193              	.LBB41:
 194              		.loc 1 127 0
 195 0076 14F0080F 		tst	r4, #8
 196 007a 14BF     		ite	ne
 197 007c 8021     		movne	r1, #128
 198 007e 0021     		moveq	r1, #0
 199              	.LVL12:
 200              		.loc 1 131 0
 201 0080 E307     		lsls	r3, r4, #31
 202              		.loc 1 132 0
 203 0082 48BF     		it	mi
 204 0084 41F02001 		orrmi	r1, r1, #32
 205              	.LVL13:
 206              		.loc 1 133 0
 207 0088 A007     		lsls	r0, r4, #30
 208              		.loc 1 134 0
 209 008a 48BF     		it	mi
 210 008c 41F04001 		orrmi	r1, r1, #64
 211              	.LVL14:
 212              		.loc 1 135 0
 213 0090 6207     		lsls	r2, r4, #29
 214              		.loc 1 136 0
 215 0092 48BF     		it	mi
 216 0094 41F48071 		orrmi	r1, r1, #256
 217              	.LVL15:
 218              	.LBB42:
 219              		.loc 1 137 0
 220 0098 2023     		movs	r3, #32
 221              	@ 137 "../../os/hal/platforms/STM32/USARTv2/serial_lld.c" 1
 222 009a 83F31188 		msr     BASEPRI, r3
 223              	@ 0 "" 2
 224              		.thumb
 225              	.LBE42:
 226              		.loc 1 138 0
 227 009e 1048     		ldr	r0, .L50+4
 228 00a0 FFF7FEFF 		bl	chEvtBroadcastFlagsI
ARM GAS  /tmp/cc41dfeQ.s 			page 5


 229              	.LVL16:
 230              	.LBB43:
 231              		.loc 1 139 0
 232 00a4 0023     		movs	r3, #0
 233              	@ 139 "../../os/hal/platforms/STM32/USARTv2/serial_lld.c" 1
 234 00a6 83F31188 		msr     BASEPRI, r3
 235              	@ 0 "" 2
 236              		.thumb
 237 00aa B1E7     		b	.L5
 238              	.LVL17:
 239              	.L48:
 240              	.LBE43:
 241              	.LBE41:
 242              	.LBE40:
 243              	.LBB44:
 244              	.LBB45:
 245              		.loc 1 177 0
 246 00ac 2023     		movs	r3, #32
 247              	@ 177 "../../os/hal/platforms/STM32/USARTv2/serial_lld.c" 1
 248 00ae 83F31188 		msr     BASEPRI, r3
 249              	@ 0 "" 2
 250              		.thumb
 251              	.LBE45:
 252              		.loc 1 178 0
 253 00b2 0C48     		ldr	r0, .L50+8
 254 00b4 FFF7FEFF 		bl	chOQGetI
 255              	.LVL18:
 256              		.loc 1 179 0
 257 00b8 0028     		cmp	r0, #0
 258 00ba 05DB     		blt	.L49
 259              		.loc 1 184 0
 260 00bc 80B2     		uxth	r0, r0
 261              	.LVL19:
 262 00be 2885     		strh	r0, [r5, #40]	@ movhi
 263              	.L14:
 264              	.LBB46:
 265              		.loc 1 185 0
 266 00c0 0023     		movs	r3, #0
 267              	@ 185 "../../os/hal/platforms/STM32/USARTv2/serial_lld.c" 1
 268 00c2 83F31188 		msr     BASEPRI, r3
 269              	@ 0 "" 2
 270              		.thumb
 271 00c6 ABE7     		b	.L12
 272              	.LVL20:
 273              	.L49:
 274              	.LBE46:
 275              		.loc 1 180 0
 276 00c8 0548     		ldr	r0, .L50+4
 277              	.LVL21:
 278 00ca 0821     		movs	r1, #8
 279 00cc FFF7FEFF 		bl	chEvtBroadcastFlagsI
 280              	.LVL22:
 281              		.loc 1 181 0
 282 00d0 26F0C003 		bic	r3, r6, #192
 283 00d4 43F04003 		orr	r3, r3, #64
 284 00d8 2B60     		str	r3, [r5]
 285 00da F1E7     		b	.L14
ARM GAS  /tmp/cc41dfeQ.s 			page 6


 286              	.L51:
 287              		.align	2
 288              	.L50:
 289 00dc 00000000 		.word	.LANCHOR0
 290 00e0 04000000 		.word	.LANCHOR0+4
 291 00e4 30000000 		.word	.LANCHOR0+48
 292              	.LBE44:
 293              	.LBE48:
 294              	.LBE50:
 295              		.cfi_endproc
 296              	.LFE123:
 297              		.size	VectorD4, .-VectorD4
 298 00e8 AFF30080 		.section	.text.sd_lld_init,"ax",%progbits
 298      AFF30080 
 299              		.align	2
 300              		.p2align 4,,15
 301              		.global	sd_lld_init
 302              		.thumb
 303              		.thumb_func
 304              		.type	sd_lld_init, %function
 305              	sd_lld_init:
 306              	.LFB124:
 307              		.loc 1 372 0
 308              		.cfi_startproc
 309              		@ args = 0, pretend = 0, frame = 0
 310              		@ frame_needed = 0, uses_anonymous_args = 0
 311 0000 10B5     		push	{r4, lr}
 312              		.cfi_def_cfa_offset 8
 313              		.cfi_offset 4, -8
 314              		.cfi_offset 14, -4
 315              		.loc 1 375 0
 316 0002 054C     		ldr	r4, .L53
 317 0004 054A     		ldr	r2, .L53+4
 318 0006 2046     		mov	r0, r4
 319 0008 0021     		movs	r1, #0
 320 000a FFF7FEFF 		bl	sdObjectInit
 321              	.LVL23:
 322              		.loc 1 376 0
 323 000e 044A     		ldr	r2, .L53+8
 324              		.loc 1 377 0
 325 0010 044B     		ldr	r3, .L53+12
 326              		.loc 1 376 0
 327 0012 6267     		str	r2, [r4, #116]
 328              		.loc 1 377 0
 329 0014 A367     		str	r3, [r4, #120]
 330 0016 10BD     		pop	{r4, pc}
 331              	.L54:
 332              		.align	2
 333              	.L53:
 334 0018 00000000 		.word	.LANCHOR0
 335 001c 00000000 		.word	notify1
 336 0020 00380140 		.word	1073821696
 337 0024 00512502 		.word	36000000
 338              		.cfi_endproc
 339              	.LFE124:
 340              		.size	sd_lld_init, .-sd_lld_init
 341 0028 AFF30080 		.section	.text.sd_lld_start,"ax",%progbits
ARM GAS  /tmp/cc41dfeQ.s 			page 7


 341      AFF30080 
 342              		.align	2
 343              		.p2align 4,,15
 344              		.global	sd_lld_start
 345              		.thumb
 346              		.thumb_func
 347              		.type	sd_lld_start, %function
 348              	sd_lld_start:
 349              	.LFB125:
 350              		.loc 1 421 0
 351              		.cfi_startproc
 352              		@ args = 0, pretend = 0, frame = 0
 353              		@ frame_needed = 0, uses_anonymous_args = 0
 354              	.LVL24:
 355 0000 F8B5     		push	{r3, r4, r5, r6, r7, lr}
 356              		.cfi_def_cfa_offset 24
 357              		.cfi_offset 3, -24
 358              		.cfi_offset 4, -20
 359              		.cfi_offset 5, -16
 360              		.cfi_offset 6, -12
 361              		.cfi_offset 7, -8
 362              		.cfi_offset 14, -4
 363              		.loc 1 424 0
 364 0002 174C     		ldr	r4, .L60
 365              		.loc 1 426 0
 366 0004 037A     		ldrb	r3, [r0, #8]	@ zero_extendqisi2
 367              		.loc 1 424 0
 368 0006 0029     		cmp	r1, #0
 369 0008 18BF     		it	ne
 370 000a 0C46     		movne	r4, r1
 371              	.LVL25:
 372              		.loc 1 426 0
 373 000c 012B     		cmp	r3, #1
 374              		.loc 1 421 0
 375 000e 0546     		mov	r5, r0
 376              		.loc 1 426 0
 377 0010 18D0     		beq	.L59
 378              	.LVL26:
 379              	.L57:
 380              	.LBB51:
 381              	.LBB52:
 382              		.loc 1 96 0
 383 0012 2668     		ldr	r6, [r4]
 384              		.loc 1 102 0
 385 0014 6268     		ldr	r2, [r4, #4]
 386              		.loc 1 96 0
 387 0016 AF6F     		ldr	r7, [r5, #120]
 388              		.loc 1 99 0
 389 0018 A168     		ldr	r1, [r4, #8]
 390              		.loc 1 100 0
 391 001a E068     		ldr	r0, [r4, #12]
 392              	.LBE52:
 393              	.LBE51:
 394              		.loc 1 421 0
 395 001c 6B6F     		ldr	r3, [r5, #116]
 396              	.LVL27:
 397              	.LBB54:
ARM GAS  /tmp/cc41dfeQ.s 			page 8


 398              	.LBB53:
 399              		.loc 1 102 0
 400 001e 42F49672 		orr	r2, r2, #300
 401              		.loc 1 96 0
 402 0022 B7FBF6F5 		udiv	r5, r7, r6
 403              	.LVL28:
 404              		.loc 1 99 0
 405 0026 41F04004 		orr	r4, r1, #64
 406              	.LVL29:
 407              		.loc 1 96 0
 408 002a ADB2     		uxth	r5, r5
 409              		.loc 1 100 0
 410 002c 40F00100 		orr	r0, r0, #1
 411              		.loc 1 102 0
 412 0030 42F00102 		orr	r2, r2, #1
 413              		.loc 1 104 0
 414 0034 4FF0FF31 		mov	r1, #-1
 415              		.loc 1 96 0
 416 0038 9D81     		strh	r5, [r3, #12]	@ movhi
 417              		.loc 1 99 0
 418 003a 5C60     		str	r4, [r3, #4]
 419              		.loc 1 100 0
 420 003c 9860     		str	r0, [r3, #8]
 421              		.loc 1 101 0
 422 003e 1A60     		str	r2, [r3]
 423              		.loc 1 104 0
 424 0040 1962     		str	r1, [r3, #32]
 425 0042 F8BD     		pop	{r3, r4, r5, r6, r7, pc}
 426              	.LVL30:
 427              	.L59:
 428              	.LBE53:
 429              	.LBE54:
 430              		.loc 1 428 0
 431 0044 074B     		ldr	r3, .L60+4
 432 0046 9842     		cmp	r0, r3
 433 0048 E3D1     		bne	.L57
 434              		.loc 1 429 0
 435 004a 074B     		ldr	r3, .L60+8
 436 004c 9A69     		ldr	r2, [r3, #24]
 437 004e 42F48042 		orr	r2, r2, #16384
 438 0052 9A61     		str	r2, [r3, #24]
 439              		.loc 1 430 0
 440 0054 2520     		movs	r0, #37
 441              	.LVL31:
 442 0056 C021     		movs	r1, #192
 443 0058 FFF7FEFF 		bl	nvicEnableVector
 444              	.LVL32:
 445 005c D9E7     		b	.L57
 446              	.L61:
 447 005e 00BF     		.align	2
 448              	.L60:
 449 0060 00000000 		.word	.LANCHOR1
 450 0064 00000000 		.word	.LANCHOR0
 451 0068 00100240 		.word	1073876992
 452              		.cfi_endproc
 453              	.LFE125:
 454              		.size	sd_lld_start, .-sd_lld_start
ARM GAS  /tmp/cc41dfeQ.s 			page 9


 455 006c AFF30080 		.section	.text.sd_lld_stop,"ax",%progbits
 456              		.align	2
 457              		.p2align 4,,15
 458              		.global	sd_lld_stop
 459              		.thumb
 460              		.thumb_func
 461              		.type	sd_lld_stop, %function
 462              	sd_lld_stop:
 463              	.LFB126:
 464              		.loc 1 482 0
 465              		.cfi_startproc
 466              		@ args = 0, pretend = 0, frame = 0
 467              		@ frame_needed = 0, uses_anonymous_args = 0
 468              		@ link register save eliminated.
 469              	.LVL33:
 470              		.loc 1 484 0
 471 0000 037A     		ldrb	r3, [r0, #8]	@ zero_extendqisi2
 472 0002 022B     		cmp	r3, #2
 473 0004 00D0     		beq	.L66
 474              	.L62:
 475 0006 7047     		bx	lr
 476              	.L66:
 477              		.loc 1 487 0
 478 0008 0749     		ldr	r1, .L67
 479              		.loc 1 485 0
 480 000a 436F     		ldr	r3, [r0, #116]
 481              	.LVL34:
 482              	.LBB55:
 483              	.LBB56:
 484              		.loc 1 115 0
 485 000c 0022     		movs	r2, #0
 486              	.LBE56:
 487              	.LBE55:
 488              		.loc 1 487 0
 489 000e 8842     		cmp	r0, r1
 490              	.LBB58:
 491              	.LBB57:
 492              		.loc 1 115 0
 493 0010 1A60     		str	r2, [r3]
 494              		.loc 1 116 0
 495 0012 5A60     		str	r2, [r3, #4]
 496              		.loc 1 117 0
 497 0014 9A60     		str	r2, [r3, #8]
 498              	.LBE57:
 499              	.LBE58:
 500              		.loc 1 487 0
 501 0016 F6D1     		bne	.L62
 502              		.loc 1 488 0
 503 0018 044B     		ldr	r3, .L67+4
 504              	.LVL35:
 505 001a 9A69     		ldr	r2, [r3, #24]
 506 001c 22F48042 		bic	r2, r2, #16384
 507 0020 9A61     		str	r2, [r3, #24]
 508              		.loc 1 489 0
 509 0022 2520     		movs	r0, #37
 510              	.LVL36:
 511 0024 FFF7FEBF 		b	nvicDisableVector
ARM GAS  /tmp/cc41dfeQ.s 			page 10


 512              	.LVL37:
 513              	.L68:
 514              		.align	2
 515              	.L67:
 516 0028 00000000 		.word	.LANCHOR0
 517 002c 00100240 		.word	1073876992
 518              		.cfi_endproc
 519              	.LFE126:
 520              		.size	sd_lld_stop, .-sd_lld_stop
 521              		.global	SD1
 522              		.section	.rodata.default_config,"a",%progbits
 523              		.align	2
 524              		.set	.LANCHOR1,. + 0
 525              		.type	default_config, %object
 526              		.size	default_config, 16
 527              	default_config:
 528 0000 00960000 		.word	38400
 529 0004 00000000 		.word	0
 530 0008 00400000 		.word	16384
 531 000c 00000000 		.word	0
 532              		.section	.bss.SD1,"aw",%nobits
 533              		.align	2
 534              		.set	.LANCHOR0,. + 0
 535              		.type	SD1, %object
 536              		.size	SD1, 124
 537              	SD1:
 538 0000 00000000 		.space	124
 538      00000000 
 538      00000000 
 538      00000000 
 538      00000000 
 539              		.text
 540              	.Letext0:
 541              		.file 2 "/usr/lib/gcc/arm-none-eabi/4.8.3/include/stddef.h"
 542              		.file 3 "/usr/arm-none-eabi/include/stdint.h"
 543              		.file 4 "../../os/ports/GCC/ARMCMx/chtypes.h"
 544              		.file 5 "../../os/kernel/include/chlists.h"
 545              		.file 6 "../../os/kernel/include/chthreads.h"
 546              		.file 7 "../../os/ports/GCC/ARMCMx/chcore_v7m.h"
 547              		.file 8 "../../os/kernel/include/chmtx.h"
 548              		.file 9 "../../os/kernel/include/chevents.h"
 549              		.file 10 "../../os/kernel/include/chqueues.h"
 550              		.file 11 "../../os/hal/platforms/STM32F30x/stm32f30x.h"
 551              		.file 12 "../../os/hal/include/serial.h"
 552              		.file 13 "../../os/hal/platforms/STM32/USARTv2/serial_lld.h"
 553              		.file 14 "../../os/ports/common/ARMCMx/nvic.h"
 554              		.file 15 "../../os/ports/common/ARMCMx/CMSIS/include/core_cm4.h"
 555              		.section	.debug_info,"",%progbits
 556              	.Ldebug_info0:
 557 0000 440F0000 		.4byte	0xf44
 558 0004 0400     		.2byte	0x4
 559 0006 00000000 		.4byte	.Ldebug_abbrev0
 560 000a 04       		.byte	0x4
 561 000b 01       		.uleb128 0x1
 562 000c 31030000 		.4byte	.LASF131
 563 0010 01       		.byte	0x1
 564 0011 55050000 		.4byte	.LASF132
ARM GAS  /tmp/cc41dfeQ.s 			page 11


 565 0015 D0010000 		.4byte	.LASF133
 566 0019 50000000 		.4byte	.Ldebug_ranges0+0x50
 567 001d 00000000 		.4byte	0
 568 0021 00000000 		.4byte	.Ldebug_line0
 569 0025 02       		.uleb128 0x2
 570 0026 04       		.byte	0x4
 571 0027 05       		.byte	0x5
 572 0028 696E7400 		.ascii	"int\000"
 573 002c 03       		.uleb128 0x3
 574 002d 00000000 		.4byte	.LASF2
 575 0031 02       		.byte	0x2
 576 0032 D4       		.byte	0xd4
 577 0033 37000000 		.4byte	0x37
 578 0037 04       		.uleb128 0x4
 579 0038 04       		.byte	0x4
 580 0039 07       		.byte	0x7
 581 003a 61010000 		.4byte	.LASF0
 582 003e 04       		.uleb128 0x4
 583 003f 01       		.byte	0x1
 584 0040 06       		.byte	0x6
 585 0041 8D000000 		.4byte	.LASF1
 586 0045 03       		.uleb128 0x3
 587 0046 ED050000 		.4byte	.LASF3
 588 004a 03       		.byte	0x3
 589 004b 2A       		.byte	0x2a
 590 004c 50000000 		.4byte	0x50
 591 0050 04       		.uleb128 0x4
 592 0051 01       		.byte	0x1
 593 0052 08       		.byte	0x8
 594 0053 19040000 		.4byte	.LASF4
 595 0057 04       		.uleb128 0x4
 596 0058 02       		.byte	0x2
 597 0059 05       		.byte	0x5
 598 005a 5B040000 		.4byte	.LASF5
 599 005e 03       		.uleb128 0x3
 600 005f 6E010000 		.4byte	.LASF6
 601 0063 03       		.byte	0x3
 602 0064 36       		.byte	0x36
 603 0065 69000000 		.4byte	0x69
 604 0069 04       		.uleb128 0x4
 605 006a 02       		.byte	0x2
 606 006b 07       		.byte	0x7
 607 006c B0010000 		.4byte	.LASF7
 608 0070 03       		.uleb128 0x3
 609 0071 11040000 		.4byte	.LASF8
 610 0075 03       		.byte	0x3
 611 0076 4F       		.byte	0x4f
 612 0077 7B000000 		.4byte	0x7b
 613 007b 04       		.uleb128 0x4
 614 007c 04       		.byte	0x4
 615 007d 05       		.byte	0x5
 616 007e D9000000 		.4byte	.LASF9
 617 0082 03       		.uleb128 0x3
 618 0083 D4040000 		.4byte	.LASF10
 619 0087 03       		.byte	0x3
 620 0088 50       		.byte	0x50
 621 0089 8D000000 		.4byte	0x8d
ARM GAS  /tmp/cc41dfeQ.s 			page 12


 622 008d 04       		.uleb128 0x4
 623 008e 04       		.byte	0x4
 624 008f 07       		.byte	0x7
 625 0090 06050000 		.4byte	.LASF11
 626 0094 04       		.uleb128 0x4
 627 0095 08       		.byte	0x8
 628 0096 05       		.byte	0x5
 629 0097 7F000000 		.4byte	.LASF12
 630 009b 04       		.uleb128 0x4
 631 009c 08       		.byte	0x8
 632 009d 07       		.byte	0x7
 633 009e 35000000 		.4byte	.LASF13
 634 00a2 04       		.uleb128 0x4
 635 00a3 01       		.byte	0x1
 636 00a4 02       		.byte	0x2
 637 00a5 0B040000 		.4byte	.LASF14
 638 00a9 03       		.uleb128 0x3
 639 00aa 33020000 		.4byte	.LASF15
 640 00ae 04       		.byte	0x4
 641 00af 25       		.byte	0x25
 642 00b0 45000000 		.4byte	0x45
 643 00b4 03       		.uleb128 0x3
 644 00b5 EB000000 		.4byte	.LASF16
 645 00b9 04       		.byte	0x4
 646 00ba 26       		.byte	0x26
 647 00bb 45000000 		.4byte	0x45
 648 00bf 03       		.uleb128 0x3
 649 00c0 F2020000 		.4byte	.LASF17
 650 00c4 04       		.byte	0x4
 651 00c5 27       		.byte	0x27
 652 00c6 45000000 		.4byte	0x45
 653 00ca 03       		.uleb128 0x3
 654 00cb AE000000 		.4byte	.LASF18
 655 00cf 04       		.byte	0x4
 656 00d0 28       		.byte	0x28
 657 00d1 45000000 		.4byte	0x45
 658 00d5 03       		.uleb128 0x3
 659 00d6 29030000 		.4byte	.LASF19
 660 00da 04       		.byte	0x4
 661 00db 29       		.byte	0x29
 662 00dc 82000000 		.4byte	0x82
 663 00e0 03       		.uleb128 0x3
 664 00e1 C3010000 		.4byte	.LASF20
 665 00e5 04       		.byte	0x4
 666 00e6 2A       		.byte	0x2a
 667 00e7 70000000 		.4byte	0x70
 668 00eb 03       		.uleb128 0x3
 669 00ec 47020000 		.4byte	.LASF21
 670 00f0 04       		.byte	0x4
 671 00f1 2C       		.byte	0x2c
 672 00f2 82000000 		.4byte	0x82
 673 00f6 03       		.uleb128 0x3
 674 00f7 AC050000 		.4byte	.LASF22
 675 00fb 04       		.byte	0x4
 676 00fc 2D       		.byte	0x2d
 677 00fd 82000000 		.4byte	0x82
 678 0101 03       		.uleb128 0x3
ARM GAS  /tmp/cc41dfeQ.s 			page 13


 679 0102 40050000 		.4byte	.LASF23
 680 0106 04       		.byte	0x4
 681 0107 2E       		.byte	0x2e
 682 0108 82000000 		.4byte	0x82
 683 010c 03       		.uleb128 0x3
 684 010d 9E040000 		.4byte	.LASF24
 685 0111 05       		.byte	0x5
 686 0112 23       		.byte	0x23
 687 0113 17010000 		.4byte	0x117
 688 0117 05       		.uleb128 0x5
 689 0118 9E040000 		.4byte	.LASF24
 690 011c 48       		.byte	0x48
 691 011d 06       		.byte	0x6
 692 011e 57       		.byte	0x57
 693 011f 14020000 		.4byte	0x214
 694 0123 06       		.uleb128 0x6
 695 0124 A8020000 		.4byte	.LASF25
 696 0128 06       		.byte	0x6
 697 0129 58       		.byte	0x58
 698 012a 35020000 		.4byte	0x235
 699 012e 00       		.byte	0
 700 012f 06       		.uleb128 0x6
 701 0130 22030000 		.4byte	.LASF26
 702 0134 06       		.byte	0x6
 703 0135 5A       		.byte	0x5a
 704 0136 35020000 		.4byte	0x235
 705 013a 04       		.byte	0x4
 706 013b 06       		.uleb128 0x6
 707 013c 00060000 		.4byte	.LASF27
 708 0140 06       		.byte	0x6
 709 0141 5C       		.byte	0x5c
 710 0142 D5000000 		.4byte	0xd5
 711 0146 08       		.byte	0x8
 712 0147 06       		.uleb128 0x6
 713 0148 42060000 		.4byte	.LASF28
 714 014c 06       		.byte	0x6
 715 014d 5D       		.byte	0x5d
 716 014e EF020000 		.4byte	0x2ef
 717 0152 0C       		.byte	0xc
 718 0153 06       		.uleb128 0x6
 719 0154 31010000 		.4byte	.LASF29
 720 0158 06       		.byte	0x6
 721 0159 5F       		.byte	0x5f
 722 015a 35020000 		.4byte	0x235
 723 015e 10       		.byte	0x10
 724 015f 06       		.uleb128 0x6
 725 0160 AF020000 		.4byte	.LASF30
 726 0164 06       		.byte	0x6
 727 0165 60       		.byte	0x60
 728 0166 35020000 		.4byte	0x235
 729 016a 14       		.byte	0x14
 730 016b 06       		.uleb128 0x6
 731 016c BE050000 		.4byte	.LASF31
 732 0170 06       		.byte	0x6
 733 0171 67       		.byte	0x67
 734 0172 0A040000 		.4byte	0x40a
 735 0176 18       		.byte	0x18
ARM GAS  /tmp/cc41dfeQ.s 			page 14


 736 0177 06       		.uleb128 0x6
 737 0178 49040000 		.4byte	.LASF32
 738 017c 06       		.byte	0x6
 739 017d 72       		.byte	0x72
 740 017e B4000000 		.4byte	0xb4
 741 0182 1C       		.byte	0x1c
 742 0183 06       		.uleb128 0x6
 743 0184 7E040000 		.4byte	.LASF33
 744 0188 06       		.byte	0x6
 745 0189 76       		.byte	0x76
 746 018a A9000000 		.4byte	0xa9
 747 018e 1D       		.byte	0x1d
 748 018f 06       		.uleb128 0x6
 749 0190 FD000000 		.4byte	.LASF34
 750 0194 06       		.byte	0x6
 751 0195 7B       		.byte	0x7b
 752 0196 BF000000 		.4byte	0xbf
 753 019a 1E       		.byte	0x1e
 754 019b 06       		.uleb128 0x6
 755 019c 65040000 		.4byte	.LASF35
 756 01a0 06       		.byte	0x6
 757 01a1 81       		.byte	0x81
 758 01a2 CA000000 		.4byte	0xca
 759 01a6 1F       		.byte	0x1f
 760 01a7 06       		.uleb128 0x6
 761 01a8 15010000 		.4byte	.LASF36
 762 01ac 06       		.byte	0x6
 763 01ad 88       		.byte	0x88
 764 01ae 1C030000 		.4byte	0x31c
 765 01b2 20       		.byte	0x20
 766 01b3 07       		.uleb128 0x7
 767 01b4 705F7500 		.ascii	"p_u\000"
 768 01b8 06       		.byte	0x6
 769 01b9 AD       		.byte	0xad
 770 01ba D5030000 		.4byte	0x3d5
 771 01be 24       		.byte	0x24
 772 01bf 06       		.uleb128 0x6
 773 01c0 48060000 		.4byte	.LASF37
 774 01c4 06       		.byte	0x6
 775 01c5 B2       		.byte	0xb2
 776 01c6 5B020000 		.4byte	0x25b
 777 01ca 28       		.byte	0x28
 778 01cb 06       		.uleb128 0x6
 779 01cc 8E010000 		.4byte	.LASF38
 780 01d0 06       		.byte	0x6
 781 01d1 B8       		.byte	0xb8
 782 01d2 3B020000 		.4byte	0x23b
 783 01d6 2C       		.byte	0x2c
 784 01d7 06       		.uleb128 0x6
 785 01d8 DB050000 		.4byte	.LASF39
 786 01dc 06       		.byte	0x6
 787 01dd BC       		.byte	0xbc
 788 01de E0000000 		.4byte	0xe0
 789 01e2 34       		.byte	0x34
 790 01e3 06       		.uleb128 0x6
 791 01e4 B5040000 		.4byte	.LASF40
 792 01e8 06       		.byte	0x6
ARM GAS  /tmp/cc41dfeQ.s 			page 15


 793 01e9 C2       		.byte	0xc2
 794 01ea EB000000 		.4byte	0xeb
 795 01ee 38       		.byte	0x38
 796 01ef 06       		.uleb128 0x6
 797 01f0 51040000 		.4byte	.LASF41
 798 01f4 06       		.byte	0x6
 799 01f5 C9       		.byte	0xc9
 800 01f6 1C040000 		.4byte	0x41c
 801 01fa 3C       		.byte	0x3c
 802 01fb 06       		.uleb128 0x6
 803 01fc 4A050000 		.4byte	.LASF42
 804 0200 06       		.byte	0x6
 805 0201 CD       		.byte	0xcd
 806 0202 D5000000 		.4byte	0xd5
 807 0206 40       		.byte	0x40
 808 0207 06       		.uleb128 0x6
 809 0208 9E000000 		.4byte	.LASF43
 810 020c 06       		.byte	0x6
 811 020d D3       		.byte	0xd3
 812 020e 71020000 		.4byte	0x271
 813 0212 44       		.byte	0x44
 814 0213 00       		.byte	0
 815 0214 08       		.uleb128 0x8
 816 0215 08       		.byte	0x8
 817 0216 05       		.byte	0x5
 818 0217 5A       		.byte	0x5a
 819 0218 35020000 		.4byte	0x235
 820 021c 06       		.uleb128 0x6
 821 021d A8020000 		.4byte	.LASF25
 822 0221 05       		.byte	0x5
 823 0222 5B       		.byte	0x5b
 824 0223 35020000 		.4byte	0x235
 825 0227 00       		.byte	0
 826 0228 06       		.uleb128 0x6
 827 0229 22030000 		.4byte	.LASF26
 828 022d 05       		.byte	0x5
 829 022e 5D       		.byte	0x5d
 830 022f 35020000 		.4byte	0x235
 831 0233 04       		.byte	0x4
 832 0234 00       		.byte	0
 833 0235 09       		.uleb128 0x9
 834 0236 04       		.byte	0x4
 835 0237 0C010000 		.4byte	0x10c
 836 023b 03       		.uleb128 0x3
 837 023c B7020000 		.4byte	.LASF44
 838 0240 05       		.byte	0x5
 839 0241 5F       		.byte	0x5f
 840 0242 14020000 		.4byte	0x214
 841 0246 08       		.uleb128 0x8
 842 0247 04       		.byte	0x4
 843 0248 05       		.byte	0x5
 844 0249 64       		.byte	0x64
 845 024a 5B020000 		.4byte	0x25b
 846 024e 06       		.uleb128 0x6
 847 024f A8020000 		.4byte	.LASF25
 848 0253 05       		.byte	0x5
 849 0254 66       		.byte	0x66
ARM GAS  /tmp/cc41dfeQ.s 			page 16


 850 0255 35020000 		.4byte	0x235
 851 0259 00       		.byte	0
 852 025a 00       		.byte	0
 853 025b 03       		.uleb128 0x3
 854 025c 3B020000 		.4byte	.LASF45
 855 0260 05       		.byte	0x5
 856 0261 69       		.byte	0x69
 857 0262 46020000 		.4byte	0x246
 858 0266 03       		.uleb128 0x3
 859 0267 39010000 		.4byte	.LASF46
 860 026b 07       		.byte	0x7
 861 026c DE       		.byte	0xde
 862 026d 71020000 		.4byte	0x271
 863 0271 0A       		.uleb128 0xa
 864 0272 04       		.byte	0x4
 865 0273 0B       		.uleb128 0xb
 866 0274 9C050000 		.4byte	.LASF47
 867 0278 24       		.byte	0x24
 868 0279 07       		.byte	0x7
 869 027a 0501     		.2byte	0x105
 870 027c EF020000 		.4byte	0x2ef
 871 0280 0C       		.uleb128 0xc
 872 0281 723400   		.ascii	"r4\000"
 873 0284 07       		.byte	0x7
 874 0285 1801     		.2byte	0x118
 875 0287 66020000 		.4byte	0x266
 876 028b 00       		.byte	0
 877 028c 0C       		.uleb128 0xc
 878 028d 723500   		.ascii	"r5\000"
 879 0290 07       		.byte	0x7
 880 0291 1901     		.2byte	0x119
 881 0293 66020000 		.4byte	0x266
 882 0297 04       		.byte	0x4
 883 0298 0C       		.uleb128 0xc
 884 0299 723600   		.ascii	"r6\000"
 885 029c 07       		.byte	0x7
 886 029d 1A01     		.2byte	0x11a
 887 029f 66020000 		.4byte	0x266
 888 02a3 08       		.byte	0x8
 889 02a4 0C       		.uleb128 0xc
 890 02a5 723700   		.ascii	"r7\000"
 891 02a8 07       		.byte	0x7
 892 02a9 1B01     		.2byte	0x11b
 893 02ab 66020000 		.4byte	0x266
 894 02af 0C       		.byte	0xc
 895 02b0 0C       		.uleb128 0xc
 896 02b1 723800   		.ascii	"r8\000"
 897 02b4 07       		.byte	0x7
 898 02b5 1C01     		.2byte	0x11c
 899 02b7 66020000 		.4byte	0x266
 900 02bb 10       		.byte	0x10
 901 02bc 0C       		.uleb128 0xc
 902 02bd 723900   		.ascii	"r9\000"
 903 02c0 07       		.byte	0x7
 904 02c1 1D01     		.2byte	0x11d
 905 02c3 66020000 		.4byte	0x266
 906 02c7 14       		.byte	0x14
ARM GAS  /tmp/cc41dfeQ.s 			page 17


 907 02c8 0C       		.uleb128 0xc
 908 02c9 72313000 		.ascii	"r10\000"
 909 02cd 07       		.byte	0x7
 910 02ce 1E01     		.2byte	0x11e
 911 02d0 66020000 		.4byte	0x266
 912 02d4 18       		.byte	0x18
 913 02d5 0C       		.uleb128 0xc
 914 02d6 72313100 		.ascii	"r11\000"
 915 02da 07       		.byte	0x7
 916 02db 1F01     		.2byte	0x11f
 917 02dd 66020000 		.4byte	0x266
 918 02e1 1C       		.byte	0x1c
 919 02e2 0C       		.uleb128 0xc
 920 02e3 6C7200   		.ascii	"lr\000"
 921 02e6 07       		.byte	0x7
 922 02e7 2001     		.2byte	0x120
 923 02e9 66020000 		.4byte	0x266
 924 02ed 20       		.byte	0x20
 925 02ee 00       		.byte	0
 926 02ef 0B       		.uleb128 0xb
 927 02f0 94050000 		.4byte	.LASF48
 928 02f4 04       		.byte	0x4
 929 02f5 07       		.byte	0x7
 930 02f6 2A01     		.2byte	0x12a
 931 02f8 0A030000 		.4byte	0x30a
 932 02fc 0C       		.uleb128 0xc
 933 02fd 72313300 		.ascii	"r13\000"
 934 0301 07       		.byte	0x7
 935 0302 2B01     		.2byte	0x12b
 936 0304 0A030000 		.4byte	0x30a
 937 0308 00       		.byte	0
 938 0309 00       		.byte	0
 939 030a 09       		.uleb128 0x9
 940 030b 04       		.byte	0x4
 941 030c 73020000 		.4byte	0x273
 942 0310 0D       		.uleb128 0xd
 943 0311 82000000 		.4byte	0x82
 944 0315 04       		.uleb128 0x4
 945 0316 04       		.byte	0x4
 946 0317 07       		.byte	0x7
 947 0318 8F020000 		.4byte	.LASF49
 948 031c 0D       		.uleb128 0xd
 949 031d 01010000 		.4byte	0x101
 950 0321 05       		.uleb128 0x5
 951 0322 A2020000 		.4byte	.LASF50
 952 0326 10       		.byte	0x10
 953 0327 08       		.byte	0x8
 954 0328 25       		.byte	0x25
 955 0329 52030000 		.4byte	0x352
 956 032d 06       		.uleb128 0x6
 957 032e A6000000 		.4byte	.LASF51
 958 0332 08       		.byte	0x8
 959 0333 26       		.byte	0x26
 960 0334 3B020000 		.4byte	0x23b
 961 0338 00       		.byte	0
 962 0339 06       		.uleb128 0x6
 963 033a 3A060000 		.4byte	.LASF52
ARM GAS  /tmp/cc41dfeQ.s 			page 18


 964 033e 08       		.byte	0x8
 965 033f 28       		.byte	0x28
 966 0340 35020000 		.4byte	0x235
 967 0344 08       		.byte	0x8
 968 0345 06       		.uleb128 0x6
 969 0346 39050000 		.4byte	.LASF53
 970 034a 08       		.byte	0x8
 971 034b 2A       		.byte	0x2a
 972 034c 52030000 		.4byte	0x352
 973 0350 0C       		.byte	0xc
 974 0351 00       		.byte	0
 975 0352 09       		.uleb128 0x9
 976 0353 04       		.byte	0x4
 977 0354 21030000 		.4byte	0x321
 978 0358 03       		.uleb128 0x3
 979 0359 A2020000 		.4byte	.LASF50
 980 035d 08       		.byte	0x8
 981 035e 2C       		.byte	0x2c
 982 035f 21030000 		.4byte	0x321
 983 0363 03       		.uleb128 0x3
 984 0364 07060000 		.4byte	.LASF54
 985 0368 09       		.byte	0x9
 986 0369 25       		.byte	0x25
 987 036a 6E030000 		.4byte	0x36e
 988 036e 05       		.uleb128 0x5
 989 036f 07060000 		.4byte	.LASF54
 990 0373 10       		.byte	0x10
 991 0374 09       		.byte	0x9
 992 0375 2A       		.byte	0x2a
 993 0376 AB030000 		.4byte	0x3ab
 994 037a 06       		.uleb128 0x6
 995 037b 86040000 		.4byte	.LASF55
 996 037f 09       		.byte	0x9
 997 0380 2B       		.byte	0x2b
 998 0381 AB030000 		.4byte	0x3ab
 999 0385 00       		.byte	0
 1000 0386 06       		.uleb128 0x6
 1001 0387 34040000 		.4byte	.LASF56
 1002 038b 09       		.byte	0x9
 1003 038c 2E       		.byte	0x2e
 1004 038d 35020000 		.4byte	0x235
 1005 0391 04       		.byte	0x4
 1006 0392 06       		.uleb128 0x6
 1007 0393 D5020000 		.4byte	.LASF57
 1008 0397 09       		.byte	0x9
 1009 0398 30       		.byte	0x30
 1010 0399 EB000000 		.4byte	0xeb
 1011 039d 08       		.byte	0x8
 1012 039e 06       		.uleb128 0x6
 1013 039f 40040000 		.4byte	.LASF58
 1014 03a3 09       		.byte	0x9
 1015 03a4 33       		.byte	0x33
 1016 03a5 F6000000 		.4byte	0xf6
 1017 03a9 0C       		.byte	0xc
 1018 03aa 00       		.byte	0
 1019 03ab 09       		.uleb128 0x9
 1020 03ac 04       		.byte	0x4
ARM GAS  /tmp/cc41dfeQ.s 			page 19


 1021 03ad 63030000 		.4byte	0x363
 1022 03b1 05       		.uleb128 0x5
 1023 03b2 4F010000 		.4byte	.LASF59
 1024 03b6 04       		.byte	0x4
 1025 03b7 09       		.byte	0x9
 1026 03b8 3A       		.byte	0x3a
 1027 03b9 CA030000 		.4byte	0x3ca
 1028 03bd 06       		.uleb128 0x6
 1029 03be C5050000 		.4byte	.LASF60
 1030 03c2 09       		.byte	0x9
 1031 03c3 3B       		.byte	0x3b
 1032 03c4 AB030000 		.4byte	0x3ab
 1033 03c8 00       		.byte	0
 1034 03c9 00       		.byte	0
 1035 03ca 03       		.uleb128 0x3
 1036 03cb 4F010000 		.4byte	.LASF59
 1037 03cf 09       		.byte	0x9
 1038 03d0 3E       		.byte	0x3e
 1039 03d1 B1030000 		.4byte	0x3b1
 1040 03d5 0E       		.uleb128 0xe
 1041 03d6 04       		.byte	0x4
 1042 03d7 06       		.byte	0x6
 1043 03d8 8F       		.byte	0x8f
 1044 03d9 0A040000 		.4byte	0x40a
 1045 03dd 0F       		.uleb128 0xf
 1046 03de 07000000 		.4byte	.LASF61
 1047 03e2 06       		.byte	0x6
 1048 03e3 96       		.byte	0x96
 1049 03e4 E0000000 		.4byte	0xe0
 1050 03e8 0F       		.uleb128 0xf
 1051 03e9 4C000000 		.4byte	.LASF62
 1052 03ed 06       		.byte	0x6
 1053 03ee 9D       		.byte	0x9d
 1054 03ef E0000000 		.4byte	0xe0
 1055 03f3 0F       		.uleb128 0xf
 1056 03f4 15060000 		.4byte	.LASF63
 1057 03f8 06       		.byte	0x6
 1058 03f9 A4       		.byte	0xa4
 1059 03fa 71020000 		.4byte	0x271
 1060 03fe 0F       		.uleb128 0xf
 1061 03ff 6F040000 		.4byte	.LASF64
 1062 0403 06       		.byte	0x6
 1063 0404 AB       		.byte	0xab
 1064 0405 EB000000 		.4byte	0xeb
 1065 0409 00       		.byte	0
 1066 040a 09       		.uleb128 0x9
 1067 040b 04       		.byte	0x4
 1068 040c 10040000 		.4byte	0x410
 1069 0410 10       		.uleb128 0x10
 1070 0411 15040000 		.4byte	0x415
 1071 0415 04       		.uleb128 0x4
 1072 0416 01       		.byte	0x1
 1073 0417 08       		.byte	0x8
 1074 0418 1D050000 		.4byte	.LASF65
 1075 041c 09       		.uleb128 0x9
 1076 041d 04       		.byte	0x4
 1077 041e 58030000 		.4byte	0x358
ARM GAS  /tmp/cc41dfeQ.s 			page 20


 1078 0422 09       		.uleb128 0x9
 1079 0423 04       		.byte	0x4
 1080 0424 28040000 		.4byte	0x428
 1081 0428 11       		.uleb128 0x11
 1082 0429 E0000000 		.4byte	0xe0
 1083 042d 37040000 		.4byte	0x437
 1084 0431 12       		.uleb128 0x12
 1085 0432 71020000 		.4byte	0x271
 1086 0436 00       		.byte	0
 1087 0437 03       		.uleb128 0x3
 1088 0438 6C020000 		.4byte	.LASF66
 1089 043c 0A       		.byte	0xa
 1090 043d 30       		.byte	0x30
 1091 043e 42040000 		.4byte	0x442
 1092 0442 05       		.uleb128 0x5
 1093 0443 6C020000 		.4byte	.LASF66
 1094 0447 24       		.byte	0x24
 1095 0448 0A       		.byte	0xa
 1096 0449 3E       		.byte	0x3e
 1097 044a AF040000 		.4byte	0x4af
 1098 044e 06       		.uleb128 0x6
 1099 044f 75000000 		.4byte	.LASF67
 1100 0453 0A       		.byte	0xa
 1101 0454 3F       		.byte	0x3f
 1102 0455 3B020000 		.4byte	0x23b
 1103 0459 00       		.byte	0
 1104 045a 06       		.uleb128 0x6
 1105 045b 98020000 		.4byte	.LASF68
 1106 045f 0A       		.byte	0xa
 1107 0460 40       		.byte	0x40
 1108 0461 2C000000 		.4byte	0x2c
 1109 0465 08       		.byte	0x8
 1110 0466 06       		.uleb128 0x6
 1111 0467 04010000 		.4byte	.LASF69
 1112 046b 0A       		.byte	0xa
 1113 046c 41       		.byte	0x41
 1114 046d D1040000 		.4byte	0x4d1
 1115 0471 0C       		.byte	0xc
 1116 0472 06       		.uleb128 0x6
 1117 0473 B8050000 		.4byte	.LASF70
 1118 0477 0A       		.byte	0xa
 1119 0478 42       		.byte	0x42
 1120 0479 D1040000 		.4byte	0x4d1
 1121 047d 10       		.byte	0x10
 1122 047e 06       		.uleb128 0x6
 1123 047f 0D010000 		.4byte	.LASF71
 1124 0483 0A       		.byte	0xa
 1125 0484 44       		.byte	0x44
 1126 0485 D1040000 		.4byte	0x4d1
 1127 0489 14       		.byte	0x14
 1128 048a 06       		.uleb128 0x6
 1129 048b 76040000 		.4byte	.LASF72
 1130 048f 0A       		.byte	0xa
 1131 0490 45       		.byte	0x45
 1132 0491 D1040000 		.4byte	0x4d1
 1133 0495 18       		.byte	0x18
 1134 0496 06       		.uleb128 0x6
ARM GAS  /tmp/cc41dfeQ.s 			page 21


 1135 0497 D2050000 		.4byte	.LASF73
 1136 049b 0A       		.byte	0xa
 1137 049c 46       		.byte	0x46
 1138 049d AF040000 		.4byte	0x4af
 1139 04a1 1C       		.byte	0x1c
 1140 04a2 06       		.uleb128 0x6
 1141 04a3 33060000 		.4byte	.LASF74
 1142 04a7 0A       		.byte	0xa
 1143 04a8 47       		.byte	0x47
 1144 04a9 71020000 		.4byte	0x271
 1145 04ad 20       		.byte	0x20
 1146 04ae 00       		.byte	0
 1147 04af 03       		.uleb128 0x3
 1148 04b0 62020000 		.4byte	.LASF75
 1149 04b4 0A       		.byte	0xa
 1150 04b5 33       		.byte	0x33
 1151 04b6 BA040000 		.4byte	0x4ba
 1152 04ba 09       		.uleb128 0x9
 1153 04bb 04       		.byte	0x4
 1154 04bc C0040000 		.4byte	0x4c0
 1155 04c0 13       		.uleb128 0x13
 1156 04c1 CB040000 		.4byte	0x4cb
 1157 04c5 12       		.uleb128 0x12
 1158 04c6 CB040000 		.4byte	0x4cb
 1159 04ca 00       		.byte	0
 1160 04cb 09       		.uleb128 0x9
 1161 04cc 04       		.byte	0x4
 1162 04cd 37040000 		.4byte	0x437
 1163 04d1 09       		.uleb128 0x9
 1164 04d2 04       		.byte	0x4
 1165 04d3 45000000 		.4byte	0x45
 1166 04d7 03       		.uleb128 0x3
 1167 04d8 F5050000 		.4byte	.LASF76
 1168 04dc 0A       		.byte	0xa
 1169 04dd 7B       		.byte	0x7b
 1170 04de 37040000 		.4byte	0x437
 1171 04e2 03       		.uleb128 0x3
 1172 04e3 0E000000 		.4byte	.LASF77
 1173 04e7 0A       		.byte	0xa
 1174 04e8 EE       		.byte	0xee
 1175 04e9 37040000 		.4byte	0x437
 1176 04ed 11       		.uleb128 0x11
 1177 04ee 2C000000 		.4byte	0x2c
 1178 04f2 06050000 		.4byte	0x506
 1179 04f6 12       		.uleb128 0x12
 1180 04f7 71020000 		.4byte	0x271
 1181 04fb 12       		.uleb128 0x12
 1182 04fc 06050000 		.4byte	0x506
 1183 0500 12       		.uleb128 0x12
 1184 0501 2C000000 		.4byte	0x2c
 1185 0505 00       		.byte	0
 1186 0506 09       		.uleb128 0x9
 1187 0507 04       		.byte	0x4
 1188 0508 0C050000 		.4byte	0x50c
 1189 050c 10       		.uleb128 0x10
 1190 050d 45000000 		.4byte	0x45
 1191 0511 09       		.uleb128 0x9
ARM GAS  /tmp/cc41dfeQ.s 			page 22


 1192 0512 04       		.byte	0x4
 1193 0513 ED040000 		.4byte	0x4ed
 1194 0517 11       		.uleb128 0x11
 1195 0518 2C000000 		.4byte	0x2c
 1196 051c 30050000 		.4byte	0x530
 1197 0520 12       		.uleb128 0x12
 1198 0521 71020000 		.4byte	0x271
 1199 0525 12       		.uleb128 0x12
 1200 0526 D1040000 		.4byte	0x4d1
 1201 052a 12       		.uleb128 0x12
 1202 052b 2C000000 		.4byte	0x2c
 1203 052f 00       		.byte	0
 1204 0530 09       		.uleb128 0x9
 1205 0531 04       		.byte	0x4
 1206 0532 17050000 		.4byte	0x517
 1207 0536 11       		.uleb128 0x11
 1208 0537 E0000000 		.4byte	0xe0
 1209 053b 4A050000 		.4byte	0x54a
 1210 053f 12       		.uleb128 0x12
 1211 0540 71020000 		.4byte	0x271
 1212 0544 12       		.uleb128 0x12
 1213 0545 45000000 		.4byte	0x45
 1214 0549 00       		.byte	0
 1215 054a 09       		.uleb128 0x9
 1216 054b 04       		.byte	0x4
 1217 054c 36050000 		.4byte	0x536
 1218 0550 0D       		.uleb128 0xd
 1219 0551 5E000000 		.4byte	0x5e
 1220 0555 0D       		.uleb128 0xd
 1221 0556 70000000 		.4byte	0x70
 1222 055a 14       		.uleb128 0x14
 1223 055b 34       		.byte	0x34
 1224 055c 0B       		.byte	0xb
 1225 055d 8502     		.2byte	0x285
 1226 055f 0C060000 		.4byte	0x60c
 1227 0563 0C       		.uleb128 0xc
 1228 0564 435200   		.ascii	"CR\000"
 1229 0567 0B       		.byte	0xb
 1230 0568 8702     		.2byte	0x287
 1231 056a 10030000 		.4byte	0x310
 1232 056e 00       		.byte	0
 1233 056f 15       		.uleb128 0x15
 1234 0570 1C060000 		.4byte	.LASF78
 1235 0574 0B       		.byte	0xb
 1236 0575 8802     		.2byte	0x288
 1237 0577 10030000 		.4byte	0x310
 1238 057b 04       		.byte	0x4
 1239 057c 0C       		.uleb128 0xc
 1240 057d 43495200 		.ascii	"CIR\000"
 1241 0581 0B       		.byte	0xb
 1242 0582 8902     		.2byte	0x289
 1243 0584 10030000 		.4byte	0x310
 1244 0588 08       		.byte	0x8
 1245 0589 15       		.uleb128 0x15
 1246 058a E2000000 		.4byte	.LASF79
 1247 058e 0B       		.byte	0xb
 1248 058f 8A02     		.2byte	0x28a
ARM GAS  /tmp/cc41dfeQ.s 			page 23


 1249 0591 10030000 		.4byte	0x310
 1250 0595 0C       		.byte	0xc
 1251 0596 15       		.uleb128 0x15
 1252 0597 CC020000 		.4byte	.LASF80
 1253 059b 0B       		.byte	0xb
 1254 059c 8B02     		.2byte	0x28b
 1255 059e 10030000 		.4byte	0x310
 1256 05a2 10       		.byte	0x10
 1257 05a3 15       		.uleb128 0x15
 1258 05a4 52060000 		.4byte	.LASF81
 1259 05a8 0B       		.byte	0xb
 1260 05a9 8C02     		.2byte	0x28c
 1261 05ab 10030000 		.4byte	0x310
 1262 05af 14       		.byte	0x14
 1263 05b0 15       		.uleb128 0x15
 1264 05b1 96040000 		.4byte	.LASF82
 1265 05b5 0B       		.byte	0xb
 1266 05b6 8D02     		.2byte	0x28d
 1267 05b8 10030000 		.4byte	0x310
 1268 05bc 18       		.byte	0x18
 1269 05bd 15       		.uleb128 0x15
 1270 05be 8C050000 		.4byte	.LASF83
 1271 05c2 0B       		.byte	0xb
 1272 05c3 8E02     		.2byte	0x28e
 1273 05c5 10030000 		.4byte	0x310
 1274 05c9 1C       		.byte	0x1c
 1275 05ca 15       		.uleb128 0x15
 1276 05cb CD050000 		.4byte	.LASF84
 1277 05cf 0B       		.byte	0xb
 1278 05d0 8F02     		.2byte	0x28f
 1279 05d2 10030000 		.4byte	0x310
 1280 05d6 20       		.byte	0x20
 1281 05d7 0C       		.uleb128 0xc
 1282 05d8 43535200 		.ascii	"CSR\000"
 1283 05dc 0B       		.byte	0xb
 1284 05dd 9002     		.2byte	0x290
 1285 05df 10030000 		.4byte	0x310
 1286 05e3 24       		.byte	0x24
 1287 05e4 15       		.uleb128 0x15
 1288 05e5 C4020000 		.4byte	.LASF85
 1289 05e9 0B       		.byte	0xb
 1290 05ea 9102     		.2byte	0x291
 1291 05ec 10030000 		.4byte	0x310
 1292 05f0 28       		.byte	0x28
 1293 05f1 15       		.uleb128 0x15
 1294 05f2 E1050000 		.4byte	.LASF86
 1295 05f6 0B       		.byte	0xb
 1296 05f7 9202     		.2byte	0x292
 1297 05f9 10030000 		.4byte	0x310
 1298 05fd 2C       		.byte	0x2c
 1299 05fe 15       		.uleb128 0x15
 1300 05ff E7050000 		.4byte	.LASF87
 1301 0603 0B       		.byte	0xb
 1302 0604 9302     		.2byte	0x293
 1303 0606 10030000 		.4byte	0x310
 1304 060a 30       		.byte	0x30
 1305 060b 00       		.byte	0
ARM GAS  /tmp/cc41dfeQ.s 			page 24


 1306 060c 16       		.uleb128 0x16
 1307 060d B8000000 		.4byte	.LASF88
 1308 0611 0B       		.byte	0xb
 1309 0612 9402     		.2byte	0x294
 1310 0614 5A050000 		.4byte	0x55a
 1311 0618 14       		.uleb128 0x14
 1312 0619 2C       		.byte	0x2c
 1313 061a 0B       		.byte	0xb
 1314 061b 1B03     		.2byte	0x31b
 1315 061d F2060000 		.4byte	0x6f2
 1316 0621 0C       		.uleb128 0xc
 1317 0622 43523100 		.ascii	"CR1\000"
 1318 0626 0B       		.byte	0xb
 1319 0627 1D03     		.2byte	0x31d
 1320 0629 10030000 		.4byte	0x310
 1321 062d 00       		.byte	0
 1322 062e 0C       		.uleb128 0xc
 1323 062f 43523200 		.ascii	"CR2\000"
 1324 0633 0B       		.byte	0xb
 1325 0634 1E03     		.2byte	0x31e
 1326 0636 10030000 		.4byte	0x310
 1327 063a 04       		.byte	0x4
 1328 063b 0C       		.uleb128 0xc
 1329 063c 43523300 		.ascii	"CR3\000"
 1330 0640 0B       		.byte	0xb
 1331 0641 1F03     		.2byte	0x31f
 1332 0643 10030000 		.4byte	0x310
 1333 0647 08       		.byte	0x8
 1334 0648 0C       		.uleb128 0xc
 1335 0649 42525200 		.ascii	"BRR\000"
 1336 064d 0B       		.byte	0xb
 1337 064e 2003     		.2byte	0x320
 1338 0650 50050000 		.4byte	0x550
 1339 0654 0C       		.byte	0xc
 1340 0655 15       		.uleb128 0x15
 1341 0656 FA020000 		.4byte	.LASF89
 1342 065a 0B       		.byte	0xb
 1343 065b 2103     		.2byte	0x321
 1344 065d 5E000000 		.4byte	0x5e
 1345 0661 0E       		.byte	0xe
 1346 0662 15       		.uleb128 0x15
 1347 0663 99000000 		.4byte	.LASF90
 1348 0667 0B       		.byte	0xb
 1349 0668 2203     		.2byte	0x322
 1350 066a 50050000 		.4byte	0x550
 1351 066e 10       		.byte	0x10
 1352 066f 15       		.uleb128 0x15
 1353 0670 04030000 		.4byte	.LASF91
 1354 0674 0B       		.byte	0xb
 1355 0675 2303     		.2byte	0x323
 1356 0677 5E000000 		.4byte	0x5e
 1357 067b 12       		.byte	0x12
 1358 067c 15       		.uleb128 0x15
 1359 067d 87050000 		.4byte	.LASF92
 1360 0681 0B       		.byte	0xb
 1361 0682 2403     		.2byte	0x324
 1362 0684 10030000 		.4byte	0x310
ARM GAS  /tmp/cc41dfeQ.s 			page 25


 1363 0688 14       		.byte	0x14
 1364 0689 0C       		.uleb128 0xc
 1365 068a 52515200 		.ascii	"RQR\000"
 1366 068e 0B       		.byte	0xb
 1367 068f 2503     		.2byte	0x325
 1368 0691 50050000 		.4byte	0x550
 1369 0695 18       		.byte	0x18
 1370 0696 15       		.uleb128 0x15
 1371 0697 0E030000 		.4byte	.LASF93
 1372 069b 0B       		.byte	0xb
 1373 069c 2603     		.2byte	0x326
 1374 069e 5E000000 		.4byte	0x5e
 1375 06a2 1A       		.byte	0x1a
 1376 06a3 0C       		.uleb128 0xc
 1377 06a4 49535200 		.ascii	"ISR\000"
 1378 06a8 0B       		.byte	0xb
 1379 06a9 2703     		.2byte	0x327
 1380 06ab 10030000 		.4byte	0x310
 1381 06af 1C       		.byte	0x1c
 1382 06b0 0C       		.uleb128 0xc
 1383 06b1 49435200 		.ascii	"ICR\000"
 1384 06b5 0B       		.byte	0xb
 1385 06b6 2803     		.2byte	0x328
 1386 06b8 10030000 		.4byte	0x310
 1387 06bc 20       		.byte	0x20
 1388 06bd 0C       		.uleb128 0xc
 1389 06be 52445200 		.ascii	"RDR\000"
 1390 06c2 0B       		.byte	0xb
 1391 06c3 2903     		.2byte	0x329
 1392 06c5 50050000 		.4byte	0x550
 1393 06c9 24       		.byte	0x24
 1394 06ca 15       		.uleb128 0x15
 1395 06cb 18030000 		.4byte	.LASF94
 1396 06cf 0B       		.byte	0xb
 1397 06d0 2A03     		.2byte	0x32a
 1398 06d2 5E000000 		.4byte	0x5e
 1399 06d6 26       		.byte	0x26
 1400 06d7 0C       		.uleb128 0xc
 1401 06d8 54445200 		.ascii	"TDR\000"
 1402 06dc 0B       		.byte	0xb
 1403 06dd 2B03     		.2byte	0x32b
 1404 06df 50050000 		.4byte	0x550
 1405 06e3 28       		.byte	0x28
 1406 06e4 15       		.uleb128 0x15
 1407 06e5 CA040000 		.4byte	.LASF95
 1408 06e9 0B       		.byte	0xb
 1409 06ea 2C03     		.2byte	0x32c
 1410 06ec 5E000000 		.4byte	0x5e
 1411 06f0 2A       		.byte	0x2a
 1412 06f1 00       		.byte	0
 1413 06f2 16       		.uleb128 0x16
 1414 06f3 1E020000 		.4byte	.LASF96
 1415 06f7 0B       		.byte	0xb
 1416 06f8 2D03     		.2byte	0x32d
 1417 06fa 18060000 		.4byte	0x618
 1418 06fe 11       		.uleb128 0x11
 1419 06ff E0000000 		.4byte	0xe0
ARM GAS  /tmp/cc41dfeQ.s 			page 26


 1420 0703 17070000 		.4byte	0x717
 1421 0707 12       		.uleb128 0x12
 1422 0708 71020000 		.4byte	0x271
 1423 070c 12       		.uleb128 0x12
 1424 070d 45000000 		.4byte	0x45
 1425 0711 12       		.uleb128 0x12
 1426 0712 01010000 		.4byte	0x101
 1427 0716 00       		.byte	0
 1428 0717 09       		.uleb128 0x9
 1429 0718 04       		.byte	0x4
 1430 0719 FE060000 		.4byte	0x6fe
 1431 071d 11       		.uleb128 0x11
 1432 071e E0000000 		.4byte	0xe0
 1433 0722 31070000 		.4byte	0x731
 1434 0726 12       		.uleb128 0x12
 1435 0727 71020000 		.4byte	0x271
 1436 072b 12       		.uleb128 0x12
 1437 072c 01010000 		.4byte	0x101
 1438 0730 00       		.byte	0
 1439 0731 09       		.uleb128 0x9
 1440 0732 04       		.byte	0x4
 1441 0733 1D070000 		.4byte	0x71d
 1442 0737 11       		.uleb128 0x11
 1443 0738 2C000000 		.4byte	0x2c
 1444 073c 55070000 		.4byte	0x755
 1445 0740 12       		.uleb128 0x12
 1446 0741 71020000 		.4byte	0x271
 1447 0745 12       		.uleb128 0x12
 1448 0746 06050000 		.4byte	0x506
 1449 074a 12       		.uleb128 0x12
 1450 074b 2C000000 		.4byte	0x2c
 1451 074f 12       		.uleb128 0x12
 1452 0750 01010000 		.4byte	0x101
 1453 0754 00       		.byte	0
 1454 0755 09       		.uleb128 0x9
 1455 0756 04       		.byte	0x4
 1456 0757 37070000 		.4byte	0x737
 1457 075b 11       		.uleb128 0x11
 1458 075c 2C000000 		.4byte	0x2c
 1459 0760 79070000 		.4byte	0x779
 1460 0764 12       		.uleb128 0x12
 1461 0765 71020000 		.4byte	0x271
 1462 0769 12       		.uleb128 0x12
 1463 076a D1040000 		.4byte	0x4d1
 1464 076e 12       		.uleb128 0x12
 1465 076f 2C000000 		.4byte	0x2c
 1466 0773 12       		.uleb128 0x12
 1467 0774 01010000 		.4byte	0x101
 1468 0778 00       		.byte	0
 1469 0779 09       		.uleb128 0x9
 1470 077a 04       		.byte	0x4
 1471 077b 5B070000 		.4byte	0x75b
 1472 077f 17       		.uleb128 0x17
 1473 0780 01       		.byte	0x1
 1474 0781 0C       		.byte	0xc
 1475 0782 5D       		.byte	0x5d
 1476 0783 9A070000 		.4byte	0x79a
ARM GAS  /tmp/cc41dfeQ.s 			page 27


 1477 0787 18       		.uleb128 0x18
 1478 0788 C0040000 		.4byte	.LASF97
 1479 078c 00       		.sleb128 0
 1480 078d 18       		.uleb128 0x18
 1481 078e 8E040000 		.4byte	.LASF98
 1482 0792 01       		.sleb128 1
 1483 0793 18       		.uleb128 0x18
 1484 0794 A3050000 		.4byte	.LASF99
 1485 0798 02       		.sleb128 2
 1486 0799 00       		.byte	0
 1487 079a 03       		.uleb128 0x3
 1488 079b DD040000 		.4byte	.LASF100
 1489 079f 0C       		.byte	0xc
 1490 07a0 61       		.byte	0x61
 1491 07a1 7F070000 		.4byte	0x77f
 1492 07a5 03       		.uleb128 0x3
 1493 07a6 E7040000 		.4byte	.LASF101
 1494 07aa 0C       		.byte	0xc
 1495 07ab 66       		.byte	0x66
 1496 07ac B0070000 		.4byte	0x7b0
 1497 07b0 05       		.uleb128 0x5
 1498 07b1 E7040000 		.4byte	.LASF101
 1499 07b5 7C       		.byte	0x7c
 1500 07b6 0C       		.byte	0xc
 1501 07b7 80       		.byte	0x80
 1502 07b8 27080000 		.4byte	0x827
 1503 07bc 07       		.uleb128 0x7
 1504 07bd 766D7400 		.ascii	"vmt\000"
 1505 07c1 0C       		.byte	0xc
 1506 07c2 82       		.byte	0x82
 1507 07c3 D8080000 		.4byte	0x8d8
 1508 07c7 00       		.byte	0
 1509 07c8 06       		.uleb128 0x6
 1510 07c9 AA010000 		.4byte	.LASF102
 1511 07cd 0C       		.byte	0xc
 1512 07ce 83       		.byte	0x83
 1513 07cf CA030000 		.4byte	0x3ca
 1514 07d3 04       		.byte	0x4
 1515 07d4 06       		.uleb128 0x6
 1516 07d5 D3000000 		.4byte	.LASF103
 1517 07d9 0C       		.byte	0xc
 1518 07da 83       		.byte	0x83
 1519 07db 9A070000 		.4byte	0x79a
 1520 07df 08       		.byte	0x8
 1521 07e0 06       		.uleb128 0x6
 1522 07e1 87010000 		.4byte	.LASF104
 1523 07e5 0C       		.byte	0xc
 1524 07e6 83       		.byte	0x83
 1525 07e7 D7040000 		.4byte	0x4d7
 1526 07eb 0C       		.byte	0xc
 1527 07ec 06       		.uleb128 0x6
 1528 07ed C9010000 		.4byte	.LASF105
 1529 07f1 0C       		.byte	0xc
 1530 07f2 83       		.byte	0x83
 1531 07f3 E2040000 		.4byte	0x4e2
 1532 07f7 30       		.byte	0x30
 1533 07f8 07       		.uleb128 0x7
ARM GAS  /tmp/cc41dfeQ.s 			page 28


 1534 07f9 696200   		.ascii	"ib\000"
 1535 07fc 0C       		.byte	0xc
 1536 07fd 83       		.byte	0x83
 1537 07fe E3080000 		.4byte	0x8e3
 1538 0802 54       		.byte	0x54
 1539 0803 07       		.uleb128 0x7
 1540 0804 6F6200   		.ascii	"ob\000"
 1541 0807 0C       		.byte	0xc
 1542 0808 83       		.byte	0x83
 1543 0809 E3080000 		.4byte	0x8e3
 1544 080d 64       		.byte	0x64
 1545 080e 06       		.uleb128 0x6
 1546 080f 5B010000 		.4byte	.LASF106
 1547 0813 0C       		.byte	0xc
 1548 0814 83       		.byte	0x83
 1549 0815 F3080000 		.4byte	0x8f3
 1550 0819 74       		.byte	0x74
 1551 081a 06       		.uleb128 0x6
 1552 081b 21060000 		.4byte	.LASF107
 1553 081f 0C       		.byte	0xc
 1554 0820 83       		.byte	0x83
 1555 0821 82000000 		.4byte	0x82
 1556 0825 78       		.byte	0x78
 1557 0826 00       		.byte	0
 1558 0827 08       		.uleb128 0x8
 1559 0828 10       		.byte	0x10
 1560 0829 0D       		.byte	0xd
 1561 082a D7       		.byte	0xd7
 1562 082b 60080000 		.4byte	0x860
 1563 082f 06       		.uleb128 0x6
 1564 0830 5C020000 		.4byte	.LASF108
 1565 0834 0D       		.byte	0xd
 1566 0835 DB       		.byte	0xdb
 1567 0836 82000000 		.4byte	0x82
 1568 083a 00       		.byte	0
 1569 083b 07       		.uleb128 0x7
 1570 083c 63723100 		.ascii	"cr1\000"
 1571 0840 0D       		.byte	0xd
 1572 0841 E0       		.byte	0xe0
 1573 0842 82000000 		.4byte	0x82
 1574 0846 04       		.byte	0x4
 1575 0847 07       		.uleb128 0x7
 1576 0848 63723200 		.ascii	"cr2\000"
 1577 084c 0D       		.byte	0xd
 1578 084d E4       		.byte	0xe4
 1579 084e 82000000 		.4byte	0x82
 1580 0852 08       		.byte	0x8
 1581 0853 07       		.uleb128 0x7
 1582 0854 63723300 		.ascii	"cr3\000"
 1583 0858 0D       		.byte	0xd
 1584 0859 E8       		.byte	0xe8
 1585 085a 82000000 		.4byte	0x82
 1586 085e 0C       		.byte	0xc
 1587 085f 00       		.byte	0
 1588 0860 03       		.uleb128 0x3
 1589 0861 DD020000 		.4byte	.LASF109
 1590 0865 0D       		.byte	0xd
ARM GAS  /tmp/cc41dfeQ.s 			page 29


 1591 0866 E9       		.byte	0xe9
 1592 0867 27080000 		.4byte	0x827
 1593 086b 05       		.uleb128 0x5
 1594 086c 77010000 		.4byte	.LASF110
 1595 0870 20       		.byte	0x20
 1596 0871 0C       		.byte	0xc
 1597 0872 75       		.byte	0x75
 1598 0873 D8080000 		.4byte	0x8d8
 1599 0877 06       		.uleb128 0x6
 1600 0878 79020000 		.4byte	.LASF111
 1601 087c 0C       		.byte	0xc
 1602 087d 76       		.byte	0x76
 1603 087e 11050000 		.4byte	0x511
 1604 0882 00       		.byte	0
 1605 0883 06       		.uleb128 0x6
 1606 0884 18050000 		.4byte	.LASF112
 1607 0888 0C       		.byte	0xc
 1608 0889 76       		.byte	0x76
 1609 088a 30050000 		.4byte	0x530
 1610 088e 04       		.byte	0x4
 1611 088f 07       		.uleb128 0x7
 1612 0890 70757400 		.ascii	"put\000"
 1613 0894 0C       		.byte	0xc
 1614 0895 76       		.byte	0x76
 1615 0896 4A050000 		.4byte	0x54a
 1616 089a 08       		.byte	0x8
 1617 089b 07       		.uleb128 0x7
 1618 089c 67657400 		.ascii	"get\000"
 1619 08a0 0C       		.byte	0xc
 1620 08a1 76       		.byte	0x76
 1621 08a2 22040000 		.4byte	0x422
 1622 08a6 0C       		.byte	0xc
 1623 08a7 06       		.uleb128 0x6
 1624 08a8 7F020000 		.4byte	.LASF113
 1625 08ac 0C       		.byte	0xc
 1626 08ad 76       		.byte	0x76
 1627 08ae 17070000 		.4byte	0x717
 1628 08b2 10       		.byte	0x10
 1629 08b3 06       		.uleb128 0x6
 1630 08b4 A5010000 		.4byte	.LASF114
 1631 08b8 0C       		.byte	0xc
 1632 08b9 76       		.byte	0x76
 1633 08ba 31070000 		.4byte	0x731
 1634 08be 14       		.byte	0x14
 1635 08bf 06       		.uleb128 0x6
 1636 08c0 2C020000 		.4byte	.LASF115
 1637 08c4 0C       		.byte	0xc
 1638 08c5 76       		.byte	0x76
 1639 08c6 55070000 		.4byte	0x755
 1640 08ca 18       		.byte	0x18
 1641 08cb 06       		.uleb128 0x6
 1642 08cc 6F000000 		.4byte	.LASF116
 1643 08d0 0C       		.byte	0xc
 1644 08d1 76       		.byte	0x76
 1645 08d2 79070000 		.4byte	0x779
 1646 08d6 1C       		.byte	0x1c
 1647 08d7 00       		.byte	0
ARM GAS  /tmp/cc41dfeQ.s 			page 30


 1648 08d8 09       		.uleb128 0x9
 1649 08d9 04       		.byte	0x4
 1650 08da DE080000 		.4byte	0x8de
 1651 08de 10       		.uleb128 0x10
 1652 08df 6B080000 		.4byte	0x86b
 1653 08e3 19       		.uleb128 0x19
 1654 08e4 45000000 		.4byte	0x45
 1655 08e8 F3080000 		.4byte	0x8f3
 1656 08ec 1A       		.uleb128 0x1a
 1657 08ed 15030000 		.4byte	0x315
 1658 08f1 0F       		.byte	0xf
 1659 08f2 00       		.byte	0
 1660 08f3 09       		.uleb128 0x9
 1661 08f4 04       		.byte	0x4
 1662 08f5 F2060000 		.4byte	0x6f2
 1663 08f9 1B       		.uleb128 0x1b
 1664 08fa 84020000 		.4byte	.LASF118
 1665 08fe 01       		.byte	0x1
 1666 08ff 5C       		.byte	0x5c
 1667 0900 01       		.byte	0x1
 1668 0901 25090000 		.4byte	0x925
 1669 0905 1C       		.uleb128 0x1c
 1670 0906 73647000 		.ascii	"sdp\000"
 1671 090a 01       		.byte	0x1
 1672 090b 5C       		.byte	0x5c
 1673 090c 25090000 		.4byte	0x925
 1674 0910 1D       		.uleb128 0x1d
 1675 0911 32050000 		.4byte	.LASF117
 1676 0915 01       		.byte	0x1
 1677 0916 5C       		.byte	0x5c
 1678 0917 2B090000 		.4byte	0x92b
 1679 091b 1E       		.uleb128 0x1e
 1680 091c 7500     		.ascii	"u\000"
 1681 091e 01       		.byte	0x1
 1682 091f 5D       		.byte	0x5d
 1683 0920 F3080000 		.4byte	0x8f3
 1684 0924 00       		.byte	0
 1685 0925 09       		.uleb128 0x9
 1686 0926 04       		.byte	0x4
 1687 0927 A5070000 		.4byte	0x7a5
 1688 092b 09       		.uleb128 0x9
 1689 092c 04       		.byte	0x4
 1690 092d 31090000 		.4byte	0x931
 1691 0931 10       		.uleb128 0x10
 1692 0932 60080000 		.4byte	0x860
 1693 0936 1B       		.uleb128 0x1b
 1694 0937 42010000 		.4byte	.LASF119
 1695 093b 01       		.byte	0x1
 1696 093c 71       		.byte	0x71
 1697 093d 01       		.byte	0x1
 1698 093e 4C090000 		.4byte	0x94c
 1699 0942 1C       		.uleb128 0x1c
 1700 0943 7500     		.ascii	"u\000"
 1701 0945 01       		.byte	0x1
 1702 0946 71       		.byte	0x71
 1703 0947 F3080000 		.4byte	0x8f3
 1704 094b 00       		.byte	0
ARM GAS  /tmp/cc41dfeQ.s 			page 31


 1705 094c 1B       		.uleb128 0x1b
 1706 094d 1A000000 		.4byte	.LASF120
 1707 0951 01       		.byte	0x1
 1708 0952 7E       		.byte	0x7e
 1709 0953 01       		.byte	0x1
 1710 0954 98090000 		.4byte	0x998
 1711 0958 1C       		.uleb128 0x1c
 1712 0959 73647000 		.ascii	"sdp\000"
 1713 095d 01       		.byte	0x1
 1714 095e 7E       		.byte	0x7e
 1715 095f 25090000 		.4byte	0x925
 1716 0963 1C       		.uleb128 0x1c
 1717 0964 69737200 		.ascii	"isr\000"
 1718 0968 01       		.byte	0x1
 1719 0969 7E       		.byte	0x7e
 1720 096a 82000000 		.4byte	0x82
 1721 096e 1E       		.uleb128 0x1e
 1722 096f 73747300 		.ascii	"sts\000"
 1723 0973 01       		.byte	0x1
 1724 0974 7F       		.byte	0x7f
 1725 0975 F6000000 		.4byte	0xf6
 1726 0979 1F       		.uleb128 0x1f
 1727 097a 8A090000 		.4byte	0x98a
 1728 097e 1E       		.uleb128 0x1e
 1729 097f 746D7000 		.ascii	"tmp\000"
 1730 0983 01       		.byte	0x1
 1731 0984 89       		.byte	0x89
 1732 0985 82000000 		.4byte	0x82
 1733 0989 00       		.byte	0
 1734 098a 20       		.uleb128 0x20
 1735 098b 1E       		.uleb128 0x1e
 1736 098c 746D7000 		.ascii	"tmp\000"
 1737 0990 01       		.byte	0x1
 1738 0991 8B       		.byte	0x8b
 1739 0992 82000000 		.4byte	0x82
 1740 0996 00       		.byte	0
 1741 0997 00       		.byte	0
 1742 0998 1B       		.uleb128 0x1b
 1743 0999 A5040000 		.4byte	.LASF121
 1744 099d 01       		.byte	0x1
 1745 099e 93       		.byte	0x93
 1746 099f 01       		.byte	0x1
 1747 09a0 5E0A0000 		.4byte	0xa5e
 1748 09a4 1C       		.uleb128 0x1c
 1749 09a5 73647000 		.ascii	"sdp\000"
 1750 09a9 01       		.byte	0x1
 1751 09aa 93       		.byte	0x93
 1752 09ab 25090000 		.4byte	0x925
 1753 09af 1E       		.uleb128 0x1e
 1754 09b0 7500     		.ascii	"u\000"
 1755 09b2 01       		.byte	0x1
 1756 09b3 94       		.byte	0x94
 1757 09b4 F3080000 		.4byte	0x8f3
 1758 09b8 1E       		.uleb128 0x1e
 1759 09b9 63723100 		.ascii	"cr1\000"
 1760 09bd 01       		.byte	0x1
 1761 09be 95       		.byte	0x95
ARM GAS  /tmp/cc41dfeQ.s 			page 32


 1762 09bf 82000000 		.4byte	0x82
 1763 09c3 1E       		.uleb128 0x1e
 1764 09c4 69737200 		.ascii	"isr\000"
 1765 09c8 01       		.byte	0x1
 1766 09c9 96       		.byte	0x96
 1767 09ca 82000000 		.4byte	0x82
 1768 09ce 1F       		.uleb128 0x1f
 1769 09cf DF090000 		.4byte	0x9df
 1770 09d3 1E       		.uleb128 0x1e
 1771 09d4 746D7000 		.ascii	"tmp\000"
 1772 09d8 01       		.byte	0x1
 1773 09d9 A2       		.byte	0xa2
 1774 09da 82000000 		.4byte	0x82
 1775 09de 00       		.byte	0
 1776 09df 1F       		.uleb128 0x1f
 1777 09e0 F0090000 		.4byte	0x9f0
 1778 09e4 1E       		.uleb128 0x1e
 1779 09e5 746D7000 		.ascii	"tmp\000"
 1780 09e9 01       		.byte	0x1
 1781 09ea A4       		.byte	0xa4
 1782 09eb 82000000 		.4byte	0x82
 1783 09ef 00       		.byte	0
 1784 09f0 1F       		.uleb128 0x1f
 1785 09f1 010A0000 		.4byte	0xa01
 1786 09f5 1E       		.uleb128 0x1e
 1787 09f6 746D7000 		.ascii	"tmp\000"
 1788 09fa 01       		.byte	0x1
 1789 09fb A9       		.byte	0xa9
 1790 09fc 82000000 		.4byte	0x82
 1791 0a00 00       		.byte	0
 1792 0a01 1F       		.uleb128 0x1f
 1793 0a02 120A0000 		.4byte	0xa12
 1794 0a06 1E       		.uleb128 0x1e
 1795 0a07 746D7000 		.ascii	"tmp\000"
 1796 0a0b 01       		.byte	0x1
 1797 0a0c AB       		.byte	0xab
 1798 0a0d 82000000 		.4byte	0x82
 1799 0a11 00       		.byte	0
 1800 0a12 1F       		.uleb128 0x1f
 1801 0a13 3F0A0000 		.4byte	0xa3f
 1802 0a17 1E       		.uleb128 0x1e
 1803 0a18 6200     		.ascii	"b\000"
 1804 0a1a 01       		.byte	0x1
 1805 0a1b B0       		.byte	0xb0
 1806 0a1c E0000000 		.4byte	0xe0
 1807 0a20 1F       		.uleb128 0x1f
 1808 0a21 310A0000 		.4byte	0xa31
 1809 0a25 1E       		.uleb128 0x1e
 1810 0a26 746D7000 		.ascii	"tmp\000"
 1811 0a2a 01       		.byte	0x1
 1812 0a2b B1       		.byte	0xb1
 1813 0a2c 82000000 		.4byte	0x82
 1814 0a30 00       		.byte	0
 1815 0a31 20       		.uleb128 0x20
 1816 0a32 1E       		.uleb128 0x1e
 1817 0a33 746D7000 		.ascii	"tmp\000"
 1818 0a37 01       		.byte	0x1
ARM GAS  /tmp/cc41dfeQ.s 			page 33


 1819 0a38 B9       		.byte	0xb9
 1820 0a39 82000000 		.4byte	0x82
 1821 0a3d 00       		.byte	0
 1822 0a3e 00       		.byte	0
 1823 0a3f 1F       		.uleb128 0x1f
 1824 0a40 500A0000 		.4byte	0xa50
 1825 0a44 1E       		.uleb128 0x1e
 1826 0a45 746D7000 		.ascii	"tmp\000"
 1827 0a49 01       		.byte	0x1
 1828 0a4a BE       		.byte	0xbe
 1829 0a4b 82000000 		.4byte	0x82
 1830 0a4f 00       		.byte	0
 1831 0a50 20       		.uleb128 0x20
 1832 0a51 1E       		.uleb128 0x1e
 1833 0a52 746D7000 		.ascii	"tmp\000"
 1834 0a56 01       		.byte	0x1
 1835 0a57 C0       		.byte	0xc0
 1836 0a58 82000000 		.4byte	0x82
 1837 0a5c 00       		.byte	0
 1838 0a5d 00       		.byte	0
 1839 0a5e 21       		.uleb128 0x21
 1840 0a5f EA020000 		.4byte	.LASF134
 1841 0a63 01       		.byte	0x1
 1842 0a64 C6       		.byte	0xc6
 1843 0a65 00000000 		.4byte	.LFB122
 1844 0a69 10000000 		.4byte	.LFE122-.LFB122
 1845 0a6d 01       		.uleb128 0x1
 1846 0a6e 9C       		.byte	0x9c
 1847 0a6f 800A0000 		.4byte	0xa80
 1848 0a73 22       		.uleb128 0x22
 1849 0a74 717000   		.ascii	"qp\000"
 1850 0a77 01       		.byte	0x1
 1851 0a78 C6       		.byte	0xc6
 1852 0a79 CB040000 		.4byte	0x4cb
 1853 0a7d 01       		.uleb128 0x1
 1854 0a7e 50       		.byte	0x50
 1855 0a7f 00       		.byte	0
 1856 0a80 23       		.uleb128 0x23
 1857 0a81 53020000 		.4byte	.LASF122
 1858 0a85 01       		.byte	0x1
 1859 0a86 0201     		.2byte	0x102
 1860 0a88 00000000 		.4byte	.LFB123
 1861 0a8c E8000000 		.4byte	.LFE123-.LFB123
 1862 0a90 01       		.uleb128 0x1
 1863 0a91 9C       		.byte	0x9c
 1864 0a92 6B0D0000 		.4byte	0xd6b
 1865 0a96 24       		.uleb128 0x24
 1866 0a97 98090000 		.4byte	0x998
 1867 0a9b 00000000 		.4byte	.LBB32
 1868 0a9f 00000000 		.4byte	.Ldebug_ranges0+0
 1869 0aa3 01       		.byte	0x1
 1870 0aa4 0601     		.2byte	0x106
 1871 0aa6 610D0000 		.4byte	0xd61
 1872 0aaa 25       		.uleb128 0x25
 1873 0aab A4090000 		.4byte	0x9a4
 1874 0aaf 06       		.uleb128 0x6
 1875 0ab0 03       		.byte	0x3
ARM GAS  /tmp/cc41dfeQ.s 			page 34


 1876 0ab1 00000000 		.4byte	SD1
 1877 0ab5 9F       		.byte	0x9f
 1878 0ab6 26       		.uleb128 0x26
 1879 0ab7 00000000 		.4byte	.Ldebug_ranges0+0
 1880 0abb 27       		.uleb128 0x27
 1881 0abc AF090000 		.4byte	0x9af
 1882 0ac0 00000000 		.4byte	.LLST0
 1883 0ac4 27       		.uleb128 0x27
 1884 0ac5 B8090000 		.4byte	0x9b8
 1885 0ac9 1E000000 		.4byte	.LLST1
 1886 0acd 27       		.uleb128 0x27
 1887 0ace C3090000 		.4byte	0x9c3
 1888 0ad2 3C000000 		.4byte	.LLST2
 1889 0ad6 28       		.uleb128 0x28
 1890 0ad7 24000000 		.4byte	.LBB34
 1891 0adb 06000000 		.4byte	.LBE34-.LBB34
 1892 0adf EB0A0000 		.4byte	0xaeb
 1893 0ae3 29       		.uleb128 0x29
 1894 0ae4 440A0000 		.4byte	0xa44
 1895 0ae8 01       		.uleb128 0x1
 1896 0ae9 53       		.byte	0x53
 1897 0aea 00       		.byte	0
 1898 0aeb 28       		.uleb128 0x28
 1899 0aec 32000000 		.4byte	.LBB35
 1900 0af0 06000000 		.4byte	.LBE35-.LBB35
 1901 0af4 000B0000 		.4byte	0xb00
 1902 0af8 29       		.uleb128 0x29
 1903 0af9 510A0000 		.4byte	0xa51
 1904 0afd 01       		.uleb128 0x1
 1905 0afe 53       		.byte	0x53
 1906 0aff 00       		.byte	0
 1907 0b00 28       		.uleb128 0x28
 1908 0b01 46000000 		.4byte	.LBB36
 1909 0b05 06000000 		.4byte	.LBE36-.LBB36
 1910 0b09 150B0000 		.4byte	0xb15
 1911 0b0d 29       		.uleb128 0x29
 1912 0b0e F5090000 		.4byte	0x9f5
 1913 0b12 01       		.uleb128 0x1
 1914 0b13 53       		.byte	0x53
 1915 0b14 00       		.byte	0
 1916 0b15 28       		.uleb128 0x28
 1917 0b16 56000000 		.4byte	.LBB37
 1918 0b1a 08000000 		.4byte	.LBE37-.LBB37
 1919 0b1e 2A0B0000 		.4byte	0xb2a
 1920 0b22 29       		.uleb128 0x29
 1921 0b23 060A0000 		.4byte	0xa06
 1922 0b27 01       		.uleb128 0x1
 1923 0b28 53       		.byte	0x53
 1924 0b29 00       		.byte	0
 1925 0b2a 28       		.uleb128 0x28
 1926 0b2b 5E000000 		.4byte	.LBB38
 1927 0b2f 06000000 		.4byte	.LBE38-.LBB38
 1928 0b33 3F0B0000 		.4byte	0xb3f
 1929 0b37 29       		.uleb128 0x29
 1930 0b38 D3090000 		.4byte	0x9d3
 1931 0b3c 01       		.uleb128 0x1
 1932 0b3d 53       		.byte	0x53
ARM GAS  /tmp/cc41dfeQ.s 			page 35


 1933 0b3e 00       		.byte	0
 1934 0b3f 28       		.uleb128 0x28
 1935 0b40 6E000000 		.4byte	.LBB39
 1936 0b44 08000000 		.4byte	.LBE39-.LBB39
 1937 0b48 540B0000 		.4byte	0xb54
 1938 0b4c 29       		.uleb128 0x29
 1939 0b4d E4090000 		.4byte	0x9e4
 1940 0b51 01       		.uleb128 0x1
 1941 0b52 53       		.byte	0x53
 1942 0b53 00       		.byte	0
 1943 0b54 2A       		.uleb128 0x2a
 1944 0b55 4C090000 		.4byte	0x94c
 1945 0b59 76000000 		.4byte	.LBB40
 1946 0b5d 36000000 		.4byte	.LBE40-.LBB40
 1947 0b61 01       		.byte	0x1
 1948 0b62 9E       		.byte	0x9e
 1949 0b63 A20C0000 		.4byte	0xca2
 1950 0b67 2B       		.uleb128 0x2b
 1951 0b68 58090000 		.4byte	0x958
 1952 0b6c 5A000000 		.4byte	.LLST3
 1953 0b70 2B       		.uleb128 0x2b
 1954 0b71 63090000 		.4byte	0x963
 1955 0b75 72000000 		.4byte	.LLST4
 1956 0b79 2C       		.uleb128 0x2c
 1957 0b7a 76000000 		.4byte	.LBB41
 1958 0b7e 36000000 		.4byte	.LBE41-.LBB41
 1959 0b82 27       		.uleb128 0x27
 1960 0b83 6E090000 		.4byte	0x96e
 1961 0b87 85000000 		.4byte	.LLST5
 1962 0b8b 28       		.uleb128 0x28
 1963 0b8c 98000000 		.4byte	.LBB42
 1964 0b90 06000000 		.4byte	.LBE42-.LBB42
 1965 0b94 A00B0000 		.4byte	0xba0
 1966 0b98 29       		.uleb128 0x29
 1967 0b99 7E090000 		.4byte	0x97e
 1968 0b9d 01       		.uleb128 0x1
 1969 0b9e 53       		.byte	0x53
 1970 0b9f 00       		.byte	0
 1971 0ba0 28       		.uleb128 0x28
 1972 0ba1 A4000000 		.4byte	.LBB43
 1973 0ba5 08000000 		.4byte	.LBE43-.LBB43
 1974 0ba9 B50B0000 		.4byte	0xbb5
 1975 0bad 29       		.uleb128 0x29
 1976 0bae 8B090000 		.4byte	0x98b
 1977 0bb2 01       		.uleb128 0x1
 1978 0bb3 53       		.byte	0x53
 1979 0bb4 00       		.byte	0
 1980 0bb5 2D       		.uleb128 0x2d
 1981 0bb6 A4000000 		.4byte	.LVL16
 1982 0bba AF0E0000 		.4byte	0xeaf
 1983 0bbe 2E       		.uleb128 0x2e
 1984 0bbf 01       		.uleb128 0x1
 1985 0bc0 51       		.byte	0x51
 1986 0bc1 D301     		.uleb128 0xd3
 1987 0bc3 08       		.byte	0x8
 1988 0bc4 80       		.byte	0x80
 1989 0bc5 30       		.byte	0x30
ARM GAS  /tmp/cc41dfeQ.s 			page 36


 1990 0bc6 74       		.byte	0x74
 1991 0bc7 00       		.sleb128 0
 1992 0bc8 33       		.byte	0x33
 1993 0bc9 25       		.byte	0x25
 1994 0bca 30       		.byte	0x30
 1995 0bcb 2E       		.byte	0x2e
 1996 0bcc 28       		.byte	0x28
 1997 0bcd 0100     		.2byte	0x1
 1998 0bcf 16       		.byte	0x16
 1999 0bd0 13       		.byte	0x13
 2000 0bd1 08       		.byte	0x8
 2001 0bd2 20       		.byte	0x20
 2002 0bd3 21       		.byte	0x21
 2003 0bd4 08       		.byte	0x8
 2004 0bd5 80       		.byte	0x80
 2005 0bd6 30       		.byte	0x30
 2006 0bd7 74       		.byte	0x74
 2007 0bd8 00       		.sleb128 0
 2008 0bd9 33       		.byte	0x33
 2009 0bda 25       		.byte	0x25
 2010 0bdb 30       		.byte	0x30
 2011 0bdc 2E       		.byte	0x2e
 2012 0bdd 28       		.byte	0x28
 2013 0bde 0100     		.2byte	0x1
 2014 0be0 16       		.byte	0x16
 2015 0be1 13       		.byte	0x13
 2016 0be2 74       		.byte	0x74
 2017 0be3 00       		.sleb128 0
 2018 0be4 4F       		.byte	0x4f
 2019 0be5 24       		.byte	0x24
 2020 0be6 30       		.byte	0x30
 2021 0be7 2D       		.byte	0x2d
 2022 0be8 28       		.byte	0x28
 2023 0be9 0100     		.2byte	0x1
 2024 0beb 16       		.byte	0x16
 2025 0bec 13       		.byte	0x13
 2026 0bed 08       		.byte	0x8
 2027 0bee 40       		.byte	0x40
 2028 0bef 21       		.byte	0x21
 2029 0bf0 08       		.byte	0x8
 2030 0bf1 80       		.byte	0x80
 2031 0bf2 30       		.byte	0x30
 2032 0bf3 74       		.byte	0x74
 2033 0bf4 00       		.sleb128 0
 2034 0bf5 33       		.byte	0x33
 2035 0bf6 25       		.byte	0x25
 2036 0bf7 30       		.byte	0x30
 2037 0bf8 2E       		.byte	0x2e
 2038 0bf9 28       		.byte	0x28
 2039 0bfa 0100     		.2byte	0x1
 2040 0bfc 16       		.byte	0x16
 2041 0bfd 13       		.byte	0x13
 2042 0bfe 08       		.byte	0x8
 2043 0bff 20       		.byte	0x20
 2044 0c00 21       		.byte	0x21
 2045 0c01 08       		.byte	0x8
 2046 0c02 80       		.byte	0x80
ARM GAS  /tmp/cc41dfeQ.s 			page 37


 2047 0c03 30       		.byte	0x30
 2048 0c04 74       		.byte	0x74
 2049 0c05 00       		.sleb128 0
 2050 0c06 33       		.byte	0x33
 2051 0c07 25       		.byte	0x25
 2052 0c08 30       		.byte	0x30
 2053 0c09 2E       		.byte	0x2e
 2054 0c0a 28       		.byte	0x28
 2055 0c0b 0100     		.2byte	0x1
 2056 0c0d 16       		.byte	0x16
 2057 0c0e 13       		.byte	0x13
 2058 0c0f 74       		.byte	0x74
 2059 0c10 00       		.sleb128 0
 2060 0c11 4F       		.byte	0x4f
 2061 0c12 24       		.byte	0x24
 2062 0c13 30       		.byte	0x30
 2063 0c14 2D       		.byte	0x2d
 2064 0c15 28       		.byte	0x28
 2065 0c16 0100     		.2byte	0x1
 2066 0c18 16       		.byte	0x16
 2067 0c19 13       		.byte	0x13
 2068 0c1a 74       		.byte	0x74
 2069 0c1b 00       		.sleb128 0
 2070 0c1c 4E       		.byte	0x4e
 2071 0c1d 24       		.byte	0x24
 2072 0c1e 30       		.byte	0x30
 2073 0c1f 2D       		.byte	0x2d
 2074 0c20 28       		.byte	0x28
 2075 0c21 0100     		.2byte	0x1
 2076 0c23 16       		.byte	0x16
 2077 0c24 13       		.byte	0x13
 2078 0c25 0A       		.byte	0xa
 2079 0c26 0001     		.2byte	0x100
 2080 0c28 21       		.byte	0x21
 2081 0c29 08       		.byte	0x8
 2082 0c2a 80       		.byte	0x80
 2083 0c2b 30       		.byte	0x30
 2084 0c2c 74       		.byte	0x74
 2085 0c2d 00       		.sleb128 0
 2086 0c2e 33       		.byte	0x33
 2087 0c2f 25       		.byte	0x25
 2088 0c30 30       		.byte	0x30
 2089 0c31 2E       		.byte	0x2e
 2090 0c32 28       		.byte	0x28
 2091 0c33 0100     		.2byte	0x1
 2092 0c35 16       		.byte	0x16
 2093 0c36 13       		.byte	0x13
 2094 0c37 08       		.byte	0x8
 2095 0c38 20       		.byte	0x20
 2096 0c39 21       		.byte	0x21
 2097 0c3a 08       		.byte	0x8
 2098 0c3b 80       		.byte	0x80
 2099 0c3c 30       		.byte	0x30
 2100 0c3d 74       		.byte	0x74
 2101 0c3e 00       		.sleb128 0
 2102 0c3f 33       		.byte	0x33
 2103 0c40 25       		.byte	0x25
ARM GAS  /tmp/cc41dfeQ.s 			page 38


 2104 0c41 30       		.byte	0x30
 2105 0c42 2E       		.byte	0x2e
 2106 0c43 28       		.byte	0x28
 2107 0c44 0100     		.2byte	0x1
 2108 0c46 16       		.byte	0x16
 2109 0c47 13       		.byte	0x13
 2110 0c48 74       		.byte	0x74
 2111 0c49 00       		.sleb128 0
 2112 0c4a 4F       		.byte	0x4f
 2113 0c4b 24       		.byte	0x24
 2114 0c4c 30       		.byte	0x30
 2115 0c4d 2D       		.byte	0x2d
 2116 0c4e 28       		.byte	0x28
 2117 0c4f 0100     		.2byte	0x1
 2118 0c51 16       		.byte	0x16
 2119 0c52 13       		.byte	0x13
 2120 0c53 08       		.byte	0x8
 2121 0c54 40       		.byte	0x40
 2122 0c55 21       		.byte	0x21
 2123 0c56 08       		.byte	0x8
 2124 0c57 80       		.byte	0x80
 2125 0c58 30       		.byte	0x30
 2126 0c59 74       		.byte	0x74
 2127 0c5a 00       		.sleb128 0
 2128 0c5b 33       		.byte	0x33
 2129 0c5c 25       		.byte	0x25
 2130 0c5d 30       		.byte	0x30
 2131 0c5e 2E       		.byte	0x2e
 2132 0c5f 28       		.byte	0x28
 2133 0c60 0100     		.2byte	0x1
 2134 0c62 16       		.byte	0x16
 2135 0c63 13       		.byte	0x13
 2136 0c64 08       		.byte	0x8
 2137 0c65 20       		.byte	0x20
 2138 0c66 21       		.byte	0x21
 2139 0c67 08       		.byte	0x8
 2140 0c68 80       		.byte	0x80
 2141 0c69 30       		.byte	0x30
 2142 0c6a 74       		.byte	0x74
 2143 0c6b 00       		.sleb128 0
 2144 0c6c 33       		.byte	0x33
 2145 0c6d 25       		.byte	0x25
 2146 0c6e 30       		.byte	0x30
 2147 0c6f 2E       		.byte	0x2e
 2148 0c70 28       		.byte	0x28
 2149 0c71 0100     		.2byte	0x1
 2150 0c73 16       		.byte	0x16
 2151 0c74 13       		.byte	0x13
 2152 0c75 74       		.byte	0x74
 2153 0c76 00       		.sleb128 0
 2154 0c77 4F       		.byte	0x4f
 2155 0c78 24       		.byte	0x24
 2156 0c79 30       		.byte	0x30
 2157 0c7a 2D       		.byte	0x2d
 2158 0c7b 28       		.byte	0x28
 2159 0c7c 0100     		.2byte	0x1
 2160 0c7e 16       		.byte	0x16
ARM GAS  /tmp/cc41dfeQ.s 			page 39


 2161 0c7f 13       		.byte	0x13
 2162 0c80 74       		.byte	0x74
 2163 0c81 00       		.sleb128 0
 2164 0c82 4E       		.byte	0x4e
 2165 0c83 24       		.byte	0x24
 2166 0c84 30       		.byte	0x30
 2167 0c85 2D       		.byte	0x2d
 2168 0c86 28       		.byte	0x28
 2169 0c87 0100     		.2byte	0x1
 2170 0c89 16       		.byte	0x16
 2171 0c8a 13       		.byte	0x13
 2172 0c8b 74       		.byte	0x74
 2173 0c8c 00       		.sleb128 0
 2174 0c8d 4D       		.byte	0x4d
 2175 0c8e 24       		.byte	0x24
 2176 0c8f 30       		.byte	0x30
 2177 0c90 2D       		.byte	0x2d
 2178 0c91 28       		.byte	0x28
 2179 0c92 0100     		.2byte	0x1
 2180 0c94 16       		.byte	0x16
 2181 0c95 13       		.byte	0x13
 2182 0c96 2E       		.uleb128 0x2e
 2183 0c97 01       		.uleb128 0x1
 2184 0c98 50       		.byte	0x50
 2185 0c99 05       		.uleb128 0x5
 2186 0c9a 03       		.byte	0x3
 2187 0c9b 04000000 		.4byte	.LANCHOR0+4
 2188 0c9f 00       		.byte	0
 2189 0ca0 00       		.byte	0
 2190 0ca1 00       		.byte	0
 2191 0ca2 28       		.uleb128 0x28
 2192 0ca3 AC000000 		.4byte	.LBB44
 2193 0ca7 3C000000 		.4byte	.LBE44-.LBB44
 2194 0cab 120D0000 		.4byte	0xd12
 2195 0caf 27       		.uleb128 0x27
 2196 0cb0 170A0000 		.4byte	0xa17
 2197 0cb4 82010000 		.4byte	.LLST6
 2198 0cb8 28       		.uleb128 0x28
 2199 0cb9 AC000000 		.4byte	.LBB45
 2200 0cbd 06000000 		.4byte	.LBE45-.LBB45
 2201 0cc1 CD0C0000 		.4byte	0xccd
 2202 0cc5 29       		.uleb128 0x29
 2203 0cc6 250A0000 		.4byte	0xa25
 2204 0cca 01       		.uleb128 0x1
 2205 0ccb 53       		.byte	0x53
 2206 0ccc 00       		.byte	0
 2207 0ccd 28       		.uleb128 0x28
 2208 0cce C0000000 		.4byte	.LBB46
 2209 0cd2 08000000 		.4byte	.LBE46-.LBB46
 2210 0cd6 E20C0000 		.4byte	0xce2
 2211 0cda 29       		.uleb128 0x29
 2212 0cdb 320A0000 		.4byte	0xa32
 2213 0cdf 01       		.uleb128 0x1
 2214 0ce0 53       		.byte	0x53
 2215 0ce1 00       		.byte	0
 2216 0ce2 2F       		.uleb128 0x2f
 2217 0ce3 B8000000 		.4byte	.LVL18
ARM GAS  /tmp/cc41dfeQ.s 			page 40


 2218 0ce7 CB0E0000 		.4byte	0xecb
 2219 0ceb F90C0000 		.4byte	0xcf9
 2220 0cef 2E       		.uleb128 0x2e
 2221 0cf0 01       		.uleb128 0x1
 2222 0cf1 50       		.byte	0x50
 2223 0cf2 05       		.uleb128 0x5
 2224 0cf3 03       		.byte	0x3
 2225 0cf4 30000000 		.4byte	.LANCHOR0+48
 2226 0cf8 00       		.byte	0
 2227 0cf9 2D       		.uleb128 0x2d
 2228 0cfa D0000000 		.4byte	.LVL22
 2229 0cfe AF0E0000 		.4byte	0xeaf
 2230 0d02 2E       		.uleb128 0x2e
 2231 0d03 01       		.uleb128 0x1
 2232 0d04 51       		.byte	0x51
 2233 0d05 01       		.uleb128 0x1
 2234 0d06 38       		.byte	0x38
 2235 0d07 2E       		.uleb128 0x2e
 2236 0d08 01       		.uleb128 0x1
 2237 0d09 50       		.byte	0x50
 2238 0d0a 05       		.uleb128 0x5
 2239 0d0b 03       		.byte	0x3
 2240 0d0c 04000000 		.4byte	.LANCHOR0+4
 2241 0d10 00       		.byte	0
 2242 0d11 00       		.byte	0
 2243 0d12 2F       		.uleb128 0x2f
 2244 0d13 32000000 		.4byte	.LVL5
 2245 0d17 AF0E0000 		.4byte	0xeaf
 2246 0d1b 2E0D0000 		.4byte	0xd2e
 2247 0d1f 2E       		.uleb128 0x2e
 2248 0d20 01       		.uleb128 0x1
 2249 0d21 51       		.byte	0x51
 2250 0d22 01       		.uleb128 0x1
 2251 0d23 40       		.byte	0x40
 2252 0d24 2E       		.uleb128 0x2e
 2253 0d25 01       		.uleb128 0x1
 2254 0d26 50       		.byte	0x50
 2255 0d27 05       		.uleb128 0x5
 2256 0d28 03       		.byte	0x3
 2257 0d29 04000000 		.4byte	.LANCHOR0+4
 2258 0d2d 00       		.byte	0
 2259 0d2e 2F       		.uleb128 0x2f
 2260 0d2f 56000000 		.4byte	.LVL9
 2261 0d33 E70E0000 		.4byte	0xee7
 2262 0d37 450D0000 		.4byte	0xd45
 2263 0d3b 2E       		.uleb128 0x2e
 2264 0d3c 01       		.uleb128 0x1
 2265 0d3d 50       		.byte	0x50
 2266 0d3e 05       		.uleb128 0x5
 2267 0d3f 03       		.byte	0x3
 2268 0d40 00000000 		.4byte	.LANCHOR0
 2269 0d44 00       		.byte	0
 2270 0d45 2D       		.uleb128 0x2d
 2271 0d46 6E000000 		.4byte	.LVL10
 2272 0d4a AF0E0000 		.4byte	0xeaf
 2273 0d4e 2E       		.uleb128 0x2e
 2274 0d4f 01       		.uleb128 0x1
ARM GAS  /tmp/cc41dfeQ.s 			page 41


 2275 0d50 51       		.byte	0x51
 2276 0d51 03       		.uleb128 0x3
 2277 0d52 0A       		.byte	0xa
 2278 0d53 0002     		.2byte	0x200
 2279 0d55 2E       		.uleb128 0x2e
 2280 0d56 01       		.uleb128 0x1
 2281 0d57 50       		.byte	0x50
 2282 0d58 05       		.uleb128 0x5
 2283 0d59 03       		.byte	0x3
 2284 0d5a 04000000 		.4byte	.LANCHOR0+4
 2285 0d5e 00       		.byte	0
 2286 0d5f 00       		.byte	0
 2287 0d60 00       		.byte	0
 2288 0d61 30       		.uleb128 0x30
 2289 0d62 46000000 		.4byte	.LVL8
 2290 0d66 FE0E0000 		.4byte	0xefe
 2291 0d6a 00       		.byte	0
 2292 0d6b 23       		.uleb128 0x23
 2293 0d6c 99010000 		.4byte	.LASF123
 2294 0d70 01       		.byte	0x1
 2295 0d71 7401     		.2byte	0x174
 2296 0d73 00000000 		.4byte	.LFB124
 2297 0d77 28000000 		.4byte	.LFE124-.LFB124
 2298 0d7b 01       		.uleb128 0x1
 2299 0d7c 9C       		.byte	0x9c
 2300 0d7d A00D0000 		.4byte	0xda0
 2301 0d81 2D       		.uleb128 0x2d
 2302 0d82 0E000000 		.4byte	.LVL23
 2303 0d86 060F0000 		.4byte	0xf06
 2304 0d8a 2E       		.uleb128 0x2e
 2305 0d8b 01       		.uleb128 0x1
 2306 0d8c 52       		.byte	0x52
 2307 0d8d 05       		.uleb128 0x5
 2308 0d8e 03       		.byte	0x3
 2309 0d8f 00000000 		.4byte	notify1
 2310 0d93 2E       		.uleb128 0x2e
 2311 0d94 01       		.uleb128 0x1
 2312 0d95 51       		.byte	0x51
 2313 0d96 01       		.uleb128 0x1
 2314 0d97 30       		.byte	0x30
 2315 0d98 2E       		.uleb128 0x2e
 2316 0d99 01       		.uleb128 0x1
 2317 0d9a 50       		.byte	0x50
 2318 0d9b 02       		.uleb128 0x2
 2319 0d9c 74       		.byte	0x74
 2320 0d9d 00       		.sleb128 0
 2321 0d9e 00       		.byte	0
 2322 0d9f 00       		.byte	0
 2323 0da0 23       		.uleb128 0x23
 2324 0da1 27040000 		.4byte	.LASF124
 2325 0da5 01       		.byte	0x1
 2326 0da6 A501     		.2byte	0x1a5
 2327 0da8 00000000 		.4byte	.LFB125
 2328 0dac 6C000000 		.4byte	.LFE125-.LFB125
 2329 0db0 01       		.uleb128 0x1
 2330 0db1 9C       		.byte	0x9c
 2331 0db2 2C0E0000 		.4byte	0xe2c
ARM GAS  /tmp/cc41dfeQ.s 			page 42


 2332 0db6 31       		.uleb128 0x31
 2333 0db7 73647000 		.ascii	"sdp\000"
 2334 0dbb 01       		.byte	0x1
 2335 0dbc A501     		.2byte	0x1a5
 2336 0dbe 25090000 		.4byte	0x925
 2337 0dc2 A0010000 		.4byte	.LLST7
 2338 0dc6 32       		.uleb128 0x32
 2339 0dc7 32050000 		.4byte	.LASF117
 2340 0dcb 01       		.byte	0x1
 2341 0dcc A501     		.2byte	0x1a5
 2342 0dce 2B090000 		.4byte	0x92b
 2343 0dd2 E2010000 		.4byte	.LLST8
 2344 0dd6 24       		.uleb128 0x24
 2345 0dd7 F9080000 		.4byte	0x8f9
 2346 0ddb 12000000 		.4byte	.LBB51
 2347 0ddf 20000000 		.4byte	.Ldebug_ranges0+0x20
 2348 0de3 01       		.byte	0x1
 2349 0de4 D601     		.2byte	0x1d6
 2350 0de6 150E0000 		.4byte	0xe15
 2351 0dea 2B       		.uleb128 0x2b
 2352 0deb 05090000 		.4byte	0x905
 2353 0def 28020000 		.4byte	.LLST9
 2354 0df3 2B       		.uleb128 0x2b
 2355 0df4 05090000 		.4byte	0x905
 2356 0df8 28020000 		.4byte	.LLST9
 2357 0dfc 2B       		.uleb128 0x2b
 2358 0dfd 10090000 		.4byte	0x910
 2359 0e01 49020000 		.4byte	.LLST11
 2360 0e05 26       		.uleb128 0x26
 2361 0e06 20000000 		.4byte	.Ldebug_ranges0+0x20
 2362 0e0a 27       		.uleb128 0x27
 2363 0e0b 1B090000 		.4byte	0x91b
 2364 0e0f 79020000 		.4byte	.LLST12
 2365 0e13 00       		.byte	0
 2366 0e14 00       		.byte	0
 2367 0e15 2D       		.uleb128 0x2d
 2368 0e16 5C000000 		.4byte	.LVL32
 2369 0e1a 220F0000 		.4byte	0xf22
 2370 0e1e 2E       		.uleb128 0x2e
 2371 0e1f 01       		.uleb128 0x1
 2372 0e20 51       		.byte	0x51
 2373 0e21 02       		.uleb128 0x2
 2374 0e22 08       		.byte	0x8
 2375 0e23 C0       		.byte	0xc0
 2376 0e24 2E       		.uleb128 0x2e
 2377 0e25 01       		.uleb128 0x1
 2378 0e26 50       		.byte	0x50
 2379 0e27 02       		.uleb128 0x2
 2380 0e28 08       		.byte	0x8
 2381 0e29 25       		.byte	0x25
 2382 0e2a 00       		.byte	0
 2383 0e2b 00       		.byte	0
 2384 0e2c 23       		.uleb128 0x23
 2385 0e2d 27060000 		.4byte	.LASF125
 2386 0e31 01       		.byte	0x1
 2387 0e32 E201     		.2byte	0x1e2
 2388 0e34 00000000 		.4byte	.LFB126
ARM GAS  /tmp/cc41dfeQ.s 			page 43


 2389 0e38 30000000 		.4byte	.LFE126-.LFB126
 2390 0e3c 01       		.uleb128 0x1
 2391 0e3d 9C       		.byte	0x9c
 2392 0e3e 810E0000 		.4byte	0xe81
 2393 0e42 31       		.uleb128 0x31
 2394 0e43 73647000 		.ascii	"sdp\000"
 2395 0e47 01       		.byte	0x1
 2396 0e48 E201     		.2byte	0x1e2
 2397 0e4a 25090000 		.4byte	0x925
 2398 0e4e 8C020000 		.4byte	.LLST13
 2399 0e52 24       		.uleb128 0x24
 2400 0e53 36090000 		.4byte	0x936
 2401 0e57 0C000000 		.4byte	.LBB55
 2402 0e5b 38000000 		.4byte	.Ldebug_ranges0+0x38
 2403 0e5f 01       		.byte	0x1
 2404 0e60 E501     		.2byte	0x1e5
 2405 0e62 700E0000 		.4byte	0xe70
 2406 0e66 2B       		.uleb128 0x2b
 2407 0e67 42090000 		.4byte	0x942
 2408 0e6b AD020000 		.4byte	.LLST14
 2409 0e6f 00       		.byte	0
 2410 0e70 33       		.uleb128 0x33
 2411 0e71 28000000 		.4byte	.LVL37
 2412 0e75 390F0000 		.4byte	0xf39
 2413 0e79 2E       		.uleb128 0x2e
 2414 0e7a 01       		.uleb128 0x1
 2415 0e7b 50       		.byte	0x50
 2416 0e7c 02       		.uleb128 0x2
 2417 0e7d 08       		.byte	0x8
 2418 0e7e 25       		.byte	0x25
 2419 0e7f 00       		.byte	0
 2420 0e80 00       		.byte	0
 2421 0e81 34       		.uleb128 0x34
 2422 0e82 C4000000 		.4byte	.LASF135
 2423 0e86 01       		.byte	0x1
 2424 0e87 49       		.byte	0x49
 2425 0e88 31090000 		.4byte	0x931
 2426 0e8c 05       		.uleb128 0x5
 2427 0e8d 03       		.byte	0x3
 2428 0e8e 00000000 		.4byte	default_config
 2429 0e92 35       		.uleb128 0x35
 2430 0e93 55000000 		.4byte	.LASF126
 2431 0e97 0F       		.byte	0xf
 2432 0e98 9806     		.2byte	0x698
 2433 0e9a 55050000 		.4byte	0x555
 2434 0e9e 36       		.uleb128 0x36
 2435 0e9f 53443100 		.ascii	"SD1\000"
 2436 0ea3 01       		.byte	0x1
 2437 0ea4 28       		.byte	0x28
 2438 0ea5 A5070000 		.4byte	0x7a5
 2439 0ea9 05       		.uleb128 0x5
 2440 0eaa 03       		.byte	0x3
 2441 0eab 00000000 		.4byte	SD1
 2442 0eaf 37       		.uleb128 0x37
 2443 0eb0 1C010000 		.4byte	.LASF127
 2444 0eb4 09       		.byte	0x9
 2445 0eb5 B3       		.byte	0xb3
ARM GAS  /tmp/cc41dfeQ.s 			page 44


 2446 0eb6 C50E0000 		.4byte	0xec5
 2447 0eba 12       		.uleb128 0x12
 2448 0ebb C50E0000 		.4byte	0xec5
 2449 0ebf 12       		.uleb128 0x12
 2450 0ec0 F6000000 		.4byte	0xf6
 2451 0ec4 00       		.byte	0
 2452 0ec5 09       		.uleb128 0x9
 2453 0ec6 04       		.byte	0x4
 2454 0ec7 CA030000 		.4byte	0x3ca
 2455 0ecb 38       		.uleb128 0x38
 2456 0ecc F4000000 		.4byte	.LASF136
 2457 0ed0 0A       		.byte	0xa
 2458 0ed1 6701     		.2byte	0x167
 2459 0ed3 E0000000 		.4byte	0xe0
 2460 0ed7 E10E0000 		.4byte	0xee1
 2461 0edb 12       		.uleb128 0x12
 2462 0edc E10E0000 		.4byte	0xee1
 2463 0ee0 00       		.byte	0
 2464 0ee1 09       		.uleb128 0x9
 2465 0ee2 04       		.byte	0x4
 2466 0ee3 E2040000 		.4byte	0x4e2
 2467 0ee7 39       		.uleb128 0x39
 2468 0ee8 22050000 		.4byte	.LASF128
 2469 0eec 0C       		.byte	0xc
 2470 0eed 3201     		.2byte	0x132
 2471 0eef FE0E0000 		.4byte	0xefe
 2472 0ef3 12       		.uleb128 0x12
 2473 0ef4 25090000 		.4byte	0x925
 2474 0ef8 12       		.uleb128 0x12
 2475 0ef9 45000000 		.4byte	0x45
 2476 0efd 00       		.byte	0
 2477 0efe 3A       		.uleb128 0x3a
 2478 0eff 0B020000 		.4byte	.LASF137
 2479 0f03 07       		.byte	0x7
 2480 0f04 FC01     		.2byte	0x1fc
 2481 0f06 39       		.uleb128 0x39
 2482 0f07 62000000 		.4byte	.LASF129
 2483 0f0b 0C       		.byte	0xc
 2484 0f0c 2F01     		.2byte	0x12f
 2485 0f0e 220F0000 		.4byte	0xf22
 2486 0f12 12       		.uleb128 0x12
 2487 0f13 25090000 		.4byte	0x925
 2488 0f17 12       		.uleb128 0x12
 2489 0f18 AF040000 		.4byte	0x4af
 2490 0f1c 12       		.uleb128 0x12
 2491 0f1d AF040000 		.4byte	0x4af
 2492 0f21 00       		.byte	0
 2493 0f22 39       		.uleb128 0x39
 2494 0f23 24000000 		.4byte	.LASF130
 2495 0f27 0E       		.byte	0xe
 2496 0f28 1C01     		.2byte	0x11c
 2497 0f2a 390F0000 		.4byte	0xf39
 2498 0f2e 12       		.uleb128 0x12
 2499 0f2f 82000000 		.4byte	0x82
 2500 0f33 12       		.uleb128 0x12
 2501 0f34 82000000 		.4byte	0x82
 2502 0f38 00       		.byte	0
ARM GAS  /tmp/cc41dfeQ.s 			page 45


 2503 0f39 3B       		.uleb128 0x3b
 2504 0f3a F4040000 		.4byte	.LASF138
 2505 0f3e 0E       		.byte	0xe
 2506 0f3f 1D01     		.2byte	0x11d
 2507 0f41 12       		.uleb128 0x12
 2508 0f42 82000000 		.4byte	0x82
 2509 0f46 00       		.byte	0
 2510 0f47 00       		.byte	0
 2511              		.section	.debug_abbrev,"",%progbits
 2512              	.Ldebug_abbrev0:
 2513 0000 01       		.uleb128 0x1
 2514 0001 11       		.uleb128 0x11
 2515 0002 01       		.byte	0x1
 2516 0003 25       		.uleb128 0x25
 2517 0004 0E       		.uleb128 0xe
 2518 0005 13       		.uleb128 0x13
 2519 0006 0B       		.uleb128 0xb
 2520 0007 03       		.uleb128 0x3
 2521 0008 0E       		.uleb128 0xe
 2522 0009 1B       		.uleb128 0x1b
 2523 000a 0E       		.uleb128 0xe
 2524 000b 55       		.uleb128 0x55
 2525 000c 17       		.uleb128 0x17
 2526 000d 11       		.uleb128 0x11
 2527 000e 01       		.uleb128 0x1
 2528 000f 10       		.uleb128 0x10
 2529 0010 17       		.uleb128 0x17
 2530 0011 00       		.byte	0
 2531 0012 00       		.byte	0
 2532 0013 02       		.uleb128 0x2
 2533 0014 24       		.uleb128 0x24
 2534 0015 00       		.byte	0
 2535 0016 0B       		.uleb128 0xb
 2536 0017 0B       		.uleb128 0xb
 2537 0018 3E       		.uleb128 0x3e
 2538 0019 0B       		.uleb128 0xb
 2539 001a 03       		.uleb128 0x3
 2540 001b 08       		.uleb128 0x8
 2541 001c 00       		.byte	0
 2542 001d 00       		.byte	0
 2543 001e 03       		.uleb128 0x3
 2544 001f 16       		.uleb128 0x16
 2545 0020 00       		.byte	0
 2546 0021 03       		.uleb128 0x3
 2547 0022 0E       		.uleb128 0xe
 2548 0023 3A       		.uleb128 0x3a
 2549 0024 0B       		.uleb128 0xb
 2550 0025 3B       		.uleb128 0x3b
 2551 0026 0B       		.uleb128 0xb
 2552 0027 49       		.uleb128 0x49
 2553 0028 13       		.uleb128 0x13
 2554 0029 00       		.byte	0
 2555 002a 00       		.byte	0
 2556 002b 04       		.uleb128 0x4
 2557 002c 24       		.uleb128 0x24
 2558 002d 00       		.byte	0
 2559 002e 0B       		.uleb128 0xb
ARM GAS  /tmp/cc41dfeQ.s 			page 46


 2560 002f 0B       		.uleb128 0xb
 2561 0030 3E       		.uleb128 0x3e
 2562 0031 0B       		.uleb128 0xb
 2563 0032 03       		.uleb128 0x3
 2564 0033 0E       		.uleb128 0xe
 2565 0034 00       		.byte	0
 2566 0035 00       		.byte	0
 2567 0036 05       		.uleb128 0x5
 2568 0037 13       		.uleb128 0x13
 2569 0038 01       		.byte	0x1
 2570 0039 03       		.uleb128 0x3
 2571 003a 0E       		.uleb128 0xe
 2572 003b 0B       		.uleb128 0xb
 2573 003c 0B       		.uleb128 0xb
 2574 003d 3A       		.uleb128 0x3a
 2575 003e 0B       		.uleb128 0xb
 2576 003f 3B       		.uleb128 0x3b
 2577 0040 0B       		.uleb128 0xb
 2578 0041 01       		.uleb128 0x1
 2579 0042 13       		.uleb128 0x13
 2580 0043 00       		.byte	0
 2581 0044 00       		.byte	0
 2582 0045 06       		.uleb128 0x6
 2583 0046 0D       		.uleb128 0xd
 2584 0047 00       		.byte	0
 2585 0048 03       		.uleb128 0x3
 2586 0049 0E       		.uleb128 0xe
 2587 004a 3A       		.uleb128 0x3a
 2588 004b 0B       		.uleb128 0xb
 2589 004c 3B       		.uleb128 0x3b
 2590 004d 0B       		.uleb128 0xb
 2591 004e 49       		.uleb128 0x49
 2592 004f 13       		.uleb128 0x13
 2593 0050 38       		.uleb128 0x38
 2594 0051 0B       		.uleb128 0xb
 2595 0052 00       		.byte	0
 2596 0053 00       		.byte	0
 2597 0054 07       		.uleb128 0x7
 2598 0055 0D       		.uleb128 0xd
 2599 0056 00       		.byte	0
 2600 0057 03       		.uleb128 0x3
 2601 0058 08       		.uleb128 0x8
 2602 0059 3A       		.uleb128 0x3a
 2603 005a 0B       		.uleb128 0xb
 2604 005b 3B       		.uleb128 0x3b
 2605 005c 0B       		.uleb128 0xb
 2606 005d 49       		.uleb128 0x49
 2607 005e 13       		.uleb128 0x13
 2608 005f 38       		.uleb128 0x38
 2609 0060 0B       		.uleb128 0xb
 2610 0061 00       		.byte	0
 2611 0062 00       		.byte	0
 2612 0063 08       		.uleb128 0x8
 2613 0064 13       		.uleb128 0x13
 2614 0065 01       		.byte	0x1
 2615 0066 0B       		.uleb128 0xb
 2616 0067 0B       		.uleb128 0xb
ARM GAS  /tmp/cc41dfeQ.s 			page 47


 2617 0068 3A       		.uleb128 0x3a
 2618 0069 0B       		.uleb128 0xb
 2619 006a 3B       		.uleb128 0x3b
 2620 006b 0B       		.uleb128 0xb
 2621 006c 01       		.uleb128 0x1
 2622 006d 13       		.uleb128 0x13
 2623 006e 00       		.byte	0
 2624 006f 00       		.byte	0
 2625 0070 09       		.uleb128 0x9
 2626 0071 0F       		.uleb128 0xf
 2627 0072 00       		.byte	0
 2628 0073 0B       		.uleb128 0xb
 2629 0074 0B       		.uleb128 0xb
 2630 0075 49       		.uleb128 0x49
 2631 0076 13       		.uleb128 0x13
 2632 0077 00       		.byte	0
 2633 0078 00       		.byte	0
 2634 0079 0A       		.uleb128 0xa
 2635 007a 0F       		.uleb128 0xf
 2636 007b 00       		.byte	0
 2637 007c 0B       		.uleb128 0xb
 2638 007d 0B       		.uleb128 0xb
 2639 007e 00       		.byte	0
 2640 007f 00       		.byte	0
 2641 0080 0B       		.uleb128 0xb
 2642 0081 13       		.uleb128 0x13
 2643 0082 01       		.byte	0x1
 2644 0083 03       		.uleb128 0x3
 2645 0084 0E       		.uleb128 0xe
 2646 0085 0B       		.uleb128 0xb
 2647 0086 0B       		.uleb128 0xb
 2648 0087 3A       		.uleb128 0x3a
 2649 0088 0B       		.uleb128 0xb
 2650 0089 3B       		.uleb128 0x3b
 2651 008a 05       		.uleb128 0x5
 2652 008b 01       		.uleb128 0x1
 2653 008c 13       		.uleb128 0x13
 2654 008d 00       		.byte	0
 2655 008e 00       		.byte	0
 2656 008f 0C       		.uleb128 0xc
 2657 0090 0D       		.uleb128 0xd
 2658 0091 00       		.byte	0
 2659 0092 03       		.uleb128 0x3
 2660 0093 08       		.uleb128 0x8
 2661 0094 3A       		.uleb128 0x3a
 2662 0095 0B       		.uleb128 0xb
 2663 0096 3B       		.uleb128 0x3b
 2664 0097 05       		.uleb128 0x5
 2665 0098 49       		.uleb128 0x49
 2666 0099 13       		.uleb128 0x13
 2667 009a 38       		.uleb128 0x38
 2668 009b 0B       		.uleb128 0xb
 2669 009c 00       		.byte	0
 2670 009d 00       		.byte	0
 2671 009e 0D       		.uleb128 0xd
 2672 009f 35       		.uleb128 0x35
 2673 00a0 00       		.byte	0
ARM GAS  /tmp/cc41dfeQ.s 			page 48


 2674 00a1 49       		.uleb128 0x49
 2675 00a2 13       		.uleb128 0x13
 2676 00a3 00       		.byte	0
 2677 00a4 00       		.byte	0
 2678 00a5 0E       		.uleb128 0xe
 2679 00a6 17       		.uleb128 0x17
 2680 00a7 01       		.byte	0x1
 2681 00a8 0B       		.uleb128 0xb
 2682 00a9 0B       		.uleb128 0xb
 2683 00aa 3A       		.uleb128 0x3a
 2684 00ab 0B       		.uleb128 0xb
 2685 00ac 3B       		.uleb128 0x3b
 2686 00ad 0B       		.uleb128 0xb
 2687 00ae 01       		.uleb128 0x1
 2688 00af 13       		.uleb128 0x13
 2689 00b0 00       		.byte	0
 2690 00b1 00       		.byte	0
 2691 00b2 0F       		.uleb128 0xf
 2692 00b3 0D       		.uleb128 0xd
 2693 00b4 00       		.byte	0
 2694 00b5 03       		.uleb128 0x3
 2695 00b6 0E       		.uleb128 0xe
 2696 00b7 3A       		.uleb128 0x3a
 2697 00b8 0B       		.uleb128 0xb
 2698 00b9 3B       		.uleb128 0x3b
 2699 00ba 0B       		.uleb128 0xb
 2700 00bb 49       		.uleb128 0x49
 2701 00bc 13       		.uleb128 0x13
 2702 00bd 00       		.byte	0
 2703 00be 00       		.byte	0
 2704 00bf 10       		.uleb128 0x10
 2705 00c0 26       		.uleb128 0x26
 2706 00c1 00       		.byte	0
 2707 00c2 49       		.uleb128 0x49
 2708 00c3 13       		.uleb128 0x13
 2709 00c4 00       		.byte	0
 2710 00c5 00       		.byte	0
 2711 00c6 11       		.uleb128 0x11
 2712 00c7 15       		.uleb128 0x15
 2713 00c8 01       		.byte	0x1
 2714 00c9 27       		.uleb128 0x27
 2715 00ca 19       		.uleb128 0x19
 2716 00cb 49       		.uleb128 0x49
 2717 00cc 13       		.uleb128 0x13
 2718 00cd 01       		.uleb128 0x1
 2719 00ce 13       		.uleb128 0x13
 2720 00cf 00       		.byte	0
 2721 00d0 00       		.byte	0
 2722 00d1 12       		.uleb128 0x12
 2723 00d2 05       		.uleb128 0x5
 2724 00d3 00       		.byte	0
 2725 00d4 49       		.uleb128 0x49
 2726 00d5 13       		.uleb128 0x13
 2727 00d6 00       		.byte	0
 2728 00d7 00       		.byte	0
 2729 00d8 13       		.uleb128 0x13
 2730 00d9 15       		.uleb128 0x15
ARM GAS  /tmp/cc41dfeQ.s 			page 49


 2731 00da 01       		.byte	0x1
 2732 00db 27       		.uleb128 0x27
 2733 00dc 19       		.uleb128 0x19
 2734 00dd 01       		.uleb128 0x1
 2735 00de 13       		.uleb128 0x13
 2736 00df 00       		.byte	0
 2737 00e0 00       		.byte	0
 2738 00e1 14       		.uleb128 0x14
 2739 00e2 13       		.uleb128 0x13
 2740 00e3 01       		.byte	0x1
 2741 00e4 0B       		.uleb128 0xb
 2742 00e5 0B       		.uleb128 0xb
 2743 00e6 3A       		.uleb128 0x3a
 2744 00e7 0B       		.uleb128 0xb
 2745 00e8 3B       		.uleb128 0x3b
 2746 00e9 05       		.uleb128 0x5
 2747 00ea 01       		.uleb128 0x1
 2748 00eb 13       		.uleb128 0x13
 2749 00ec 00       		.byte	0
 2750 00ed 00       		.byte	0
 2751 00ee 15       		.uleb128 0x15
 2752 00ef 0D       		.uleb128 0xd
 2753 00f0 00       		.byte	0
 2754 00f1 03       		.uleb128 0x3
 2755 00f2 0E       		.uleb128 0xe
 2756 00f3 3A       		.uleb128 0x3a
 2757 00f4 0B       		.uleb128 0xb
 2758 00f5 3B       		.uleb128 0x3b
 2759 00f6 05       		.uleb128 0x5
 2760 00f7 49       		.uleb128 0x49
 2761 00f8 13       		.uleb128 0x13
 2762 00f9 38       		.uleb128 0x38
 2763 00fa 0B       		.uleb128 0xb
 2764 00fb 00       		.byte	0
 2765 00fc 00       		.byte	0
 2766 00fd 16       		.uleb128 0x16
 2767 00fe 16       		.uleb128 0x16
 2768 00ff 00       		.byte	0
 2769 0100 03       		.uleb128 0x3
 2770 0101 0E       		.uleb128 0xe
 2771 0102 3A       		.uleb128 0x3a
 2772 0103 0B       		.uleb128 0xb
 2773 0104 3B       		.uleb128 0x3b
 2774 0105 05       		.uleb128 0x5
 2775 0106 49       		.uleb128 0x49
 2776 0107 13       		.uleb128 0x13
 2777 0108 00       		.byte	0
 2778 0109 00       		.byte	0
 2779 010a 17       		.uleb128 0x17
 2780 010b 04       		.uleb128 0x4
 2781 010c 01       		.byte	0x1
 2782 010d 0B       		.uleb128 0xb
 2783 010e 0B       		.uleb128 0xb
 2784 010f 3A       		.uleb128 0x3a
 2785 0110 0B       		.uleb128 0xb
 2786 0111 3B       		.uleb128 0x3b
 2787 0112 0B       		.uleb128 0xb
ARM GAS  /tmp/cc41dfeQ.s 			page 50


 2788 0113 01       		.uleb128 0x1
 2789 0114 13       		.uleb128 0x13
 2790 0115 00       		.byte	0
 2791 0116 00       		.byte	0
 2792 0117 18       		.uleb128 0x18
 2793 0118 28       		.uleb128 0x28
 2794 0119 00       		.byte	0
 2795 011a 03       		.uleb128 0x3
 2796 011b 0E       		.uleb128 0xe
 2797 011c 1C       		.uleb128 0x1c
 2798 011d 0D       		.uleb128 0xd
 2799 011e 00       		.byte	0
 2800 011f 00       		.byte	0
 2801 0120 19       		.uleb128 0x19
 2802 0121 01       		.uleb128 0x1
 2803 0122 01       		.byte	0x1
 2804 0123 49       		.uleb128 0x49
 2805 0124 13       		.uleb128 0x13
 2806 0125 01       		.uleb128 0x1
 2807 0126 13       		.uleb128 0x13
 2808 0127 00       		.byte	0
 2809 0128 00       		.byte	0
 2810 0129 1A       		.uleb128 0x1a
 2811 012a 21       		.uleb128 0x21
 2812 012b 00       		.byte	0
 2813 012c 49       		.uleb128 0x49
 2814 012d 13       		.uleb128 0x13
 2815 012e 2F       		.uleb128 0x2f
 2816 012f 0B       		.uleb128 0xb
 2817 0130 00       		.byte	0
 2818 0131 00       		.byte	0
 2819 0132 1B       		.uleb128 0x1b
 2820 0133 2E       		.uleb128 0x2e
 2821 0134 01       		.byte	0x1
 2822 0135 03       		.uleb128 0x3
 2823 0136 0E       		.uleb128 0xe
 2824 0137 3A       		.uleb128 0x3a
 2825 0138 0B       		.uleb128 0xb
 2826 0139 3B       		.uleb128 0x3b
 2827 013a 0B       		.uleb128 0xb
 2828 013b 27       		.uleb128 0x27
 2829 013c 19       		.uleb128 0x19
 2830 013d 20       		.uleb128 0x20
 2831 013e 0B       		.uleb128 0xb
 2832 013f 01       		.uleb128 0x1
 2833 0140 13       		.uleb128 0x13
 2834 0141 00       		.byte	0
 2835 0142 00       		.byte	0
 2836 0143 1C       		.uleb128 0x1c
 2837 0144 05       		.uleb128 0x5
 2838 0145 00       		.byte	0
 2839 0146 03       		.uleb128 0x3
 2840 0147 08       		.uleb128 0x8
 2841 0148 3A       		.uleb128 0x3a
 2842 0149 0B       		.uleb128 0xb
 2843 014a 3B       		.uleb128 0x3b
 2844 014b 0B       		.uleb128 0xb
ARM GAS  /tmp/cc41dfeQ.s 			page 51


 2845 014c 49       		.uleb128 0x49
 2846 014d 13       		.uleb128 0x13
 2847 014e 00       		.byte	0
 2848 014f 00       		.byte	0
 2849 0150 1D       		.uleb128 0x1d
 2850 0151 05       		.uleb128 0x5
 2851 0152 00       		.byte	0
 2852 0153 03       		.uleb128 0x3
 2853 0154 0E       		.uleb128 0xe
 2854 0155 3A       		.uleb128 0x3a
 2855 0156 0B       		.uleb128 0xb
 2856 0157 3B       		.uleb128 0x3b
 2857 0158 0B       		.uleb128 0xb
 2858 0159 49       		.uleb128 0x49
 2859 015a 13       		.uleb128 0x13
 2860 015b 00       		.byte	0
 2861 015c 00       		.byte	0
 2862 015d 1E       		.uleb128 0x1e
 2863 015e 34       		.uleb128 0x34
 2864 015f 00       		.byte	0
 2865 0160 03       		.uleb128 0x3
 2866 0161 08       		.uleb128 0x8
 2867 0162 3A       		.uleb128 0x3a
 2868 0163 0B       		.uleb128 0xb
 2869 0164 3B       		.uleb128 0x3b
 2870 0165 0B       		.uleb128 0xb
 2871 0166 49       		.uleb128 0x49
 2872 0167 13       		.uleb128 0x13
 2873 0168 00       		.byte	0
 2874 0169 00       		.byte	0
 2875 016a 1F       		.uleb128 0x1f
 2876 016b 0B       		.uleb128 0xb
 2877 016c 01       		.byte	0x1
 2878 016d 01       		.uleb128 0x1
 2879 016e 13       		.uleb128 0x13
 2880 016f 00       		.byte	0
 2881 0170 00       		.byte	0
 2882 0171 20       		.uleb128 0x20
 2883 0172 0B       		.uleb128 0xb
 2884 0173 01       		.byte	0x1
 2885 0174 00       		.byte	0
 2886 0175 00       		.byte	0
 2887 0176 21       		.uleb128 0x21
 2888 0177 2E       		.uleb128 0x2e
 2889 0178 01       		.byte	0x1
 2890 0179 03       		.uleb128 0x3
 2891 017a 0E       		.uleb128 0xe
 2892 017b 3A       		.uleb128 0x3a
 2893 017c 0B       		.uleb128 0xb
 2894 017d 3B       		.uleb128 0x3b
 2895 017e 0B       		.uleb128 0xb
 2896 017f 27       		.uleb128 0x27
 2897 0180 19       		.uleb128 0x19
 2898 0181 11       		.uleb128 0x11
 2899 0182 01       		.uleb128 0x1
 2900 0183 12       		.uleb128 0x12
 2901 0184 06       		.uleb128 0x6
ARM GAS  /tmp/cc41dfeQ.s 			page 52


 2902 0185 40       		.uleb128 0x40
 2903 0186 18       		.uleb128 0x18
 2904 0187 9742     		.uleb128 0x2117
 2905 0189 19       		.uleb128 0x19
 2906 018a 01       		.uleb128 0x1
 2907 018b 13       		.uleb128 0x13
 2908 018c 00       		.byte	0
 2909 018d 00       		.byte	0
 2910 018e 22       		.uleb128 0x22
 2911 018f 05       		.uleb128 0x5
 2912 0190 00       		.byte	0
 2913 0191 03       		.uleb128 0x3
 2914 0192 08       		.uleb128 0x8
 2915 0193 3A       		.uleb128 0x3a
 2916 0194 0B       		.uleb128 0xb
 2917 0195 3B       		.uleb128 0x3b
 2918 0196 0B       		.uleb128 0xb
 2919 0197 49       		.uleb128 0x49
 2920 0198 13       		.uleb128 0x13
 2921 0199 02       		.uleb128 0x2
 2922 019a 18       		.uleb128 0x18
 2923 019b 00       		.byte	0
 2924 019c 00       		.byte	0
 2925 019d 23       		.uleb128 0x23
 2926 019e 2E       		.uleb128 0x2e
 2927 019f 01       		.byte	0x1
 2928 01a0 3F       		.uleb128 0x3f
 2929 01a1 19       		.uleb128 0x19
 2930 01a2 03       		.uleb128 0x3
 2931 01a3 0E       		.uleb128 0xe
 2932 01a4 3A       		.uleb128 0x3a
 2933 01a5 0B       		.uleb128 0xb
 2934 01a6 3B       		.uleb128 0x3b
 2935 01a7 05       		.uleb128 0x5
 2936 01a8 27       		.uleb128 0x27
 2937 01a9 19       		.uleb128 0x19
 2938 01aa 11       		.uleb128 0x11
 2939 01ab 01       		.uleb128 0x1
 2940 01ac 12       		.uleb128 0x12
 2941 01ad 06       		.uleb128 0x6
 2942 01ae 40       		.uleb128 0x40
 2943 01af 18       		.uleb128 0x18
 2944 01b0 9742     		.uleb128 0x2117
 2945 01b2 19       		.uleb128 0x19
 2946 01b3 01       		.uleb128 0x1
 2947 01b4 13       		.uleb128 0x13
 2948 01b5 00       		.byte	0
 2949 01b6 00       		.byte	0
 2950 01b7 24       		.uleb128 0x24
 2951 01b8 1D       		.uleb128 0x1d
 2952 01b9 01       		.byte	0x1
 2953 01ba 31       		.uleb128 0x31
 2954 01bb 13       		.uleb128 0x13
 2955 01bc 52       		.uleb128 0x52
 2956 01bd 01       		.uleb128 0x1
 2957 01be 55       		.uleb128 0x55
 2958 01bf 17       		.uleb128 0x17
ARM GAS  /tmp/cc41dfeQ.s 			page 53


 2959 01c0 58       		.uleb128 0x58
 2960 01c1 0B       		.uleb128 0xb
 2961 01c2 59       		.uleb128 0x59
 2962 01c3 05       		.uleb128 0x5
 2963 01c4 01       		.uleb128 0x1
 2964 01c5 13       		.uleb128 0x13
 2965 01c6 00       		.byte	0
 2966 01c7 00       		.byte	0
 2967 01c8 25       		.uleb128 0x25
 2968 01c9 05       		.uleb128 0x5
 2969 01ca 00       		.byte	0
 2970 01cb 31       		.uleb128 0x31
 2971 01cc 13       		.uleb128 0x13
 2972 01cd 02       		.uleb128 0x2
 2973 01ce 18       		.uleb128 0x18
 2974 01cf 00       		.byte	0
 2975 01d0 00       		.byte	0
 2976 01d1 26       		.uleb128 0x26
 2977 01d2 0B       		.uleb128 0xb
 2978 01d3 01       		.byte	0x1
 2979 01d4 55       		.uleb128 0x55
 2980 01d5 17       		.uleb128 0x17
 2981 01d6 00       		.byte	0
 2982 01d7 00       		.byte	0
 2983 01d8 27       		.uleb128 0x27
 2984 01d9 34       		.uleb128 0x34
 2985 01da 00       		.byte	0
 2986 01db 31       		.uleb128 0x31
 2987 01dc 13       		.uleb128 0x13
 2988 01dd 02       		.uleb128 0x2
 2989 01de 17       		.uleb128 0x17
 2990 01df 00       		.byte	0
 2991 01e0 00       		.byte	0
 2992 01e1 28       		.uleb128 0x28
 2993 01e2 0B       		.uleb128 0xb
 2994 01e3 01       		.byte	0x1
 2995 01e4 11       		.uleb128 0x11
 2996 01e5 01       		.uleb128 0x1
 2997 01e6 12       		.uleb128 0x12
 2998 01e7 06       		.uleb128 0x6
 2999 01e8 01       		.uleb128 0x1
 3000 01e9 13       		.uleb128 0x13
 3001 01ea 00       		.byte	0
 3002 01eb 00       		.byte	0
 3003 01ec 29       		.uleb128 0x29
 3004 01ed 34       		.uleb128 0x34
 3005 01ee 00       		.byte	0
 3006 01ef 31       		.uleb128 0x31
 3007 01f0 13       		.uleb128 0x13
 3008 01f1 02       		.uleb128 0x2
 3009 01f2 18       		.uleb128 0x18
 3010 01f3 00       		.byte	0
 3011 01f4 00       		.byte	0
 3012 01f5 2A       		.uleb128 0x2a
 3013 01f6 1D       		.uleb128 0x1d
 3014 01f7 01       		.byte	0x1
 3015 01f8 31       		.uleb128 0x31
ARM GAS  /tmp/cc41dfeQ.s 			page 54


 3016 01f9 13       		.uleb128 0x13
 3017 01fa 11       		.uleb128 0x11
 3018 01fb 01       		.uleb128 0x1
 3019 01fc 12       		.uleb128 0x12
 3020 01fd 06       		.uleb128 0x6
 3021 01fe 58       		.uleb128 0x58
 3022 01ff 0B       		.uleb128 0xb
 3023 0200 59       		.uleb128 0x59
 3024 0201 0B       		.uleb128 0xb
 3025 0202 01       		.uleb128 0x1
 3026 0203 13       		.uleb128 0x13
 3027 0204 00       		.byte	0
 3028 0205 00       		.byte	0
 3029 0206 2B       		.uleb128 0x2b
 3030 0207 05       		.uleb128 0x5
 3031 0208 00       		.byte	0
 3032 0209 31       		.uleb128 0x31
 3033 020a 13       		.uleb128 0x13
 3034 020b 02       		.uleb128 0x2
 3035 020c 17       		.uleb128 0x17
 3036 020d 00       		.byte	0
 3037 020e 00       		.byte	0
 3038 020f 2C       		.uleb128 0x2c
 3039 0210 0B       		.uleb128 0xb
 3040 0211 01       		.byte	0x1
 3041 0212 11       		.uleb128 0x11
 3042 0213 01       		.uleb128 0x1
 3043 0214 12       		.uleb128 0x12
 3044 0215 06       		.uleb128 0x6
 3045 0216 00       		.byte	0
 3046 0217 00       		.byte	0
 3047 0218 2D       		.uleb128 0x2d
 3048 0219 898201   		.uleb128 0x4109
 3049 021c 01       		.byte	0x1
 3050 021d 11       		.uleb128 0x11
 3051 021e 01       		.uleb128 0x1
 3052 021f 31       		.uleb128 0x31
 3053 0220 13       		.uleb128 0x13
 3054 0221 00       		.byte	0
 3055 0222 00       		.byte	0
 3056 0223 2E       		.uleb128 0x2e
 3057 0224 8A8201   		.uleb128 0x410a
 3058 0227 00       		.byte	0
 3059 0228 02       		.uleb128 0x2
 3060 0229 18       		.uleb128 0x18
 3061 022a 9142     		.uleb128 0x2111
 3062 022c 18       		.uleb128 0x18
 3063 022d 00       		.byte	0
 3064 022e 00       		.byte	0
 3065 022f 2F       		.uleb128 0x2f
 3066 0230 898201   		.uleb128 0x4109
 3067 0233 01       		.byte	0x1
 3068 0234 11       		.uleb128 0x11
 3069 0235 01       		.uleb128 0x1
 3070 0236 31       		.uleb128 0x31
 3071 0237 13       		.uleb128 0x13
 3072 0238 01       		.uleb128 0x1
ARM GAS  /tmp/cc41dfeQ.s 			page 55


 3073 0239 13       		.uleb128 0x13
 3074 023a 00       		.byte	0
 3075 023b 00       		.byte	0
 3076 023c 30       		.uleb128 0x30
 3077 023d 898201   		.uleb128 0x4109
 3078 0240 00       		.byte	0
 3079 0241 11       		.uleb128 0x11
 3080 0242 01       		.uleb128 0x1
 3081 0243 9542     		.uleb128 0x2115
 3082 0245 19       		.uleb128 0x19
 3083 0246 31       		.uleb128 0x31
 3084 0247 13       		.uleb128 0x13
 3085 0248 00       		.byte	0
 3086 0249 00       		.byte	0
 3087 024a 31       		.uleb128 0x31
 3088 024b 05       		.uleb128 0x5
 3089 024c 00       		.byte	0
 3090 024d 03       		.uleb128 0x3
 3091 024e 08       		.uleb128 0x8
 3092 024f 3A       		.uleb128 0x3a
 3093 0250 0B       		.uleb128 0xb
 3094 0251 3B       		.uleb128 0x3b
 3095 0252 05       		.uleb128 0x5
 3096 0253 49       		.uleb128 0x49
 3097 0254 13       		.uleb128 0x13
 3098 0255 02       		.uleb128 0x2
 3099 0256 17       		.uleb128 0x17
 3100 0257 00       		.byte	0
 3101 0258 00       		.byte	0
 3102 0259 32       		.uleb128 0x32
 3103 025a 05       		.uleb128 0x5
 3104 025b 00       		.byte	0
 3105 025c 03       		.uleb128 0x3
 3106 025d 0E       		.uleb128 0xe
 3107 025e 3A       		.uleb128 0x3a
 3108 025f 0B       		.uleb128 0xb
 3109 0260 3B       		.uleb128 0x3b
 3110 0261 05       		.uleb128 0x5
 3111 0262 49       		.uleb128 0x49
 3112 0263 13       		.uleb128 0x13
 3113 0264 02       		.uleb128 0x2
 3114 0265 17       		.uleb128 0x17
 3115 0266 00       		.byte	0
 3116 0267 00       		.byte	0
 3117 0268 33       		.uleb128 0x33
 3118 0269 898201   		.uleb128 0x4109
 3119 026c 01       		.byte	0x1
 3120 026d 11       		.uleb128 0x11
 3121 026e 01       		.uleb128 0x1
 3122 026f 9542     		.uleb128 0x2115
 3123 0271 19       		.uleb128 0x19
 3124 0272 31       		.uleb128 0x31
 3125 0273 13       		.uleb128 0x13
 3126 0274 00       		.byte	0
 3127 0275 00       		.byte	0
 3128 0276 34       		.uleb128 0x34
 3129 0277 34       		.uleb128 0x34
ARM GAS  /tmp/cc41dfeQ.s 			page 56


 3130 0278 00       		.byte	0
 3131 0279 03       		.uleb128 0x3
 3132 027a 0E       		.uleb128 0xe
 3133 027b 3A       		.uleb128 0x3a
 3134 027c 0B       		.uleb128 0xb
 3135 027d 3B       		.uleb128 0x3b
 3136 027e 0B       		.uleb128 0xb
 3137 027f 49       		.uleb128 0x49
 3138 0280 13       		.uleb128 0x13
 3139 0281 02       		.uleb128 0x2
 3140 0282 18       		.uleb128 0x18
 3141 0283 00       		.byte	0
 3142 0284 00       		.byte	0
 3143 0285 35       		.uleb128 0x35
 3144 0286 34       		.uleb128 0x34
 3145 0287 00       		.byte	0
 3146 0288 03       		.uleb128 0x3
 3147 0289 0E       		.uleb128 0xe
 3148 028a 3A       		.uleb128 0x3a
 3149 028b 0B       		.uleb128 0xb
 3150 028c 3B       		.uleb128 0x3b
 3151 028d 05       		.uleb128 0x5
 3152 028e 49       		.uleb128 0x49
 3153 028f 13       		.uleb128 0x13
 3154 0290 3F       		.uleb128 0x3f
 3155 0291 19       		.uleb128 0x19
 3156 0292 3C       		.uleb128 0x3c
 3157 0293 19       		.uleb128 0x19
 3158 0294 00       		.byte	0
 3159 0295 00       		.byte	0
 3160 0296 36       		.uleb128 0x36
 3161 0297 34       		.uleb128 0x34
 3162 0298 00       		.byte	0
 3163 0299 03       		.uleb128 0x3
 3164 029a 08       		.uleb128 0x8
 3165 029b 3A       		.uleb128 0x3a
 3166 029c 0B       		.uleb128 0xb
 3167 029d 3B       		.uleb128 0x3b
 3168 029e 0B       		.uleb128 0xb
 3169 029f 49       		.uleb128 0x49
 3170 02a0 13       		.uleb128 0x13
 3171 02a1 3F       		.uleb128 0x3f
 3172 02a2 19       		.uleb128 0x19
 3173 02a3 02       		.uleb128 0x2
 3174 02a4 18       		.uleb128 0x18
 3175 02a5 00       		.byte	0
 3176 02a6 00       		.byte	0
 3177 02a7 37       		.uleb128 0x37
 3178 02a8 2E       		.uleb128 0x2e
 3179 02a9 01       		.byte	0x1
 3180 02aa 3F       		.uleb128 0x3f
 3181 02ab 19       		.uleb128 0x19
 3182 02ac 03       		.uleb128 0x3
 3183 02ad 0E       		.uleb128 0xe
 3184 02ae 3A       		.uleb128 0x3a
 3185 02af 0B       		.uleb128 0xb
 3186 02b0 3B       		.uleb128 0x3b
ARM GAS  /tmp/cc41dfeQ.s 			page 57


 3187 02b1 0B       		.uleb128 0xb
 3188 02b2 27       		.uleb128 0x27
 3189 02b3 19       		.uleb128 0x19
 3190 02b4 3C       		.uleb128 0x3c
 3191 02b5 19       		.uleb128 0x19
 3192 02b6 01       		.uleb128 0x1
 3193 02b7 13       		.uleb128 0x13
 3194 02b8 00       		.byte	0
 3195 02b9 00       		.byte	0
 3196 02ba 38       		.uleb128 0x38
 3197 02bb 2E       		.uleb128 0x2e
 3198 02bc 01       		.byte	0x1
 3199 02bd 3F       		.uleb128 0x3f
 3200 02be 19       		.uleb128 0x19
 3201 02bf 03       		.uleb128 0x3
 3202 02c0 0E       		.uleb128 0xe
 3203 02c1 3A       		.uleb128 0x3a
 3204 02c2 0B       		.uleb128 0xb
 3205 02c3 3B       		.uleb128 0x3b
 3206 02c4 05       		.uleb128 0x5
 3207 02c5 27       		.uleb128 0x27
 3208 02c6 19       		.uleb128 0x19
 3209 02c7 49       		.uleb128 0x49
 3210 02c8 13       		.uleb128 0x13
 3211 02c9 3C       		.uleb128 0x3c
 3212 02ca 19       		.uleb128 0x19
 3213 02cb 01       		.uleb128 0x1
 3214 02cc 13       		.uleb128 0x13
 3215 02cd 00       		.byte	0
 3216 02ce 00       		.byte	0
 3217 02cf 39       		.uleb128 0x39
 3218 02d0 2E       		.uleb128 0x2e
 3219 02d1 01       		.byte	0x1
 3220 02d2 3F       		.uleb128 0x3f
 3221 02d3 19       		.uleb128 0x19
 3222 02d4 03       		.uleb128 0x3
 3223 02d5 0E       		.uleb128 0xe
 3224 02d6 3A       		.uleb128 0x3a
 3225 02d7 0B       		.uleb128 0xb
 3226 02d8 3B       		.uleb128 0x3b
 3227 02d9 05       		.uleb128 0x5
 3228 02da 27       		.uleb128 0x27
 3229 02db 19       		.uleb128 0x19
 3230 02dc 3C       		.uleb128 0x3c
 3231 02dd 19       		.uleb128 0x19
 3232 02de 01       		.uleb128 0x1
 3233 02df 13       		.uleb128 0x13
 3234 02e0 00       		.byte	0
 3235 02e1 00       		.byte	0
 3236 02e2 3A       		.uleb128 0x3a
 3237 02e3 2E       		.uleb128 0x2e
 3238 02e4 00       		.byte	0
 3239 02e5 3F       		.uleb128 0x3f
 3240 02e6 19       		.uleb128 0x19
 3241 02e7 03       		.uleb128 0x3
 3242 02e8 0E       		.uleb128 0xe
 3243 02e9 3A       		.uleb128 0x3a
ARM GAS  /tmp/cc41dfeQ.s 			page 58


 3244 02ea 0B       		.uleb128 0xb
 3245 02eb 3B       		.uleb128 0x3b
 3246 02ec 05       		.uleb128 0x5
 3247 02ed 27       		.uleb128 0x27
 3248 02ee 19       		.uleb128 0x19
 3249 02ef 3C       		.uleb128 0x3c
 3250 02f0 19       		.uleb128 0x19
 3251 02f1 00       		.byte	0
 3252 02f2 00       		.byte	0
 3253 02f3 3B       		.uleb128 0x3b
 3254 02f4 2E       		.uleb128 0x2e
 3255 02f5 01       		.byte	0x1
 3256 02f6 3F       		.uleb128 0x3f
 3257 02f7 19       		.uleb128 0x19
 3258 02f8 03       		.uleb128 0x3
 3259 02f9 0E       		.uleb128 0xe
 3260 02fa 3A       		.uleb128 0x3a
 3261 02fb 0B       		.uleb128 0xb
 3262 02fc 3B       		.uleb128 0x3b
 3263 02fd 05       		.uleb128 0x5
 3264 02fe 27       		.uleb128 0x27
 3265 02ff 19       		.uleb128 0x19
 3266 0300 3C       		.uleb128 0x3c
 3267 0301 19       		.uleb128 0x19
 3268 0302 00       		.byte	0
 3269 0303 00       		.byte	0
 3270 0304 00       		.byte	0
 3271              		.section	.debug_loc,"",%progbits
 3272              	.Ldebug_loc0:
 3273              	.LLST0:
 3274 0000 06000000 		.4byte	.LVL2
 3275 0004 42000000 		.4byte	.LVL7
 3276 0008 0100     		.2byte	0x1
 3277 000a 55       		.byte	0x55
 3278 000b 46000000 		.4byte	.LVL8
 3279 000f E8000000 		.4byte	.LFE123
 3280 0013 0100     		.2byte	0x1
 3281 0015 55       		.byte	0x55
 3282 0016 00000000 		.4byte	0
 3283 001a 00000000 		.4byte	0
 3284              	.LLST1:
 3285 001e 08000000 		.4byte	.LVL3
 3286 0022 3C000000 		.4byte	.LVL6
 3287 0026 0100     		.2byte	0x1
 3288 0028 56       		.byte	0x56
 3289 0029 46000000 		.4byte	.LVL8
 3290 002d E8000000 		.4byte	.LFE123
 3291 0031 0100     		.2byte	0x1
 3292 0033 56       		.byte	0x56
 3293 0034 00000000 		.4byte	0
 3294 0038 00000000 		.4byte	0
 3295              	.LLST2:
 3296 003c 0A000000 		.4byte	.LVL4
 3297 0040 42000000 		.4byte	.LVL7
 3298 0044 0100     		.2byte	0x1
 3299 0046 54       		.byte	0x54
 3300 0047 46000000 		.4byte	.LVL8
ARM GAS  /tmp/cc41dfeQ.s 			page 59


 3301 004b E8000000 		.4byte	.LFE123
 3302 004f 0100     		.2byte	0x1
 3303 0051 54       		.byte	0x54
 3304 0052 00000000 		.4byte	0
 3305 0056 00000000 		.4byte	0
 3306              	.LLST3:
 3307 005a 76000000 		.4byte	.LVL11
 3308 005e AC000000 		.4byte	.LVL17
 3309 0062 0600     		.2byte	0x6
 3310 0064 03       		.byte	0x3
 3311 0065 00000000 		.4byte	SD1
 3312 0069 9F       		.byte	0x9f
 3313 006a 00000000 		.4byte	0
 3314 006e 00000000 		.4byte	0
 3315              	.LLST4:
 3316 0072 76000000 		.4byte	.LVL11
 3317 0076 AC000000 		.4byte	.LVL17
 3318 007a 0100     		.2byte	0x1
 3319 007c 54       		.byte	0x54
 3320 007d 00000000 		.4byte	0
 3321 0081 00000000 		.4byte	0
 3322              	.LLST5:
 3323 0085 76000000 		.4byte	.LVL11
 3324 0089 80000000 		.4byte	.LVL12
 3325 008d 0200     		.2byte	0x2
 3326 008f 30       		.byte	0x30
 3327 0090 9F       		.byte	0x9f
 3328 0091 80000000 		.4byte	.LVL12
 3329 0095 A3000000 		.4byte	.LVL16-1
 3330 0099 0100     		.2byte	0x1
 3331 009b 51       		.byte	0x51
 3332 009c A3000000 		.4byte	.LVL16-1
 3333 00a0 AC000000 		.4byte	.LVL17
 3334 00a4 D400     		.2byte	0xd4
 3335 00a6 08       		.byte	0x8
 3336 00a7 80       		.byte	0x80
 3337 00a8 30       		.byte	0x30
 3338 00a9 74       		.byte	0x74
 3339 00aa 00       		.sleb128 0
 3340 00ab 33       		.byte	0x33
 3341 00ac 25       		.byte	0x25
 3342 00ad 30       		.byte	0x30
 3343 00ae 2E       		.byte	0x2e
 3344 00af 28       		.byte	0x28
 3345 00b0 0100     		.2byte	0x1
 3346 00b2 16       		.byte	0x16
 3347 00b3 13       		.byte	0x13
 3348 00b4 08       		.byte	0x8
 3349 00b5 20       		.byte	0x20
 3350 00b6 21       		.byte	0x21
 3351 00b7 08       		.byte	0x8
 3352 00b8 80       		.byte	0x80
 3353 00b9 30       		.byte	0x30
 3354 00ba 74       		.byte	0x74
 3355 00bb 00       		.sleb128 0
 3356 00bc 33       		.byte	0x33
 3357 00bd 25       		.byte	0x25
ARM GAS  /tmp/cc41dfeQ.s 			page 60


 3358 00be 30       		.byte	0x30
 3359 00bf 2E       		.byte	0x2e
 3360 00c0 28       		.byte	0x28
 3361 00c1 0100     		.2byte	0x1
 3362 00c3 16       		.byte	0x16
 3363 00c4 13       		.byte	0x13
 3364 00c5 74       		.byte	0x74
 3365 00c6 00       		.sleb128 0
 3366 00c7 4F       		.byte	0x4f
 3367 00c8 24       		.byte	0x24
 3368 00c9 30       		.byte	0x30
 3369 00ca 2D       		.byte	0x2d
 3370 00cb 28       		.byte	0x28
 3371 00cc 0100     		.2byte	0x1
 3372 00ce 16       		.byte	0x16
 3373 00cf 13       		.byte	0x13
 3374 00d0 08       		.byte	0x8
 3375 00d1 40       		.byte	0x40
 3376 00d2 21       		.byte	0x21
 3377 00d3 08       		.byte	0x8
 3378 00d4 80       		.byte	0x80
 3379 00d5 30       		.byte	0x30
 3380 00d6 74       		.byte	0x74
 3381 00d7 00       		.sleb128 0
 3382 00d8 33       		.byte	0x33
 3383 00d9 25       		.byte	0x25
 3384 00da 30       		.byte	0x30
 3385 00db 2E       		.byte	0x2e
 3386 00dc 28       		.byte	0x28
 3387 00dd 0100     		.2byte	0x1
 3388 00df 16       		.byte	0x16
 3389 00e0 13       		.byte	0x13
 3390 00e1 08       		.byte	0x8
 3391 00e2 20       		.byte	0x20
 3392 00e3 21       		.byte	0x21
 3393 00e4 08       		.byte	0x8
 3394 00e5 80       		.byte	0x80
 3395 00e6 30       		.byte	0x30
 3396 00e7 74       		.byte	0x74
 3397 00e8 00       		.sleb128 0
 3398 00e9 33       		.byte	0x33
 3399 00ea 25       		.byte	0x25
 3400 00eb 30       		.byte	0x30
 3401 00ec 2E       		.byte	0x2e
 3402 00ed 28       		.byte	0x28
 3403 00ee 0100     		.2byte	0x1
 3404 00f0 16       		.byte	0x16
 3405 00f1 13       		.byte	0x13
 3406 00f2 74       		.byte	0x74
 3407 00f3 00       		.sleb128 0
 3408 00f4 4F       		.byte	0x4f
 3409 00f5 24       		.byte	0x24
 3410 00f6 30       		.byte	0x30
 3411 00f7 2D       		.byte	0x2d
 3412 00f8 28       		.byte	0x28
 3413 00f9 0100     		.2byte	0x1
 3414 00fb 16       		.byte	0x16
ARM GAS  /tmp/cc41dfeQ.s 			page 61


 3415 00fc 13       		.byte	0x13
 3416 00fd 74       		.byte	0x74
 3417 00fe 00       		.sleb128 0
 3418 00ff 4E       		.byte	0x4e
 3419 0100 24       		.byte	0x24
 3420 0101 30       		.byte	0x30
 3421 0102 2D       		.byte	0x2d
 3422 0103 28       		.byte	0x28
 3423 0104 0100     		.2byte	0x1
 3424 0106 16       		.byte	0x16
 3425 0107 13       		.byte	0x13
 3426 0108 0A       		.byte	0xa
 3427 0109 0001     		.2byte	0x100
 3428 010b 21       		.byte	0x21
 3429 010c 08       		.byte	0x8
 3430 010d 80       		.byte	0x80
 3431 010e 30       		.byte	0x30
 3432 010f 74       		.byte	0x74
 3433 0110 00       		.sleb128 0
 3434 0111 33       		.byte	0x33
 3435 0112 25       		.byte	0x25
 3436 0113 30       		.byte	0x30
 3437 0114 2E       		.byte	0x2e
 3438 0115 28       		.byte	0x28
 3439 0116 0100     		.2byte	0x1
 3440 0118 16       		.byte	0x16
 3441 0119 13       		.byte	0x13
 3442 011a 08       		.byte	0x8
 3443 011b 20       		.byte	0x20
 3444 011c 21       		.byte	0x21
 3445 011d 08       		.byte	0x8
 3446 011e 80       		.byte	0x80
 3447 011f 30       		.byte	0x30
 3448 0120 74       		.byte	0x74
 3449 0121 00       		.sleb128 0
 3450 0122 33       		.byte	0x33
 3451 0123 25       		.byte	0x25
 3452 0124 30       		.byte	0x30
 3453 0125 2E       		.byte	0x2e
 3454 0126 28       		.byte	0x28
 3455 0127 0100     		.2byte	0x1
 3456 0129 16       		.byte	0x16
 3457 012a 13       		.byte	0x13
 3458 012b 74       		.byte	0x74
 3459 012c 00       		.sleb128 0
 3460 012d 4F       		.byte	0x4f
 3461 012e 24       		.byte	0x24
 3462 012f 30       		.byte	0x30
 3463 0130 2D       		.byte	0x2d
 3464 0131 28       		.byte	0x28
 3465 0132 0100     		.2byte	0x1
 3466 0134 16       		.byte	0x16
 3467 0135 13       		.byte	0x13
 3468 0136 08       		.byte	0x8
 3469 0137 40       		.byte	0x40
 3470 0138 21       		.byte	0x21
 3471 0139 08       		.byte	0x8
ARM GAS  /tmp/cc41dfeQ.s 			page 62


 3472 013a 80       		.byte	0x80
 3473 013b 30       		.byte	0x30
 3474 013c 74       		.byte	0x74
 3475 013d 00       		.sleb128 0
 3476 013e 33       		.byte	0x33
 3477 013f 25       		.byte	0x25
 3478 0140 30       		.byte	0x30
 3479 0141 2E       		.byte	0x2e
 3480 0142 28       		.byte	0x28
 3481 0143 0100     		.2byte	0x1
 3482 0145 16       		.byte	0x16
 3483 0146 13       		.byte	0x13
 3484 0147 08       		.byte	0x8
 3485 0148 20       		.byte	0x20
 3486 0149 21       		.byte	0x21
 3487 014a 08       		.byte	0x8
 3488 014b 80       		.byte	0x80
 3489 014c 30       		.byte	0x30
 3490 014d 74       		.byte	0x74
 3491 014e 00       		.sleb128 0
 3492 014f 33       		.byte	0x33
 3493 0150 25       		.byte	0x25
 3494 0151 30       		.byte	0x30
 3495 0152 2E       		.byte	0x2e
 3496 0153 28       		.byte	0x28
 3497 0154 0100     		.2byte	0x1
 3498 0156 16       		.byte	0x16
 3499 0157 13       		.byte	0x13
 3500 0158 74       		.byte	0x74
 3501 0159 00       		.sleb128 0
 3502 015a 4F       		.byte	0x4f
 3503 015b 24       		.byte	0x24
 3504 015c 30       		.byte	0x30
 3505 015d 2D       		.byte	0x2d
 3506 015e 28       		.byte	0x28
 3507 015f 0100     		.2byte	0x1
 3508 0161 16       		.byte	0x16
 3509 0162 13       		.byte	0x13
 3510 0163 74       		.byte	0x74
 3511 0164 00       		.sleb128 0
 3512 0165 4E       		.byte	0x4e
 3513 0166 24       		.byte	0x24
 3514 0167 30       		.byte	0x30
 3515 0168 2D       		.byte	0x2d
 3516 0169 28       		.byte	0x28
 3517 016a 0100     		.2byte	0x1
 3518 016c 16       		.byte	0x16
 3519 016d 13       		.byte	0x13
 3520 016e 74       		.byte	0x74
 3521 016f 00       		.sleb128 0
 3522 0170 4D       		.byte	0x4d
 3523 0171 24       		.byte	0x24
 3524 0172 30       		.byte	0x30
 3525 0173 2D       		.byte	0x2d
 3526 0174 28       		.byte	0x28
 3527 0175 0100     		.2byte	0x1
 3528 0177 16       		.byte	0x16
ARM GAS  /tmp/cc41dfeQ.s 			page 63


 3529 0178 13       		.byte	0x13
 3530 0179 9F       		.byte	0x9f
 3531 017a 00000000 		.4byte	0
 3532 017e 00000000 		.4byte	0
 3533              	.LLST6:
 3534 0182 B8000000 		.4byte	.LVL18
 3535 0186 BE000000 		.4byte	.LVL19
 3536 018a 0100     		.2byte	0x1
 3537 018c 50       		.byte	0x50
 3538 018d C8000000 		.4byte	.LVL20
 3539 0191 CA000000 		.4byte	.LVL21
 3540 0195 0100     		.2byte	0x1
 3541 0197 50       		.byte	0x50
 3542 0198 00000000 		.4byte	0
 3543 019c 00000000 		.4byte	0
 3544              	.LLST7:
 3545 01a0 00000000 		.4byte	.LVL24
 3546 01a4 12000000 		.4byte	.LVL26
 3547 01a8 0100     		.2byte	0x1
 3548 01aa 50       		.byte	0x50
 3549 01ab 12000000 		.4byte	.LVL26
 3550 01af 26000000 		.4byte	.LVL28
 3551 01b3 0100     		.2byte	0x1
 3552 01b5 55       		.byte	0x55
 3553 01b6 26000000 		.4byte	.LVL28
 3554 01ba 44000000 		.4byte	.LVL30
 3555 01be 0400     		.2byte	0x4
 3556 01c0 F3       		.byte	0xf3
 3557 01c1 01       		.uleb128 0x1
 3558 01c2 50       		.byte	0x50
 3559 01c3 9F       		.byte	0x9f
 3560 01c4 44000000 		.4byte	.LVL30
 3561 01c8 56000000 		.4byte	.LVL31
 3562 01cc 0100     		.2byte	0x1
 3563 01ce 50       		.byte	0x50
 3564 01cf 56000000 		.4byte	.LVL31
 3565 01d3 6C000000 		.4byte	.LFE125
 3566 01d7 0100     		.2byte	0x1
 3567 01d9 55       		.byte	0x55
 3568 01da 00000000 		.4byte	0
 3569 01de 00000000 		.4byte	0
 3570              	.LLST8:
 3571 01e2 00000000 		.4byte	.LVL24
 3572 01e6 0C000000 		.4byte	.LVL25
 3573 01ea 0100     		.2byte	0x1
 3574 01ec 51       		.byte	0x51
 3575 01ed 0C000000 		.4byte	.LVL25
 3576 01f1 2A000000 		.4byte	.LVL29
 3577 01f5 0100     		.2byte	0x1
 3578 01f7 54       		.byte	0x54
 3579 01f8 2A000000 		.4byte	.LVL29
 3580 01fc 44000000 		.4byte	.LVL30
 3581 0200 1300     		.2byte	0x13
 3582 0202 F3       		.byte	0xf3
 3583 0203 01       		.uleb128 0x1
 3584 0204 51       		.byte	0x51
 3585 0205 03       		.byte	0x3
ARM GAS  /tmp/cc41dfeQ.s 			page 64


 3586 0206 00000000 		.4byte	.LANCHOR1
 3587 020a F3       		.byte	0xf3
 3588 020b 01       		.uleb128 0x1
 3589 020c 51       		.byte	0x51
 3590 020d 30       		.byte	0x30
 3591 020e 2E       		.byte	0x2e
 3592 020f 28       		.byte	0x28
 3593 0210 0100     		.2byte	0x1
 3594 0212 16       		.byte	0x16
 3595 0213 13       		.byte	0x13
 3596 0214 9F       		.byte	0x9f
 3597 0215 44000000 		.4byte	.LVL30
 3598 0219 6C000000 		.4byte	.LFE125
 3599 021d 0100     		.2byte	0x1
 3600 021f 54       		.byte	0x54
 3601 0220 00000000 		.4byte	0
 3602 0224 00000000 		.4byte	0
 3603              	.LLST9:
 3604 0228 1E000000 		.4byte	.LVL27
 3605 022c 26000000 		.4byte	.LVL28
 3606 0230 0100     		.2byte	0x1
 3607 0232 55       		.byte	0x55
 3608 0233 26000000 		.4byte	.LVL28
 3609 0237 44000000 		.4byte	.LVL30
 3610 023b 0400     		.2byte	0x4
 3611 023d F3       		.byte	0xf3
 3612 023e 01       		.uleb128 0x1
 3613 023f 50       		.byte	0x50
 3614 0240 9F       		.byte	0x9f
 3615 0241 00000000 		.4byte	0
 3616 0245 00000000 		.4byte	0
 3617              	.LLST11:
 3618 0249 1E000000 		.4byte	.LVL27
 3619 024d 2A000000 		.4byte	.LVL29
 3620 0251 0100     		.2byte	0x1
 3621 0253 54       		.byte	0x54
 3622 0254 2A000000 		.4byte	.LVL29
 3623 0258 44000000 		.4byte	.LVL30
 3624 025c 1300     		.2byte	0x13
 3625 025e F3       		.byte	0xf3
 3626 025f 01       		.uleb128 0x1
 3627 0260 51       		.byte	0x51
 3628 0261 03       		.byte	0x3
 3629 0262 00000000 		.4byte	.LANCHOR1
 3630 0266 F3       		.byte	0xf3
 3631 0267 01       		.uleb128 0x1
 3632 0268 51       		.byte	0x51
 3633 0269 30       		.byte	0x30
 3634 026a 2E       		.byte	0x2e
 3635 026b 28       		.byte	0x28
 3636 026c 0100     		.2byte	0x1
 3637 026e 16       		.byte	0x16
 3638 026f 13       		.byte	0x13
 3639 0270 9F       		.byte	0x9f
 3640 0271 00000000 		.4byte	0
 3641 0275 00000000 		.4byte	0
 3642              	.LLST12:
ARM GAS  /tmp/cc41dfeQ.s 			page 65


 3643 0279 1E000000 		.4byte	.LVL27
 3644 027d 44000000 		.4byte	.LVL30
 3645 0281 0100     		.2byte	0x1
 3646 0283 53       		.byte	0x53
 3647 0284 00000000 		.4byte	0
 3648 0288 00000000 		.4byte	0
 3649              	.LLST13:
 3650 028c 00000000 		.4byte	.LVL33
 3651 0290 24000000 		.4byte	.LVL36
 3652 0294 0100     		.2byte	0x1
 3653 0296 50       		.byte	0x50
 3654 0297 24000000 		.4byte	.LVL36
 3655 029b 30000000 		.4byte	.LFE126
 3656 029f 0400     		.2byte	0x4
 3657 02a1 F3       		.byte	0xf3
 3658 02a2 01       		.uleb128 0x1
 3659 02a3 50       		.byte	0x50
 3660 02a4 9F       		.byte	0x9f
 3661 02a5 00000000 		.4byte	0
 3662 02a9 00000000 		.4byte	0
 3663              	.LLST14:
 3664 02ad 0C000000 		.4byte	.LVL34
 3665 02b1 1A000000 		.4byte	.LVL35
 3666 02b5 0100     		.2byte	0x1
 3667 02b7 53       		.byte	0x53
 3668 02b8 1A000000 		.4byte	.LVL35
 3669 02bc 24000000 		.4byte	.LVL36
 3670 02c0 0300     		.2byte	0x3
 3671 02c2 70       		.byte	0x70
 3672 02c3 F400     		.sleb128 116
 3673 02c5 24000000 		.4byte	.LVL36
 3674 02c9 27000000 		.4byte	.LVL37-1
 3675 02cd 0500     		.2byte	0x5
 3676 02cf F3       		.byte	0xf3
 3677 02d0 01       		.uleb128 0x1
 3678 02d1 50       		.byte	0x50
 3679 02d2 23       		.byte	0x23
 3680 02d3 74       		.uleb128 0x74
 3681 02d4 00000000 		.4byte	0
 3682 02d8 00000000 		.4byte	0
 3683              		.section	.debug_aranges,"",%progbits
 3684 0000 3C000000 		.4byte	0x3c
 3685 0004 0200     		.2byte	0x2
 3686 0006 00000000 		.4byte	.Ldebug_info0
 3687 000a 04       		.byte	0x4
 3688 000b 00       		.byte	0
 3689 000c 0000     		.2byte	0
 3690 000e 0000     		.2byte	0
 3691 0010 00000000 		.4byte	.LFB122
 3692 0014 10000000 		.4byte	.LFE122-.LFB122
 3693 0018 00000000 		.4byte	.LFB123
 3694 001c E8000000 		.4byte	.LFE123-.LFB123
 3695 0020 00000000 		.4byte	.LFB124
 3696 0024 28000000 		.4byte	.LFE124-.LFB124
 3697 0028 00000000 		.4byte	.LFB125
 3698 002c 6C000000 		.4byte	.LFE125-.LFB125
 3699 0030 00000000 		.4byte	.LFB126
ARM GAS  /tmp/cc41dfeQ.s 			page 66


 3700 0034 30000000 		.4byte	.LFE126-.LFB126
 3701 0038 00000000 		.4byte	0
 3702 003c 00000000 		.4byte	0
 3703              		.section	.debug_ranges,"",%progbits
 3704              	.Ldebug_ranges0:
 3705 0000 00000000 		.4byte	.LBB32
 3706 0004 02000000 		.4byte	.LBE32
 3707 0008 04000000 		.4byte	.LBB49
 3708 000c 3E000000 		.4byte	.LBE49
 3709 0010 46000000 		.4byte	.LBB50
 3710 0014 E8000000 		.4byte	.LBE50
 3711 0018 00000000 		.4byte	0
 3712 001c 00000000 		.4byte	0
 3713 0020 12000000 		.4byte	.LBB51
 3714 0024 1C000000 		.4byte	.LBE51
 3715 0028 1E000000 		.4byte	.LBB54
 3716 002c 44000000 		.4byte	.LBE54
 3717 0030 00000000 		.4byte	0
 3718 0034 00000000 		.4byte	0
 3719 0038 0C000000 		.4byte	.LBB55
 3720 003c 0E000000 		.4byte	.LBE55
 3721 0040 10000000 		.4byte	.LBB58
 3722 0044 16000000 		.4byte	.LBE58
 3723 0048 00000000 		.4byte	0
 3724 004c 00000000 		.4byte	0
 3725 0050 00000000 		.4byte	.LFB122
 3726 0054 10000000 		.4byte	.LFE122
 3727 0058 00000000 		.4byte	.LFB123
 3728 005c E8000000 		.4byte	.LFE123
 3729 0060 00000000 		.4byte	.LFB124
 3730 0064 28000000 		.4byte	.LFE124
 3731 0068 00000000 		.4byte	.LFB125
 3732 006c 6C000000 		.4byte	.LFE125
 3733 0070 00000000 		.4byte	.LFB126
 3734 0074 30000000 		.4byte	.LFE126
 3735 0078 00000000 		.4byte	0
 3736 007c 00000000 		.4byte	0
 3737              		.section	.debug_line,"",%progbits
 3738              	.Ldebug_line0:
 3739 0000 D6020000 		.section	.debug_str,"MS",%progbits,1
 3739      0200F701 
 3739      00000201 
 3739      FB0E0D00 
 3739      01010101 
 3740              	.LASF2:
 3741 0000 73697A65 		.ascii	"size_t\000"
 3741      5F7400
 3742              	.LASF61:
 3743 0007 7264796D 		.ascii	"rdymsg\000"
 3743      736700
 3744              	.LASF77:
 3745 000e 4F757470 		.ascii	"OutputQueue\000"
 3745      75745175 
 3745      65756500 
 3746              	.LASF120:
 3747 001a 7365745F 		.ascii	"set_error\000"
 3747      6572726F 
ARM GAS  /tmp/cc41dfeQ.s 			page 67


 3747      7200
 3748              	.LASF130:
 3749 0024 6E766963 		.ascii	"nvicEnableVector\000"
 3749      456E6162 
 3749      6C655665 
 3749      63746F72 
 3749      00
 3750              	.LASF13:
 3751 0035 6C6F6E67 		.ascii	"long long unsigned int\000"
 3751      206C6F6E 
 3751      6720756E 
 3751      7369676E 
 3751      65642069 
 3752              	.LASF62:
 3753 004c 65786974 		.ascii	"exitcode\000"
 3753      636F6465 
 3753      00
 3754              	.LASF126:
 3755 0055 49544D5F 		.ascii	"ITM_RxBuffer\000"
 3755      52784275 
 3755      66666572 
 3755      00
 3756              	.LASF129:
 3757 0062 73644F62 		.ascii	"sdObjectInit\000"
 3757      6A656374 
 3757      496E6974 
 3757      00
 3758              	.LASF116:
 3759 006f 72656164 		.ascii	"readt\000"
 3759      7400
 3760              	.LASF67:
 3761 0075 715F7761 		.ascii	"q_waiting\000"
 3761      6974696E 
 3761      6700
 3762              	.LASF12:
 3763 007f 6C6F6E67 		.ascii	"long long int\000"
 3763      206C6F6E 
 3763      6720696E 
 3763      7400
 3764              	.LASF1:
 3765 008d 7369676E 		.ascii	"signed char\000"
 3765      65642063 
 3765      68617200 
 3766              	.LASF90:
 3767 0099 47545052 		.ascii	"GTPR\000"
 3767      00
 3768              	.LASF43:
 3769 009e 705F6D70 		.ascii	"p_mpool\000"
 3769      6F6F6C00 
 3770              	.LASF51:
 3771 00a6 6D5F7175 		.ascii	"m_queue\000"
 3771      65756500 
 3772              	.LASF18:
 3773 00ae 74736C69 		.ascii	"tslices_t\000"
 3773      6365735F 
 3773      7400
 3774              	.LASF88:
ARM GAS  /tmp/cc41dfeQ.s 			page 68


 3775 00b8 5243435F 		.ascii	"RCC_TypeDef\000"
 3775      54797065 
 3775      44656600 
 3776              	.LASF135:
 3777 00c4 64656661 		.ascii	"default_config\000"
 3777      756C745F 
 3777      636F6E66 
 3777      696700
 3778              	.LASF103:
 3779 00d3 73746174 		.ascii	"state\000"
 3779      6500
 3780              	.LASF9:
 3781 00d9 6C6F6E67 		.ascii	"long int\000"
 3781      20696E74 
 3781      00
 3782              	.LASF79:
 3783 00e2 41504232 		.ascii	"APB2RSTR\000"
 3783      52535452 
 3783      00
 3784              	.LASF16:
 3785 00eb 74737461 		.ascii	"tstate_t\000"
 3785      74655F74 
 3785      00
 3786              	.LASF136:
 3787 00f4 63684F51 		.ascii	"chOQGetI\000"
 3787      47657449 
 3787      00
 3788              	.LASF34:
 3789 00fd 705F7265 		.ascii	"p_refs\000"
 3789      667300
 3790              	.LASF69:
 3791 0104 715F6275 		.ascii	"q_buffer\000"
 3791      66666572 
 3791      00
 3792              	.LASF71:
 3793 010d 715F7772 		.ascii	"q_wrptr\000"
 3793      70747200 
 3794              	.LASF36:
 3795 0115 705F7469 		.ascii	"p_time\000"
 3795      6D6500
 3796              	.LASF127:
 3797 011c 63684576 		.ascii	"chEvtBroadcastFlagsI\000"
 3797      7442726F 
 3797      61646361 
 3797      7374466C 
 3797      61677349 
 3798              	.LASF29:
 3799 0131 705F6E65 		.ascii	"p_newer\000"
 3799      77657200 
 3800              	.LASF46:
 3801 0139 72656761 		.ascii	"regarm_t\000"
 3801      726D5F74 
 3801      00
 3802              	.LASF119:
 3803 0142 75736172 		.ascii	"usart_deinit\000"
 3803      745F6465 
 3803      696E6974 
ARM GAS  /tmp/cc41dfeQ.s 			page 69


 3803      00
 3804              	.LASF59:
 3805 014f 4576656E 		.ascii	"EventSource\000"
 3805      74536F75 
 3805      72636500 
 3806              	.LASF106:
 3807 015b 75736172 		.ascii	"usart\000"
 3807      7400
 3808              	.LASF0:
 3809 0161 756E7369 		.ascii	"unsigned int\000"
 3809      676E6564 
 3809      20696E74 
 3809      00
 3810              	.LASF6:
 3811 016e 75696E74 		.ascii	"uint16_t\000"
 3811      31365F74 
 3811      00
 3812              	.LASF110:
 3813 0177 53657269 		.ascii	"SerialDriverVMT\000"
 3813      616C4472 
 3813      69766572 
 3813      564D5400 
 3814              	.LASF104:
 3815 0187 69717565 		.ascii	"iqueue\000"
 3815      756500
 3816              	.LASF38:
 3817 018e 705F6D73 		.ascii	"p_msgqueue\000"
 3817      67717565 
 3817      756500
 3818              	.LASF123:
 3819 0199 73645F6C 		.ascii	"sd_lld_init\000"
 3819      6C645F69 
 3819      6E697400 
 3820              	.LASF114:
 3821 01a5 67657474 		.ascii	"gett\000"
 3821      00
 3822              	.LASF102:
 3823 01aa 6576656E 		.ascii	"event\000"
 3823      7400
 3824              	.LASF7:
 3825 01b0 73686F72 		.ascii	"short unsigned int\000"
 3825      7420756E 
 3825      7369676E 
 3825      65642069 
 3825      6E7400
 3826              	.LASF20:
 3827 01c3 6D73675F 		.ascii	"msg_t\000"
 3827      7400
 3828              	.LASF105:
 3829 01c9 6F717565 		.ascii	"oqueue\000"
 3829      756500
 3830              	.LASF133:
 3831 01d0 2F686F6D 		.ascii	"/home/john/git/ChibiOS-RT/demos/ARMCM4-STM32F303-DI"
 3831      652F6A6F 
 3831      686E2F67 
 3831      69742F43 
 3831      68696269 
ARM GAS  /tmp/cc41dfeQ.s 			page 70


 3832 0203 53434F56 		.ascii	"SCOVERY\000"
 3832      45525900 
 3833              	.LASF137:
 3834 020b 5F706F72 		.ascii	"_port_irq_epilogue\000"
 3834      745F6972 
 3834      715F6570 
 3834      696C6F67 
 3834      756500
 3835              	.LASF96:
 3836 021e 55534152 		.ascii	"USART_TypeDef\000"
 3836      545F5479 
 3836      70654465 
 3836      6600
 3837              	.LASF115:
 3838 022c 77726974 		.ascii	"writet\000"
 3838      657400
 3839              	.LASF15:
 3840 0233 746D6F64 		.ascii	"tmode_t\000"
 3840      655F7400 
 3841              	.LASF45:
 3842 023b 54687265 		.ascii	"ThreadsList\000"
 3842      6164734C 
 3842      69737400 
 3843              	.LASF21:
 3844 0247 6576656E 		.ascii	"eventmask_t\000"
 3844      746D6173 
 3844      6B5F7400 
 3845              	.LASF122:
 3846 0253 56656374 		.ascii	"VectorD4\000"
 3846      6F724434 
 3846      00
 3847              	.LASF108:
 3848 025c 73706565 		.ascii	"speed\000"
 3848      6400
 3849              	.LASF75:
 3850 0262 716E6F74 		.ascii	"qnotify_t\000"
 3850      6966795F 
 3850      7400
 3851              	.LASF66:
 3852 026c 47656E65 		.ascii	"GenericQueue\000"
 3852      72696351 
 3852      75657565 
 3852      00
 3853              	.LASF111:
 3854 0279 77726974 		.ascii	"write\000"
 3854      6500
 3855              	.LASF113:
 3856 027f 70757474 		.ascii	"putt\000"
 3856      00
 3857              	.LASF118:
 3858 0284 75736172 		.ascii	"usart_init\000"
 3858      745F696E 
 3858      697400
 3859              	.LASF49:
 3860 028f 73697A65 		.ascii	"sizetype\000"
 3860      74797065 
 3860      00
ARM GAS  /tmp/cc41dfeQ.s 			page 71


 3861              	.LASF68:
 3862 0298 715F636F 		.ascii	"q_counter\000"
 3862      756E7465 
 3862      7200
 3863              	.LASF50:
 3864 02a2 4D757465 		.ascii	"Mutex\000"
 3864      7800
 3865              	.LASF25:
 3866 02a8 705F6E65 		.ascii	"p_next\000"
 3866      787400
 3867              	.LASF30:
 3868 02af 705F6F6C 		.ascii	"p_older\000"
 3868      64657200 
 3869              	.LASF44:
 3870 02b7 54687265 		.ascii	"ThreadsQueue\000"
 3870      61647351 
 3870      75657565 
 3870      00
 3871              	.LASF85:
 3872 02c4 41484252 		.ascii	"AHBRSTR\000"
 3872      53545200 
 3873              	.LASF80:
 3874 02cc 41504231 		.ascii	"APB1RSTR\000"
 3874      52535452 
 3874      00
 3875              	.LASF57:
 3876 02d5 656C5F6D 		.ascii	"el_mask\000"
 3876      61736B00 
 3877              	.LASF109:
 3878 02dd 53657269 		.ascii	"SerialConfig\000"
 3878      616C436F 
 3878      6E666967 
 3878      00
 3879              	.LASF134:
 3880 02ea 6E6F7469 		.ascii	"notify1\000"
 3880      66793100 
 3881              	.LASF17:
 3882 02f2 74726566 		.ascii	"trefs_t\000"
 3882      735F7400 
 3883              	.LASF89:
 3884 02fa 52455345 		.ascii	"RESERVED1\000"
 3884      52564544 
 3884      3100
 3885              	.LASF91:
 3886 0304 52455345 		.ascii	"RESERVED2\000"
 3886      52564544 
 3886      3200
 3887              	.LASF93:
 3888 030e 52455345 		.ascii	"RESERVED3\000"
 3888      52564544 
 3888      3300
 3889              	.LASF94:
 3890 0318 52455345 		.ascii	"RESERVED4\000"
 3890      52564544 
 3890      3400
 3891              	.LASF26:
 3892 0322 705F7072 		.ascii	"p_prev\000"
ARM GAS  /tmp/cc41dfeQ.s 			page 72


 3892      657600
 3893              	.LASF19:
 3894 0329 74707269 		.ascii	"tprio_t\000"
 3894      6F5F7400 
 3895              	.LASF131:
 3896 0331 474E5520 		.ascii	"GNU C 4.8.3 20131129 (release) [ARM/embedded-4_8-br"
 3896      4320342E 
 3896      382E3320 
 3896      32303133 
 3896      31313239 
 3897 0364 616E6368 		.ascii	"anch revision 205641] -mcpu=cortex-m4 -mno-thumb-in"
 3897      20726576 
 3897      6973696F 
 3897      6E203230 
 3897      35363431 
 3898 0397 74657277 		.ascii	"terwork -mthumb -ggdb -O2 -fomit-frame-pointer -fal"
 3898      6F726B20 
 3898      2D6D7468 
 3898      756D6220 
 3898      2D676764 
 3899 03ca 69676E2D 		.ascii	"ign-functions=16 -ffunction-sections -fdata-section"
 3899      66756E63 
 3899      74696F6E 
 3899      733D3136 
 3899      202D6666 
 3900 03fd 73202D66 		.ascii	"s -fno-common\000"
 3900      6E6F2D63 
 3900      6F6D6D6F 
 3900      6E00
 3901              	.LASF14:
 3902 040b 5F426F6F 		.ascii	"_Bool\000"
 3902      6C00
 3903              	.LASF8:
 3904 0411 696E7433 		.ascii	"int32_t\000"
 3904      325F7400 
 3905              	.LASF4:
 3906 0419 756E7369 		.ascii	"unsigned char\000"
 3906      676E6564 
 3906      20636861 
 3906      7200
 3907              	.LASF124:
 3908 0427 73645F6C 		.ascii	"sd_lld_start\000"
 3908      6C645F73 
 3908      74617274 
 3908      00
 3909              	.LASF56:
 3910 0434 656C5F6C 		.ascii	"el_listener\000"
 3910      69737465 
 3910      6E657200 
 3911              	.LASF58:
 3912 0440 656C5F66 		.ascii	"el_flags\000"
 3912      6C616773 
 3912      00
 3913              	.LASF32:
 3914 0449 705F7374 		.ascii	"p_state\000"
 3914      61746500 
 3915              	.LASF41:
ARM GAS  /tmp/cc41dfeQ.s 			page 73


 3916 0451 705F6D74 		.ascii	"p_mtxlist\000"
 3916      786C6973 
 3916      7400
 3917              	.LASF5:
 3918 045b 73686F72 		.ascii	"short int\000"
 3918      7420696E 
 3918      7400
 3919              	.LASF35:
 3920 0465 705F7072 		.ascii	"p_preempt\000"
 3920      65656D70 
 3920      7400
 3921              	.LASF64:
 3922 046f 65776D61 		.ascii	"ewmask\000"
 3922      736B00
 3923              	.LASF72:
 3924 0476 715F7264 		.ascii	"q_rdptr\000"
 3924      70747200 
 3925              	.LASF33:
 3926 047e 705F666C 		.ascii	"p_flags\000"
 3926      61677300 
 3927              	.LASF55:
 3928 0486 656C5F6E 		.ascii	"el_next\000"
 3928      65787400 
 3929              	.LASF98:
 3930 048e 53445F53 		.ascii	"SD_STOP\000"
 3930      544F5000 
 3931              	.LASF82:
 3932 0496 41504232 		.ascii	"APB2ENR\000"
 3932      454E5200 
 3933              	.LASF24:
 3934 049e 54687265 		.ascii	"Thread\000"
 3934      616400
 3935              	.LASF121:
 3936 04a5 73657276 		.ascii	"serve_interrupt\000"
 3936      655F696E 
 3936      74657272 
 3936      75707400 
 3937              	.LASF40:
 3938 04b5 705F6570 		.ascii	"p_epending\000"
 3938      656E6469 
 3938      6E6700
 3939              	.LASF97:
 3940 04c0 53445F55 		.ascii	"SD_UNINIT\000"
 3940      4E494E49 
 3940      5400
 3941              	.LASF95:
 3942 04ca 52455345 		.ascii	"RESERVED5\000"
 3942      52564544 
 3942      3500
 3943              	.LASF10:
 3944 04d4 75696E74 		.ascii	"uint32_t\000"
 3944      33325F74 
 3944      00
 3945              	.LASF100:
 3946 04dd 73647374 		.ascii	"sdstate_t\000"
 3946      6174655F 
 3946      7400
ARM GAS  /tmp/cc41dfeQ.s 			page 74


 3947              	.LASF101:
 3948 04e7 53657269 		.ascii	"SerialDriver\000"
 3948      616C4472 
 3948      69766572 
 3948      00
 3949              	.LASF138:
 3950 04f4 6E766963 		.ascii	"nvicDisableVector\000"
 3950      44697361 
 3950      626C6556 
 3950      6563746F 
 3950      7200
 3951              	.LASF11:
 3952 0506 6C6F6E67 		.ascii	"long unsigned int\000"
 3952      20756E73 
 3952      69676E65 
 3952      6420696E 
 3952      7400
 3953              	.LASF112:
 3954 0518 72656164 		.ascii	"read\000"
 3954      00
 3955              	.LASF65:
 3956 051d 63686172 		.ascii	"char\000"
 3956      00
 3957              	.LASF128:
 3958 0522 7364496E 		.ascii	"sdIncomingDataI\000"
 3958      636F6D69 
 3958      6E674461 
 3958      74614900 
 3959              	.LASF117:
 3960 0532 636F6E66 		.ascii	"config\000"
 3960      696700
 3961              	.LASF53:
 3962 0539 6D5F6E65 		.ascii	"m_next\000"
 3962      787400
 3963              	.LASF23:
 3964 0540 73797374 		.ascii	"systime_t\000"
 3964      696D655F 
 3964      7400
 3965              	.LASF42:
 3966 054a 705F7265 		.ascii	"p_realprio\000"
 3966      616C7072 
 3966      696F00
 3967              	.LASF132:
 3968 0555 2E2E2F2E 		.ascii	"../../os/hal/platforms/STM32/USARTv2/serial_lld.c\000"
 3968      2E2F6F73 
 3968      2F68616C 
 3968      2F706C61 
 3968      74666F72 
 3969              	.LASF92:
 3970 0587 52544F52 		.ascii	"RTOR\000"
 3970      00
 3971              	.LASF83:
 3972 058c 41504231 		.ascii	"APB1ENR\000"
 3972      454E5200 
 3973              	.LASF48:
 3974 0594 636F6E74 		.ascii	"context\000"
 3974      65787400 
ARM GAS  /tmp/cc41dfeQ.s 			page 75


 3975              	.LASF47:
 3976 059c 696E7463 		.ascii	"intctx\000"
 3976      747800
 3977              	.LASF99:
 3978 05a3 53445F52 		.ascii	"SD_READY\000"
 3978      45414459 
 3978      00
 3979              	.LASF22:
 3980 05ac 666C6167 		.ascii	"flagsmask_t\000"
 3980      736D6173 
 3980      6B5F7400 
 3981              	.LASF70:
 3982 05b8 715F746F 		.ascii	"q_top\000"
 3982      7000
 3983              	.LASF31:
 3984 05be 705F6E61 		.ascii	"p_name\000"
 3984      6D6500
 3985              	.LASF60:
 3986 05c5 65735F6E 		.ascii	"es_next\000"
 3986      65787400 
 3987              	.LASF84:
 3988 05cd 42444352 		.ascii	"BDCR\000"
 3988      00
 3989              	.LASF73:
 3990 05d2 715F6E6F 		.ascii	"q_notify\000"
 3990      74696679 
 3990      00
 3991              	.LASF39:
 3992 05db 705F6D73 		.ascii	"p_msg\000"
 3992      6700
 3993              	.LASF86:
 3994 05e1 43464752 		.ascii	"CFGR2\000"
 3994      3200
 3995              	.LASF87:
 3996 05e7 43464752 		.ascii	"CFGR3\000"
 3996      3300
 3997              	.LASF3:
 3998 05ed 75696E74 		.ascii	"uint8_t\000"
 3998      385F7400 
 3999              	.LASF76:
 4000 05f5 496E7075 		.ascii	"InputQueue\000"
 4000      74517565 
 4000      756500
 4001              	.LASF27:
 4002 0600 705F7072 		.ascii	"p_prio\000"
 4002      696F00
 4003              	.LASF54:
 4004 0607 4576656E 		.ascii	"EventListener\000"
 4004      744C6973 
 4004      74656E65 
 4004      7200
 4005              	.LASF63:
 4006 0615 77746F62 		.ascii	"wtobjp\000"
 4006      6A7000
 4007              	.LASF78:
 4008 061c 43464752 		.ascii	"CFGR\000"
 4008      00
ARM GAS  /tmp/cc41dfeQ.s 			page 76


 4009              	.LASF107:
 4010 0621 636C6F63 		.ascii	"clock\000"
 4010      6B00
 4011              	.LASF125:
 4012 0627 73645F6C 		.ascii	"sd_lld_stop\000"
 4012      6C645F73 
 4012      746F7000 
 4013              	.LASF74:
 4014 0633 715F6C69 		.ascii	"q_link\000"
 4014      6E6B00
 4015              	.LASF52:
 4016 063a 6D5F6F77 		.ascii	"m_owner\000"
 4016      6E657200 
 4017              	.LASF28:
 4018 0642 705F6374 		.ascii	"p_ctx\000"
 4018      7800
 4019              	.LASF37:
 4020 0648 705F7761 		.ascii	"p_waiting\000"
 4020      6974696E 
 4020      6700
 4021              	.LASF81:
 4022 0652 41484245 		.ascii	"AHBENR\000"
 4022      4E5200
 4023              		.ident	"GCC: (GNU Tools for ARM Embedded Processors) 4.8.3 20131129 (release) [ARM/embedded-4_8-br
ARM GAS  /tmp/cc41dfeQ.s 			page 77


DEFINED SYMBOLS
                            *ABS*:0000000000000000 serial_lld.c
     /tmp/cc41dfeQ.s:19     .text.notify1:0000000000000000 $t
     /tmp/cc41dfeQ.s:24     .text.notify1:0000000000000000 notify1
     /tmp/cc41dfeQ.s:42     .text.notify1:000000000000000c $d
     /tmp/cc41dfeQ.s:47     .text.VectorD4:0000000000000000 $t
     /tmp/cc41dfeQ.s:53     .text.VectorD4:0000000000000000 VectorD4
     /tmp/cc41dfeQ.s:289    .text.VectorD4:00000000000000dc $d
     /tmp/cc41dfeQ.s:299    .text.sd_lld_init:0000000000000000 $t
     /tmp/cc41dfeQ.s:305    .text.sd_lld_init:0000000000000000 sd_lld_init
     /tmp/cc41dfeQ.s:334    .text.sd_lld_init:0000000000000018 $d
     /tmp/cc41dfeQ.s:342    .text.sd_lld_start:0000000000000000 $t
     /tmp/cc41dfeQ.s:348    .text.sd_lld_start:0000000000000000 sd_lld_start
     /tmp/cc41dfeQ.s:449    .text.sd_lld_start:0000000000000060 $d
     /tmp/cc41dfeQ.s:456    .text.sd_lld_stop:0000000000000000 $t
     /tmp/cc41dfeQ.s:462    .text.sd_lld_stop:0000000000000000 sd_lld_stop
     /tmp/cc41dfeQ.s:516    .text.sd_lld_stop:0000000000000028 $d
     /tmp/cc41dfeQ.s:537    .bss.SD1:0000000000000000 SD1
     /tmp/cc41dfeQ.s:523    .rodata.default_config:0000000000000000 $d
     /tmp/cc41dfeQ.s:527    .rodata.default_config:0000000000000000 default_config
     /tmp/cc41dfeQ.s:533    .bss.SD1:0000000000000000 $d
                     .debug_frame:0000000000000010 $d
     /tmp/cc41dfeQ.s:298    .text.VectorD4:00000000000000e8 $t
     /tmp/cc41dfeQ.s:341    .text.sd_lld_init:0000000000000028 $t
     /tmp/cc41dfeQ.s:455    .text.sd_lld_start:000000000000006c $t

UNDEFINED SYMBOLS
chEvtBroadcastFlagsI
_port_irq_epilogue
sdIncomingDataI
chOQGetI
sdObjectInit
nvicEnableVector
nvicDisableVector
