ARM GAS  /tmp/cc41dfeQ.s 			page 1


   1              		.syntax unified
   2              		.cpu cortex-m4
   3              		.fpu softvfp
   4              		.eabi_attribute 20, 1
   5              		.eabi_attribute 21, 1
   6              		.eabi_attribute 23, 3
   7              		.eabi_attribute 24, 1
   8              		.eabi_attribute 25, 1
   9              		.eabi_attribute 26, 1
  10              		.eabi_attribute 30, 2
  11              		.eabi_attribute 34, 1
  12              		.eabi_attribute 18, 4
  13              		.thumb
  14              		.file	"serial_lld.c"
  15              		.text
  16              	.Ltext0:
  17              		.cfi_sections	.debug_frame
  18              		.section	.text.notify1,"ax",%progbits
  19              		.align	2
  20              		.p2align 4,,15
  21              		.thumb
  22              		.thumb_func
  23              		.type	notify1, %function
  24              	notify1:
  25              	.LFB122:
  26              		.file 1 "../../os/hal/platforms/STM32/USARTv2/serial_lld.c"
  27              		.loc 1 198 0
  28              		.cfi_startproc
  29              		@ args = 0, pretend = 0, frame = 0
  30              		@ frame_needed = 0, uses_anonymous_args = 0
  31              		@ link register save eliminated.
  32              	.LVL0:
  33              		.loc 1 201 0
  34 0000 024B     		ldr	r3, .L2
  35 0002 1A68     		ldr	r2, [r3]
  36 0004 42F08002 		orr	r2, r2, #128
  37 0008 1A60     		str	r2, [r3]
  38 000a 7047     		bx	lr
  39              	.L3:
  40              		.align	2
  41              	.L2:
  42 000c 00380140 		.word	1073821696
  43              		.cfi_endproc
  44              	.LFE122:
  45              		.size	notify1, .-notify1
  46              		.section	.text.VectorD4,"ax",%progbits
  47              		.align	2
  48              		.p2align 4,,15
  49              		.global	VectorD4
  50              		.thumb
  51              		.thumb_func
  52              		.type	VectorD4, %function
  53              	VectorD4:
  54              	.LFB123:
  55              		.loc 1 258 0
  56              		.cfi_startproc
  57              		@ args = 0, pretend = 0, frame = 0
ARM GAS  /tmp/cc41dfeQ.s 			page 2


  58              		@ frame_needed = 0, uses_anonymous_args = 0
  59              	.LVL1:
  60              	.LBB32:
  61              	.LBB33:
  62              		.loc 1 148 0
  63 0000 364B     		ldr	r3, .L50
  64              	.LBE33:
  65              	.LBE32:
  66              		.loc 1 258 0
  67 0002 70B5     		push	{r4, r5, r6, lr}
  68              		.cfi_def_cfa_offset 16
  69              		.cfi_offset 4, -16
  70              		.cfi_offset 5, -12
  71              		.cfi_offset 6, -8
  72              		.cfi_offset 14, -4
  73              	.LBB49:
  74              	.LBB47:
  75              		.loc 1 148 0
  76 0004 5D6F     		ldr	r5, [r3, #116]
  77              	.LVL2:
  78              		.loc 1 149 0
  79 0006 2E68     		ldr	r6, [r5]
  80              	.LVL3:
  81              		.loc 1 153 0
  82 0008 EC69     		ldr	r4, [r5, #28]
  83              	.LVL4:
  84              		.loc 1 154 0
  85 000a 2C62     		str	r4, [r5, #32]
  86              		.loc 1 157 0
  87 000c 2207     		lsls	r2, r4, #28
  88 000e 32D1     		bne	.L45
  89              	.L5:
  90              		.loc 1 161 0
  91 0010 E305     		lsls	r3, r4, #23
  92 0012 24D4     		bmi	.L46
  93              	.L10:
  94              		.loc 1 168 0
  95 0014 A006     		lsls	r0, r4, #26
  96 0016 16D4     		bmi	.L47
  97              	.L11:
  98              		.loc 1 175 0
  99 0018 3106     		lsls	r1, r6, #24
 100 001a 01D5     		bpl	.L12
 101 001c 2206     		lsls	r2, r4, #24
 102 001e 45D4     		bmi	.L48
 103              	.L12:
 104              		.loc 1 189 0
 105 0020 6306     		lsls	r3, r4, #25
 106 0022 0CD5     		bpl	.L15
 107              	.LBB34:
 108              		.loc 1 190 0
 109 0024 2023     		movs	r3, #32
 110              	@ 190 "../../os/hal/platforms/STM32/USARTv2/serial_lld.c" 1
 111 0026 83F31188 		msr     BASEPRI, r3
 112              	@ 0 "" 2
 113              		.thumb
 114              	.LBE34:
ARM GAS  /tmp/cc41dfeQ.s 			page 3


 115              		.loc 1 191 0
 116 002a 2D48     		ldr	r0, .L50+4
 117 002c 1021     		movs	r1, #16
 118 002e FFF7FEFF 		bl	chEvtBroadcastFlagsI
 119              	.LVL5:
 120              	.LBB35:
 121              		.loc 1 192 0
 122 0032 0023     		movs	r3, #0
 123              	@ 192 "../../os/hal/platforms/STM32/USARTv2/serial_lld.c" 1
 124 0034 83F31188 		msr     BASEPRI, r3
 125              	@ 0 "" 2
 126              		.thumb
 127              	.LBE35:
 128              		.loc 1 193 0
 129 0038 26F04006 		bic	r6, r6, #64
 130              	.LVL6:
 131 003c 2E60     		str	r6, [r5]
 132              	.L15:
 133              	.LBE47:
 134              	.LBE49:
 135              		.loc 1 265 0
 136 003e BDE87040 		pop	{r4, r5, r6, lr}
 137              	.LVL7:
 138              		.loc 1 264 0
 139 0042 FFF7FEBF 		b	_port_irq_epilogue
 140              	.LVL8:
 141              	.L47:
 142              	.LBB50:
 143              	.LBB48:
 144              	.LBB36:
 145              		.loc 1 169 0
 146 0046 2023     		movs	r3, #32
 147              	@ 169 "../../os/hal/platforms/STM32/USARTv2/serial_lld.c" 1
 148 0048 83F31188 		msr     BASEPRI, r3
 149              	@ 0 "" 2
 150              		.thumb
 151              	.LBE36:
 152              		.loc 1 170 0
 153 004c A98C     		ldrh	r1, [r5, #36]
 154 004e 2348     		ldr	r0, .L50
 155 0050 C9B2     		uxtb	r1, r1
 156 0052 FFF7FEFF 		bl	sdIncomingDataI
 157              	.LVL9:
 158              	.LBB37:
 159              		.loc 1 171 0
 160 0056 0023     		movs	r3, #0
 161              	@ 171 "../../os/hal/platforms/STM32/USARTv2/serial_lld.c" 1
 162 0058 83F31188 		msr     BASEPRI, r3
 163              	@ 0 "" 2
 164              		.thumb
 165 005c DCE7     		b	.L11
 166              	.L46:
 167              	.LBE37:
 168              	.LBB38:
 169              		.loc 1 162 0
 170 005e 2023     		movs	r3, #32
 171              	@ 162 "../../os/hal/platforms/STM32/USARTv2/serial_lld.c" 1
ARM GAS  /tmp/cc41dfeQ.s 			page 4


 172 0060 83F31188 		msr     BASEPRI, r3
 173              	@ 0 "" 2
 174              		.thumb
 175              	.LBE38:
 176              		.loc 1 163 0
 177 0064 1E48     		ldr	r0, .L50+4
 178 0066 4FF40071 		mov	r1, #512
 179 006a FFF7FEFF 		bl	chEvtBroadcastFlagsI
 180              	.LVL10:
 181              	.LBB39:
 182              		.loc 1 164 0
 183 006e 0023     		movs	r3, #0
 184              	@ 164 "../../os/hal/platforms/STM32/USARTv2/serial_lld.c" 1
 185 0070 83F31188 		msr     BASEPRI, r3
 186              	@ 0 "" 2
 187              		.thumb
 188 0074 CEE7     		b	.L10
 189              	.L45:
 190              	.LVL11:
 191              	.LBE39:
 192              	.LBB40:
 193              	.LBB41:
 194              		.loc 1 127 0
 195 0076 14F0080F 		tst	r4, #8
 196 007a 14BF     		ite	ne
 197 007c 8021     		movne	r1, #128
 198 007e 0021     		moveq	r1, #0
 199              	.LVL12:
 200              		.loc 1 131 0
 201 0080 E307     		lsls	r3, r4, #31
 202              		.loc 1 132 0
 203 0082 48BF     		it	mi
 204 0084 41F02001 		orrmi	r1, r1, #32
 205              	.LVL13:
 206              		.loc 1 133 0
 207 0088 A007     		lsls	r0, r4, #30
 208              		.loc 1 134 0
 209 008a 48BF     		it	mi
 210 008c 41F04001 		orrmi	r1, r1, #64
 211              	.LVL14:
 212              		.loc 1 135 0
 213 0090 6207     		lsls	r2, r4, #29
 214              		.loc 1 136 0
 215 0092 48BF     		it	mi
 216 0094 41F48071 		orrmi	r1, r1, #256
 217              	.LVL15:
 218              	.LBB42:
 219              		.loc 1 137 0
 220 0098 2023     		movs	r3, #32
 221              	@ 137 "../../os/hal/platforms/STM32/USARTv2/serial_lld.c" 1
 222 009a 83F31188 		msr     BASEPRI, r3
 223              	@ 0 "" 2
 224              		.thumb
 225              	.LBE42:
 226              		.loc 1 138 0
 227 009e 1048     		ldr	r0, .L50+4
 228 00a0 FFF7FEFF 		bl	chEvtBroadcastFlagsI
ARM GAS  /tmp/cc41dfeQ.s 			page 5


 229              	.LVL16:
 230              	.LBB43:
 231              		.loc 1 139 0
 232 00a4 0023     		movs	r3, #0
 233              	@ 139 "../../os/hal/platforms/STM32/USARTv2/serial_lld.c" 1
 234 00a6 83F31188 		msr     BASEPRI, r3
 235              	@ 0 "" 2
 236              		.thumb
 237 00aa B1E7     		b	.L5
 238              	.LVL17:
 239              	.L48:
 240              	.LBE43:
 241              	.LBE41:
 242              	.LBE40:
 243              	.LBB44:
 244              	.LBB45:
 245              		.loc 1 177 0
 246 00ac 2023     		movs	r3, #32
 247              	@ 177 "../../os/hal/platforms/STM32/USARTv2/serial_lld.c" 1
 248 00ae 83F31188 		msr     BASEPRI, r3
 249              	@ 0 "" 2
 250              		.thumb
 251              	.LBE45:
 252              		.loc 1 178 0
 253 00b2 0C48     		ldr	r0, .L50+8
 254 00b4 FFF7FEFF 		bl	chOQGetI
 255              	.LVL18:
 256              		.loc 1 179 0
 257 00b8 0028     		cmp	r0, #0
 258 00ba 05DB     		blt	.L49
 259              		.loc 1 184 0
 260 00bc 80B2     		uxth	r0, r0
 261              	.LVL19:
 262 00be 2885     		strh	r0, [r5, #40]	@ movhi
 263              	.L14:
 264              	.LBB46:
 265              		.loc 1 185 0
 266 00c0 0023     		movs	r3, #0
 267              	@ 185 "../../os/hal/platforms/STM32/USARTv2/serial_lld.c" 1
 268 00c2 83F31188 		msr     BASEPRI, r3
 269              	@ 0 "" 2
 270              		.thumb
 271 00c6 ABE7     		b	.L12
 272              	.LVL20:
 273              	.L49:
 274              	.LBE46:
 275              		.loc 1 180 0
 276 00c8 0548     		ldr	r0, .L50+4
 277              	.LVL21:
 278 00ca 0821     		movs	r1, #8
 279 00cc FFF7FEFF 		bl	chEvtBroadcastFlagsI
 280              	.LVL22:
 281              		.loc 1 181 0
 282 00d0 26F0C003 		bic	r3, r6, #192
 283 00d4 43F04003 		orr	r3, r3, #64
 284 00d8 2B60     		str	r3, [r5]
 285 00da F1E7     		b	.L14
ARM GAS  /tmp/cc41dfeQ.s 			page 6


 286              	.L51:
 287              		.align	2
 288              	.L50:
 289 00dc 00000000 		.word	.LANCHOR0
 290 00e0 04000000 		.word	.LANCHOR0+4
 291 00e4 30000000 		.word	.LANCHOR0+48
 292              	.LBE44:
 293              	.LBE48:
 294              	.LBE50:
 295              		.cfi_endproc
 296              	.LFE123:
 297              		.size	VectorD4, .-VectorD4
 298 00e8 AFF30080 		.section	.text.sd_lld_init,"ax",%progbits
 298      AFF30080 
 299              		.align	2
 300              		.p2align 4,,15
 301              		.global	sd_lld_init
 302              		.thumb
 303              		.thumb_func
 304              		.type	sd_lld_init, %function
 305              	sd_lld_init:
 306              	.LFB124:
 307              		.loc 1 372 0
 308              		.cfi_startproc
 309              		@ args = 0, pretend = 0, frame = 0
 310              		@ frame_needed = 0, uses_anonymous_args = 0
 311 0000 10B5     		push	{r4, lr}
 312              		.cfi_def_cfa_offset 8
 313              		.cfi_offset 4, -8
 314              		.cfi_offset 14, -4
 315              		.loc 1 375 0
 316 0002 054C     		ldr	r4, .L53
 317 0004 054A     		ldr	r2, .L53+4
 318 0006 2046     		mov	r0, r4
 319 0008 0021     		movs	r1, #0
 320 000a FFF7FEFF 		bl	sdObjectInit
 321              	.LVL23:
 322              		.loc 1 376 0
 323 000e 044A     		ldr	r2, .L53+8
 324              		.loc 1 377 0
 325 0010 044B     		ldr	r3, .L53+12
 326              		.loc 1 376 0
 327 0012 6267     		str	r2, [r4, #116]
 328              		.loc 1 377 0
 329 0014 A367     		str	r3, [r4, #120]
 330 0016 10BD     		pop	{r4, pc}
 331              	.L54:
 332              		.align	2
 333              	.L53:
 334 0018 00000000 		.word	.LANCHOR0
 335 001c 00000000 		.word	notify1
 336 0020 00380140 		.word	1073821696
 337 0024 00512502 		.word	36000000
 338              		.cfi_endproc
 339              	.LFE124:
 340              		.size	sd_lld_init, .-sd_lld_init
 341 0028 AFF30080 		.section	.text.sd_lld_start,"ax",%progbits
ARM GAS  /tmp/cc41dfeQ.s 			page 7


 341      AFF30080 
 342              		.align	2
 343              		.p2align 4,,15
 344              		.global	sd_lld_start
 345              		.thumb
 346              		.thumb_func
 347              		.type	sd_lld_start, %function
 348              	sd_lld_start:
 349              	.LFB125:
 350              		.loc 1 421 0
 351              		.cfi_startproc
 352              		@ args = 0, pretend = 0, frame = 0
 353              		@ frame_needed = 0, uses_anonymous_args = 0
 354              	.LVL24:
 355 0000 F8B5     		push	{r3, r4, r5, r6, r7, lr}
 356              		.cfi_def_cfa_offset 24
 357              		.cfi_offset 3, -24
 358              		.cfi_offset 4, -20
 359              		.cfi_offset 5, -16
 360              		.cfi_offset 6, -12
 361              		.cfi_offset 7, -8
 362              		.cfi_offset 14, -4
 363              		.loc 1 424 0
 364 0002 174C     		ldr	r4, .L60
 365              		.loc 1 426 0
 366 0004 037A     		ldrb	r3, [r0, #8]	@ zero_extendqisi2
 367              		.loc 1 424 0
 368 0006 0029     		cmp	r1, #0
 369 0008 18BF     		it	ne
 370 000a 0C46     		movne	r4, r1
 371              	.LVL25:
 372              		.loc 1 426 0
 373 000c 012B     		cmp	r3, #1
 374              		.loc 1 421 0
 375 000e 0546     		mov	r5, r0
 376              		.loc 1 426 0
 377 0010 18D0     		beq	.L59
 378              	.LVL26:
 379              	.L57:
 380              	.LBB51:
 381              	.LBB52:
 382              		.loc 1 96 0
 383 0012 2668     		ldr	r6, [r4]
 384              		.loc 1 102 0
 385 0014 6268     		ldr	r2, [r4, #4]
 386              		.loc 1 96 0
 387 0016 AF6F     		ldr	r7, [r5, #120]
 388              		.loc 1 99 0
 389 0018 A168     		ldr	r1, [r4, #8]
 390              		.loc 1 100 0
 391 001a E068     		ldr	r0, [r4, #12]
 392              	.LBE52:
 393              	.LBE51:
 394              		.loc 1 421 0
 395 001c 6B6F     		ldr	r3, [r5, #116]
 396              	.LVL27:
 397              	.LBB54:
ARM GAS  /tmp/cc41dfeQ.s 			page 8


 398              	.LBB53:
 399              		.loc 1 102 0
 400 001e 42F49672 		orr	r2, r2, #300
 401              		.loc 1 96 0
 402 0022 B7FBF6F5 		udiv	r5, r7, r6
 403              	.LVL28:
 404              		.loc 1 99 0
 405 0026 41F04004 		orr	r4, r1, #64
 406              	.LVL29:
 407              		.loc 1 96 0
 408 002a ADB2     		uxth	r5, r5
 409              		.loc 1 100 0
 410 002c 40F00100 		orr	r0, r0, #1
 411              		.loc 1 102 0
 412 0030 42F00102 		orr	r2, r2, #1
 413              		.loc 1 104 0
 414 0034 4FF0FF31 		mov	r1, #-1
 415              		.loc 1 96 0
 416 0038 9D81     		strh	r5, [r3, #12]	@ movhi
 417              		.loc 1 99 0
 418 003a 5C60     		str	r4, [r3, #4]
 419              		.loc 1 100 0
 420 003c 9860     		str	r0, [r3, #8]
 421              		.loc 1 101 0
 422 003e 1A60     		str	r2, [r3]
 423              		.loc 1 104 0
 424 0040 1962     		str	r1, [r3, #32]
 425 0042 F8BD     		pop	{r3, r4, r5, r6, r7, pc}
 426              	.LVL30:
 427              	.L59:
 428              	.LBE53:
 429              	.LBE54:
 430              		.loc 1 428 0
 431 0044 074B     		ldr	r3, .L60+4
 432 0046 9842     		cmp	r0, r3
 433 0048 E3D1     		bne	.L57
 434              		.loc 1 429 0
 435 004a 074B     		ldr	r3, .L60+8
 436 004c 9A69     		ldr	r2, [r3, #24]
 437 004e 42F48042 		orr	r2, r2, #16384
 438 0052 9A61     		str	r2, [r3, #24]
 439              		.loc 1 430 0
 440 0054 2520     		movs	r0, #37
 441              	.LVL31:
 442 0056 C021     		movs	r1, #192
 443 0058 FFF7FEFF 		bl	nvicEnableVector
 444              	.LVL32:
 445 005c D9E7     		b	.L57
 446              	.L61:
 447 005e 00BF     		.align	2
 448              	.L60:
 449 0060 00000000 		.word	.LANCHOR1
 450 0064 00000000 		.word	.LANCHOR0
 451 0068 00100240 		.word	1073876992
 452              		.cfi_endproc
 453              	.LFE125:
 454              		.size	sd_lld_start, .-sd_lld_start
ARM GAS  /tmp/cc41dfeQ.s 			page 9


 455 006c AFF30080 		.section	.text.sd_lld_stop,"ax",%progbits
 456              		.align	2
 457              		.p2align 4,,15
 458              		.global	sd_lld_stop
 459              		.thumb
 460              		.thumb_func
 461              		.type	sd_lld_stop, %function
 462              	sd_lld_stop:
 463              	.LFB126:
 464              		.loc 1 482 0
 465              		.cfi_startproc
 466              		@ args = 0, pretend = 0, frame = 0
 467              		@ frame_needed = 0, uses_anonymous_args = 0
 468              		@ link register save eliminated.
 469              	.LVL33:
 470              		.loc 1 484 0
 471 0000 037A     		ldrb	r3, [r0, #8]	@ zero_extendqisi2
 472 0002 022B     		cmp	r3, #2
 473 0004 00D0     		beq	.L66
 474              	.L62:
 475 0006 7047     		bx	lr
 476              	.L66:
 477              		.loc 1 487 0
 478 0008 0749     		ldr	r1, .L67
 479              		.loc 1 485 0
 480 000a 436F     		ldr	r3, [r0, #116]
 481              	.LVL34:
 482              	.LBB55:
 483              	.LBB56:
 484              		.loc 1 115 0
 485 000c 0022     		movs	r2, #0
 486              	.LBE56:
 487              	.LBE55:
 488              		.loc 1 487 0
 489 000e 8842     		cmp	r0, r1
 490              	.LBB58:
 491              	.LBB57:
 492              		.loc 1 115 0
 493 0010 1A60     		str	r2, [r3]
 494              		.loc 1 116 0
 495 0012 5A60     		str	r2, [r3, #4]
 496              		.loc 1 117 0
 497 0014 9A60     		str	r2, [r3, #8]
 498              	.LBE57:
 499              	.LBE58:
 500              		.loc 1 487 0
 501 0016 F6D1     		bne	.L62
 502              		.loc 1 488 0
 503 0018 044B     		ldr	r3, .L67+4
 504              	.LVL35:
 505 001a 9A69     		ldr	r2, [r3, #24]
 506 001c 22F48042 		bic	r2, r2, #16384
 507 0020 9A61     		str	r2, [r3, #24]
 508              		.loc 1 489 0
 509 0022 2520     		movs	r0, #37
 510              	.LVL36:
 511 0024 FFF7FEBF 		b	nvicDisableVector
ARM GAS  /tmp/cc41dfeQ.s 			page 10


 512              	.LVL37:
 513              	.L68:
 514              		.align	2
 515              	.L67:
 516 0028 00000000 		.word	.LANCHOR0
 517 002c 00100240 		.word	1073876992
 518              		.cfi_endproc
 519              	.LFE126:
 520              		.size	sd_lld_stop, .-sd_lld_stop
 521              		.global	SD1
 522              		.section	.rodata.default_config,"a",%progbits
 523              		.align	2
 524              		.set	.LANCHOR1,. + 0
 525              		.type	default_config, %object
 526              		.size	default_config, 16
 527              	default_config:
 528 0000 00960000 		.word	38400
 529 0004 00000000 		.word	0
 530 0008 00400000 		.word	16384
 531 000c 00000000 		.word	0
 532              		.section	.bss.SD1,"aw",%nobits
 533              		.align	2
 534              		.set	.LANCHOR0,. + 0
 535              		.type	SD1, %object
 536              		.size	SD1, 124
 537              	SD1:
 538 0000 00000000 		.space	124
 538      00000000 
 538      00000000 
 538      00000000 
 538      00000000 
 539              		.text
 540              	.Letext0:
 541              		.file 2 "/usr/lib/gcc/arm-none-eabi/4.8.3/include/stddef.h"
 542              		.file 3 "/usr/arm-none-eabi/include/stdint.h"
 543              		.file 4 "../../os/ports/GCC/ARMCMx/chtypes.h"
 544              		.file 5 "../../os/kernel/include/chlists.h"
 545              		.file 6 "../../os/kernel/include/chthreads.h"
 546              		.file 7 "../../os/ports/GCC/ARMCMx/chcore_v7m.h"
 547              		.file 8 "../../os/kernel/include/chmtx.h"
 548              		.file 9 "../../os/kernel/include/chevents.h"
 549              		.file 10 "../../os/kernel/include/chqueues.h"
 550              		.file 11 "../../os/hal/platforms/STM32F30x/stm32f30x.h"
 551              		.file 12 "../../os/hal/include/serial.h"
 552              		.file 13 "../../os/hal/platforms/STM32/USARTv2/serial_lld.h"
 553              		.file 14 "../../os/ports/common/ARMCMx/nvic.h"
 554              		.file 15 "../../os/ports/common/ARMCMx/CMSIS/include/core_cm4.h"