ARM GAS  /tmp/ccHRGfoz.s 			page 1


   1              		.syntax unified
   2              		.cpu cortex-m4
   3              		.fpu softvfp
   4              		.eabi_attribute 20, 1
   5              		.eabi_attribute 21, 1
   6              		.eabi_attribute 23, 3
   7              		.eabi_attribute 24, 1
   8              		.eabi_attribute 25, 1
   9              		.eabi_attribute 26, 1
  10              		.eabi_attribute 30, 2
  11              		.eabi_attribute 34, 1
  12              		.eabi_attribute 18, 4
  13              		.thumb
  14              		.file	"testmbox.c"
  15              		.text
  16              	.Ltext0:
  17              		.cfi_sections	.debug_frame
  18              		.section	.text.mbox1_execute,"ax",%progbits
  19              		.align	2
  20              		.p2align 4,,15
  21              		.thumb
  22              		.thumb_func
  23              		.type	mbox1_execute, %function
  24              	mbox1_execute:
  25              	.LFB8:
  26              		.file 1 "../../test/testmbox.c"
  27              		.loc 1 76 0
  28              		.cfi_startproc
  29              		@ args = 0, pretend = 0, frame = 8
  30              		@ frame_needed = 0, uses_anonymous_args = 0
  31 0000 70B5     		push	{r4, r5, r6, lr}
  32              		.cfi_def_cfa_offset 16
  33              		.cfi_offset 4, -16
  34              		.cfi_offset 5, -12
  35              		.cfi_offset 6, -8
  36              		.cfi_offset 14, -4
  37              		.loc 1 83 0
  38 0002 634D     		ldr	r5, .L33
  39 0004 696A     		ldr	r1, [r5, #36]
  40 0006 B1F1050E 		subs	lr, r1, #5
  41 000a DEF10001 		rsbs	r1, lr, #0
  42              		.loc 1 76 0
  43 000e 82B0     		sub	sp, sp, #8
  44              		.cfi_def_cfa_offset 24
  45              		.loc 1 83 0
  46 0010 51EB0E01 		adcs	r1, r1, lr
  47 0014 0120     		movs	r0, #1
  48 0016 FFF7FEFF 		bl	_test_assert
  49              	.LVL0:
  50 001a F8B9     		cbnz	r0, .L1
  51 001c 4224     		movs	r4, #66
  52              	.L4:
  53              	.LVL1:
  54              		.loc 1 89 0
  55 001e 2146     		mov	r1, r4
  56 0020 5B48     		ldr	r0, .L33
  57 0022 4FF0FF32 		mov	r2, #-1
ARM GAS  /tmp/ccHRGfoz.s 			page 2


  58 0026 FFF7FEFF 		bl	chMBPost
  59              	.LVL2:
  60              		.loc 1 90 0
  61 002a D0F10101 		rsbs	r1, r0, #1
  62 002e 38BF     		it	cc
  63 0030 0021     		movcc	r1, #0
  64 0032 0220     		movs	r0, #2
  65              	.LVL3:
  66 0034 0134     		adds	r4, r4, #1
  67              	.LVL4:
  68 0036 FFF7FEFF 		bl	_test_assert
  69              	.LVL5:
  70 003a 78B9     		cbnz	r0, .L1
  71              		.loc 1 88 0
  72 003c 462C     		cmp	r4, #70
  73 003e EED1     		bne	.L4
  74              		.loc 1 92 0
  75 0040 4121     		movs	r1, #65
  76 0042 5348     		ldr	r0, .L33
  77 0044 4FF0FF32 		mov	r2, #-1
  78 0048 FFF7FEFF 		bl	chMBPostAhead
  79              	.LVL6:
  80              		.loc 1 93 0
  81 004c D0F10101 		rsbs	r1, r0, #1
  82 0050 38BF     		it	cc
  83 0052 0021     		movcc	r1, #0
  84 0054 0320     		movs	r0, #3
  85              	.LVL7:
  86 0056 FFF7FEFF 		bl	_test_assert
  87              	.LVL8:
  88 005a 08B1     		cbz	r0, .L30
  89              	.L1:
  90              		.loc 1 220 0
  91 005c 02B0     		add	sp, sp, #8
  92              		@ sp needed
  93 005e 70BD     		pop	{r4, r5, r6, pc}
  94              	.L30:
  95              		.loc 1 98 0
  96 0060 5821     		movs	r1, #88
  97 0062 4B48     		ldr	r0, .L33
  98 0064 0122     		movs	r2, #1
  99 0066 FFF7FEFF 		bl	chMBPost
 100              	.LVL9:
 101              		.loc 1 99 0
 102 006a B0F1FF36 		subs	r6, r0, #-1
 103 006e 7142     		rsbs	r1, r6, #0
 104 0070 7141     		adcs	r1, r1, r6
 105 0072 0420     		movs	r0, #4
 106              	.LVL10:
 107 0074 FFF7FEFF 		bl	_test_assert
 108              	.LVL11:
 109 0078 0028     		cmp	r0, #0
 110 007a EFD1     		bne	.L1
 111              	.LBB2:
 112              		.loc 1 100 0
 113 007c 2023     		movs	r3, #32
 114              	@ 100 "../../test/testmbox.c" 1
ARM GAS  /tmp/ccHRGfoz.s 			page 3


 115 007e 83F31188 		msr     BASEPRI, r3
 116              	@ 0 "" 2
 117              		.thumb
 118              	.LBE2:
 119              		.loc 1 101 0
 120 0082 5821     		movs	r1, #88
 121 0084 4248     		ldr	r0, .L33
 122 0086 FFF7FEFF 		bl	chMBPostI
 123              	.LVL12:
 124              	.LBB3:
 125              		.loc 1 102 0
 126 008a 0023     		movs	r3, #0
 127              	.LBE3:
 128              		.loc 1 101 0
 129 008c 0146     		mov	r1, r0
 130              	.LVL13:
 131              	.LBB4:
 132              		.loc 1 102 0
 133              	@ 102 "../../test/testmbox.c" 1
 134 008e 83F31188 		msr     BASEPRI, r3
 135              	@ 0 "" 2
 136              		.thumb
 137              	.LBE4:
 138              		.loc 1 103 0
 139 0092 B1F1FF34 		subs	r4, r1, #-1
 140 0096 6142     		rsbs	r1, r4, #0
 141 0098 6141     		adcs	r1, r1, r4
 142 009a 0520     		movs	r0, #5
 143              	.LVL14:
 144 009c FFF7FEFF 		bl	_test_assert
 145              	.LVL15:
 146 00a0 0028     		cmp	r0, #0
 147 00a2 DBD1     		bne	.L1
 148              		.loc 1 104 0
 149 00a4 5821     		movs	r1, #88
 150 00a6 0122     		movs	r2, #1
 151 00a8 3948     		ldr	r0, .L33
 152 00aa FFF7FEFF 		bl	chMBPostAhead
 153              	.LVL16:
 154              		.loc 1 105 0
 155 00ae B0F1FF32 		subs	r2, r0, #-1
 156 00b2 5142     		rsbs	r1, r2, #0
 157 00b4 5141     		adcs	r1, r1, r2
 158 00b6 0620     		movs	r0, #6
 159              	.LVL17:
 160 00b8 FFF7FEFF 		bl	_test_assert
 161              	.LVL18:
 162 00bc 0028     		cmp	r0, #0
 163 00be CDD1     		bne	.L1
 164              	.LBB5:
 165              		.loc 1 106 0
 166 00c0 2023     		movs	r3, #32
 167              	@ 106 "../../test/testmbox.c" 1
 168 00c2 83F31188 		msr     BASEPRI, r3
 169              	@ 0 "" 2
 170              		.thumb
 171              	.LBE5:
ARM GAS  /tmp/ccHRGfoz.s 			page 4


 172              		.loc 1 107 0
 173 00c6 5821     		movs	r1, #88
 174 00c8 3148     		ldr	r0, .L33
 175 00ca FFF7FEFF 		bl	chMBPostAheadI
 176              	.LVL19:
 177              	.LBB6:
 178              		.loc 1 108 0
 179 00ce 0023     		movs	r3, #0
 180              	.LBE6:
 181              		.loc 1 107 0
 182 00d0 0146     		mov	r1, r0
 183              	.LVL20:
 184              	.LBB7:
 185              		.loc 1 108 0
 186              	@ 108 "../../test/testmbox.c" 1
 187 00d2 83F31188 		msr     BASEPRI, r3
 188              	@ 0 "" 2
 189              		.thumb
 190              	.LBE7:
 191              		.loc 1 109 0
 192 00d6 B1F1FF33 		subs	r3, r1, #-1
 193 00da 5942     		rsbs	r1, r3, #0
 194 00dc 5941     		adcs	r1, r1, r3
 195 00de 0720     		movs	r0, #7
 196              	.LVL21:
 197 00e0 FFF7FEFF 		bl	_test_assert
 198              	.LVL22:
 199 00e4 0028     		cmp	r0, #0
 200 00e6 B9D1     		bne	.L1
 201              	.LBB8:
 202              		.loc 1 114 0
 203 00e8 2023     		movs	r3, #32
 204              	@ 114 "../../test/testmbox.c" 1
 205 00ea 83F31188 		msr     BASEPRI, r3
 206              	@ 0 "" 2
 207              		.thumb
 208              	.LBE8:
 209 00ee 696A     		ldr	r1, [r5, #36]
 210 00f0 D1F10101 		rsbs	r1, r1, #1
 211 00f4 4FF00800 		mov	r0, #8
 212 00f8 38BF     		it	cc
 213 00fa 0021     		movcc	r1, #0
 214 00fc FFF7FEFF 		bl	_test_assert
 215              	.LVL23:
 216 0100 0346     		mov	r3, r0
 217 0102 18B1     		cbz	r0, .L5
 218              	.L28:
 219              	.LBB9:
 220              		.loc 1 219 0 discriminator 2
 221 0104 0023     		movs	r3, #0
 222              	.L25:
 223              	.LBE9:
 224              	.LBB10:
 225              	@ 219 "../../test/testmbox.c" 1
 226 0106 83F31188 		msr     BASEPRI, r3
 227              	@ 0 "" 2
 228              		.thumb
ARM GAS  /tmp/ccHRGfoz.s 			page 5


 229              	.LBE10:
 230 010a A7E7     		b	.L1
 231              	.L5:
 232              	.LBB11:
 233              		.loc 1 114 0 discriminator 2
 234              	@ 114 "../../test/testmbox.c" 1
 235 010c 83F31188 		msr     BASEPRI, r3
 236              	@ 0 "" 2
 237              		.thumb
 238              	.LBE11:
 239              	.LBB12:
 240              		.loc 1 115 0 discriminator 2
 241 0110 2023     		movs	r3, #32
 242              	@ 115 "../../test/testmbox.c" 1
 243 0112 83F31188 		msr     BASEPRI, r3
 244              	@ 0 "" 2
 245              		.thumb
 246              	.LBE12:
 247 0116 A969     		ldr	r1, [r5, #24]
 248 0118 B1F1050C 		subs	ip, r1, #5
 249 011c DCF10001 		rsbs	r1, ip, #0
 250 0120 4FF00900 		mov	r0, #9
 251 0124 51EB0C01 		adcs	r1, r1, ip
 252 0128 FFF7FEFF 		bl	_test_assert
 253              	.LVL24:
 254 012c 0346     		mov	r3, r0
 255 012e 0028     		cmp	r0, #0
 256 0130 E8D1     		bne	.L28
 257              	.LBB13:
 258              	@ 115 "../../test/testmbox.c" 1
 259 0132 83F31188 		msr     BASEPRI, r3
 260              	@ 0 "" 2
 261              		.thumb
 262              	.LBE13:
 263              	.LBB14:
 264              		.loc 1 116 0 discriminator 2
 265 0136 2023     		movs	r3, #32
 266              	@ 116 "../../test/testmbox.c" 1
 267 0138 83F31188 		msr     BASEPRI, r3
 268              	@ 0 "" 2
 269              		.thumb
 270              	.LBE14:
 271 013c E968     		ldr	r1, [r5, #12]
 272 013e AB68     		ldr	r3, [r5, #8]
 273 0140 B1EB030E 		subs	lr, r1, r3
 274 0144 DEF10001 		rsbs	r1, lr, #0
 275 0148 4FF00A00 		mov	r0, #10
 276 014c 51EB0E01 		adcs	r1, r1, lr
 277 0150 FFF7FEFF 		bl	_test_assert
 278              	.LVL25:
 279              	.LBB15:
 280 0154 0023     		movs	r3, #0
 281              	.LBE15:
 282 0156 0028     		cmp	r0, #0
 283 0158 D5D1     		bne	.L25
 284              	.LBB16:
 285              	@ 116 "../../test/testmbox.c" 1
ARM GAS  /tmp/ccHRGfoz.s 			page 6


 286 015a 83F31188 		msr     BASEPRI, r3
 287              	@ 0 "" 2
 288              	.LVL26:
 289              		.thumb
 290 015e 0526     		movs	r6, #5
 291 0160 05E0     		b	.L10
 292              	.LVL27:
 293              	.L32:
 294              	.LBE16:
 295              		.loc 1 124 0
 296 0162 9DF80400 		ldrb	r0, [sp, #4]	@ zero_extendqisi2
 297 0166 FFF7FEFF 		bl	test_emit_token
 298              	.LVL28:
 299              		.loc 1 121 0
 300 016a 013E     		subs	r6, r6, #1
 301              	.LVL29:
 302 016c 12D0     		beq	.L31
 303              	.LVL30:
 304              	.L10:
 305              		.loc 1 122 0
 306 016e 084C     		ldr	r4, .L33
 307 0170 01A9     		add	r1, sp, #4
 308 0172 2046     		mov	r0, r4
 309 0174 4FF0FF32 		mov	r2, #-1
 310 0178 FFF7FEFF 		bl	chMBFetch
 311              	.LVL31:
 312              		.loc 1 123 0
 313 017c D0F10101 		rsbs	r1, r0, #1
 314 0180 38BF     		it	cc
 315 0182 0021     		movcc	r1, #0
 316 0184 0B20     		movs	r0, #11
 317              	.LVL32:
 318 0186 FFF7FEFF 		bl	_test_assert
 319              	.LVL33:
 320 018a 0028     		cmp	r0, #0
 321 018c E9D0     		beq	.L32
 322 018e 65E7     		b	.L1
 323              	.L34:
 324              		.align	2
 325              	.L33:
 326 0190 00000000 		.word	.LANCHOR0
 327              	.L31:
 328              		.loc 1 126 0
 329 0194 0C20     		movs	r0, #12
 330 0196 C949     		ldr	r1, .L35
 331 0198 FFF7FEFF 		bl	_test_assert_sequence
 332              	.LVL34:
 333 019c 0028     		cmp	r0, #0
 334 019e 7FF45DAF 		bne	.L1
 335              		.loc 1 131 0
 336 01a2 4721     		movs	r1, #71
 337 01a4 2046     		mov	r0, r4
 338 01a6 4FF0FF32 		mov	r2, #-1
 339 01aa FFF7FEFF 		bl	chMBPost
 340              	.LVL35:
 341              		.loc 1 132 0
 342 01ae D0F10101 		rsbs	r1, r0, #1
ARM GAS  /tmp/ccHRGfoz.s 			page 7


 343 01b2 38BF     		it	cc
 344 01b4 0021     		movcc	r1, #0
 345 01b6 0D20     		movs	r0, #13
 346              	.LVL36:
 347 01b8 FFF7FEFF 		bl	_test_assert
 348              	.LVL37:
 349 01bc 0028     		cmp	r0, #0
 350 01be 7FF44DAF 		bne	.L1
 351              		.loc 1 133 0
 352 01c2 01A9     		add	r1, sp, #4
 353 01c4 2046     		mov	r0, r4
 354 01c6 4FF0FF32 		mov	r2, #-1
 355 01ca FFF7FEFF 		bl	chMBFetch
 356              	.LVL38:
 357              		.loc 1 134 0
 358 01ce D0F10101 		rsbs	r1, r0, #1
 359 01d2 38BF     		it	cc
 360 01d4 0021     		movcc	r1, #0
 361 01d6 0E20     		movs	r0, #14
 362              	.LVL39:
 363 01d8 FFF7FEFF 		bl	_test_assert
 364              	.LVL40:
 365 01dc 0028     		cmp	r0, #0
 366 01de 7FF43DAF 		bne	.L1
 367              		.loc 1 135 0
 368 01e2 2168     		ldr	r1, [r4]
 369 01e4 A368     		ldr	r3, [r4, #8]
 370 01e6 CE1A     		subs	r6, r1, r3
 371              	.LVL41:
 372 01e8 7142     		rsbs	r1, r6, #0
 373 01ea 7141     		adcs	r1, r1, r6
 374 01ec 0F20     		movs	r0, #15
 375 01ee FFF7FEFF 		bl	_test_assert
 376              	.LVL42:
 377 01f2 0028     		cmp	r0, #0
 378 01f4 7FF432AF 		bne	.L1
 379              		.loc 1 136 0
 380 01f8 2168     		ldr	r1, [r4]
 381 01fa E368     		ldr	r3, [r4, #12]
 382 01fc CA1A     		subs	r2, r1, r3
 383 01fe 5142     		rsbs	r1, r2, #0
 384 0200 5141     		adcs	r1, r1, r2
 385 0202 1020     		movs	r0, #16
 386 0204 FFF7FEFF 		bl	_test_assert
 387              	.LVL43:
 388 0208 0028     		cmp	r0, #0
 389 020a 7FF427AF 		bne	.L1
 390              		.loc 1 141 0
 391 020e 01A9     		add	r1, sp, #4
 392 0210 2046     		mov	r0, r4
 393 0212 0122     		movs	r2, #1
 394 0214 FFF7FEFF 		bl	chMBFetch
 395              	.LVL44:
 396              		.loc 1 142 0
 397 0218 B0F1FF33 		subs	r3, r0, #-1
 398 021c 5942     		rsbs	r1, r3, #0
 399 021e 5941     		adcs	r1, r1, r3
ARM GAS  /tmp/ccHRGfoz.s 			page 8


 400 0220 1120     		movs	r0, #17
 401              	.LVL45:
 402 0222 FFF7FEFF 		bl	_test_assert
 403              	.LVL46:
 404 0226 0028     		cmp	r0, #0
 405 0228 7FF418AF 		bne	.L1
 406              	.LBB17:
 407              		.loc 1 143 0
 408 022c 2023     		movs	r3, #32
 409              	@ 143 "../../test/testmbox.c" 1
 410 022e 83F31188 		msr     BASEPRI, r3
 411              	@ 0 "" 2
 412              		.thumb
 413              	.LBE17:
 414              		.loc 1 144 0
 415 0232 01A9     		add	r1, sp, #4
 416 0234 2046     		mov	r0, r4
 417 0236 FFF7FEFF 		bl	chMBFetchI
 418              	.LVL47:
 419              	.LBB18:
 420              		.loc 1 145 0
 421 023a 0023     		movs	r3, #0
 422              	.LBE18:
 423              		.loc 1 144 0
 424 023c 0146     		mov	r1, r0
 425              	.LVL48:
 426              	.LBB19:
 427              		.loc 1 145 0
 428              	@ 145 "../../test/testmbox.c" 1
 429 023e 83F31188 		msr     BASEPRI, r3
 430              	@ 0 "" 2
 431              		.thumb
 432              	.LBE19:
 433              		.loc 1 146 0
 434 0242 B1F1FF3C 		subs	ip, r1, #-1
 435 0246 DCF10001 		rsbs	r1, ip, #0
 436 024a 51EB0C01 		adcs	r1, r1, ip
 437 024e 1220     		movs	r0, #18
 438              	.LVL49:
 439 0250 FFF7FEFF 		bl	_test_assert
 440              	.LVL50:
 441 0254 0028     		cmp	r0, #0
 442 0256 7FF401AF 		bne	.L1
 443              	.LBB20:
 444              		.loc 1 151 0
 445 025a 2023     		movs	r3, #32
 446              	@ 151 "../../test/testmbox.c" 1
 447 025c 83F31188 		msr     BASEPRI, r3
 448              	@ 0 "" 2
 449              		.thumb
 450              	.LBE20:
 451 0260 696A     		ldr	r1, [r5, #36]
 452 0262 B1F1050E 		subs	lr, r1, #5
 453 0266 DEF10001 		rsbs	r1, lr, #0
 454 026a 4FF01300 		mov	r0, #19
 455 026e 51EB0E01 		adcs	r1, r1, lr
 456 0272 FFF7FEFF 		bl	_test_assert
ARM GAS  /tmp/ccHRGfoz.s 			page 9


 457              	.LVL51:
 458              	.LBB21:
 459 0276 0023     		movs	r3, #0
 460              	.LBE21:
 461 0278 0028     		cmp	r0, #0
 462 027a 7FF444AF 		bne	.L25
 463              	.LBB22:
 464              		.loc 1 151 0 is_stmt 0 discriminator 2
 465              	@ 151 "../../test/testmbox.c" 1
 466 027e 83F31188 		msr     BASEPRI, r3
 467              	@ 0 "" 2
 468              		.thumb
 469              	.LBE22:
 470              	.LBB23:
 471              		.loc 1 152 0 is_stmt 1 discriminator 2
 472 0282 2023     		movs	r3, #32
 473              	@ 152 "../../test/testmbox.c" 1
 474 0284 83F31188 		msr     BASEPRI, r3
 475              	@ 0 "" 2
 476              		.thumb
 477              	.LBE23:
 478 0288 A969     		ldr	r1, [r5, #24]
 479 028a D1F10101 		rsbs	r1, r1, #1
 480 028e 4FF01400 		mov	r0, #20
 481 0292 38BF     		it	cc
 482 0294 0021     		movcc	r1, #0
 483 0296 FFF7FEFF 		bl	_test_assert
 484              	.LVL52:
 485 029a 0346     		mov	r3, r0
 486 029c 0028     		cmp	r0, #0
 487 029e 7FF431AF 		bne	.L28
 488              	.LBB24:
 489              	@ 152 "../../test/testmbox.c" 1
 490 02a2 83F31188 		msr     BASEPRI, r3
 491              	@ 0 "" 2
 492              		.thumb
 493              	.LBE24:
 494              	.LBB25:
 495              		.loc 1 153 0 discriminator 2
 496 02a6 2023     		movs	r3, #32
 497              	@ 153 "../../test/testmbox.c" 1
 498 02a8 83F31188 		msr     BASEPRI, r3
 499              	@ 0 "" 2
 500              		.thumb
 501              	.LBE25:
 502 02ac E968     		ldr	r1, [r5, #12]
 503 02ae AB68     		ldr	r3, [r5, #8]
 504 02b0 CE1A     		subs	r6, r1, r3
 505 02b2 7142     		rsbs	r1, r6, #0
 506 02b4 4FF01500 		mov	r0, #21
 507 02b8 7141     		adcs	r1, r1, r6
 508 02ba FFF7FEFF 		bl	_test_assert
 509              	.LVL53:
 510 02be 0346     		mov	r3, r0
 511 02c0 0028     		cmp	r0, #0
 512 02c2 7FF41FAF 		bne	.L28
 513              	.LBB26:
ARM GAS  /tmp/ccHRGfoz.s 			page 10


 514              	@ 153 "../../test/testmbox.c" 1
 515 02c6 83F31188 		msr     BASEPRI, r3
 516              	@ 0 "" 2
 517              		.thumb
 518              	.LBE26:
 519              	.LBB27:
 520              		.loc 1 158 0 discriminator 2
 521 02ca 2023     		movs	r3, #32
 522              	@ 158 "../../test/testmbox.c" 1
 523 02cc 83F31188 		msr     BASEPRI, r3
 524              	@ 0 "" 2
 525              		.thumb
 526              	.LBE27:
 527              		.loc 1 159 0 discriminator 2
 528 02d0 4121     		movs	r1, #65
 529 02d2 7B48     		ldr	r0, .L35+4
 530 02d4 FFF7FEFF 		bl	chMBPostI
 531              	.LVL54:
 532              		.loc 1 160 0 discriminator 2
 533 02d8 D0F10101 		rsbs	r1, r0, #1
 534 02dc 38BF     		it	cc
 535 02de 0021     		movcc	r1, #0
 536 02e0 1620     		movs	r0, #22
 537              	.LVL55:
 538 02e2 FFF7FEFF 		bl	_test_assert
 539              	.LVL56:
 540 02e6 0028     		cmp	r0, #0
 541 02e8 7FF4B8AE 		bne	.L1
 542              		.loc 1 161 0
 543 02ec 4221     		movs	r1, #66
 544 02ee 7448     		ldr	r0, .L35+4
 545 02f0 FFF7FEFF 		bl	chMBPostI
 546              	.LVL57:
 547              		.loc 1 162 0
 548 02f4 D0F10101 		rsbs	r1, r0, #1
 549 02f8 38BF     		it	cc
 550 02fa 0021     		movcc	r1, #0
 551 02fc 1720     		movs	r0, #23
 552              	.LVL58:
 553 02fe FFF7FEFF 		bl	_test_assert
 554              	.LVL59:
 555 0302 0028     		cmp	r0, #0
 556 0304 7FF4AAAE 		bne	.L1
 557              		.loc 1 163 0
 558 0308 4321     		movs	r1, #67
 559 030a 6D48     		ldr	r0, .L35+4
 560 030c FFF7FEFF 		bl	chMBPostI
 561              	.LVL60:
 562              		.loc 1 164 0
 563 0310 D0F10101 		rsbs	r1, r0, #1
 564 0314 38BF     		it	cc
 565 0316 0021     		movcc	r1, #0
 566 0318 1820     		movs	r0, #24
 567              	.LVL61:
 568 031a FFF7FEFF 		bl	_test_assert
 569              	.LVL62:
 570 031e 0028     		cmp	r0, #0
ARM GAS  /tmp/ccHRGfoz.s 			page 11


 571 0320 7FF49CAE 		bne	.L1
 572              		.loc 1 165 0
 573 0324 4421     		movs	r1, #68
 574 0326 6648     		ldr	r0, .L35+4
 575 0328 FFF7FEFF 		bl	chMBPostI
 576              	.LVL63:
 577              		.loc 1 166 0
 578 032c D0F10101 		rsbs	r1, r0, #1
 579 0330 38BF     		it	cc
 580 0332 0021     		movcc	r1, #0
 581 0334 1920     		movs	r0, #25
 582              	.LVL64:
 583 0336 FFF7FEFF 		bl	_test_assert
 584              	.LVL65:
 585 033a 0446     		mov	r4, r0
 586 033c 0028     		cmp	r0, #0
 587 033e 7FF48DAE 		bne	.L1
 588              		.loc 1 167 0
 589 0342 4521     		movs	r1, #69
 590 0344 5E48     		ldr	r0, .L35+4
 591 0346 FFF7FEFF 		bl	chMBPostI
 592              	.LVL66:
 593              	.LBB28:
 594              		.loc 1 168 0
 595 034a 2346     		mov	r3, r4
 596              	.LBE28:
 597              		.loc 1 167 0
 598 034c 0146     		mov	r1, r0
 599              	.LVL67:
 600              	.LBB29:
 601              		.loc 1 168 0
 602              	@ 168 "../../test/testmbox.c" 1
 603 034e 83F31188 		msr     BASEPRI, r3
 604              	@ 0 "" 2
 605              		.thumb
 606              	.LBE29:
 607              		.loc 1 169 0
 608 0352 D1F10101 		rsbs	r1, r1, #1
 609 0356 38BF     		it	cc
 610 0358 0021     		movcc	r1, #0
 611 035a 1A20     		movs	r0, #26
 612              	.LVL68:
 613 035c FFF7FEFF 		bl	_test_assert
 614              	.LVL69:
 615 0360 0028     		cmp	r0, #0
 616 0362 7FF47BAE 		bne	.L1
 617              		.loc 1 170 0
 618 0366 E968     		ldr	r1, [r5, #12]
 619 0368 AB68     		ldr	r3, [r5, #8]
 620 036a CC1A     		subs	r4, r1, r3
 621 036c 6142     		rsbs	r1, r4, #0
 622 036e 6141     		adcs	r1, r1, r4
 623 0370 1B20     		movs	r0, #27
 624 0372 FFF7FEFF 		bl	_test_assert
 625              	.LVL70:
 626 0376 0028     		cmp	r0, #0
 627 0378 7FF470AE 		bne	.L1
ARM GAS  /tmp/ccHRGfoz.s 			page 12


 628 037c 0524     		movs	r4, #5
 629              	.L15:
 630              	.LVL71:
 631              	.LBB30:
 632              		.loc 1 172 0
 633 037e 2023     		movs	r3, #32
 634              	@ 172 "../../test/testmbox.c" 1
 635 0380 83F31188 		msr     BASEPRI, r3
 636              	@ 0 "" 2
 637              		.thumb
 638              	.LBE30:
 639              		.loc 1 173 0
 640 0384 4E48     		ldr	r0, .L35+4
 641 0386 01A9     		add	r1, sp, #4
 642 0388 FFF7FEFF 		bl	chMBFetchI
 643              	.LVL72:
 644              	.LBB31:
 645              		.loc 1 174 0
 646 038c 0023     		movs	r3, #0
 647              	.LBE31:
 648              		.loc 1 173 0
 649 038e 0146     		mov	r1, r0
 650              	.LVL73:
 651              	.LBB32:
 652              		.loc 1 174 0
 653              	@ 174 "../../test/testmbox.c" 1
 654 0390 83F31188 		msr     BASEPRI, r3
 655              	@ 0 "" 2
 656              		.thumb
 657              	.LBE32:
 658              		.loc 1 175 0
 659 0394 D1F10101 		rsbs	r1, r1, #1
 660 0398 38BF     		it	cc
 661 039a 0021     		movcc	r1, #0
 662 039c 1C20     		movs	r0, #28
 663              	.LVL74:
 664 039e FFF7FEFF 		bl	_test_assert
 665              	.LVL75:
 666 03a2 0028     		cmp	r0, #0
 667 03a4 7FF45AAE 		bne	.L1
 668              		.loc 1 176 0
 669 03a8 9DF80400 		ldrb	r0, [sp, #4]	@ zero_extendqisi2
 670 03ac FFF7FEFF 		bl	test_emit_token
 671              	.LVL76:
 672              		.loc 1 171 0
 673 03b0 013C     		subs	r4, r4, #1
 674              	.LVL77:
 675 03b2 E4D1     		bne	.L15
 676              		.loc 1 178 0
 677 03b4 1D20     		movs	r0, #29
 678 03b6 4149     		ldr	r1, .L35
 679 03b8 FFF7FEFF 		bl	_test_assert_sequence
 680              	.LVL78:
 681 03bc 0028     		cmp	r0, #0
 682 03be 7FF44DAE 		bne	.L1
 683              	.LBB33:
 684              		.loc 1 179 0
ARM GAS  /tmp/ccHRGfoz.s 			page 13


 685 03c2 2023     		movs	r3, #32
 686              	@ 179 "../../test/testmbox.c" 1
 687 03c4 83F31188 		msr     BASEPRI, r3
 688              	@ 0 "" 2
 689              		.thumb
 690              	.LBE33:
 691 03c8 696A     		ldr	r1, [r5, #36]
 692 03ca 4A1F     		subs	r2, r1, #5
 693 03cc 5142     		rsbs	r1, r2, #0
 694 03ce 4FF01E00 		mov	r0, #30
 695 03d2 5141     		adcs	r1, r1, r2
 696 03d4 FFF7FEFF 		bl	_test_assert
 697              	.LVL79:
 698 03d8 0346     		mov	r3, r0
 699 03da 0028     		cmp	r0, #0
 700 03dc 7FF492AE 		bne	.L28
 701              	.LBB34:
 702              		.loc 1 179 0 is_stmt 0 discriminator 2
 703              	@ 179 "../../test/testmbox.c" 1
 704 03e0 83F31188 		msr     BASEPRI, r3
 705              	@ 0 "" 2
 706              		.thumb
 707              	.LBE34:
 708              	.LBB35:
 709              		.loc 1 180 0 is_stmt 1 discriminator 2
 710 03e4 2023     		movs	r3, #32
 711              	@ 180 "../../test/testmbox.c" 1
 712 03e6 83F31188 		msr     BASEPRI, r3
 713              	@ 0 "" 2
 714              		.thumb
 715              	.LBE35:
 716 03ea A969     		ldr	r1, [r5, #24]
 717 03ec D1F10101 		rsbs	r1, r1, #1
 718 03f0 4FF01F00 		mov	r0, #31
 719 03f4 38BF     		it	cc
 720 03f6 0021     		movcc	r1, #0
 721 03f8 FFF7FEFF 		bl	_test_assert
 722              	.LVL80:
 723 03fc 0346     		mov	r3, r0
 724 03fe 0028     		cmp	r0, #0
 725 0400 7FF480AE 		bne	.L28
 726              	.LBB36:
 727              	@ 180 "../../test/testmbox.c" 1
 728 0404 83F31188 		msr     BASEPRI, r3
 729              	@ 0 "" 2
 730              		.thumb
 731              	.LBE36:
 732              		.loc 1 181 0 discriminator 2
 733 0408 E968     		ldr	r1, [r5, #12]
 734 040a AB68     		ldr	r3, [r5, #8]
 735 040c CB1A     		subs	r3, r1, r3
 736 040e 5942     		rsbs	r1, r3, #0
 737 0410 5941     		adcs	r1, r1, r3
 738 0412 2020     		movs	r0, #32
 739 0414 FFF7FEFF 		bl	_test_assert
 740              	.LVL81:
 741 0418 0028     		cmp	r0, #0
ARM GAS  /tmp/ccHRGfoz.s 			page 14


 742 041a 7FF41FAE 		bne	.L1
 743              	.LBB37:
 744              		.loc 1 183 0
 745 041e 2023     		movs	r3, #32
 746              	@ 183 "../../test/testmbox.c" 1
 747 0420 83F31188 		msr     BASEPRI, r3
 748              	@ 0 "" 2
 749              		.thumb
 750              	.LBE37:
 751              		.loc 1 184 0
 752 0424 4521     		movs	r1, #69
 753 0426 2648     		ldr	r0, .L35+4
 754 0428 FFF7FEFF 		bl	chMBPostAheadI
 755              	.LVL82:
 756              		.loc 1 185 0
 757 042c D0F10101 		rsbs	r1, r0, #1
 758 0430 38BF     		it	cc
 759 0432 0021     		movcc	r1, #0
 760 0434 2120     		movs	r0, #33
 761              	.LVL83:
 762 0436 FFF7FEFF 		bl	_test_assert
 763              	.LVL84:
 764 043a 0028     		cmp	r0, #0
 765 043c 7FF40EAE 		bne	.L1
 766              		.loc 1 186 0
 767 0440 4421     		movs	r1, #68
 768 0442 1F48     		ldr	r0, .L35+4
 769 0444 FFF7FEFF 		bl	chMBPostAheadI
 770              	.LVL85:
 771              		.loc 1 187 0
 772 0448 D0F10101 		rsbs	r1, r0, #1
 773 044c 38BF     		it	cc
 774 044e 0021     		movcc	r1, #0
 775 0450 2220     		movs	r0, #34
 776              	.LVL86:
 777 0452 FFF7FEFF 		bl	_test_assert
 778              	.LVL87:
 779 0456 0028     		cmp	r0, #0
 780 0458 7FF400AE 		bne	.L1
 781              		.loc 1 188 0
 782 045c 4321     		movs	r1, #67
 783 045e 1848     		ldr	r0, .L35+4
 784 0460 FFF7FEFF 		bl	chMBPostAheadI
 785              	.LVL88:
 786              		.loc 1 189 0
 787 0464 D0F10101 		rsbs	r1, r0, #1
 788 0468 38BF     		it	cc
 789 046a 0021     		movcc	r1, #0
 790 046c 2320     		movs	r0, #35
 791              	.LVL89:
 792 046e FFF7FEFF 		bl	_test_assert
 793              	.LVL90:
 794 0472 0028     		cmp	r0, #0
 795 0474 7FF4F2AD 		bne	.L1
 796              		.loc 1 190 0
 797 0478 4221     		movs	r1, #66
 798 047a 1148     		ldr	r0, .L35+4
ARM GAS  /tmp/ccHRGfoz.s 			page 15


 799 047c FFF7FEFF 		bl	chMBPostAheadI
 800              	.LVL91:
 801              		.loc 1 191 0
 802 0480 D0F10101 		rsbs	r1, r0, #1
 803 0484 38BF     		it	cc
 804 0486 0021     		movcc	r1, #0
 805 0488 2420     		movs	r0, #36
 806              	.LVL92:
 807 048a FFF7FEFF 		bl	_test_assert
 808              	.LVL93:
 809 048e 0028     		cmp	r0, #0
 810 0490 7FF4E4AD 		bne	.L1
 811              		.loc 1 192 0
 812 0494 4121     		movs	r1, #65
 813 0496 0A48     		ldr	r0, .L35+4
 814 0498 FFF7FEFF 		bl	chMBPostAheadI
 815              	.LVL94:
 816              	.LBB38:
 817              		.loc 1 193 0
 818 049c 0023     		movs	r3, #0
 819              	.LBE38:
 820              		.loc 1 192 0
 821 049e 0146     		mov	r1, r0
 822              	.LVL95:
 823              	.LBB39:
 824              		.loc 1 193 0
 825              	@ 193 "../../test/testmbox.c" 1
 826 04a0 83F31188 		msr     BASEPRI, r3
 827              	@ 0 "" 2
 828              		.thumb
 829              	.LBE39:
 830              		.loc 1 194 0
 831 04a4 D1F10101 		rsbs	r1, r1, #1
 832 04a8 38BF     		it	cc
 833 04aa 0021     		movcc	r1, #0
 834 04ac 2520     		movs	r0, #37
 835              	.LVL96:
 836 04ae FFF7FEFF 		bl	_test_assert
 837              	.LVL97:
 838 04b2 0028     		cmp	r0, #0
 839 04b4 7FF4D2AD 		bne	.L1
 840 04b8 04E0     		b	.L36
 841              	.L37:
 842 04ba 00BF     		.align	2
 843              	.L35:
 844 04bc 00000000 		.word	.LC0
 845 04c0 00000000 		.word	.LANCHOR0
 846              	.L36:
 847              		.loc 1 195 0
 848 04c4 E968     		ldr	r1, [r5, #12]
 849 04c6 AB68     		ldr	r3, [r5, #8]
 850 04c8 B1EB030C 		subs	ip, r1, r3
 851 04cc DCF10001 		rsbs	r1, ip, #0
 852 04d0 51EB0C01 		adcs	r1, r1, ip
 853 04d4 2620     		movs	r0, #38
 854 04d6 FFF7FEFF 		bl	_test_assert
 855              	.LVL98:
ARM GAS  /tmp/ccHRGfoz.s 			page 16


 856 04da 0028     		cmp	r0, #0
 857 04dc 7FF4BEAD 		bne	.L1
 858 04e0 0524     		movs	r4, #5
 859              	.LVL99:
 860              	.L19:
 861              	.LBB40:
 862              		.loc 1 197 0
 863 04e2 2023     		movs	r3, #32
 864              	@ 197 "../../test/testmbox.c" 1
 865 04e4 83F31188 		msr     BASEPRI, r3
 866              	@ 0 "" 2
 867              		.thumb
 868              	.LBE40:
 869              		.loc 1 198 0
 870 04e8 4948     		ldr	r0, .L38
 871 04ea 01A9     		add	r1, sp, #4
 872 04ec FFF7FEFF 		bl	chMBFetchI
 873              	.LVL100:
 874              	.LBB41:
 875              		.loc 1 199 0
 876 04f0 0023     		movs	r3, #0
 877              	.LBE41:
 878              		.loc 1 198 0
 879 04f2 0146     		mov	r1, r0
 880              	.LVL101:
 881              	.LBB42:
 882              		.loc 1 199 0
 883              	@ 199 "../../test/testmbox.c" 1
 884 04f4 83F31188 		msr     BASEPRI, r3
 885              	@ 0 "" 2
 886              		.thumb
 887              	.LBE42:
 888              		.loc 1 200 0
 889 04f8 D1F10101 		rsbs	r1, r1, #1
 890 04fc 38BF     		it	cc
 891 04fe 0021     		movcc	r1, #0
 892 0500 2720     		movs	r0, #39
 893              	.LVL102:
 894 0502 FFF7FEFF 		bl	_test_assert
 895              	.LVL103:
 896 0506 0028     		cmp	r0, #0
 897 0508 7FF4A8AD 		bne	.L1
 898              		.loc 1 201 0
 899 050c 9DF80400 		ldrb	r0, [sp, #4]	@ zero_extendqisi2
 900 0510 FFF7FEFF 		bl	test_emit_token
 901              	.LVL104:
 902              		.loc 1 196 0
 903 0514 013C     		subs	r4, r4, #1
 904              	.LVL105:
 905 0516 E4D1     		bne	.L19
 906              		.loc 1 203 0
 907 0518 2820     		movs	r0, #40
 908 051a 3E49     		ldr	r1, .L38+4
 909 051c FFF7FEFF 		bl	_test_assert_sequence
 910              	.LVL106:
 911 0520 0028     		cmp	r0, #0
 912 0522 7FF49BAD 		bne	.L1
ARM GAS  /tmp/ccHRGfoz.s 			page 17


 913              	.LBB43:
 914              		.loc 1 204 0
 915 0526 2023     		movs	r3, #32
 916              	@ 204 "../../test/testmbox.c" 1
 917 0528 83F31188 		msr     BASEPRI, r3
 918              	@ 0 "" 2
 919              		.thumb
 920              	.LBE43:
 921 052c 696A     		ldr	r1, [r5, #36]
 922 052e B1F1050E 		subs	lr, r1, #5
 923 0532 DEF10001 		rsbs	r1, lr, #0
 924 0536 4FF02900 		mov	r0, #41
 925 053a 51EB0E01 		adcs	r1, r1, lr
 926 053e FFF7FEFF 		bl	_test_assert
 927              	.LVL107:
 928 0542 0346     		mov	r3, r0
 929 0544 0028     		cmp	r0, #0
 930 0546 7FF4DDAD 		bne	.L28
 931              	.LBB44:
 932              		.loc 1 204 0 is_stmt 0 discriminator 2
 933              	@ 204 "../../test/testmbox.c" 1
 934 054a 83F31188 		msr     BASEPRI, r3
 935              	@ 0 "" 2
 936              		.thumb
 937              	.LBE44:
 938              	.LBB45:
 939              		.loc 1 205 0 is_stmt 1 discriminator 2
 940 054e 2023     		movs	r3, #32
 941              	@ 205 "../../test/testmbox.c" 1
 942 0550 83F31188 		msr     BASEPRI, r3
 943              	@ 0 "" 2
 944              		.thumb
 945              	.LBE45:
 946 0554 A969     		ldr	r1, [r5, #24]
 947 0556 D1F10101 		rsbs	r1, r1, #1
 948 055a 4FF02A00 		mov	r0, #42
 949 055e 38BF     		it	cc
 950 0560 0021     		movcc	r1, #0
 951 0562 FFF7FEFF 		bl	_test_assert
 952              	.LVL108:
 953 0566 0346     		mov	r3, r0
 954 0568 0028     		cmp	r0, #0
 955 056a 7FF4CBAD 		bne	.L28
 956              	.LBB46:
 957              	@ 205 "../../test/testmbox.c" 1
 958 056e 83F31188 		msr     BASEPRI, r3
 959              	@ 0 "" 2
 960              		.thumb
 961              	.LBE46:
 962              		.loc 1 206 0 discriminator 2
 963 0572 E968     		ldr	r1, [r5, #12]
 964 0574 AB68     		ldr	r3, [r5, #8]
 965 0576 CE1A     		subs	r6, r1, r3
 966 0578 7142     		rsbs	r1, r6, #0
 967 057a 7141     		adcs	r1, r1, r6
 968 057c 2B20     		movs	r0, #43
 969 057e FFF7FEFF 		bl	_test_assert
ARM GAS  /tmp/ccHRGfoz.s 			page 18


 970              	.LVL109:
 971 0582 0028     		cmp	r0, #0
 972 0584 7FF46AAD 		bne	.L1
 973              		.loc 1 211 0
 974 0588 2148     		ldr	r0, .L38
 975 058a FFF7FEFF 		bl	chMBReset
 976              	.LVL110:
 977              	.LBB47:
 978              		.loc 1 216 0
 979 058e 2023     		movs	r3, #32
 980              	@ 216 "../../test/testmbox.c" 1
 981 0590 83F31188 		msr     BASEPRI, r3
 982              	@ 0 "" 2
 983              		.thumb
 984              	.LBE47:
 985 0594 696A     		ldr	r1, [r5, #36]
 986 0596 4C1F     		subs	r4, r1, #5
 987              	.LVL111:
 988 0598 6142     		rsbs	r1, r4, #0
 989 059a 4FF02C00 		mov	r0, #44
 990 059e 6141     		adcs	r1, r1, r4
 991 05a0 FFF7FEFF 		bl	_test_assert
 992              	.LVL112:
 993 05a4 0346     		mov	r3, r0
 994 05a6 0028     		cmp	r0, #0
 995 05a8 7FF4ACAD 		bne	.L28
 996              	.LBB48:
 997              		.loc 1 216 0 is_stmt 0 discriminator 2
 998              	@ 216 "../../test/testmbox.c" 1
 999 05ac 83F31188 		msr     BASEPRI, r3
 1000              	@ 0 "" 2
 1001              		.thumb
 1002              	.LBE48:
 1003              	.LBB49:
 1004              		.loc 1 217 0 is_stmt 1 discriminator 2
 1005 05b0 2023     		movs	r3, #32
 1006              	@ 217 "../../test/testmbox.c" 1
 1007 05b2 83F31188 		msr     BASEPRI, r3
 1008              	@ 0 "" 2
 1009              		.thumb
 1010              	.LBE49:
 1011 05b6 A969     		ldr	r1, [r5, #24]
 1012 05b8 D1F10101 		rsbs	r1, r1, #1
 1013 05bc 4FF02D00 		mov	r0, #45
 1014 05c0 38BF     		it	cc
 1015 05c2 0021     		movcc	r1, #0
 1016 05c4 FFF7FEFF 		bl	_test_assert
 1017              	.LVL113:
 1018 05c8 0346     		mov	r3, r0
 1019 05ca 0028     		cmp	r0, #0
 1020 05cc 7FF49AAD 		bne	.L28
 1021              	.LBB50:
 1022              	@ 217 "../../test/testmbox.c" 1
 1023 05d0 83F31188 		msr     BASEPRI, r3
 1024              	@ 0 "" 2
 1025              		.thumb
 1026              	.LBE50:
ARM GAS  /tmp/ccHRGfoz.s 			page 19


 1027              	.LBB51:
 1028              		.loc 1 218 0 discriminator 2
 1029 05d4 2023     		movs	r3, #32
 1030              	@ 218 "../../test/testmbox.c" 1
 1031 05d6 83F31188 		msr     BASEPRI, r3
 1032              	@ 0 "" 2
 1033              		.thumb
 1034              	.LBE51:
 1035 05da 2968     		ldr	r1, [r5]
 1036 05dc AB68     		ldr	r3, [r5, #8]
 1037 05de CA1A     		subs	r2, r1, r3
 1038 05e0 5142     		rsbs	r1, r2, #0
 1039 05e2 4FF02E00 		mov	r0, #46
 1040 05e6 5141     		adcs	r1, r1, r2
 1041 05e8 FFF7FEFF 		bl	_test_assert
 1042              	.LVL114:
 1043 05ec 0346     		mov	r3, r0
 1044 05ee 0028     		cmp	r0, #0
 1045 05f0 7FF488AD 		bne	.L28
 1046              	.LBB52:
 1047              	@ 218 "../../test/testmbox.c" 1
 1048 05f4 83F31188 		msr     BASEPRI, r3
 1049              	@ 0 "" 2
 1050              		.thumb
 1051              	.LBE52:
 1052              	.LBB53:
 1053              		.loc 1 219 0 discriminator 2
 1054 05f8 2023     		movs	r3, #32
 1055              	@ 219 "../../test/testmbox.c" 1
 1056 05fa 83F31188 		msr     BASEPRI, r3
 1057              	@ 0 "" 2
 1058              		.thumb
 1059              	.LBE53:
 1060 05fe 2968     		ldr	r1, [r5]
 1061 0600 EB68     		ldr	r3, [r5, #12]
 1062 0602 CB1A     		subs	r3, r1, r3
 1063 0604 5942     		rsbs	r1, r3, #0
 1064 0606 5941     		adcs	r1, r1, r3
 1065 0608 2F20     		movs	r0, #47
 1066 060a FFF7FEFF 		bl	_test_assert
 1067              	.LVL115:
 1068 060e 79E5     		b	.L28
 1069              	.L39:
 1070              		.align	2
 1071              	.L38:
 1072 0610 00000000 		.word	.LANCHOR0
 1073 0614 00000000 		.word	.LC0
 1074              		.cfi_endproc
 1075              	.LFE8:
 1076              		.size	mbox1_execute, .-mbox1_execute
 1077 0618 AFF30080 		.section	.text.mbox1_setup,"ax",%progbits
 1077      AFF30080 
 1078              		.align	2
 1079              		.p2align 4,,15
 1080              		.thumb
 1081              		.thumb_func
 1082              		.type	mbox1_setup, %function
ARM GAS  /tmp/ccHRGfoz.s 			page 20


 1083              	mbox1_setup:
 1084              	.LFB7:
 1085              		.loc 1 71 0
 1086              		.cfi_startproc
 1087              		@ args = 0, pretend = 0, frame = 0
 1088              		@ frame_needed = 0, uses_anonymous_args = 0
 1089              		@ link register save eliminated.
 1090              		.loc 1 73 0
 1091 0000 0248     		ldr	r0, .L41
 1092 0002 0349     		ldr	r1, .L41+4
 1093 0004 0522     		movs	r2, #5
 1094 0006 FFF7FEBF 		b	chMBInit
 1095              	.LVL116:
 1096              	.L42:
 1097 000a 00BF     		.align	2
 1098              	.L41:
 1099 000c 00000000 		.word	.LANCHOR0
 1100 0010 00000000 		.word	test
 1101              		.cfi_endproc
 1102              	.LFE7:
 1103              		.size	mbox1_setup, .-mbox1_setup
 1104              		.global	patternmbox
 1105              		.global	testmbox1
 1106 0014 AFF30080 		.section	.data.mb1,"aw",%progbits
 1106      AFF30080 
 1106      AFF30080 
 1107              		.align	2
 1108              		.set	.LANCHOR0,. + 0
 1109              		.type	mb1, %object
 1110              		.size	mb1, 40
 1111              	mb1:
 1112 0000 00000000 		.word	test
 1113 0004 14000000 		.word	test+20
 1114 0008 00000000 		.word	test
 1115 000c 00000000 		.word	test
 1116 0010 10000000 		.word	mb1+16
 1117 0014 10000000 		.word	mb1+16
 1118 0018 00000000 		.word	0
 1119 001c 1C000000 		.word	mb1+28
 1120 0020 1C000000 		.word	mb1+28
 1121 0024 05000000 		.word	5
 1122              		.section	.rodata.patternmbox,"a",%progbits
 1123              		.align	2
 1124              		.type	patternmbox, %object
 1125              		.size	patternmbox, 8
 1126              	patternmbox:
 1127 0000 00000000 		.word	testmbox1
 1128 0004 00000000 		.word	0
 1129              		.section	.rodata.str1.4,"aMS",%progbits,1
 1130              		.align	2
 1131              	.LC0:
 1132 0000 41424344 		.ascii	"ABCDE\000"
 1132      4500
 1133 0006 0000     		.space	2
 1134              	.LC1:
 1135 0008 4D61696C 		.ascii	"Mailboxes, queuing and timeouts\000"
 1135      626F7865 
ARM GAS  /tmp/ccHRGfoz.s 			page 21


 1135      732C2071 
 1135      75657569 
 1135      6E672061 
 1136              		.section	.rodata.testmbox1,"a",%progbits
 1137              		.align	2
 1138              		.type	testmbox1, %object
 1139              		.size	testmbox1, 16
 1140              	testmbox1:
 1141 0000 08000000 		.word	.LC1
 1142 0004 00000000 		.word	mbox1_setup
 1143 0008 00000000 		.word	0
 1144 000c 00000000 		.word	mbox1_execute
 1145              		.text
 1146              	.Letext0:
 1147              		.file 2 "/usr/arm-none-eabi/include/stdint.h"
 1148              		.file 3 "../../os/ports/GCC/ARMCMx/chtypes.h"
 1149              		.file 4 "../../os/kernel/include/chlists.h"
 1150              		.file 5 "../../os/kernel/include/chthreads.h"
 1151              		.file 6 "../../os/ports/GCC/ARMCMx/chcore_v7m.h"
 1152              		.file 7 "../../os/kernel/include/chsem.h"
 1153              		.file 8 "../../os/kernel/include/chmtx.h"
 1154              		.file 9 "../../os/kernel/include/chmboxes.h"
 1155              		.file 10 "../../test/test.h"