ARM GAS  /tmp/cceoWx8L.s 			page 1


   1              		.syntax unified
   2              		.cpu cortex-m4
   3              		.fpu softvfp
   4              		.eabi_attribute 20, 1
   5              		.eabi_attribute 21, 1
   6              		.eabi_attribute 23, 3
   7              		.eabi_attribute 24, 1
   8              		.eabi_attribute 25, 1
   9              		.eabi_attribute 26, 1
  10              		.eabi_attribute 30, 2
  11              		.eabi_attribute 34, 1
  12              		.eabi_attribute 18, 4
  13              		.thumb
  14              		.file	"testdyn.c"
  15              		.text
  16              	.Ltext0:
  17              		.cfi_sections	.debug_frame
  18              		.section	.text.dyn1_execute,"ax",%progbits
  19              		.align	2
  20              		.p2align 4,,15
  21              		.thumb
  22              		.thumb_func
  23              		.type	dyn1_execute, %function
  24              	dyn1_execute:
  25              	.LFB9:
  26              		.file 1 "../../test/testdyn.c"
  27              		.loc 1 83 0
  28              		.cfi_startproc
  29              		@ args = 0, pretend = 0, frame = 8
  30              		@ frame_needed = 0, uses_anonymous_args = 0
  31 0000 70B5     		push	{r4, r5, r6, lr}
  32              		.cfi_def_cfa_offset 16
  33              		.cfi_offset 4, -16
  34              		.cfi_offset 5, -12
  35              		.cfi_offset 6, -8
  36              		.cfi_offset 14, -4
  37              		.loc 1 86 0
  38 0002 334B     		ldr	r3, .L12
  39              		.loc 1 88 0
  40 0004 3348     		ldr	r0, .L12+4
  41              		.loc 1 86 0
  42 0006 9B69     		ldr	r3, [r3, #24]
  43              		.loc 1 90 0
  44 0008 334C     		ldr	r4, .L12+8
  45              		.loc 1 86 0
  46 000a 9D68     		ldr	r5, [r3, #8]
  47              	.LVL0:
  48              		.loc 1 83 0
  49 000c 84B0     		sub	sp, sp, #16
  50              		.cfi_def_cfa_offset 32
  51              		.loc 1 88 0
  52 000e 03A9     		add	r1, sp, #12
  53 0010 FFF7FEFF 		bl	chHeapStatus
  54              	.LVL1:
  55              		.loc 1 90 0
  56 0014 314B     		ldr	r3, .L12+12
  57 0016 0093     		str	r3, [sp]
ARM GAS  /tmp/cceoWx8L.s 			page 2


  58 0018 6A1E     		subs	r2, r5, #1
  59 001a 314B     		ldr	r3, .L12+16
  60 001c 2D48     		ldr	r0, .L12+4
  61 001e 4FF49871 		mov	r1, #304
  62 0022 FFF7FEFF 		bl	chThdCreateFromHeap
  63              	.LVL2:
  64              		.loc 1 92 0
  65 0026 2F4B     		ldr	r3, .L12+20
  66              		.loc 1 90 0
  67 0028 2060     		str	r0, [r4]
  68              		.loc 1 92 0
  69 002a AA1E     		subs	r2, r5, #2
  70 002c 0093     		str	r3, [sp]
  71 002e 4FF49871 		mov	r1, #304
  72 0032 2B4B     		ldr	r3, .L12+16
  73 0034 2748     		ldr	r0, .L12+4
  74 0036 FFF7FEFF 		bl	chThdCreateFromHeap
  75              	.LVL3:
  76              		.loc 1 95 0
  77 003a 02A9     		add	r1, sp, #8
  78              		.loc 1 92 0
  79 003c 6060     		str	r0, [r4, #4]
  80              		.loc 1 95 0
  81 003e 2548     		ldr	r0, .L12+4
  82 0040 FFF7FEFF 		bl	chHeapStatus
  83              	.LVL4:
  84              		.loc 1 96 0
  85 0044 0299     		ldr	r1, [sp, #8]
  86 0046 2348     		ldr	r0, .L12+4
  87 0048 FFF7FEFF 		bl	chHeapAlloc
  88              	.LVL5:
  89              		.loc 1 97 0
  90 004c 264B     		ldr	r3, .L12+24
  91 004e 0093     		str	r3, [sp]
  92 0050 4FF49871 		mov	r1, #304
  93              		.loc 1 96 0
  94 0054 0646     		mov	r6, r0
  95              	.LVL6:
  96              		.loc 1 97 0
  97 0056 EA1E     		subs	r2, r5, #3
  98 0058 214B     		ldr	r3, .L12+16
  99 005a 1E48     		ldr	r0, .L12+4
 100              	.LVL7:
 101 005c FFF7FEFF 		bl	chThdCreateFromHeap
 102              	.LVL8:
 103 0060 A060     		str	r0, [r4, #8]
 104              		.loc 1 99 0
 105 0062 3046     		mov	r0, r6
 106 0064 FFF7FEFF 		bl	chHeapFree
 107              	.LVL9:
 108              		.loc 1 101 0
 109 0068 2168     		ldr	r1, [r4]
 110 006a 21B1     		cbz	r1, .L2
 111              		.loc 1 101 0 is_stmt 0 discriminator 1
 112 006c 6168     		ldr	r1, [r4, #4]
 113 006e 11B1     		cbz	r1, .L2
 114 0070 A168     		ldr	r1, [r4, #8]
ARM GAS  /tmp/cceoWx8L.s 			page 3


 115 0072 19B3     		cbz	r1, .L10
 116 0074 0021     		movs	r1, #0
 117              	.L2:
 118              		.loc 1 101 0 discriminator 4
 119 0076 0120     		movs	r0, #1
 120 0078 FFF7FEFF 		bl	_test_assert
 121              	.LVL10:
 122 007c 08B1     		cbz	r0, .L11
 123              	.L1:
 124              		.loc 1 115 0 is_stmt 1
 125 007e 04B0     		add	sp, sp, #16
 126              		@ sp needed
 127 0080 70BD     		pop	{r4, r5, r6, pc}
 128              	.LVL11:
 129              	.L11:
 130              		.loc 1 109 0
 131 0082 FFF7FEFF 		bl	test_wait_threads
 132              	.LVL12:
 133              		.loc 1 110 0
 134 0086 0220     		movs	r0, #2
 135 0088 1849     		ldr	r1, .L12+28
 136 008a FFF7FEFF 		bl	_test_assert_sequence
 137              	.LVL13:
 138 008e 0028     		cmp	r0, #0
 139 0090 F5D1     		bne	.L1
 140              		.loc 1 113 0
 141 0092 02A9     		add	r1, sp, #8
 142 0094 0F48     		ldr	r0, .L12+4
 143 0096 FFF7FEFF 		bl	chHeapStatus
 144              	.LVL14:
 145 009a 421E     		subs	r2, r0, #1
 146 009c 5142     		rsbs	r1, r2, #0
 147 009e 5141     		adcs	r1, r1, r2
 148 00a0 0320     		movs	r0, #3
 149 00a2 FFF7FEFF 		bl	_test_assert
 150              	.LVL15:
 151 00a6 0028     		cmp	r0, #0
 152 00a8 E9D1     		bne	.L1
 153              		.loc 1 114 0
 154 00aa 0299     		ldr	r1, [sp, #8]
 155 00ac 039B     		ldr	r3, [sp, #12]
 156 00ae CB1A     		subs	r3, r1, r3
 157 00b0 5942     		rsbs	r1, r3, #0
 158 00b2 5941     		adcs	r1, r1, r3
 159 00b4 0420     		movs	r0, #4
 160 00b6 FFF7FEFF 		bl	_test_assert
 161              	.LVL16:
 162 00ba E0E7     		b	.L1
 163              	.L10:
 164              		.loc 1 101 0 discriminator 1
 165 00bc E368     		ldr	r3, [r4, #12]
 166 00be 002B     		cmp	r3, #0
 167 00c0 D9D1     		bne	.L2
 168 00c2 2169     		ldr	r1, [r4, #16]
 169 00c4 D1F10101 		rsbs	r1, r1, #1
 170 00c8 38BF     		it	cc
 171 00ca 0021     		movcc	r1, #0
ARM GAS  /tmp/cceoWx8L.s 			page 4


 172 00cc D3E7     		b	.L2
 173              	.L13:
 174 00ce 00BF     		.align	2
 175              	.L12:
 176 00d0 00000000 		.word	rlist
 177 00d4 00000000 		.word	.LANCHOR0
 178 00d8 00000000 		.word	threads
 179 00dc 00000000 		.word	.LC0
 180 00e0 00000000 		.word	thread
 181 00e4 04000000 		.word	.LC1
 182 00e8 08000000 		.word	.LC2
 183 00ec 0C000000 		.word	.LC3
 184              		.cfi_endproc
 185              	.LFE9:
 186              		.size	dyn1_execute, .-dyn1_execute
 187              		.section	.text.thread,"ax",%progbits
 188              		.align	2
 189              		.p2align 4,,15
 190              		.thumb
 191              		.thumb_func
 192              		.type	thread, %function
 193              	thread:
 194              	.LFB7:
 195              		.loc 1 71 0
 196              		.cfi_startproc
 197              		@ args = 0, pretend = 0, frame = 0
 198              		@ frame_needed = 0, uses_anonymous_args = 0
 199              	.LVL17:
 200 0000 08B5     		push	{r3, lr}
 201              		.cfi_def_cfa_offset 8
 202              		.cfi_offset 3, -8
 203              		.cfi_offset 14, -4
 204              		.loc 1 73 0
 205 0002 0078     		ldrb	r0, [r0]	@ zero_extendqisi2
 206              	.LVL18:
 207 0004 FFF7FEFF 		bl	test_emit_token
 208              	.LVL19:
 209              		.loc 1 75 0
 210 0008 0020     		movs	r0, #0
 211 000a 08BD     		pop	{r3, pc}
 212              		.cfi_endproc
 213              	.LFE7:
 214              		.size	thread, .-thread
 215 000c AFF30080 		.section	.text.dyn1_setup,"ax",%progbits
 216              		.align	2
 217              		.p2align 4,,15
 218              		.thumb
 219              		.thumb_func
 220              		.type	dyn1_setup, %function
 221              	dyn1_setup:
 222              	.LFB8:
 223              		.loc 1 78 0
 224              		.cfi_startproc
 225              		@ args = 0, pretend = 0, frame = 0
 226              		@ frame_needed = 0, uses_anonymous_args = 0
 227              		@ link register save eliminated.
 228              		.loc 1 80 0
ARM GAS  /tmp/cceoWx8L.s 			page 5


 229 0000 0248     		ldr	r0, .L16
 230 0002 0349     		ldr	r1, .L16+4
 231 0004 4FF4BE62 		mov	r2, #1520
 232 0008 FFF7FEBF 		b	chHeapInit
 233              	.LVL20:
 234              	.L17:
 235              		.align	2
 236              	.L16:
 237 000c 00000000 		.word	.LANCHOR0
 238 0010 00000000 		.word	test
 239              		.cfi_endproc
 240              	.LFE8:
 241              		.size	dyn1_setup, .-dyn1_setup
 242 0014 AFF30080 		.section	.text.dyn3_setup,"ax",%progbits
 242      AFF30080 
 242      AFF30080 
 243              		.align	2
 244              		.p2align 4,,15
 245              		.thumb
 246              		.thumb_func
 247              		.type	dyn3_setup, %function
 248              	dyn3_setup:
 249              	.LFB13:
 250              		.loc 1 203 0
 251              		.cfi_startproc
 252              		@ args = 0, pretend = 0, frame = 0
 253              		@ frame_needed = 0, uses_anonymous_args = 0
 254              		@ link register save eliminated.
 255              		.loc 1 205 0
 256 0000 0248     		ldr	r0, .L19
 257 0002 0349     		ldr	r1, .L19+4
 258 0004 4FF4BE62 		mov	r2, #1520
 259 0008 FFF7FEBF 		b	chHeapInit
 260              	.LVL21:
 261              	.L20:
 262              		.align	2
 263              	.L19:
 264 000c 00000000 		.word	.LANCHOR0
 265 0010 00000000 		.word	test
 266              		.cfi_endproc
 267              	.LFE13:
 268              		.size	dyn3_setup, .-dyn3_setup
 269 0014 AFF30080 		.section	.text.dyn2_execute,"ax",%progbits
 269      AFF30080 
 269      AFF30080 
 270              		.align	2
 271              		.p2align 4,,15
 272              		.thumb
 273              		.thumb_func
 274              		.type	dyn2_execute, %function
 275              	dyn2_execute:
 276              	.LFB11:
 277              		.loc 1 141 0
 278              		.cfi_startproc
 279              		@ args = 0, pretend = 0, frame = 0
 280              		@ frame_needed = 0, uses_anonymous_args = 0
 281              		.loc 1 143 0
ARM GAS  /tmp/cceoWx8L.s 			page 6


 282 0000 324B     		ldr	r3, .L35
 283 0002 9B69     		ldr	r3, [r3, #24]
 284              		.loc 1 141 0
 285 0004 70B5     		push	{r4, r5, r6, lr}
 286              		.cfi_def_cfa_offset 16
 287              		.cfi_offset 4, -16
 288              		.cfi_offset 5, -12
 289              		.cfi_offset 6, -8
 290              		.cfi_offset 14, -4
 291 0006 324C     		ldr	r4, .L35+4
 292              		.loc 1 143 0
 293 0008 9D68     		ldr	r5, [r3, #8]
 294              	.LVL22:
 295 000a 04F11006 		add	r6, r4, #16
 296              	.LVL23:
 297              	.L23:
 298              		.loc 1 147 0 discriminator 2
 299 000e 54F8041F 		ldr	r1, [r4, #4]!
 300 0012 3048     		ldr	r0, .L35+8
 301 0014 FFF7FEFF 		bl	chPoolFree
 302              	.LVL24:
 303              		.loc 1 146 0 discriminator 2
 304 0018 B442     		cmp	r4, r6
 305 001a F8D1     		bne	.L23
 306              		.loc 1 150 0
 307 001c 2E4A     		ldr	r2, .L35+12
 308 001e 2F4B     		ldr	r3, .L35+16
 309 0020 2C48     		ldr	r0, .L35+8
 310 0022 2F4C     		ldr	r4, .L35+20
 311 0024 691E     		subs	r1, r5, #1
 312 0026 FFF7FEFF 		bl	chThdCreateFromMemoryPool
 313              	.LVL25:
 314              		.loc 1 151 0
 315 002a A91E     		subs	r1, r5, #2
 316              		.loc 1 150 0
 317 002c 2060     		str	r0, [r4]
 318              		.loc 1 151 0
 319 002e 2A4A     		ldr	r2, .L35+12
 320 0030 2C4B     		ldr	r3, .L35+24
 321 0032 2848     		ldr	r0, .L35+8
 322 0034 FFF7FEFF 		bl	chThdCreateFromMemoryPool
 323              	.LVL26:
 324              		.loc 1 152 0
 325 0038 E91E     		subs	r1, r5, #3
 326              		.loc 1 151 0
 327 003a 6060     		str	r0, [r4, #4]
 328              		.loc 1 152 0
 329 003c 264A     		ldr	r2, .L35+12
 330 003e 2A4B     		ldr	r3, .L35+28
 331 0040 2448     		ldr	r0, .L35+8
 332 0042 FFF7FEFF 		bl	chThdCreateFromMemoryPool
 333              	.LVL27:
 334              		.loc 1 153 0
 335 0046 291F     		subs	r1, r5, #4
 336              		.loc 1 152 0
 337 0048 A060     		str	r0, [r4, #8]
 338              		.loc 1 153 0
ARM GAS  /tmp/cceoWx8L.s 			page 7


 339 004a 234A     		ldr	r2, .L35+12
 340 004c 274B     		ldr	r3, .L35+32
 341 004e 2148     		ldr	r0, .L35+8
 342 0050 FFF7FEFF 		bl	chThdCreateFromMemoryPool
 343              	.LVL28:
 344              		.loc 1 154 0
 345 0054 691F     		subs	r1, r5, #5
 346              		.loc 1 153 0
 347 0056 E060     		str	r0, [r4, #12]
 348              		.loc 1 154 0
 349 0058 1F4A     		ldr	r2, .L35+12
 350 005a 1E48     		ldr	r0, .L35+8
 351 005c 244B     		ldr	r3, .L35+36
 352 005e FFF7FEFF 		bl	chThdCreateFromMemoryPool
 353              	.LVL29:
 354              		.loc 1 156 0
 355 0062 2168     		ldr	r1, [r4]
 356              		.loc 1 154 0
 357 0064 2061     		str	r0, [r4, #16]
 358              		.loc 1 156 0
 359 0066 49B1     		cbz	r1, .L24
 360              		.loc 1 156 0 is_stmt 0 discriminator 1
 361 0068 6168     		ldr	r1, [r4, #4]
 362 006a 39B1     		cbz	r1, .L24
 363 006c A168     		ldr	r1, [r4, #8]
 364 006e 29B1     		cbz	r1, .L24
 365 0070 E168     		ldr	r1, [r4, #12]
 366 0072 19B1     		cbz	r1, .L24
 367 0074 D0F10101 		rsbs	r1, r0, #1
 368 0078 38BF     		it	cc
 369 007a 0021     		movcc	r1, #0
 370              	.L24:
 371              		.loc 1 156 0 discriminator 4
 372 007c 0120     		movs	r0, #1
 373 007e FFF7FEFF 		bl	_test_assert
 374              	.LVL30:
 375 0082 00B1     		cbz	r0, .L34
 376              	.L21:
 377 0084 70BD     		pop	{r4, r5, r6, pc}
 378              	.LVL31:
 379              	.L34:
 380              		.loc 1 164 0 is_stmt 1
 381 0086 FFF7FEFF 		bl	test_wait_threads
 382              	.LVL32:
 383              		.loc 1 165 0
 384 008a 0220     		movs	r0, #2
 385 008c 1949     		ldr	r1, .L35+40
 386 008e FFF7FEFF 		bl	_test_assert_sequence
 387              	.LVL33:
 388 0092 0028     		cmp	r0, #0
 389 0094 F6D1     		bne	.L21
 390 0096 0424     		movs	r4, #4
 391              	.L29:
 392              	.LVL34:
 393              		.loc 1 169 0
 394 0098 0E48     		ldr	r0, .L35+8
 395 009a FFF7FEFF 		bl	chPoolAlloc
ARM GAS  /tmp/cceoWx8L.s 			page 8


 396              	.LVL35:
 397 009e 011C     		adds	r1, r0, #0
 398 00a0 18BF     		it	ne
 399 00a2 0121     		movne	r1, #1
 400 00a4 0320     		movs	r0, #3
 401 00a6 FFF7FEFF 		bl	_test_assert
 402              	.LVL36:
 403 00aa 0028     		cmp	r0, #0
 404 00ac EAD1     		bne	.L21
 405              		.loc 1 168 0
 406 00ae 013C     		subs	r4, r4, #1
 407              	.LVL37:
 408 00b0 F2D1     		bne	.L29
 409              		.loc 1 170 0
 410 00b2 0848     		ldr	r0, .L35+8
 411 00b4 FFF7FEFF 		bl	chPoolAlloc
 412              	.LVL38:
 413 00b8 D0F10101 		rsbs	r1, r0, #1
 414 00bc 38BF     		it	cc
 415 00be 0021     		movcc	r1, #0
 416 00c0 0420     		movs	r0, #4
 417              		.loc 1 171 0
 418 00c2 BDE87040 		pop	{r4, r5, r6, lr}
 419              	.LVL39:
 420              		.loc 1 170 0
 421 00c6 FFF7FEBF 		b	_test_assert
 422              	.LVL40:
 423              	.L36:
 424 00ca 00BF     		.align	2
 425              	.L35:
 426 00cc 00000000 		.word	rlist
 427 00d0 FCFFFFFF 		.word	wa-4
 428 00d4 00000000 		.word	.LANCHOR1
 429 00d8 00000000 		.word	thread
 430 00dc 00000000 		.word	.LC0
 431 00e0 00000000 		.word	threads
 432 00e4 04000000 		.word	.LC1
 433 00e8 08000000 		.word	.LC2
 434 00ec 10000000 		.word	.LC4
 435 00f0 14000000 		.word	.LC5
 436 00f4 18000000 		.word	.LC6
 437              		.cfi_endproc
 438              	.LFE11:
 439              		.size	dyn2_execute, .-dyn2_execute
 440 00f8 AFF30080 		.section	.text.dyn2_setup,"ax",%progbits
 440      AFF30080 
 441              		.align	2
 442              		.p2align 4,,15
 443              		.thumb
 444              		.thumb_func
 445              		.type	dyn2_setup, %function
 446              	dyn2_setup:
 447              	.LFB10:
 448              		.loc 1 136 0
 449              		.cfi_startproc
 450              		@ args = 0, pretend = 0, frame = 0
 451              		@ frame_needed = 0, uses_anonymous_args = 0
ARM GAS  /tmp/cceoWx8L.s 			page 9


 452              		@ link register save eliminated.
 453              		.loc 1 138 0
 454 0000 0248     		ldr	r0, .L38
 455 0002 4FF49871 		mov	r1, #304
 456 0006 0022     		movs	r2, #0
 457 0008 FFF7FEBF 		b	chPoolInit
 458              	.LVL41:
 459              	.L39:
 460              		.align	2
 461              	.L38:
 462 000c 00000000 		.word	.LANCHOR1
 463              		.cfi_endproc
 464              	.LFE10:
 465              		.size	dyn2_setup, .-dyn2_setup
 466              		.section	.text.regfind,"ax",%progbits
 467              		.align	2
 468              		.p2align 4,,15
 469              		.thumb
 470              		.thumb_func
 471              		.type	regfind, %function
 472              	regfind:
 473              	.LFB12:
 474              		.loc 1 191 0
 475              		.cfi_startproc
 476              		@ args = 0, pretend = 0, frame = 0
 477              		@ frame_needed = 0, uses_anonymous_args = 0
 478              	.LVL42:
 479 0000 38B5     		push	{r3, r4, r5, lr}
 480              		.cfi_def_cfa_offset 16
 481              		.cfi_offset 3, -16
 482              		.cfi_offset 4, -12
 483              		.cfi_offset 5, -8
 484              		.cfi_offset 14, -4
 485              		.loc 1 191 0
 486 0002 0546     		mov	r5, r0
 487              		.loc 1 195 0
 488 0004 FFF7FEFF 		bl	chRegFirstThread
 489              	.LVL43:
 490              		.loc 1 193 0
 491 0008 0024     		movs	r4, #0
 492              		.loc 1 195 0
 493 000a 0346     		mov	r3, r0
 494              	.LVL44:
 495              	.L42:
 496              		.loc 1 198 0 discriminator 1
 497 000c 1846     		mov	r0, r3
 498              		.loc 1 197 0 discriminator 1
 499 000e AB42     		cmp	r3, r5
 500 0010 08BF     		it	eq
 501 0012 44F00104 		orreq	r4, r4, #1
 502              	.LVL45:
 503              		.loc 1 198 0 discriminator 1
 504 0016 FFF7FEFF 		bl	chRegNextThread
 505              	.LVL46:
 506              		.loc 1 199 0 discriminator 1
 507 001a 0346     		mov	r3, r0
 508 001c 0028     		cmp	r0, #0
ARM GAS  /tmp/cceoWx8L.s 			page 10


 509 001e F5D1     		bne	.L42
 510              		.loc 1 201 0
 511 0020 2046     		mov	r0, r4
 512              	.LVL47:
 513 0022 38BD     		pop	{r3, r4, r5, pc}
 514              		.cfi_endproc
 515              	.LFE12:
 516              		.size	regfind, .-regfind
 517 0024 AFF30080 		.section	.text.dyn3_execute,"ax",%progbits
 517      AFF30080 
 517      AFF30080 
 518              		.align	2
 519              		.p2align 4,,15
 520              		.thumb
 521              		.thumb_func
 522              		.type	dyn3_execute, %function
 523              	dyn3_execute:
 524              	.LFB14:
 525              		.loc 1 208 0
 526              		.cfi_startproc
 527              		@ args = 0, pretend = 0, frame = 0
 528              		@ frame_needed = 0, uses_anonymous_args = 0
 529              	.LVL48:
 530 0000 10B5     		push	{r4, lr}
 531              		.cfi_def_cfa_offset 8
 532              		.cfi_offset 4, -8
 533              		.cfi_offset 14, -4
 534              		.loc 1 210 0
 535 0002 494B     		ldr	r3, .L48
 536              		.loc 1 213 0
 537 0004 4949     		ldr	r1, .L48+4
 538              		.loc 1 210 0
 539 0006 9B69     		ldr	r3, [r3, #24]
 540              		.loc 1 213 0
 541 0008 4948     		ldr	r0, .L48+8
 542 000a 9A68     		ldr	r2, [r3, #8]
 543 000c 494B     		ldr	r3, .L48+12
 544              		.loc 1 208 0
 545 000e 82B0     		sub	sp, sp, #8
 546              		.cfi_def_cfa_offset 16
 547              		.loc 1 213 0
 548 0010 013A     		subs	r2, r2, #1
 549 0012 0091     		str	r1, [sp]
 550              	.LVL49:
 551 0014 4FF49871 		mov	r1, #304
 552 0018 FFF7FEFF 		bl	chThdCreateFromHeap
 553              	.LVL50:
 554 001c 0446     		mov	r4, r0
 555              	.LVL51:
 556              		.loc 1 214 0
 557 001e 0120     		movs	r0, #1
 558              	.LVL52:
 559 0020 A17F     		ldrb	r1, [r4, #30]	@ zero_extendqisi2
 560 0022 B1EB000C 		subs	ip, r1, r0
 561 0026 DCF10001 		rsbs	r1, ip, #0
 562 002a 51EB0C01 		adcs	r1, r1, ip
 563 002e FFF7FEFF 		bl	_test_assert
ARM GAS  /tmp/cceoWx8L.s 			page 11


 564              	.LVL53:
 565 0032 08B1     		cbz	r0, .L47
 566              	.L43:
 567              		.loc 1 236 0
 568 0034 02B0     		add	sp, sp, #8
 569              		@ sp needed
 570 0036 10BD     		pop	{r4, pc}
 571              	.LVL54:
 572              	.L47:
 573              		.loc 1 215 0
 574 0038 2046     		mov	r0, r4
 575 003a FFF7FEFF 		bl	chThdAddRef
 576              	.LVL55:
 577              		.loc 1 216 0
 578 003e A17F     		ldrb	r1, [r4, #30]	@ zero_extendqisi2
 579 0040 0220     		movs	r0, #2
 580 0042 B1EB000E 		subs	lr, r1, r0
 581 0046 DEF10001 		rsbs	r1, lr, #0
 582 004a 51EB0E01 		adcs	r1, r1, lr
 583 004e FFF7FEFF 		bl	_test_assert
 584              	.LVL56:
 585 0052 0028     		cmp	r0, #0
 586 0054 EED1     		bne	.L43
 587              		.loc 1 217 0
 588 0056 2046     		mov	r0, r4
 589 0058 FFF7FEFF 		bl	chThdRelease
 590              	.LVL57:
 591              		.loc 1 218 0
 592 005c A17F     		ldrb	r1, [r4, #30]	@ zero_extendqisi2
 593 005e 4A1E     		subs	r2, r1, #1
 594 0060 5142     		rsbs	r1, r2, #0
 595 0062 5141     		adcs	r1, r1, r2
 596 0064 0320     		movs	r0, #3
 597 0066 FFF7FEFF 		bl	_test_assert
 598              	.LVL58:
 599 006a 0028     		cmp	r0, #0
 600 006c E2D1     		bne	.L43
 601              		.loc 1 221 0
 602 006e 2046     		mov	r0, r4
 603 0070 FFF7FEFF 		bl	regfind
 604              	.LVL59:
 605 0074 0146     		mov	r1, r0
 606 0076 0420     		movs	r0, #4
 607 0078 FFF7FEFF 		bl	_test_assert
 608              	.LVL60:
 609 007c 0028     		cmp	r0, #0
 610 007e D9D1     		bne	.L43
 611              		.loc 1 222 0
 612 0080 2046     		mov	r0, r4
 613 0082 FFF7FEFF 		bl	regfind
 614              	.LVL61:
 615 0086 0146     		mov	r1, r0
 616 0088 0520     		movs	r0, #5
 617 008a FFF7FEFF 		bl	_test_assert
 618              	.LVL62:
 619 008e 0028     		cmp	r0, #0
 620 0090 D0D1     		bne	.L43
ARM GAS  /tmp/cceoWx8L.s 			page 12


 621              		.loc 1 225 0
 622 0092 2046     		mov	r0, r4
 623 0094 FFF7FEFF 		bl	chThdRelease
 624              	.LVL63:
 625              		.loc 1 226 0
 626 0098 A17F     		ldrb	r1, [r4, #30]	@ zero_extendqisi2
 627 009a D1F10101 		rsbs	r1, r1, #1
 628 009e 38BF     		it	cc
 629 00a0 0021     		movcc	r1, #0
 630 00a2 0620     		movs	r0, #6
 631 00a4 FFF7FEFF 		bl	_test_assert
 632              	.LVL64:
 633 00a8 0028     		cmp	r0, #0
 634 00aa C3D1     		bne	.L43
 635              		.loc 1 227 0
 636 00ac 217F     		ldrb	r1, [r4, #28]	@ zero_extendqisi2
 637 00ae D1F10101 		rsbs	r1, r1, #1
 638 00b2 38BF     		it	cc
 639 00b4 0021     		movcc	r1, #0
 640 00b6 0720     		movs	r0, #7
 641 00b8 FFF7FEFF 		bl	_test_assert
 642              	.LVL65:
 643 00bc 0028     		cmp	r0, #0
 644 00be B9D1     		bne	.L43
 645              		.loc 1 228 0
 646 00c0 2046     		mov	r0, r4
 647 00c2 FFF7FEFF 		bl	regfind
 648              	.LVL66:
 649 00c6 0146     		mov	r1, r0
 650 00c8 0820     		movs	r0, #8
 651 00ca FFF7FEFF 		bl	_test_assert
 652              	.LVL67:
 653 00ce 0028     		cmp	r0, #0
 654 00d0 B0D1     		bne	.L43
 655              		.loc 1 229 0
 656 00d2 2046     		mov	r0, r4
 657 00d4 FFF7FEFF 		bl	regfind
 658              	.LVL68:
 659 00d8 0146     		mov	r1, r0
 660 00da 0920     		movs	r0, #9
 661 00dc FFF7FEFF 		bl	_test_assert
 662              	.LVL69:
 663 00e0 0028     		cmp	r0, #0
 664 00e2 A7D1     		bne	.L43
 665              		.loc 1 230 0
 666 00e4 3220     		movs	r0, #50
 667 00e6 FFF7FEFF 		bl	chThdSleep
 668              	.LVL70:
 669              		.loc 1 231 0
 670 00ea 217F     		ldrb	r1, [r4, #28]	@ zero_extendqisi2
 671 00ec B1F10E03 		subs	r3, r1, #14
 672 00f0 5942     		rsbs	r1, r3, #0
 673 00f2 5941     		adcs	r1, r1, r3
 674 00f4 0A20     		movs	r0, #10
 675 00f6 FFF7FEFF 		bl	_test_assert
 676              	.LVL71:
 677 00fa 0028     		cmp	r0, #0
ARM GAS  /tmp/cceoWx8L.s 			page 13


 678 00fc 9AD1     		bne	.L43
 679              		.loc 1 234 0
 680 00fe 2046     		mov	r0, r4
 681 0100 FFF7FEFF 		bl	regfind
 682              	.LVL72:
 683 0104 0146     		mov	r1, r0
 684 0106 0B20     		movs	r0, #11
 685 0108 FFF7FEFF 		bl	_test_assert
 686              	.LVL73:
 687 010c 0028     		cmp	r0, #0
 688 010e 91D1     		bne	.L43
 689              		.loc 1 235 0
 690 0110 2046     		mov	r0, r4
 691 0112 FFF7FEFF 		bl	regfind
 692              	.LVL74:
 693 0116 80F00101 		eor	r1, r0, #1
 694 011a C9B2     		uxtb	r1, r1
 695 011c 0C20     		movs	r0, #12
 696              		.loc 1 236 0
 697 011e 02B0     		add	sp, sp, #8
 698              		@ sp needed
 699 0120 BDE81040 		pop	{r4, lr}
 700              	.LVL75:
 701              		.loc 1 235 0
 702 0124 FFF7FEBF 		b	_test_assert
 703              	.LVL76:
 704              	.L49:
 705              		.align	2
 706              	.L48:
 707 0128 00000000 		.word	rlist
 708 012c 00000000 		.word	.LC0
 709 0130 00000000 		.word	.LANCHOR0
 710 0134 00000000 		.word	thread
 711              		.cfi_endproc
 712              	.LFE14:
 713              		.size	dyn3_execute, .-dyn3_execute
 714              		.global	patterndyn
 715              		.global	testdyn3
 716              		.global	testdyn2
 717              		.global	testdyn1
 718 0138 AFF30080 		.section	.rodata.testdyn1,"a",%progbits
 718      AFF30080 
 719              		.align	2
 720              		.type	testdyn1, %object
 721              		.size	testdyn1, 16
 722              	testdyn1:
 723 0000 78000000 		.word	.LC9
 724 0004 00000000 		.word	dyn1_setup
 725 0008 00000000 		.word	0
 726 000c 00000000 		.word	dyn1_execute
 727              		.section	.rodata.testdyn2,"a",%progbits
 728              		.align	2
 729              		.type	testdyn2, %object
 730              		.size	testdyn2, 16
 731              	testdyn2:
 732 0000 48000000 		.word	.LC8
 733 0004 00000000 		.word	dyn2_setup
ARM GAS  /tmp/cceoWx8L.s 			page 14


 734 0008 00000000 		.word	0
 735 000c 00000000 		.word	dyn2_execute
 736              		.section	.rodata.testdyn3,"a",%progbits
 737              		.align	2
 738              		.type	testdyn3, %object
 739              		.size	testdyn3, 16
 740              	testdyn3:
 741 0000 20000000 		.word	.LC7
 742 0004 00000000 		.word	dyn3_setup
 743 0008 00000000 		.word	0
 744 000c 00000000 		.word	dyn3_execute
 745              		.section	.bss.mp1,"aw",%nobits
 746              		.align	2
 747              		.set	.LANCHOR1,. + 0
 748              		.type	mp1, %object
 749              		.size	mp1, 12
 750              	mp1:
 751 0000 00000000 		.space	12
 751      00000000 
 751      00000000 
 752              		.section	.rodata.str1.4,"aMS",%progbits,1
 753              		.align	2
 754              	.LC0:
 755 0000 4100     		.ascii	"A\000"
 756 0002 0000     		.space	2
 757              	.LC1:
 758 0004 4200     		.ascii	"B\000"
 759 0006 0000     		.space	2
 760              	.LC2:
 761 0008 4300     		.ascii	"C\000"
 762 000a 0000     		.space	2
 763              	.LC3:
 764 000c 414200   		.ascii	"AB\000"
 765 000f 00       		.space	1
 766              	.LC4:
 767 0010 4400     		.ascii	"D\000"
 768 0012 0000     		.space	2
 769              	.LC5:
 770 0014 4500     		.ascii	"E\000"
 771 0016 0000     		.space	2
 772              	.LC6:
 773 0018 41424344 		.ascii	"ABCD\000"
 773      00
 774 001d 000000   		.space	3
 775              	.LC7:
 776 0020 44796E61 		.ascii	"Dynamic APIs, registry and references\000"
 776      6D696320 
 776      41504973 
 776      2C207265 
 776      67697374 
 777 0046 0000     		.space	2
 778              	.LC8:
 779 0048 44796E61 		.ascii	"Dynamic APIs, threads creation from memory pool\000"
 779      6D696320 
 779      41504973 
 779      2C207468 
 779      72656164 
ARM GAS  /tmp/cceoWx8L.s 			page 15


 780              	.LC9:
 781 0078 44796E61 		.ascii	"Dynamic APIs, threads creation from heap\000"
 781      6D696320 
 781      41504973 
 781      2C207468 
 781      72656164 
 782 00a1 000000   		.section	.rodata.patterndyn,"a",%progbits
 783              		.align	2
 784              		.type	patterndyn, %object
 785              		.size	patterndyn, 16
 786              	patterndyn:
 787 0000 00000000 		.word	testdyn1
 788 0004 00000000 		.word	testdyn2
 789 0008 00000000 		.word	testdyn3
 790 000c 00000000 		.word	0
 791              		.section	.bss.heap1,"aw",%nobits
 792              		.align	3
 793              		.set	.LANCHOR0,. + 0
 794              		.type	heap1, %object
 795              		.size	heap1, 32
 796              	heap1:
 797 0000 00000000 		.space	32
 797      00000000 
 797      00000000 
 797      00000000 
 797      00000000 
 798              		.text
 799              	.Letext0:
 800              		.file 2 "/usr/lib/gcc/arm-none-eabi/4.8.3/include/stddef.h"
 801              		.file 3 "/usr/arm-none-eabi/include/stdint.h"
 802              		.file 4 "../../os/ports/GCC/ARMCMx/chtypes.h"
 803              		.file 5 "../../os/kernel/include/chlists.h"
 804              		.file 6 "../../os/kernel/include/chthreads.h"
 805              		.file 7 "../../os/ports/GCC/ARMCMx/chcore_v7m.h"
 806              		.file 8 "../../os/kernel/include/chschd.h"
 807              		.file 9 "../../os/kernel/include/chmtx.h"
 808              		.file 10 "../../os/kernel/include/chmemcore.h"
 809              		.file 11 "../../os/kernel/include/chheap.h"
 810              		.file 12 "../../os/kernel/include/chmempools.h"
 811              		.file 13 "../../test/test.h"
 812              		.file 14 "../../os/kernel/include/chdynamic.h"
 813              		.file 15 "../../os/kernel/include/chregistry.h"