ARM GAS  /tmp/cc2GUxSc.s 			page 1


   1              		.syntax unified
   2              		.cpu cortex-m4
   3              		.fpu softvfp
   4              		.eabi_attribute 20, 1
   5              		.eabi_attribute 21, 1
   6              		.eabi_attribute 23, 3
   7              		.eabi_attribute 24, 1
   8              		.eabi_attribute 25, 1
   9              		.eabi_attribute 26, 1
  10              		.eabi_attribute 30, 2
  11              		.eabi_attribute 34, 1
  12              		.eabi_attribute 18, 4
  13              		.thumb
  14              		.file	"testmbox.c"
  15              		.text
  16              	.Ltext0:
  17              		.cfi_sections	.debug_frame
  18              		.section	.text.mbox1_execute,"ax",%progbits
  19              		.align	2
  20              		.p2align 4,,15
  21              		.thumb
  22              		.thumb_func
  23              		.type	mbox1_execute, %function
  24              	mbox1_execute:
  25              	.LFB8:
  26              		.file 1 "../../../test/testmbox.c"
  27              		.loc 1 76 0
  28              		.cfi_startproc
  29              		@ args = 0, pretend = 0, frame = 8
  30              		@ frame_needed = 0, uses_anonymous_args = 0
  31 0000 70B5     		push	{r4, r5, r6, lr}
  32              		.cfi_def_cfa_offset 16
  33              		.cfi_offset 4, -16
  34              		.cfi_offset 5, -12
  35              		.cfi_offset 6, -8
  36              		.cfi_offset 14, -4
  37              		.loc 1 83 0
  38 0002 174D     		ldr	r5, .L29
  39 0004 696A     		ldr	r1, [r5, #36]
  40 0006 B1F1050E 		subs	lr, r1, #5
  41 000a DEF10001 		rsbs	r1, lr, #0
  42              		.loc 1 76 0
  43 000e 82B0     		sub	sp, sp, #8
  44              		.cfi_def_cfa_offset 24
  45              		.loc 1 83 0
  46 0010 51EB0E01 		adcs	r1, r1, lr
  47 0014 0120     		movs	r0, #1
  48 0016 FFF7FEFF 		bl	_test_assert
  49              	.LVL0:
  50 001a F8B9     		cbnz	r0, .L1
  51 001c 4224     		movs	r4, #66
  52              	.L4:
  53              	.LVL1:
  54              		.loc 1 89 0
  55 001e 2146     		mov	r1, r4
  56 0020 0F48     		ldr	r0, .L29
  57 0022 4FF0FF32 		mov	r2, #-1
ARM GAS  /tmp/cc2GUxSc.s 			page 2


  58 0026 FFF7FEFF 		bl	chMBPost
  59              	.LVL2:
  60              		.loc 1 90 0
  61 002a D0F10101 		rsbs	r1, r0, #1
  62 002e 38BF     		it	cc
  63 0030 0021     		movcc	r1, #0
  64 0032 0220     		movs	r0, #2
  65              	.LVL3:
  66 0034 0134     		adds	r4, r4, #1
  67              	.LVL4:
  68 0036 FFF7FEFF 		bl	_test_assert
  69              	.LVL5:
  70 003a 78B9     		cbnz	r0, .L1
  71              		.loc 1 88 0
  72 003c 462C     		cmp	r4, #70
  73 003e EED1     		bne	.L4
  74              		.loc 1 92 0
  75 0040 4121     		movs	r1, #65
  76 0042 0748     		ldr	r0, .L29
  77 0044 4FF0FF32 		mov	r2, #-1
  78 0048 FFF7FEFF 		bl	chMBPostAhead
  79              	.LVL6:
  80              		.loc 1 93 0
  81 004c D0F10101 		rsbs	r1, r0, #1
  82 0050 38BF     		it	cc
  83 0052 0021     		movcc	r1, #0
  84 0054 0320     		movs	r0, #3
  85              	.LVL7:
  86 0056 FFF7FEFF 		bl	_test_assert
  87              	.LVL8:
  88 005a 18B1     		cbz	r0, .L28
  89              	.L1:
  90              		.loc 1 220 0
  91 005c 02B0     		add	sp, sp, #8
  92              		@ sp needed
  93 005e 70BD     		pop	{r4, r5, r6, pc}
  94              	.L30:
  95              		.align	2
  96              	.L29:
  97 0060 00000000 		.word	.LANCHOR0
  98              	.L28:
  99              		.loc 1 98 0
 100 0064 5821     		movs	r1, #88
 101 0066 CD48     		ldr	r0, .L31
 102 0068 0122     		movs	r2, #1
 103 006a FFF7FEFF 		bl	chMBPost
 104              	.LVL9:
 105              		.loc 1 99 0
 106 006e B0F1FF36 		subs	r6, r0, #-1
 107 0072 7142     		rsbs	r1, r6, #0
 108 0074 7141     		adcs	r1, r1, r6
 109 0076 0420     		movs	r0, #4
 110              	.LVL10:
 111 0078 FFF7FEFF 		bl	_test_assert
 112              	.LVL11:
 113 007c 0028     		cmp	r0, #0
 114 007e EDD1     		bne	.L1
ARM GAS  /tmp/cc2GUxSc.s 			page 3


 115              	.LBB2:
 116              		.loc 1 100 0
 117 0080 2023     		movs	r3, #32
 118              	@ 100 "../../../test/testmbox.c" 1
 119 0082 83F31188 		msr     BASEPRI, r3
 120              	@ 0 "" 2
 121              		.thumb
 122              	.LBE2:
 123 0086 FFF7FEFF 		bl	dbg_check_lock
 124              	.LVL12:
 125              		.loc 1 101 0
 126 008a 5821     		movs	r1, #88
 127 008c C348     		ldr	r0, .L31
 128 008e FFF7FEFF 		bl	chMBPostI
 129              	.LVL13:
 130 0092 0446     		mov	r4, r0
 131              	.LVL14:
 132              		.loc 1 102 0
 133 0094 FFF7FEFF 		bl	dbg_check_unlock
 134              	.LVL15:
 135              	.LBB3:
 136 0098 0023     		movs	r3, #0
 137              	@ 102 "../../../test/testmbox.c" 1
 138 009a 83F31188 		msr     BASEPRI, r3
 139              	@ 0 "" 2
 140              		.thumb
 141              	.LBE3:
 142              		.loc 1 103 0
 143 009e B4F1FF34 		subs	r4, r4, #-1
 144              	.LVL16:
 145 00a2 6142     		rsbs	r1, r4, #0
 146 00a4 6141     		adcs	r1, r1, r4
 147 00a6 0520     		movs	r0, #5
 148 00a8 FFF7FEFF 		bl	_test_assert
 149              	.LVL17:
 150 00ac 0028     		cmp	r0, #0
 151 00ae D5D1     		bne	.L1
 152              		.loc 1 104 0
 153 00b0 5821     		movs	r1, #88
 154 00b2 0122     		movs	r2, #1
 155 00b4 B948     		ldr	r0, .L31
 156 00b6 FFF7FEFF 		bl	chMBPostAhead
 157              	.LVL18:
 158              		.loc 1 105 0
 159 00ba B0F1FF32 		subs	r2, r0, #-1
 160 00be 5142     		rsbs	r1, r2, #0
 161 00c0 5141     		adcs	r1, r1, r2
 162 00c2 0620     		movs	r0, #6
 163              	.LVL19:
 164 00c4 FFF7FEFF 		bl	_test_assert
 165              	.LVL20:
 166 00c8 0028     		cmp	r0, #0
 167 00ca C7D1     		bne	.L1
 168              	.LBB4:
 169              		.loc 1 106 0
 170 00cc 2023     		movs	r3, #32
 171              	@ 106 "../../../test/testmbox.c" 1
ARM GAS  /tmp/cc2GUxSc.s 			page 4


 172 00ce 83F31188 		msr     BASEPRI, r3
 173              	@ 0 "" 2
 174              		.thumb
 175              	.LBE4:
 176 00d2 FFF7FEFF 		bl	dbg_check_lock
 177              	.LVL21:
 178              		.loc 1 107 0
 179 00d6 5821     		movs	r1, #88
 180 00d8 B048     		ldr	r0, .L31
 181 00da FFF7FEFF 		bl	chMBPostAheadI
 182              	.LVL22:
 183 00de 0446     		mov	r4, r0
 184              	.LVL23:
 185              		.loc 1 108 0
 186 00e0 FFF7FEFF 		bl	dbg_check_unlock
 187              	.LVL24:
 188              	.LBB5:
 189 00e4 0023     		movs	r3, #0
 190              	@ 108 "../../../test/testmbox.c" 1
 191 00e6 83F31188 		msr     BASEPRI, r3
 192              	@ 0 "" 2
 193              		.thumb
 194              	.LBE5:
 195              		.loc 1 109 0
 196 00ea B4F1FF33 		subs	r3, r4, #-1
 197 00ee 5942     		rsbs	r1, r3, #0
 198 00f0 5941     		adcs	r1, r1, r3
 199 00f2 0720     		movs	r0, #7
 200 00f4 FFF7FEFF 		bl	_test_assert
 201              	.LVL25:
 202 00f8 0028     		cmp	r0, #0
 203 00fa AFD1     		bne	.L1
 204              	.LBB6:
 205              		.loc 1 114 0
 206 00fc 2023     		movs	r3, #32
 207              	@ 114 "../../../test/testmbox.c" 1
 208 00fe 83F31188 		msr     BASEPRI, r3
 209              	@ 0 "" 2
 210              		.thumb
 211              	.LBE6:
 212 0102 FFF7FEFF 		bl	dbg_check_lock
 213              	.LVL26:
 214 0106 696A     		ldr	r1, [r5, #36]
 215 0108 D1F10101 		rsbs	r1, r1, #1
 216 010c 4FF00800 		mov	r0, #8
 217 0110 38BF     		it	cc
 218 0112 0021     		movcc	r1, #0
 219 0114 FFF7FEFF 		bl	_test_assert
 220              	.LVL27:
 221 0118 0446     		mov	r4, r0
 222              	.LVL28:
 223 011a 0028     		cmp	r0, #0
 224 011c 40F0CA82 		bne	.L25
 225              		.loc 1 114 0 is_stmt 0 discriminator 2
 226 0120 FFF7FEFF 		bl	dbg_check_unlock
 227              	.LVL29:
 228              	.LBB7:
ARM GAS  /tmp/cc2GUxSc.s 			page 5


 229 0124 2346     		mov	r3, r4
 230              	@ 114 "../../../test/testmbox.c" 1
 231 0126 83F31188 		msr     BASEPRI, r3
 232              	@ 0 "" 2
 233              		.thumb
 234              	.LBE7:
 235              	.LBB8:
 236              		.loc 1 115 0 is_stmt 1 discriminator 2
 237 012a 2023     		movs	r3, #32
 238              	@ 115 "../../../test/testmbox.c" 1
 239 012c 83F31188 		msr     BASEPRI, r3
 240              	@ 0 "" 2
 241              		.thumb
 242              	.LBE8:
 243 0130 FFF7FEFF 		bl	dbg_check_lock
 244              	.LVL30:
 245 0134 A969     		ldr	r1, [r5, #24]
 246 0136 B1F1050C 		subs	ip, r1, #5
 247 013a DCF10001 		rsbs	r1, ip, #0
 248 013e 4FF00900 		mov	r0, #9
 249 0142 51EB0C01 		adcs	r1, r1, ip
 250 0146 FFF7FEFF 		bl	_test_assert
 251              	.LVL31:
 252 014a 0446     		mov	r4, r0
 253 014c 0028     		cmp	r0, #0
 254 014e 40F0B182 		bne	.L25
 255 0152 FFF7FEFF 		bl	dbg_check_unlock
 256              	.LVL32:
 257              	.LBB9:
 258 0156 2346     		mov	r3, r4
 259              	@ 115 "../../../test/testmbox.c" 1
 260 0158 83F31188 		msr     BASEPRI, r3
 261              	@ 0 "" 2
 262              		.thumb
 263              	.LBE9:
 264              	.LBB10:
 265              		.loc 1 116 0 discriminator 2
 266 015c 2023     		movs	r3, #32
 267              	@ 116 "../../../test/testmbox.c" 1
 268 015e 83F31188 		msr     BASEPRI, r3
 269              	@ 0 "" 2
 270              		.thumb
 271              	.LBE10:
 272 0162 FFF7FEFF 		bl	dbg_check_lock
 273              	.LVL33:
 274 0166 E968     		ldr	r1, [r5, #12]
 275 0168 AB68     		ldr	r3, [r5, #8]
 276 016a B1EB030E 		subs	lr, r1, r3
 277 016e DEF10001 		rsbs	r1, lr, #0
 278 0172 51EB0E01 		adcs	r1, r1, lr
 279 0176 0A20     		movs	r0, #10
 280 0178 FFF7FEFF 		bl	_test_assert
 281              	.LVL34:
 282 017c 0028     		cmp	r0, #0
 283 017e 40F09982 		bne	.L25
 284 0182 FFF7FEFF 		bl	dbg_check_unlock
 285              	.LVL35:
ARM GAS  /tmp/cc2GUxSc.s 			page 6


 286              	.LBB11:
 287 0186 0023     		movs	r3, #0
 288              	@ 116 "../../../test/testmbox.c" 1
 289 0188 83F31188 		msr     BASEPRI, r3
 290              	@ 0 "" 2
 291              	.LVL36:
 292              		.thumb
 293 018c 0526     		movs	r6, #5
 294              	.LVL37:
 295              	.L10:
 296              	.LBE11:
 297              		.loc 1 122 0
 298 018e 834C     		ldr	r4, .L31
 299 0190 01A9     		add	r1, sp, #4
 300 0192 2046     		mov	r0, r4
 301 0194 4FF0FF32 		mov	r2, #-1
 302 0198 FFF7FEFF 		bl	chMBFetch
 303              	.LVL38:
 304              		.loc 1 123 0
 305 019c D0F10101 		rsbs	r1, r0, #1
 306 01a0 38BF     		it	cc
 307 01a2 0021     		movcc	r1, #0
 308 01a4 0B20     		movs	r0, #11
 309              	.LVL39:
 310 01a6 FFF7FEFF 		bl	_test_assert
 311              	.LVL40:
 312 01aa 0028     		cmp	r0, #0
 313 01ac 7FF456AF 		bne	.L1
 314              		.loc 1 124 0
 315 01b0 9DF80400 		ldrb	r0, [sp, #4]	@ zero_extendqisi2
 316 01b4 FFF7FEFF 		bl	test_emit_token
 317              	.LVL41:
 318              		.loc 1 121 0
 319 01b8 013E     		subs	r6, r6, #1
 320              	.LVL42:
 321 01ba E8D1     		bne	.L10
 322              		.loc 1 126 0
 323 01bc 0C20     		movs	r0, #12
 324 01be 7849     		ldr	r1, .L31+4
 325 01c0 FFF7FEFF 		bl	_test_assert_sequence
 326              	.LVL43:
 327 01c4 0028     		cmp	r0, #0
 328 01c6 7FF449AF 		bne	.L1
 329              		.loc 1 131 0
 330 01ca 4721     		movs	r1, #71
 331 01cc 2046     		mov	r0, r4
 332 01ce 4FF0FF32 		mov	r2, #-1
 333 01d2 FFF7FEFF 		bl	chMBPost
 334              	.LVL44:
 335              		.loc 1 132 0
 336 01d6 D0F10101 		rsbs	r1, r0, #1
 337 01da 38BF     		it	cc
 338 01dc 0021     		movcc	r1, #0
 339 01de 0D20     		movs	r0, #13
 340              	.LVL45:
 341 01e0 FFF7FEFF 		bl	_test_assert
 342              	.LVL46:
ARM GAS  /tmp/cc2GUxSc.s 			page 7


 343 01e4 0028     		cmp	r0, #0
 344 01e6 7FF439AF 		bne	.L1
 345              		.loc 1 133 0
 346 01ea 01A9     		add	r1, sp, #4
 347 01ec 2046     		mov	r0, r4
 348 01ee 4FF0FF32 		mov	r2, #-1
 349 01f2 FFF7FEFF 		bl	chMBFetch
 350              	.LVL47:
 351              		.loc 1 134 0
 352 01f6 D0F10101 		rsbs	r1, r0, #1
 353 01fa 38BF     		it	cc
 354 01fc 0021     		movcc	r1, #0
 355 01fe 0E20     		movs	r0, #14
 356              	.LVL48:
 357 0200 FFF7FEFF 		bl	_test_assert
 358              	.LVL49:
 359 0204 0028     		cmp	r0, #0
 360 0206 7FF429AF 		bne	.L1
 361              		.loc 1 135 0
 362 020a 2168     		ldr	r1, [r4]
 363 020c A368     		ldr	r3, [r4, #8]
 364 020e CE1A     		subs	r6, r1, r3
 365              	.LVL50:
 366 0210 7142     		rsbs	r1, r6, #0
 367 0212 7141     		adcs	r1, r1, r6
 368 0214 0F20     		movs	r0, #15
 369 0216 FFF7FEFF 		bl	_test_assert
 370              	.LVL51:
 371 021a 0028     		cmp	r0, #0
 372 021c 7FF41EAF 		bne	.L1
 373              		.loc 1 136 0
 374 0220 2168     		ldr	r1, [r4]
 375 0222 E368     		ldr	r3, [r4, #12]
 376 0224 CA1A     		subs	r2, r1, r3
 377 0226 5142     		rsbs	r1, r2, #0
 378 0228 5141     		adcs	r1, r1, r2
 379 022a 1020     		movs	r0, #16
 380 022c FFF7FEFF 		bl	_test_assert
 381              	.LVL52:
 382 0230 0028     		cmp	r0, #0
 383 0232 7FF413AF 		bne	.L1
 384              		.loc 1 141 0
 385 0236 01A9     		add	r1, sp, #4
 386 0238 2046     		mov	r0, r4
 387 023a 0122     		movs	r2, #1
 388 023c FFF7FEFF 		bl	chMBFetch
 389              	.LVL53:
 390              		.loc 1 142 0
 391 0240 B0F1FF33 		subs	r3, r0, #-1
 392 0244 5942     		rsbs	r1, r3, #0
 393 0246 5941     		adcs	r1, r1, r3
 394 0248 1120     		movs	r0, #17
 395              	.LVL54:
 396 024a FFF7FEFF 		bl	_test_assert
 397              	.LVL55:
 398 024e 0028     		cmp	r0, #0
 399 0250 7FF404AF 		bne	.L1
ARM GAS  /tmp/cc2GUxSc.s 			page 8


 400              	.LBB12:
 401              		.loc 1 143 0
 402 0254 2023     		movs	r3, #32
 403              	@ 143 "../../../test/testmbox.c" 1
 404 0256 83F31188 		msr     BASEPRI, r3
 405              	@ 0 "" 2
 406              		.thumb
 407              	.LBE12:
 408 025a FFF7FEFF 		bl	dbg_check_lock
 409              	.LVL56:
 410              		.loc 1 144 0
 411 025e 01A9     		add	r1, sp, #4
 412 0260 2046     		mov	r0, r4
 413 0262 FFF7FEFF 		bl	chMBFetchI
 414              	.LVL57:
 415 0266 0446     		mov	r4, r0
 416              	.LVL58:
 417              		.loc 1 145 0
 418 0268 FFF7FEFF 		bl	dbg_check_unlock
 419              	.LVL59:
 420              	.LBB13:
 421 026c 0023     		movs	r3, #0
 422              	@ 145 "../../../test/testmbox.c" 1
 423 026e 83F31188 		msr     BASEPRI, r3
 424              	@ 0 "" 2
 425              		.thumb
 426              	.LBE13:
 427              		.loc 1 146 0
 428 0272 B4F1FF3C 		subs	ip, r4, #-1
 429 0276 DCF10001 		rsbs	r1, ip, #0
 430 027a 51EB0C01 		adcs	r1, r1, ip
 431 027e 1220     		movs	r0, #18
 432 0280 FFF7FEFF 		bl	_test_assert
 433              	.LVL60:
 434 0284 0028     		cmp	r0, #0
 435 0286 7FF4E9AE 		bne	.L1
 436              	.LBB14:
 437              		.loc 1 151 0
 438 028a 2023     		movs	r3, #32
 439              	@ 151 "../../../test/testmbox.c" 1
 440 028c 83F31188 		msr     BASEPRI, r3
 441              	@ 0 "" 2
 442              		.thumb
 443              	.LBE14:
 444 0290 FFF7FEFF 		bl	dbg_check_lock
 445              	.LVL61:
 446 0294 696A     		ldr	r1, [r5, #36]
 447 0296 B1F1050E 		subs	lr, r1, #5
 448 029a DEF10001 		rsbs	r1, lr, #0
 449 029e 51EB0E01 		adcs	r1, r1, lr
 450 02a2 1320     		movs	r0, #19
 451 02a4 FFF7FEFF 		bl	_test_assert
 452              	.LVL62:
 453 02a8 0028     		cmp	r0, #0
 454 02aa 40F00382 		bne	.L25
 455              		.loc 1 151 0 is_stmt 0 discriminator 2
 456 02ae FFF7FEFF 		bl	dbg_check_unlock
ARM GAS  /tmp/cc2GUxSc.s 			page 9


 457              	.LVL63:
 458              	.LBB15:
 459 02b2 0023     		movs	r3, #0
 460              	@ 151 "../../../test/testmbox.c" 1
 461 02b4 83F31188 		msr     BASEPRI, r3
 462              	@ 0 "" 2
 463              		.thumb
 464              	.LBE15:
 465              	.LBB16:
 466              		.loc 1 152 0 is_stmt 1 discriminator 2
 467 02b8 2023     		movs	r3, #32
 468              	@ 152 "../../../test/testmbox.c" 1
 469 02ba 83F31188 		msr     BASEPRI, r3
 470              	@ 0 "" 2
 471              		.thumb
 472              	.LBE16:
 473 02be FFF7FEFF 		bl	dbg_check_lock
 474              	.LVL64:
 475 02c2 A969     		ldr	r1, [r5, #24]
 476 02c4 D1F10101 		rsbs	r1, r1, #1
 477 02c8 4FF01400 		mov	r0, #20
 478 02cc 38BF     		it	cc
 479 02ce 0021     		movcc	r1, #0
 480 02d0 FFF7FEFF 		bl	_test_assert
 481              	.LVL65:
 482 02d4 0446     		mov	r4, r0
 483              	.LVL66:
 484 02d6 0028     		cmp	r0, #0
 485 02d8 40F0EC81 		bne	.L25
 486 02dc FFF7FEFF 		bl	dbg_check_unlock
 487              	.LVL67:
 488              	.LBB17:
 489 02e0 2346     		mov	r3, r4
 490              	@ 152 "../../../test/testmbox.c" 1
 491 02e2 83F31188 		msr     BASEPRI, r3
 492              	@ 0 "" 2
 493              		.thumb
 494              	.LBE17:
 495              	.LBB18:
 496              		.loc 1 153 0 discriminator 2
 497 02e6 2023     		movs	r3, #32
 498              	@ 153 "../../../test/testmbox.c" 1
 499 02e8 83F31188 		msr     BASEPRI, r3
 500              	@ 0 "" 2
 501              		.thumb
 502              	.LBE18:
 503 02ec FFF7FEFF 		bl	dbg_check_lock
 504              	.LVL68:
 505 02f0 E968     		ldr	r1, [r5, #12]
 506 02f2 AB68     		ldr	r3, [r5, #8]
 507 02f4 CE1A     		subs	r6, r1, r3
 508 02f6 7142     		rsbs	r1, r6, #0
 509 02f8 4FF01500 		mov	r0, #21
 510 02fc 7141     		adcs	r1, r1, r6
 511 02fe FFF7FEFF 		bl	_test_assert
 512              	.LVL69:
 513 0302 0446     		mov	r4, r0
ARM GAS  /tmp/cc2GUxSc.s 			page 10


 514 0304 0028     		cmp	r0, #0
 515 0306 40F0D581 		bne	.L25
 516 030a FFF7FEFF 		bl	dbg_check_unlock
 517              	.LVL70:
 518              	.LBB19:
 519 030e 2346     		mov	r3, r4
 520              	@ 153 "../../../test/testmbox.c" 1
 521 0310 83F31188 		msr     BASEPRI, r3
 522              	@ 0 "" 2
 523              		.thumb
 524              	.LBE19:
 525              	.LBB20:
 526              		.loc 1 158 0 discriminator 2
 527 0314 2023     		movs	r3, #32
 528              	@ 158 "../../../test/testmbox.c" 1
 529 0316 83F31188 		msr     BASEPRI, r3
 530              	@ 0 "" 2
 531              		.thumb
 532              	.LBE20:
 533 031a FFF7FEFF 		bl	dbg_check_lock
 534              	.LVL71:
 535              		.loc 1 159 0 discriminator 2
 536 031e 4121     		movs	r1, #65
 537 0320 1E48     		ldr	r0, .L31
 538 0322 FFF7FEFF 		bl	chMBPostI
 539              	.LVL72:
 540              		.loc 1 160 0 discriminator 2
 541 0326 D0F10101 		rsbs	r1, r0, #1
 542 032a 38BF     		it	cc
 543 032c 0021     		movcc	r1, #0
 544 032e 1620     		movs	r0, #22
 545              	.LVL73:
 546 0330 FFF7FEFF 		bl	_test_assert
 547              	.LVL74:
 548 0334 0028     		cmp	r0, #0
 549 0336 7FF491AE 		bne	.L1
 550              		.loc 1 161 0
 551 033a 4221     		movs	r1, #66
 552 033c 1748     		ldr	r0, .L31
 553 033e FFF7FEFF 		bl	chMBPostI
 554              	.LVL75:
 555              		.loc 1 162 0
 556 0342 D0F10101 		rsbs	r1, r0, #1
 557 0346 38BF     		it	cc
 558 0348 0021     		movcc	r1, #0
 559 034a 1720     		movs	r0, #23
 560              	.LVL76:
 561 034c FFF7FEFF 		bl	_test_assert
 562              	.LVL77:
 563 0350 0028     		cmp	r0, #0
 564 0352 7FF483AE 		bne	.L1
 565              		.loc 1 163 0
 566 0356 4321     		movs	r1, #67
 567 0358 1048     		ldr	r0, .L31
 568 035a FFF7FEFF 		bl	chMBPostI
 569              	.LVL78:
 570              		.loc 1 164 0
ARM GAS  /tmp/cc2GUxSc.s 			page 11


 571 035e D0F10101 		rsbs	r1, r0, #1
 572 0362 38BF     		it	cc
 573 0364 0021     		movcc	r1, #0
 574 0366 1820     		movs	r0, #24
 575              	.LVL79:
 576 0368 FFF7FEFF 		bl	_test_assert
 577              	.LVL80:
 578 036c 0028     		cmp	r0, #0
 579 036e 7FF475AE 		bne	.L1
 580              		.loc 1 165 0
 581 0372 4421     		movs	r1, #68
 582 0374 0948     		ldr	r0, .L31
 583 0376 FFF7FEFF 		bl	chMBPostI
 584              	.LVL81:
 585              		.loc 1 166 0
 586 037a D0F10101 		rsbs	r1, r0, #1
 587 037e 38BF     		it	cc
 588 0380 0021     		movcc	r1, #0
 589 0382 1920     		movs	r0, #25
 590              	.LVL82:
 591 0384 FFF7FEFF 		bl	_test_assert
 592              	.LVL83:
 593 0388 0446     		mov	r4, r0
 594 038a 0028     		cmp	r0, #0
 595 038c 7FF466AE 		bne	.L1
 596              		.loc 1 167 0
 597 0390 4521     		movs	r1, #69
 598 0392 0248     		ldr	r0, .L31
 599 0394 FFF7FEFF 		bl	chMBPostI
 600              	.LVL84:
 601 0398 04E0     		b	.L32
 602              	.L33:
 603 039a 00BF     		.align	2
 604              	.L31:
 605 039c 00000000 		.word	.LANCHOR0
 606 03a0 00000000 		.word	.LC0
 607              	.L32:
 608 03a4 0646     		mov	r6, r0
 609              	.LVL85:
 610              		.loc 1 168 0
 611 03a6 FFF7FEFF 		bl	dbg_check_unlock
 612              	.LVL86:
 613              	.LBB21:
 614 03aa 2346     		mov	r3, r4
 615              	@ 168 "../../../test/testmbox.c" 1
 616 03ac 83F31188 		msr     BASEPRI, r3
 617              	@ 0 "" 2
 618              		.thumb
 619              	.LBE21:
 620              		.loc 1 169 0
 621 03b0 D6F10101 		rsbs	r1, r6, #1
 622 03b4 38BF     		it	cc
 623 03b6 0021     		movcc	r1, #0
 624 03b8 1A20     		movs	r0, #26
 625 03ba FFF7FEFF 		bl	_test_assert
 626              	.LVL87:
 627 03be 0028     		cmp	r0, #0
ARM GAS  /tmp/cc2GUxSc.s 			page 12


 628 03c0 7FF44CAE 		bne	.L1
 629              		.loc 1 170 0
 630 03c4 E968     		ldr	r1, [r5, #12]
 631 03c6 AB68     		ldr	r3, [r5, #8]
 632 03c8 CC1A     		subs	r4, r1, r3
 633 03ca 6142     		rsbs	r1, r4, #0
 634 03cc 6141     		adcs	r1, r1, r4
 635 03ce 1B20     		movs	r0, #27
 636 03d0 FFF7FEFF 		bl	_test_assert
 637              	.LVL88:
 638 03d4 0028     		cmp	r0, #0
 639 03d6 7FF441AE 		bne	.L1
 640 03da 0524     		movs	r4, #5
 641              	.L15:
 642              	.LVL89:
 643              	.LBB22:
 644              		.loc 1 172 0
 645 03dc 2023     		movs	r3, #32
 646              	@ 172 "../../../test/testmbox.c" 1
 647 03de 83F31188 		msr     BASEPRI, r3
 648              	@ 0 "" 2
 649              		.thumb
 650              	.LBE22:
 651 03e2 FFF7FEFF 		bl	dbg_check_lock
 652              	.LVL90:
 653              		.loc 1 173 0
 654 03e6 01A9     		add	r1, sp, #4
 655 03e8 B548     		ldr	r0, .L34
 656 03ea FFF7FEFF 		bl	chMBFetchI
 657              	.LVL91:
 658 03ee 0646     		mov	r6, r0
 659              	.LVL92:
 660              		.loc 1 174 0
 661 03f0 FFF7FEFF 		bl	dbg_check_unlock
 662              	.LVL93:
 663              	.LBB23:
 664 03f4 0023     		movs	r3, #0
 665              	@ 174 "../../../test/testmbox.c" 1
 666 03f6 83F31188 		msr     BASEPRI, r3
 667              	@ 0 "" 2
 668              		.thumb
 669              	.LBE23:
 670              		.loc 1 175 0
 671 03fa D6F10101 		rsbs	r1, r6, #1
 672 03fe 38BF     		it	cc
 673 0400 0021     		movcc	r1, #0
 674 0402 1C20     		movs	r0, #28
 675 0404 FFF7FEFF 		bl	_test_assert
 676              	.LVL94:
 677 0408 0028     		cmp	r0, #0
 678 040a 7FF427AE 		bne	.L1
 679              		.loc 1 176 0
 680 040e 9DF80400 		ldrb	r0, [sp, #4]	@ zero_extendqisi2
 681 0412 FFF7FEFF 		bl	test_emit_token
 682              	.LVL95:
 683              		.loc 1 171 0
 684 0416 013C     		subs	r4, r4, #1
ARM GAS  /tmp/cc2GUxSc.s 			page 13


 685              	.LVL96:
 686 0418 E0D1     		bne	.L15
 687              		.loc 1 178 0
 688 041a 1D20     		movs	r0, #29
 689 041c A949     		ldr	r1, .L34+4
 690 041e FFF7FEFF 		bl	_test_assert_sequence
 691              	.LVL97:
 692 0422 0028     		cmp	r0, #0
 693 0424 7FF41AAE 		bne	.L1
 694              	.LBB24:
 695              		.loc 1 179 0
 696 0428 2023     		movs	r3, #32
 697              	@ 179 "../../../test/testmbox.c" 1
 698 042a 83F31188 		msr     BASEPRI, r3
 699              	@ 0 "" 2
 700              		.thumb
 701              	.LBE24:
 702 042e FFF7FEFF 		bl	dbg_check_lock
 703              	.LVL98:
 704 0432 696A     		ldr	r1, [r5, #36]
 705 0434 4A1F     		subs	r2, r1, #5
 706 0436 5142     		rsbs	r1, r2, #0
 707 0438 4FF01E00 		mov	r0, #30
 708 043c 5141     		adcs	r1, r1, r2
 709 043e FFF7FEFF 		bl	_test_assert
 710              	.LVL99:
 711 0442 0446     		mov	r4, r0
 712              	.LVL100:
 713 0444 0028     		cmp	r0, #0
 714 0446 40F03581 		bne	.L25
 715              		.loc 1 179 0 is_stmt 0 discriminator 2
 716 044a FFF7FEFF 		bl	dbg_check_unlock
 717              	.LVL101:
 718              	.LBB25:
 719 044e 2346     		mov	r3, r4
 720              	@ 179 "../../../test/testmbox.c" 1
 721 0450 83F31188 		msr     BASEPRI, r3
 722              	@ 0 "" 2
 723              		.thumb
 724              	.LBE25:
 725              	.LBB26:
 726              		.loc 1 180 0 is_stmt 1 discriminator 2
 727 0454 2023     		movs	r3, #32
 728              	@ 180 "../../../test/testmbox.c" 1
 729 0456 83F31188 		msr     BASEPRI, r3
 730              	@ 0 "" 2
 731              		.thumb
 732              	.LBE26:
 733 045a FFF7FEFF 		bl	dbg_check_lock
 734              	.LVL102:
 735 045e A969     		ldr	r1, [r5, #24]
 736 0460 D1F10101 		rsbs	r1, r1, #1
 737 0464 4FF01F00 		mov	r0, #31
 738 0468 38BF     		it	cc
 739 046a 0021     		movcc	r1, #0
 740 046c FFF7FEFF 		bl	_test_assert
 741              	.LVL103:
ARM GAS  /tmp/cc2GUxSc.s 			page 14


 742 0470 0446     		mov	r4, r0
 743 0472 0028     		cmp	r0, #0
 744 0474 40F01E81 		bne	.L25
 745 0478 FFF7FEFF 		bl	dbg_check_unlock
 746              	.LVL104:
 747              	.LBB27:
 748 047c 2346     		mov	r3, r4
 749              	@ 180 "../../../test/testmbox.c" 1
 750 047e 83F31188 		msr     BASEPRI, r3
 751              	@ 0 "" 2
 752              		.thumb
 753              	.LBE27:
 754              		.loc 1 181 0 discriminator 2
 755 0482 E968     		ldr	r1, [r5, #12]
 756 0484 AB68     		ldr	r3, [r5, #8]
 757 0486 CB1A     		subs	r3, r1, r3
 758 0488 5942     		rsbs	r1, r3, #0
 759 048a 5941     		adcs	r1, r1, r3
 760 048c 2020     		movs	r0, #32
 761 048e FFF7FEFF 		bl	_test_assert
 762              	.LVL105:
 763 0492 0028     		cmp	r0, #0
 764 0494 7FF4E2AD 		bne	.L1
 765              	.LBB28:
 766              		.loc 1 183 0
 767 0498 2023     		movs	r3, #32
 768              	@ 183 "../../../test/testmbox.c" 1
 769 049a 83F31188 		msr     BASEPRI, r3
 770              	@ 0 "" 2
 771              		.thumb
 772              	.LBE28:
 773 049e FFF7FEFF 		bl	dbg_check_lock
 774              	.LVL106:
 775              		.loc 1 184 0
 776 04a2 4521     		movs	r1, #69
 777 04a4 8648     		ldr	r0, .L34
 778 04a6 FFF7FEFF 		bl	chMBPostAheadI
 779              	.LVL107:
 780              		.loc 1 185 0
 781 04aa D0F10101 		rsbs	r1, r0, #1
 782 04ae 38BF     		it	cc
 783 04b0 0021     		movcc	r1, #0
 784 04b2 2120     		movs	r0, #33
 785              	.LVL108:
 786 04b4 FFF7FEFF 		bl	_test_assert
 787              	.LVL109:
 788 04b8 0028     		cmp	r0, #0
 789 04ba 7FF4CFAD 		bne	.L1
 790              		.loc 1 186 0
 791 04be 4421     		movs	r1, #68
 792 04c0 7F48     		ldr	r0, .L34
 793 04c2 FFF7FEFF 		bl	chMBPostAheadI
 794              	.LVL110:
 795              		.loc 1 187 0
 796 04c6 D0F10101 		rsbs	r1, r0, #1
 797 04ca 38BF     		it	cc
 798 04cc 0021     		movcc	r1, #0
ARM GAS  /tmp/cc2GUxSc.s 			page 15


 799 04ce 2220     		movs	r0, #34
 800              	.LVL111:
 801 04d0 FFF7FEFF 		bl	_test_assert
 802              	.LVL112:
 803 04d4 0028     		cmp	r0, #0
 804 04d6 7FF4C1AD 		bne	.L1
 805              		.loc 1 188 0
 806 04da 4321     		movs	r1, #67
 807 04dc 7848     		ldr	r0, .L34
 808 04de FFF7FEFF 		bl	chMBPostAheadI
 809              	.LVL113:
 810              		.loc 1 189 0
 811 04e2 D0F10101 		rsbs	r1, r0, #1
 812 04e6 38BF     		it	cc
 813 04e8 0021     		movcc	r1, #0
 814 04ea 2320     		movs	r0, #35
 815              	.LVL114:
 816 04ec FFF7FEFF 		bl	_test_assert
 817              	.LVL115:
 818 04f0 0028     		cmp	r0, #0
 819 04f2 7FF4B3AD 		bne	.L1
 820              		.loc 1 190 0
 821 04f6 4221     		movs	r1, #66
 822 04f8 7148     		ldr	r0, .L34
 823 04fa FFF7FEFF 		bl	chMBPostAheadI
 824              	.LVL116:
 825              		.loc 1 191 0
 826 04fe D0F10101 		rsbs	r1, r0, #1
 827 0502 38BF     		it	cc
 828 0504 0021     		movcc	r1, #0
 829 0506 2420     		movs	r0, #36
 830              	.LVL117:
 831 0508 FFF7FEFF 		bl	_test_assert
 832              	.LVL118:
 833 050c 0028     		cmp	r0, #0
 834 050e 7FF4A5AD 		bne	.L1
 835              		.loc 1 192 0
 836 0512 4121     		movs	r1, #65
 837 0514 6A48     		ldr	r0, .L34
 838 0516 FFF7FEFF 		bl	chMBPostAheadI
 839              	.LVL119:
 840 051a 0446     		mov	r4, r0
 841              	.LVL120:
 842              		.loc 1 193 0
 843 051c FFF7FEFF 		bl	dbg_check_unlock
 844              	.LVL121:
 845              	.LBB29:
 846 0520 0023     		movs	r3, #0
 847              	@ 193 "../../../test/testmbox.c" 1
 848 0522 83F31188 		msr     BASEPRI, r3
 849              	@ 0 "" 2
 850              		.thumb
 851              	.LBE29:
 852              		.loc 1 194 0
 853 0526 D4F10101 		rsbs	r1, r4, #1
 854 052a 38BF     		it	cc
 855 052c 0021     		movcc	r1, #0
ARM GAS  /tmp/cc2GUxSc.s 			page 16


 856 052e 2520     		movs	r0, #37
 857 0530 FFF7FEFF 		bl	_test_assert
 858              	.LVL122:
 859 0534 0028     		cmp	r0, #0
 860 0536 7FF491AD 		bne	.L1
 861              		.loc 1 195 0
 862 053a E968     		ldr	r1, [r5, #12]
 863 053c AB68     		ldr	r3, [r5, #8]
 864 053e B1EB030C 		subs	ip, r1, r3
 865 0542 DCF10001 		rsbs	r1, ip, #0
 866 0546 51EB0C01 		adcs	r1, r1, ip
 867 054a 2620     		movs	r0, #38
 868 054c FFF7FEFF 		bl	_test_assert
 869              	.LVL123:
 870 0550 0028     		cmp	r0, #0
 871 0552 7FF483AD 		bne	.L1
 872 0556 0524     		movs	r4, #5
 873              	.LVL124:
 874              	.L19:
 875              	.LBB30:
 876              		.loc 1 197 0
 877 0558 2023     		movs	r3, #32
 878              	@ 197 "../../../test/testmbox.c" 1
 879 055a 83F31188 		msr     BASEPRI, r3
 880              	@ 0 "" 2
 881              		.thumb
 882              	.LBE30:
 883 055e FFF7FEFF 		bl	dbg_check_lock
 884              	.LVL125:
 885              		.loc 1 198 0
 886 0562 01A9     		add	r1, sp, #4
 887 0564 5648     		ldr	r0, .L34
 888 0566 FFF7FEFF 		bl	chMBFetchI
 889              	.LVL126:
 890 056a 0646     		mov	r6, r0
 891              	.LVL127:
 892              		.loc 1 199 0
 893 056c FFF7FEFF 		bl	dbg_check_unlock
 894              	.LVL128:
 895              	.LBB31:
 896 0570 0023     		movs	r3, #0
 897              	@ 199 "../../../test/testmbox.c" 1
 898 0572 83F31188 		msr     BASEPRI, r3
 899              	@ 0 "" 2
 900              		.thumb
 901              	.LBE31:
 902              		.loc 1 200 0
 903 0576 D6F10101 		rsbs	r1, r6, #1
 904 057a 38BF     		it	cc
 905 057c 0021     		movcc	r1, #0
 906 057e 2720     		movs	r0, #39
 907 0580 FFF7FEFF 		bl	_test_assert
 908              	.LVL129:
 909 0584 0028     		cmp	r0, #0
 910 0586 7FF469AD 		bne	.L1
 911              		.loc 1 201 0
 912 058a 9DF80400 		ldrb	r0, [sp, #4]	@ zero_extendqisi2
ARM GAS  /tmp/cc2GUxSc.s 			page 17


 913 058e FFF7FEFF 		bl	test_emit_token
 914              	.LVL130:
 915              		.loc 1 196 0
 916 0592 013C     		subs	r4, r4, #1
 917              	.LVL131:
 918 0594 E0D1     		bne	.L19
 919              		.loc 1 203 0
 920 0596 2820     		movs	r0, #40
 921 0598 4A49     		ldr	r1, .L34+4
 922 059a FFF7FEFF 		bl	_test_assert_sequence
 923              	.LVL132:
 924 059e 0028     		cmp	r0, #0
 925 05a0 7FF45CAD 		bne	.L1
 926              	.LBB32:
 927              		.loc 1 204 0
 928 05a4 2023     		movs	r3, #32
 929              	@ 204 "../../../test/testmbox.c" 1
 930 05a6 83F31188 		msr     BASEPRI, r3
 931              	@ 0 "" 2
 932              		.thumb
 933              	.LBE32:
 934 05aa FFF7FEFF 		bl	dbg_check_lock
 935              	.LVL133:
 936 05ae 696A     		ldr	r1, [r5, #36]
 937 05b0 B1F1050E 		subs	lr, r1, #5
 938 05b4 DEF10001 		rsbs	r1, lr, #0
 939 05b8 4FF02900 		mov	r0, #41
 940 05bc 51EB0E01 		adcs	r1, r1, lr
 941 05c0 FFF7FEFF 		bl	_test_assert
 942              	.LVL134:
 943 05c4 0446     		mov	r4, r0
 944              	.LVL135:
 945 05c6 0028     		cmp	r0, #0
 946 05c8 74D1     		bne	.L25
 947              		.loc 1 204 0 is_stmt 0 discriminator 2
 948 05ca FFF7FEFF 		bl	dbg_check_unlock
 949              	.LVL136:
 950              	.LBB33:
 951 05ce 2346     		mov	r3, r4
 952              	@ 204 "../../../test/testmbox.c" 1
 953 05d0 83F31188 		msr     BASEPRI, r3
 954              	@ 0 "" 2
 955              		.thumb
 956              	.LBE33:
 957              	.LBB34:
 958              		.loc 1 205 0 is_stmt 1 discriminator 2
 959 05d4 2023     		movs	r3, #32
 960              	@ 205 "../../../test/testmbox.c" 1
 961 05d6 83F31188 		msr     BASEPRI, r3
 962              	@ 0 "" 2
 963              		.thumb
 964              	.LBE34:
 965 05da FFF7FEFF 		bl	dbg_check_lock
 966              	.LVL137:
 967 05de A969     		ldr	r1, [r5, #24]
 968 05e0 D1F10101 		rsbs	r1, r1, #1
 969 05e4 4FF02A00 		mov	r0, #42
ARM GAS  /tmp/cc2GUxSc.s 			page 18


 970 05e8 38BF     		it	cc
 971 05ea 0021     		movcc	r1, #0
 972 05ec FFF7FEFF 		bl	_test_assert
 973              	.LVL138:
 974 05f0 0446     		mov	r4, r0
 975 05f2 0028     		cmp	r0, #0
 976 05f4 5ED1     		bne	.L25
 977 05f6 FFF7FEFF 		bl	dbg_check_unlock
 978              	.LVL139:
 979              	.LBB35:
 980 05fa 2346     		mov	r3, r4
 981              	@ 205 "../../../test/testmbox.c" 1
 982 05fc 83F31188 		msr     BASEPRI, r3
 983              	@ 0 "" 2
 984              		.thumb
 985              	.LBE35:
 986              		.loc 1 206 0 discriminator 2
 987 0600 E968     		ldr	r1, [r5, #12]
 988 0602 AB68     		ldr	r3, [r5, #8]
 989 0604 CE1A     		subs	r6, r1, r3
 990              	.LVL140:
 991 0606 7142     		rsbs	r1, r6, #0
 992 0608 7141     		adcs	r1, r1, r6
 993 060a 2B20     		movs	r0, #43
 994 060c FFF7FEFF 		bl	_test_assert
 995              	.LVL141:
 996 0610 0028     		cmp	r0, #0
 997 0612 7FF423AD 		bne	.L1
 998              		.loc 1 211 0
 999 0616 2A48     		ldr	r0, .L34
 1000 0618 FFF7FEFF 		bl	chMBReset
 1001              	.LVL142:
 1002              	.LBB36:
 1003              		.loc 1 216 0
 1004 061c 2023     		movs	r3, #32
 1005              	@ 216 "../../../test/testmbox.c" 1
 1006 061e 83F31188 		msr     BASEPRI, r3
 1007              	@ 0 "" 2
 1008              		.thumb
 1009              	.LBE36:
 1010 0622 FFF7FEFF 		bl	dbg_check_lock
 1011              	.LVL143:
 1012 0626 696A     		ldr	r1, [r5, #36]
 1013 0628 4C1F     		subs	r4, r1, #5
 1014 062a 6142     		rsbs	r1, r4, #0
 1015 062c 6141     		adcs	r1, r1, r4
 1016 062e 2C20     		movs	r0, #44
 1017 0630 FFF7FEFF 		bl	_test_assert
 1018              	.LVL144:
 1019 0634 0446     		mov	r4, r0
 1020 0636 0028     		cmp	r0, #0
 1021 0638 3CD1     		bne	.L25
 1022              		.loc 1 216 0 is_stmt 0 discriminator 2
 1023 063a FFF7FEFF 		bl	dbg_check_unlock
 1024              	.LVL145:
 1025              	.LBB37:
 1026 063e 2346     		mov	r3, r4
ARM GAS  /tmp/cc2GUxSc.s 			page 19


 1027              	@ 216 "../../../test/testmbox.c" 1
 1028 0640 83F31188 		msr     BASEPRI, r3
 1029              	@ 0 "" 2
 1030              		.thumb
 1031              	.LBE37:
 1032              	.LBB38:
 1033              		.loc 1 217 0 is_stmt 1 discriminator 2
 1034 0644 2023     		movs	r3, #32
 1035              	@ 217 "../../../test/testmbox.c" 1
 1036 0646 83F31188 		msr     BASEPRI, r3
 1037              	@ 0 "" 2
 1038              		.thumb
 1039              	.LBE38:
 1040 064a FFF7FEFF 		bl	dbg_check_lock
 1041              	.LVL146:
 1042 064e A969     		ldr	r1, [r5, #24]
 1043 0650 D1F10101 		rsbs	r1, r1, #1
 1044 0654 4FF02D00 		mov	r0, #45
 1045 0658 38BF     		it	cc
 1046 065a 0021     		movcc	r1, #0
 1047 065c FFF7FEFF 		bl	_test_assert
 1048              	.LVL147:
 1049 0660 0446     		mov	r4, r0
 1050 0662 38BB     		cbnz	r0, .L25
 1051 0664 FFF7FEFF 		bl	dbg_check_unlock
 1052              	.LVL148:
 1053              	.LBB39:
 1054 0668 2346     		mov	r3, r4
 1055              	@ 217 "../../../test/testmbox.c" 1
 1056 066a 83F31188 		msr     BASEPRI, r3
 1057              	@ 0 "" 2
 1058              		.thumb
 1059              	.LBE39:
 1060              	.LBB40:
 1061              		.loc 1 218 0 discriminator 2
 1062 066e 2023     		movs	r3, #32
 1063              	@ 218 "../../../test/testmbox.c" 1
 1064 0670 83F31188 		msr     BASEPRI, r3
 1065              	@ 0 "" 2
 1066              		.thumb
 1067              	.LBE40:
 1068 0674 FFF7FEFF 		bl	dbg_check_lock
 1069              	.LVL149:
 1070 0678 2968     		ldr	r1, [r5]
 1071 067a AB68     		ldr	r3, [r5, #8]
 1072 067c CA1A     		subs	r2, r1, r3
 1073 067e 5142     		rsbs	r1, r2, #0
 1074 0680 4FF02E00 		mov	r0, #46
 1075 0684 5141     		adcs	r1, r1, r2
 1076 0686 FFF7FEFF 		bl	_test_assert
 1077              	.LVL150:
 1078 068a 0446     		mov	r4, r0
 1079 068c 90B9     		cbnz	r0, .L25
 1080 068e FFF7FEFF 		bl	dbg_check_unlock
 1081              	.LVL151:
 1082              	.LBB41:
 1083 0692 2346     		mov	r3, r4
ARM GAS  /tmp/cc2GUxSc.s 			page 20


 1084              	@ 218 "../../../test/testmbox.c" 1
 1085 0694 83F31188 		msr     BASEPRI, r3
 1086              	@ 0 "" 2
 1087              		.thumb
 1088              	.LBE41:
 1089              	.LBB42:
 1090              		.loc 1 219 0 discriminator 2
 1091 0698 2023     		movs	r3, #32
 1092              	@ 219 "../../../test/testmbox.c" 1
 1093 069a 83F31188 		msr     BASEPRI, r3
 1094              	@ 0 "" 2
 1095              		.thumb
 1096              	.LBE42:
 1097 069e FFF7FEFF 		bl	dbg_check_lock
 1098              	.LVL152:
 1099 06a2 2968     		ldr	r1, [r5]
 1100 06a4 EB68     		ldr	r3, [r5, #12]
 1101 06a6 CB1A     		subs	r3, r1, r3
 1102 06a8 5942     		rsbs	r1, r3, #0
 1103 06aa 4FF02F00 		mov	r0, #47
 1104 06ae 5941     		adcs	r1, r1, r3
 1105 06b0 FFF7FEFF 		bl	_test_assert
 1106              	.LVL153:
 1107              	.L25:
 1108 06b4 FFF7FEFF 		bl	dbg_check_unlock
 1109              	.LVL154:
 1110              	.LBB43:
 1111 06b8 0023     		movs	r3, #0
 1112              	@ 219 "../../../test/testmbox.c" 1
 1113 06ba 83F31188 		msr     BASEPRI, r3
 1114              	@ 0 "" 2
 1115              		.thumb
 1116              	.LBE43:
 1117 06be CDE4     		b	.L1
 1118              	.L35:
 1119              		.align	2
 1120              	.L34:
 1121 06c0 00000000 		.word	.LANCHOR0
 1122 06c4 00000000 		.word	.LC0
 1123              		.cfi_endproc
 1124              	.LFE8:
 1125              		.size	mbox1_execute, .-mbox1_execute
 1126 06c8 AFF30080 		.section	.text.mbox1_setup,"ax",%progbits
 1126      AFF30080 
 1127              		.align	2
 1128              		.p2align 4,,15
 1129              		.thumb
 1130              		.thumb_func
 1131              		.type	mbox1_setup, %function
 1132              	mbox1_setup:
 1133              	.LFB7:
 1134              		.loc 1 71 0
 1135              		.cfi_startproc
 1136              		@ args = 0, pretend = 0, frame = 0
 1137              		@ frame_needed = 0, uses_anonymous_args = 0
 1138              		@ link register save eliminated.
 1139              		.loc 1 73 0
ARM GAS  /tmp/cc2GUxSc.s 			page 21


 1140 0000 0248     		ldr	r0, .L37
 1141 0002 0349     		ldr	r1, .L37+4
 1142 0004 0522     		movs	r2, #5
 1143 0006 FFF7FEBF 		b	chMBInit
 1144              	.LVL155:
 1145              	.L38:
 1146 000a 00BF     		.align	2
 1147              	.L37:
 1148 000c 00000000 		.word	.LANCHOR0
 1149 0010 00000000 		.word	test
 1150              		.cfi_endproc
 1151              	.LFE7:
 1152              		.size	mbox1_setup, .-mbox1_setup
 1153              		.global	patternmbox
 1154              		.global	testmbox1
 1155 0014 AFF30080 		.section	.data.mb1,"aw",%progbits
 1155      AFF30080 
 1155      AFF30080 
 1156              		.align	2
 1157              		.set	.LANCHOR0,. + 0
 1158              		.type	mb1, %object
 1159              		.size	mb1, 40
 1160              	mb1:
 1161 0000 00000000 		.word	test
 1162 0004 14000000 		.word	test+20
 1163 0008 00000000 		.word	test
 1164 000c 00000000 		.word	test
 1165 0010 10000000 		.word	mb1+16
 1166 0014 10000000 		.word	mb1+16
 1167 0018 00000000 		.word	0
 1168 001c 1C000000 		.word	mb1+28
 1169 0020 1C000000 		.word	mb1+28
 1170 0024 05000000 		.word	5
 1171              		.section	.rodata.patternmbox,"a",%progbits
 1172              		.align	2
 1173              		.type	patternmbox, %object
 1174              		.size	patternmbox, 8
 1175              	patternmbox:
 1176 0000 00000000 		.word	testmbox1
 1177 0004 00000000 		.word	0
 1178              		.section	.rodata.str1.4,"aMS",%progbits,1
 1179              		.align	2
 1180              	.LC0:
 1181 0000 41424344 		.ascii	"ABCDE\000"
 1181      4500
 1182 0006 0000     		.space	2
 1183              	.LC1:
 1184 0008 4D61696C 		.ascii	"Mailboxes, queuing and timeouts\000"
 1184      626F7865 
 1184      732C2071 
 1184      75657569 
 1184      6E672061 
 1185              		.section	.rodata.testmbox1,"a",%progbits
 1186              		.align	2
 1187              		.type	testmbox1, %object
 1188              		.size	testmbox1, 16
 1189              	testmbox1:
ARM GAS  /tmp/cc2GUxSc.s 			page 22


 1190 0000 08000000 		.word	.LC1
 1191 0004 00000000 		.word	mbox1_setup
 1192 0008 00000000 		.word	0
 1193 000c 00000000 		.word	mbox1_execute
 1194              		.text
 1195              	.Letext0:
 1196              		.file 2 "/usr/arm-none-eabi/include/stdint.h"
 1197              		.file 3 "../../../os/ports/GCC/ARMCMx/chtypes.h"
 1198              		.file 4 "../../../os/kernel/include/chlists.h"
 1199              		.file 5 "../../../os/kernel/include/chthreads.h"
 1200              		.file 6 "../../../os/ports/GCC/ARMCMx/chcore_v7m.h"
 1201              		.file 7 "../../../os/kernel/include/chsem.h"
 1202              		.file 8 "../../../os/kernel/include/chmtx.h"
 1203              		.file 9 "../../../os/kernel/include/chmboxes.h"
 1204              		.file 10 "../../../test/test.h"
 1205              		.file 11 "../../../os/kernel/include/chdebug.h"
 1206              		.section	.debug_info,"",%progbits
 1207              	.Ldebug_info0:
 1208 0000 16140000 		.4byte	0x1416
 1209 0004 0400     		.2byte	0x4
 1210 0006 00000000 		.4byte	.Ldebug_abbrev0
 1211 000a 04       		.byte	0x4
 1212 000b 01       		.uleb128 0x1
 1213 000c C5020000 		.4byte	.LASF96
 1214 0010 01       		.byte	0x1
 1215 0011 92000000 		.4byte	.LASF97
 1216 0015 10010000 		.4byte	.LASF98
 1217 0019 00000000 		.4byte	.Ldebug_ranges0+0
 1218 001d 00000000 		.4byte	0
 1219 0021 00000000 		.4byte	.Ldebug_line0
 1220 0025 02       		.uleb128 0x2
 1221 0026 04       		.byte	0x4
 1222 0027 05       		.byte	0x5
 1223 0028 696E7400 		.ascii	"int\000"
 1224 002c 03       		.uleb128 0x3
 1225 002d 04       		.byte	0x4
 1226 002e 07       		.byte	0x7
 1227 002f 5C010000 		.4byte	.LASF0
 1228 0033 03       		.uleb128 0x3
 1229 0034 01       		.byte	0x1
 1230 0035 06       		.byte	0x6
 1231 0036 86000000 		.4byte	.LASF1
 1232 003a 04       		.uleb128 0x4
 1233 003b A4040000 		.4byte	.LASF5
 1234 003f 02       		.byte	0x2
 1235 0040 2A       		.byte	0x2a
 1236 0041 45000000 		.4byte	0x45
 1237 0045 03       		.uleb128 0x3
 1238 0046 01       		.byte	0x1
 1239 0047 08       		.byte	0x8
 1240 0048 AD030000 		.4byte	.LASF2
 1241 004c 03       		.uleb128 0x3
 1242 004d 02       		.byte	0x2
 1243 004e 05       		.byte	0x5
 1244 004f CC030000 		.4byte	.LASF3
 1245 0053 03       		.uleb128 0x3
 1246 0054 02       		.byte	0x2
ARM GAS  /tmp/cc2GUxSc.s 			page 23


 1247 0055 07       		.byte	0x7
 1248 0056 B6010000 		.4byte	.LASF4
 1249 005a 04       		.uleb128 0x4
 1250 005b A5030000 		.4byte	.LASF6
 1251 005f 02       		.byte	0x2
 1252 0060 4F       		.byte	0x4f
 1253 0061 65000000 		.4byte	0x65
 1254 0065 03       		.uleb128 0x3
 1255 0066 04       		.byte	0x4
 1256 0067 05       		.byte	0x5
 1257 0068 E5000000 		.4byte	.LASF7
 1258 006c 04       		.uleb128 0x4
 1259 006d 19040000 		.4byte	.LASF8
 1260 0071 02       		.byte	0x2
 1261 0072 50       		.byte	0x50
 1262 0073 77000000 		.4byte	0x77
 1263 0077 03       		.uleb128 0x3
 1264 0078 04       		.byte	0x4
 1265 0079 07       		.byte	0x7
 1266 007a 7C010000 		.4byte	.LASF9
 1267 007e 03       		.uleb128 0x3
 1268 007f 08       		.byte	0x8
 1269 0080 05       		.byte	0x5
 1270 0081 78000000 		.4byte	.LASF10
 1271 0085 04       		.uleb128 0x4
 1272 0086 0D000000 		.4byte	.LASF11
 1273 008a 02       		.byte	0x2
 1274 008b 78       		.byte	0x78
 1275 008c 90000000 		.4byte	0x90
 1276 0090 03       		.uleb128 0x3
 1277 0091 08       		.byte	0x8
 1278 0092 07       		.byte	0x7
 1279 0093 37000000 		.4byte	.LASF12
 1280 0097 04       		.uleb128 0x4
 1281 0098 B3000000 		.4byte	.LASF13
 1282 009c 03       		.byte	0x3
 1283 009d 24       		.byte	0x24
 1284 009e A2000000 		.4byte	0xa2
 1285 00a2 03       		.uleb128 0x3
 1286 00a3 01       		.byte	0x1
 1287 00a4 02       		.byte	0x2
 1288 00a5 9F030000 		.4byte	.LASF14
 1289 00a9 04       		.uleb128 0x4
 1290 00aa DA010000 		.4byte	.LASF15
 1291 00ae 03       		.byte	0x3
 1292 00af 25       		.byte	0x25
 1293 00b0 3A000000 		.4byte	0x3a
 1294 00b4 04       		.uleb128 0x4
 1295 00b5 EE000000 		.4byte	.LASF16
 1296 00b9 03       		.byte	0x3
 1297 00ba 26       		.byte	0x26
 1298 00bb 3A000000 		.4byte	0x3a
 1299 00bf 04       		.uleb128 0x4
 1300 00c0 A6020000 		.4byte	.LASF17
 1301 00c4 03       		.byte	0x3
 1302 00c5 27       		.byte	0x27
 1303 00c6 3A000000 		.4byte	0x3a
ARM GAS  /tmp/cc2GUxSc.s 			page 24


 1304 00ca 04       		.uleb128 0x4
 1305 00cb D2000000 		.4byte	.LASF18
 1306 00cf 03       		.byte	0x3
 1307 00d0 28       		.byte	0x28
 1308 00d1 3A000000 		.4byte	0x3a
 1309 00d5 04       		.uleb128 0x4
 1310 00d6 BD020000 		.4byte	.LASF19
 1311 00da 03       		.byte	0x3
 1312 00db 29       		.byte	0x29
 1313 00dc 6C000000 		.4byte	0x6c
 1314 00e0 04       		.uleb128 0x4
 1315 00e1 D4010000 		.4byte	.LASF20
 1316 00e5 03       		.byte	0x3
 1317 00e6 2A       		.byte	0x2a
 1318 00e7 5A000000 		.4byte	0x5a
 1319 00eb 04       		.uleb128 0x4
 1320 00ec FA010000 		.4byte	.LASF21
 1321 00f0 03       		.byte	0x3
 1322 00f1 2C       		.byte	0x2c
 1323 00f2 6C000000 		.4byte	0x6c
 1324 00f6 04       		.uleb128 0x4
 1325 00f7 2E040000 		.4byte	.LASF22
 1326 00fb 03       		.byte	0x3
 1327 00fc 2E       		.byte	0x2e
 1328 00fd 6C000000 		.4byte	0x6c
 1329 0101 04       		.uleb128 0x4
 1330 0102 4B010000 		.4byte	.LASF23
 1331 0106 03       		.byte	0x3
 1332 0107 2F       		.byte	0x2f
 1333 0108 5A000000 		.4byte	0x5a
 1334 010c 04       		.uleb128 0x4
 1335 010d FE030000 		.4byte	.LASF24
 1336 0111 04       		.byte	0x4
 1337 0112 23       		.byte	0x23
 1338 0113 17010000 		.4byte	0x117
 1339 0117 05       		.uleb128 0x5
 1340 0118 FE030000 		.4byte	.LASF24
 1341 011c 4C       		.byte	0x4c
 1342 011d 05       		.byte	0x5
 1343 011e 57       		.byte	0x57
 1344 011f 20020000 		.4byte	0x220
 1345 0123 06       		.uleb128 0x6
 1346 0124 EF030000 		.4byte	.LASF25
 1347 0128 05       		.byte	0x5
 1348 0129 58       		.byte	0x58
 1349 012a 41020000 		.4byte	0x241
 1350 012e 00       		.byte	0
 1351 012f 06       		.uleb128 0x6
 1352 0130 AE020000 		.4byte	.LASF26
 1353 0134 05       		.byte	0x5
 1354 0135 5A       		.byte	0x5a
 1355 0136 41020000 		.4byte	0x241
 1356 013a 04       		.byte	0x4
 1357 013b 06       		.uleb128 0x6
 1358 013c 71000000 		.4byte	.LASF27
 1359 0140 05       		.byte	0x5
 1360 0141 5C       		.byte	0x5c
ARM GAS  /tmp/cc2GUxSc.s 			page 25


 1361 0142 D5000000 		.4byte	0xd5
 1362 0146 08       		.byte	0x8
 1363 0147 06       		.uleb128 0x6
 1364 0148 CF040000 		.4byte	.LASF28
 1365 014c 05       		.byte	0x5
 1366 014d 5D       		.byte	0x5d
 1367 014e 06030000 		.4byte	0x306
 1368 0152 0C       		.byte	0xc
 1369 0153 06       		.uleb128 0x6
 1370 0154 F7000000 		.4byte	.LASF29
 1371 0158 05       		.byte	0x5
 1372 0159 5F       		.byte	0x5f
 1373 015a 41020000 		.4byte	0x241
 1374 015e 10       		.byte	0x10
 1375 015f 06       		.uleb128 0x6
 1376 0160 3D020000 		.4byte	.LASF30
 1377 0164 05       		.byte	0x5
 1378 0165 60       		.byte	0x60
 1379 0166 41020000 		.4byte	0x241
 1380 016a 14       		.byte	0x14
 1381 016b 06       		.uleb128 0x6
 1382 016c B3040000 		.4byte	.LASF31
 1383 0170 05       		.byte	0x5
 1384 0171 67       		.byte	0x67
 1385 0172 3C040000 		.4byte	0x43c
 1386 0176 18       		.byte	0x18
 1387 0177 06       		.uleb128 0x6
 1388 0178 51010000 		.4byte	.LASF32
 1389 017c 05       		.byte	0x5
 1390 017d 6D       		.byte	0x6d
 1391 017e 4E040000 		.4byte	0x44e
 1392 0182 1C       		.byte	0x1c
 1393 0183 06       		.uleb128 0x6
 1394 0184 D6030000 		.4byte	.LASF33
 1395 0188 05       		.byte	0x5
 1396 0189 72       		.byte	0x72
 1397 018a B4000000 		.4byte	0xb4
 1398 018e 20       		.byte	0x20
 1399 018f 06       		.uleb128 0x6
 1400 0190 F6030000 		.4byte	.LASF34
 1401 0194 05       		.byte	0x5
 1402 0195 76       		.byte	0x76
 1403 0196 A9000000 		.4byte	0xa9
 1404 019a 21       		.byte	0x21
 1405 019b 06       		.uleb128 0x6
 1406 019c 9D040000 		.4byte	.LASF35
 1407 01a0 05       		.byte	0x5
 1408 01a1 7B       		.byte	0x7b
 1409 01a2 BF000000 		.4byte	0xbf
 1410 01a6 22       		.byte	0x22
 1411 01a7 06       		.uleb128 0x6
 1412 01a8 DE030000 		.4byte	.LASF36
 1413 01ac 05       		.byte	0x5
 1414 01ad 81       		.byte	0x81
 1415 01ae CA000000 		.4byte	0xca
 1416 01b2 23       		.byte	0x23
 1417 01b3 06       		.uleb128 0x6
ARM GAS  /tmp/cc2GUxSc.s 			page 26


 1418 01b4 4A040000 		.4byte	.LASF37
 1419 01b8 05       		.byte	0x5
 1420 01b9 88       		.byte	0x88
 1421 01ba 2E030000 		.4byte	0x32e
 1422 01be 24       		.byte	0x24
 1423 01bf 07       		.uleb128 0x7
 1424 01c0 705F7500 		.ascii	"p_u\000"
 1425 01c4 05       		.byte	0x5
 1426 01c5 AD       		.byte	0xad
 1427 01c6 07040000 		.4byte	0x407
 1428 01ca 28       		.byte	0x28
 1429 01cb 06       		.uleb128 0x6
 1430 01cc D5040000 		.4byte	.LASF38
 1431 01d0 05       		.byte	0x5
 1432 01d1 B2       		.byte	0xb2
 1433 01d2 67020000 		.4byte	0x267
 1434 01d6 2C       		.byte	0x2c
 1435 01d7 06       		.uleb128 0x6
 1436 01d8 66040000 		.4byte	.LASF39
 1437 01dc 05       		.byte	0x5
 1438 01dd B8       		.byte	0xb8
 1439 01de 47020000 		.4byte	0x247
 1440 01e2 30       		.byte	0x30
 1441 01e3 06       		.uleb128 0x6
 1442 01e4 00000000 		.4byte	.LASF40
 1443 01e8 05       		.byte	0x5
 1444 01e9 BC       		.byte	0xbc
 1445 01ea E0000000 		.4byte	0xe0
 1446 01ee 38       		.byte	0x38
 1447 01ef 06       		.uleb128 0x6
 1448 01f0 0E040000 		.4byte	.LASF41
 1449 01f4 05       		.byte	0x5
 1450 01f5 C2       		.byte	0xc2
 1451 01f6 EB000000 		.4byte	0xeb
 1452 01fa 3C       		.byte	0x3c
 1453 01fb 06       		.uleb128 0x6
 1454 01fc C2030000 		.4byte	.LASF42
 1455 0200 05       		.byte	0x5
 1456 0201 C9       		.byte	0xc9
 1457 0202 54040000 		.4byte	0x454
 1458 0206 40       		.byte	0x40
 1459 0207 06       		.uleb128 0x6
 1460 0208 38040000 		.4byte	.LASF43
 1461 020c 05       		.byte	0x5
 1462 020d CD       		.byte	0xcd
 1463 020e D5000000 		.4byte	0xd5
 1464 0212 44       		.byte	0x44
 1465 0213 06       		.uleb128 0x6
 1466 0214 AB000000 		.4byte	.LASF44
 1467 0218 05       		.byte	0x5
 1468 0219 D3       		.byte	0xd3
 1469 021a 7D020000 		.4byte	0x27d
 1470 021e 48       		.byte	0x48
 1471 021f 00       		.byte	0
 1472 0220 08       		.uleb128 0x8
 1473 0221 08       		.byte	0x8
 1474 0222 04       		.byte	0x4
ARM GAS  /tmp/cc2GUxSc.s 			page 27


 1475 0223 5A       		.byte	0x5a
 1476 0224 41020000 		.4byte	0x241
 1477 0228 06       		.uleb128 0x6
 1478 0229 EF030000 		.4byte	.LASF25
 1479 022d 04       		.byte	0x4
 1480 022e 5B       		.byte	0x5b
 1481 022f 41020000 		.4byte	0x241
 1482 0233 00       		.byte	0
 1483 0234 06       		.uleb128 0x6
 1484 0235 AE020000 		.4byte	.LASF26
 1485 0239 04       		.byte	0x4
 1486 023a 5D       		.byte	0x5d
 1487 023b 41020000 		.4byte	0x241
 1488 023f 04       		.byte	0x4
 1489 0240 00       		.byte	0
 1490 0241 09       		.uleb128 0x9
 1491 0242 04       		.byte	0x4
 1492 0243 0C010000 		.4byte	0x10c
 1493 0247 04       		.uleb128 0x4
 1494 0248 45020000 		.4byte	.LASF45
 1495 024c 04       		.byte	0x4
 1496 024d 5F       		.byte	0x5f
 1497 024e 20020000 		.4byte	0x220
 1498 0252 08       		.uleb128 0x8
 1499 0253 04       		.byte	0x4
 1500 0254 04       		.byte	0x4
 1501 0255 64       		.byte	0x64
 1502 0256 67020000 		.4byte	0x267
 1503 025a 06       		.uleb128 0x6
 1504 025b EF030000 		.4byte	.LASF25
 1505 025f 04       		.byte	0x4
 1506 0260 66       		.byte	0x66
 1507 0261 41020000 		.4byte	0x241
 1508 0265 00       		.byte	0
 1509 0266 00       		.byte	0
 1510 0267 04       		.uleb128 0x4
 1511 0268 EE010000 		.4byte	.LASF46
 1512 026c 04       		.byte	0x4
 1513 026d 69       		.byte	0x69
 1514 026e 52020000 		.4byte	0x252
 1515 0272 04       		.uleb128 0x4
 1516 0273 07010000 		.4byte	.LASF47
 1517 0277 06       		.byte	0x6
 1518 0278 DE       		.byte	0xde
 1519 0279 7D020000 		.4byte	0x27d
 1520 027d 0A       		.uleb128 0xa
 1521 027e 04       		.byte	0x4
 1522 027f 04       		.uleb128 0x4
 1523 0280 16020000 		.4byte	.LASF48
 1524 0284 06       		.byte	0x6
 1525 0285 E4       		.byte	0xe4
 1526 0286 85000000 		.4byte	0x85
 1527 028a 0B       		.uleb128 0xb
 1528 028b 5F040000 		.4byte	.LASF49
 1529 028f 24       		.byte	0x24
 1530 0290 06       		.byte	0x6
 1531 0291 0501     		.2byte	0x105
ARM GAS  /tmp/cc2GUxSc.s 			page 28


 1532 0293 06030000 		.4byte	0x306
 1533 0297 0C       		.uleb128 0xc
 1534 0298 723400   		.ascii	"r4\000"
 1535 029b 06       		.byte	0x6
 1536 029c 1801     		.2byte	0x118
 1537 029e 72020000 		.4byte	0x272
 1538 02a2 00       		.byte	0
 1539 02a3 0C       		.uleb128 0xc
 1540 02a4 723500   		.ascii	"r5\000"
 1541 02a7 06       		.byte	0x6
 1542 02a8 1901     		.2byte	0x119
 1543 02aa 72020000 		.4byte	0x272
 1544 02ae 04       		.byte	0x4
 1545 02af 0C       		.uleb128 0xc
 1546 02b0 723600   		.ascii	"r6\000"
 1547 02b3 06       		.byte	0x6
 1548 02b4 1A01     		.2byte	0x11a
 1549 02b6 72020000 		.4byte	0x272
 1550 02ba 08       		.byte	0x8
 1551 02bb 0C       		.uleb128 0xc
 1552 02bc 723700   		.ascii	"r7\000"
 1553 02bf 06       		.byte	0x6
 1554 02c0 1B01     		.2byte	0x11b
 1555 02c2 72020000 		.4byte	0x272
 1556 02c6 0C       		.byte	0xc
 1557 02c7 0C       		.uleb128 0xc
 1558 02c8 723800   		.ascii	"r8\000"
 1559 02cb 06       		.byte	0x6
 1560 02cc 1C01     		.2byte	0x11c
 1561 02ce 72020000 		.4byte	0x272
 1562 02d2 10       		.byte	0x10
 1563 02d3 0C       		.uleb128 0xc
 1564 02d4 723900   		.ascii	"r9\000"
 1565 02d7 06       		.byte	0x6
 1566 02d8 1D01     		.2byte	0x11d
 1567 02da 72020000 		.4byte	0x272
 1568 02de 14       		.byte	0x14
 1569 02df 0C       		.uleb128 0xc
 1570 02e0 72313000 		.ascii	"r10\000"
 1571 02e4 06       		.byte	0x6
 1572 02e5 1E01     		.2byte	0x11e
 1573 02e7 72020000 		.4byte	0x272
 1574 02eb 18       		.byte	0x18
 1575 02ec 0C       		.uleb128 0xc
 1576 02ed 72313100 		.ascii	"r11\000"
 1577 02f1 06       		.byte	0x6
 1578 02f2 1F01     		.2byte	0x11f
 1579 02f4 72020000 		.4byte	0x272
 1580 02f8 1C       		.byte	0x1c
 1581 02f9 0C       		.uleb128 0xc
 1582 02fa 6C7200   		.ascii	"lr\000"
 1583 02fd 06       		.byte	0x6
 1584 02fe 2001     		.2byte	0x120
 1585 0300 72020000 		.4byte	0x272
 1586 0304 20       		.byte	0x20
 1587 0305 00       		.byte	0
 1588 0306 0B       		.uleb128 0xb
ARM GAS  /tmp/cc2GUxSc.s 			page 29


 1589 0307 AE010000 		.4byte	.LASF50
 1590 030b 04       		.byte	0x4
 1591 030c 06       		.byte	0x6
 1592 030d 2A01     		.2byte	0x12a
 1593 030f 21030000 		.4byte	0x321
 1594 0313 0C       		.uleb128 0xc
 1595 0314 72313300 		.ascii	"r13\000"
 1596 0318 06       		.byte	0x6
 1597 0319 2B01     		.2byte	0x12b
 1598 031b 21030000 		.4byte	0x321
 1599 031f 00       		.byte	0
 1600 0320 00       		.byte	0
 1601 0321 09       		.uleb128 0x9
 1602 0322 04       		.byte	0x4
 1603 0323 8A020000 		.4byte	0x28a
 1604 0327 03       		.uleb128 0x3
 1605 0328 04       		.byte	0x4
 1606 0329 07       		.byte	0x7
 1607 032a 21020000 		.4byte	.LASF51
 1608 032e 0D       		.uleb128 0xd
 1609 032f F6000000 		.4byte	0xf6
 1610 0333 05       		.uleb128 0x5
 1611 0334 7B040000 		.4byte	.LASF52
 1612 0338 0C       		.byte	0xc
 1613 0339 07       		.byte	0x7
 1614 033a 25       		.byte	0x25
 1615 033b 58030000 		.4byte	0x358
 1616 033f 06       		.uleb128 0x6
 1617 0340 FF000000 		.4byte	.LASF53
 1618 0344 07       		.byte	0x7
 1619 0345 26       		.byte	0x26
 1620 0346 47020000 		.4byte	0x247
 1621 034a 00       		.byte	0
 1622 034b 06       		.uleb128 0x6
 1623 034c A8010000 		.4byte	.LASF54
 1624 0350 07       		.byte	0x7
 1625 0351 28       		.byte	0x28
 1626 0352 01010000 		.4byte	0x101
 1627 0356 08       		.byte	0x8
 1628 0357 00       		.byte	0
 1629 0358 04       		.uleb128 0x4
 1630 0359 7B040000 		.4byte	.LASF52
 1631 035d 07       		.byte	0x7
 1632 035e 29       		.byte	0x29
 1633 035f 33030000 		.4byte	0x333
 1634 0363 05       		.uleb128 0x5
 1635 0364 06020000 		.4byte	.LASF55
 1636 0368 10       		.byte	0x10
 1637 0369 08       		.byte	0x8
 1638 036a 25       		.byte	0x25
 1639 036b 94030000 		.4byte	0x394
 1640 036f 06       		.uleb128 0x6
 1641 0370 BA000000 		.4byte	.LASF56
 1642 0374 08       		.byte	0x8
 1643 0375 26       		.byte	0x26
 1644 0376 47020000 		.4byte	0x247
 1645 037a 00       		.byte	0
ARM GAS  /tmp/cc2GUxSc.s 			page 30


 1646 037b 06       		.uleb128 0x6
 1647 037c C7040000 		.4byte	.LASF57
 1648 0380 08       		.byte	0x8
 1649 0381 28       		.byte	0x28
 1650 0382 41020000 		.4byte	0x241
 1651 0386 08       		.byte	0x8
 1652 0387 06       		.uleb128 0x6
 1653 0388 27040000 		.4byte	.LASF58
 1654 038c 08       		.byte	0x8
 1655 038d 2A       		.byte	0x2a
 1656 038e 94030000 		.4byte	0x394
 1657 0392 0C       		.byte	0xc
 1658 0393 00       		.byte	0
 1659 0394 09       		.uleb128 0x9
 1660 0395 04       		.byte	0x4
 1661 0396 63030000 		.4byte	0x363
 1662 039a 04       		.uleb128 0x4
 1663 039b 06020000 		.4byte	.LASF55
 1664 039f 08       		.byte	0x8
 1665 03a0 2C       		.byte	0x2c
 1666 03a1 63030000 		.4byte	0x363
 1667 03a5 08       		.uleb128 0x8
 1668 03a6 28       		.byte	0x28
 1669 03a7 09       		.byte	0x9
 1670 03a8 2C       		.byte	0x2c
 1671 03a9 F6030000 		.4byte	0x3f6
 1672 03ad 06       		.uleb128 0x6
 1673 03ae 6E020000 		.4byte	.LASF59
 1674 03b2 09       		.byte	0x9
 1675 03b3 2D       		.byte	0x2d
 1676 03b4 F6030000 		.4byte	0x3f6
 1677 03b8 00       		.byte	0
 1678 03b9 06       		.uleb128 0x6
 1679 03ba BB030000 		.4byte	.LASF60
 1680 03be 09       		.byte	0x9
 1681 03bf 2F       		.byte	0x2f
 1682 03c0 F6030000 		.4byte	0x3f6
 1683 03c4 04       		.byte	0x4
 1684 03c5 06       		.uleb128 0x6
 1685 03c6 68000000 		.4byte	.LASF61
 1686 03ca 09       		.byte	0x9
 1687 03cb 31       		.byte	0x31
 1688 03cc F6030000 		.4byte	0x3f6
 1689 03d0 08       		.byte	0x8
 1690 03d1 06       		.uleb128 0x6
 1691 03d2 2A020000 		.4byte	.LASF62
 1692 03d6 09       		.byte	0x9
 1693 03d7 32       		.byte	0x32
 1694 03d8 F6030000 		.4byte	0x3f6
 1695 03dc 0C       		.byte	0xc
 1696 03dd 06       		.uleb128 0x6
 1697 03de 85040000 		.4byte	.LASF63
 1698 03e2 09       		.byte	0x9
 1699 03e3 33       		.byte	0x33
 1700 03e4 58030000 		.4byte	0x358
 1701 03e8 10       		.byte	0x10
 1702 03e9 06       		.uleb128 0x6
ARM GAS  /tmp/cc2GUxSc.s 			page 31


 1703 03ea 97010000 		.4byte	.LASF64
 1704 03ee 09       		.byte	0x9
 1705 03ef 35       		.byte	0x35
 1706 03f0 58030000 		.4byte	0x358
 1707 03f4 1C       		.byte	0x1c
 1708 03f5 00       		.byte	0
 1709 03f6 09       		.uleb128 0x9
 1710 03f7 04       		.byte	0x4
 1711 03f8 E0000000 		.4byte	0xe0
 1712 03fc 04       		.uleb128 0x4
 1713 03fd 20000000 		.4byte	.LASF65
 1714 0401 09       		.byte	0x9
 1715 0402 37       		.byte	0x37
 1716 0403 A5030000 		.4byte	0x3a5
 1717 0407 0E       		.uleb128 0xe
 1718 0408 04       		.byte	0x4
 1719 0409 05       		.byte	0x5
 1720 040a 8F       		.byte	0x8f
 1721 040b 3C040000 		.4byte	0x43c
 1722 040f 0F       		.uleb128 0xf
 1723 0410 06000000 		.4byte	.LASF66
 1724 0414 05       		.byte	0x5
 1725 0415 96       		.byte	0x96
 1726 0416 E0000000 		.4byte	0xe0
 1727 041a 0F       		.uleb128 0xf
 1728 041b 5A000000 		.4byte	.LASF67
 1729 041f 05       		.byte	0x5
 1730 0420 9D       		.byte	0x9d
 1731 0421 E0000000 		.4byte	0xe0
 1732 0425 0F       		.uleb128 0xf
 1733 0426 AC040000 		.4byte	.LASF68
 1734 042a 05       		.byte	0x5
 1735 042b A4       		.byte	0xa4
 1736 042c 7D020000 		.4byte	0x27d
 1737 0430 0F       		.uleb128 0xf
 1738 0431 E8030000 		.4byte	.LASF69
 1739 0435 05       		.byte	0x5
 1740 0436 AB       		.byte	0xab
 1741 0437 EB000000 		.4byte	0xeb
 1742 043b 00       		.byte	0
 1743 043c 09       		.uleb128 0x9
 1744 043d 04       		.byte	0x4
 1745 043e 42040000 		.4byte	0x442
 1746 0442 10       		.uleb128 0x10
 1747 0443 47040000 		.4byte	0x447
 1748 0447 03       		.uleb128 0x3
 1749 0448 01       		.byte	0x1
 1750 0449 08       		.byte	0x8
 1751 044a 22040000 		.4byte	.LASF70
 1752 044e 09       		.uleb128 0x9
 1753 044f 04       		.byte	0x4
 1754 0450 7F020000 		.4byte	0x27f
 1755 0454 09       		.uleb128 0x9
 1756 0455 04       		.byte	0x4
 1757 0456 9A030000 		.4byte	0x39a
 1758 045a 05       		.uleb128 0x5
 1759 045b 05040000 		.4byte	.LASF71
ARM GAS  /tmp/cc2GUxSc.s 			page 32


 1760 045f 10       		.byte	0x10
 1761 0460 0A       		.byte	0xa
 1762 0461 3B       		.byte	0x3b
 1763 0462 97040000 		.4byte	0x497
 1764 0466 06       		.uleb128 0x6
 1765 0467 A3010000 		.4byte	.LASF72
 1766 046b 0A       		.byte	0xa
 1767 046c 3C       		.byte	0x3c
 1768 046d 3C040000 		.4byte	0x43c
 1769 0471 00       		.byte	0
 1770 0472 06       		.uleb128 0x6
 1771 0473 52020000 		.4byte	.LASF73
 1772 0477 0A       		.byte	0xa
 1773 0478 3D       		.byte	0x3d
 1774 0479 98040000 		.4byte	0x498
 1775 047d 04       		.byte	0x4
 1776 047e 06       		.uleb128 0x6
 1777 047f 8E010000 		.4byte	.LASF74
 1778 0483 0A       		.byte	0xa
 1779 0484 3E       		.byte	0x3e
 1780 0485 98040000 		.4byte	0x498
 1781 0489 08       		.byte	0x8
 1782 048a 06       		.uleb128 0x6
 1783 048b B5020000 		.4byte	.LASF75
 1784 048f 0A       		.byte	0xa
 1785 0490 3F       		.byte	0x3f
 1786 0491 98040000 		.4byte	0x498
 1787 0495 0C       		.byte	0xc
 1788 0496 00       		.byte	0
 1789 0497 11       		.uleb128 0x11
 1790 0498 09       		.uleb128 0x9
 1791 0499 04       		.byte	0x4
 1792 049a 97040000 		.4byte	0x497
 1793 049e 12       		.uleb128 0x12
 1794 049f F005     		.2byte	0x5f0
 1795 04a1 0A       		.byte	0xa
 1796 04a2 44       		.byte	0x44
 1797 04a3 E3040000 		.4byte	0x4e3
 1798 04a7 07       		.uleb128 0x7
 1799 04a8 543000   		.ascii	"T0\000"
 1800 04ab 0A       		.byte	0xa
 1801 04ac 45       		.byte	0x45
 1802 04ad E3040000 		.4byte	0x4e3
 1803 04b1 00       		.byte	0
 1804 04b2 13       		.uleb128 0x13
 1805 04b3 543100   		.ascii	"T1\000"
 1806 04b6 0A       		.byte	0xa
 1807 04b7 46       		.byte	0x46
 1808 04b8 E3040000 		.4byte	0x4e3
 1809 04bc 3001     		.2byte	0x130
 1810 04be 13       		.uleb128 0x13
 1811 04bf 543200   		.ascii	"T2\000"
 1812 04c2 0A       		.byte	0xa
 1813 04c3 47       		.byte	0x47
 1814 04c4 E3040000 		.4byte	0x4e3
 1815 04c8 6002     		.2byte	0x260
 1816 04ca 13       		.uleb128 0x13
ARM GAS  /tmp/cc2GUxSc.s 			page 33


 1817 04cb 543300   		.ascii	"T3\000"
 1818 04ce 0A       		.byte	0xa
 1819 04cf 48       		.byte	0x48
 1820 04d0 E3040000 		.4byte	0x4e3
 1821 04d4 9003     		.2byte	0x390
 1822 04d6 13       		.uleb128 0x13
 1823 04d7 543400   		.ascii	"T4\000"
 1824 04da 0A       		.byte	0xa
 1825 04db 49       		.byte	0x49
 1826 04dc E3040000 		.4byte	0x4e3
 1827 04e0 C004     		.2byte	0x4c0
 1828 04e2 00       		.byte	0
 1829 04e3 14       		.uleb128 0x14
 1830 04e4 7F020000 		.4byte	0x27f
 1831 04e8 F3040000 		.4byte	0x4f3
 1832 04ec 15       		.uleb128 0x15
 1833 04ed 27030000 		.4byte	0x327
 1834 04f1 25       		.byte	0x25
 1835 04f2 00       		.byte	0
 1836 04f3 16       		.uleb128 0x16
 1837 04f4 90040000 		.4byte	.LASF99
 1838 04f8 F005     		.2byte	0x5f0
 1839 04fa 0A       		.byte	0xa
 1840 04fb 43       		.byte	0x43
 1841 04fc 16050000 		.4byte	0x516
 1842 0500 17       		.uleb128 0x17
 1843 0501 776100   		.ascii	"wa\000"
 1844 0504 0A       		.byte	0xa
 1845 0505 4A       		.byte	0x4a
 1846 0506 9E040000 		.4byte	0x49e
 1847 050a 0F       		.uleb128 0xf
 1848 050b 43040000 		.4byte	.LASF76
 1849 050f 0A       		.byte	0xa
 1850 0510 4B       		.byte	0x4b
 1851 0511 16050000 		.4byte	0x516
 1852 0515 00       		.byte	0
 1853 0516 14       		.uleb128 0x14
 1854 0517 3A000000 		.4byte	0x3a
 1855 051b 27050000 		.4byte	0x527
 1856 051f 18       		.uleb128 0x18
 1857 0520 27030000 		.4byte	0x327
 1858 0524 EF05     		.2byte	0x5ef
 1859 0526 00       		.byte	0
 1860 0527 19       		.uleb128 0x19
 1861 0528 78020000 		.4byte	.LASF79
 1862 052c 01       		.byte	0x1
 1863 052d 4C       		.byte	0x4c
 1864 052e 00000000 		.4byte	.LFB8
 1865 0532 C8060000 		.4byte	.LFE8-.LFB8
 1866 0536 01       		.uleb128 0x1
 1867 0537 9C       		.byte	0x9c
 1868 0538 5B120000 		.4byte	0x125b
 1869 053c 1A       		.uleb128 0x1a
 1870 053d 72010000 		.4byte	.LASF77
 1871 0541 01       		.byte	0x1
 1872 0542 4D       		.byte	0x4d
 1873 0543 E0000000 		.4byte	0xe0
ARM GAS  /tmp/cc2GUxSc.s 			page 34


 1874 0547 00000000 		.4byte	.LLST0
 1875 054b 1B       		.uleb128 0x1b
 1876 054c 77010000 		.4byte	.LASF78
 1877 0550 01       		.byte	0x1
 1878 0551 4D       		.byte	0x4d
 1879 0552 E0000000 		.4byte	0xe0
 1880 0556 02       		.uleb128 0x2
 1881 0557 91       		.byte	0x91
 1882 0558 6C       		.sleb128 -20
 1883 0559 1C       		.uleb128 0x1c
 1884 055a 6900     		.ascii	"i\000"
 1885 055c 01       		.byte	0x1
 1886 055d 4E       		.byte	0x4e
 1887 055e 2C000000 		.4byte	0x2c
 1888 0562 86010000 		.4byte	.LLST1
 1889 0566 1D       		.uleb128 0x1d
 1890 0567 80000000 		.4byte	.LBB2
 1891 056b 06000000 		.4byte	.LBE2-.LBB2
 1892 056f 81050000 		.4byte	0x581
 1893 0573 1E       		.uleb128 0x1e
 1894 0574 746D7000 		.ascii	"tmp\000"
 1895 0578 01       		.byte	0x1
 1896 0579 64       		.byte	0x64
 1897 057a 6C000000 		.4byte	0x6c
 1898 057e 01       		.uleb128 0x1
 1899 057f 53       		.byte	0x53
 1900 0580 00       		.byte	0
 1901 0581 1D       		.uleb128 0x1d
 1902 0582 98000000 		.4byte	.LBB3
 1903 0586 06000000 		.4byte	.LBE3-.LBB3
 1904 058a 9C050000 		.4byte	0x59c
 1905 058e 1E       		.uleb128 0x1e
 1906 058f 746D7000 		.ascii	"tmp\000"
 1907 0593 01       		.byte	0x1
 1908 0594 66       		.byte	0x66
 1909 0595 6C000000 		.4byte	0x6c
 1910 0599 01       		.uleb128 0x1
 1911 059a 53       		.byte	0x53
 1912 059b 00       		.byte	0
 1913 059c 1D       		.uleb128 0x1d
 1914 059d CC000000 		.4byte	.LBB4
 1915 05a1 06000000 		.4byte	.LBE4-.LBB4
 1916 05a5 B7050000 		.4byte	0x5b7
 1917 05a9 1E       		.uleb128 0x1e
 1918 05aa 746D7000 		.ascii	"tmp\000"
 1919 05ae 01       		.byte	0x1
 1920 05af 6A       		.byte	0x6a
 1921 05b0 6C000000 		.4byte	0x6c
 1922 05b4 01       		.uleb128 0x1
 1923 05b5 53       		.byte	0x53
 1924 05b6 00       		.byte	0
 1925 05b7 1D       		.uleb128 0x1d
 1926 05b8 E4000000 		.4byte	.LBB5
 1927 05bc 06000000 		.4byte	.LBE5-.LBB5
 1928 05c0 D2050000 		.4byte	0x5d2
 1929 05c4 1E       		.uleb128 0x1e
 1930 05c5 746D7000 		.ascii	"tmp\000"
ARM GAS  /tmp/cc2GUxSc.s 			page 35


 1931 05c9 01       		.byte	0x1
 1932 05ca 6C       		.byte	0x6c
 1933 05cb 6C000000 		.4byte	0x6c
 1934 05cf 01       		.uleb128 0x1
 1935 05d0 53       		.byte	0x53
 1936 05d1 00       		.byte	0
 1937 05d2 1D       		.uleb128 0x1d
 1938 05d3 FC000000 		.4byte	.LBB6
 1939 05d7 06000000 		.4byte	.LBE6-.LBB6
 1940 05db ED050000 		.4byte	0x5ed
 1941 05df 1E       		.uleb128 0x1e
 1942 05e0 746D7000 		.ascii	"tmp\000"
 1943 05e4 01       		.byte	0x1
 1944 05e5 72       		.byte	0x72
 1945 05e6 6C000000 		.4byte	0x6c
 1946 05ea 01       		.uleb128 0x1
 1947 05eb 53       		.byte	0x53
 1948 05ec 00       		.byte	0
 1949 05ed 1D       		.uleb128 0x1d
 1950 05ee 24010000 		.4byte	.LBB7
 1951 05f2 06000000 		.4byte	.LBE7-.LBB7
 1952 05f6 08060000 		.4byte	0x608
 1953 05fa 1E       		.uleb128 0x1e
 1954 05fb 746D7000 		.ascii	"tmp\000"
 1955 05ff 01       		.byte	0x1
 1956 0600 72       		.byte	0x72
 1957 0601 6C000000 		.4byte	0x6c
 1958 0605 01       		.uleb128 0x1
 1959 0606 53       		.byte	0x53
 1960 0607 00       		.byte	0
 1961 0608 1D       		.uleb128 0x1d
 1962 0609 2A010000 		.4byte	.LBB8
 1963 060d 06000000 		.4byte	.LBE8-.LBB8
 1964 0611 23060000 		.4byte	0x623
 1965 0615 1E       		.uleb128 0x1e
 1966 0616 746D7000 		.ascii	"tmp\000"
 1967 061a 01       		.byte	0x1
 1968 061b 73       		.byte	0x73
 1969 061c 6C000000 		.4byte	0x6c
 1970 0620 01       		.uleb128 0x1
 1971 0621 53       		.byte	0x53
 1972 0622 00       		.byte	0
 1973 0623 1D       		.uleb128 0x1d
 1974 0624 56010000 		.4byte	.LBB9
 1975 0628 06000000 		.4byte	.LBE9-.LBB9
 1976 062c 3E060000 		.4byte	0x63e
 1977 0630 1E       		.uleb128 0x1e
 1978 0631 746D7000 		.ascii	"tmp\000"
 1979 0635 01       		.byte	0x1
 1980 0636 73       		.byte	0x73
 1981 0637 6C000000 		.4byte	0x6c
 1982 063b 01       		.uleb128 0x1
 1983 063c 53       		.byte	0x53
 1984 063d 00       		.byte	0
 1985 063e 1D       		.uleb128 0x1d
 1986 063f 5C010000 		.4byte	.LBB10
 1987 0643 06000000 		.4byte	.LBE10-.LBB10
ARM GAS  /tmp/cc2GUxSc.s 			page 36


 1988 0647 59060000 		.4byte	0x659
 1989 064b 1E       		.uleb128 0x1e
 1990 064c 746D7000 		.ascii	"tmp\000"
 1991 0650 01       		.byte	0x1
 1992 0651 74       		.byte	0x74
 1993 0652 6C000000 		.4byte	0x6c
 1994 0656 01       		.uleb128 0x1
 1995 0657 53       		.byte	0x53
 1996 0658 00       		.byte	0
 1997 0659 1D       		.uleb128 0x1d
 1998 065a 86010000 		.4byte	.LBB11
 1999 065e 08000000 		.4byte	.LBE11-.LBB11
 2000 0662 74060000 		.4byte	0x674
 2001 0666 1E       		.uleb128 0x1e
 2002 0667 746D7000 		.ascii	"tmp\000"
 2003 066b 01       		.byte	0x1
 2004 066c 74       		.byte	0x74
 2005 066d 6C000000 		.4byte	0x6c
 2006 0671 01       		.uleb128 0x1
 2007 0672 53       		.byte	0x53
 2008 0673 00       		.byte	0
 2009 0674 1D       		.uleb128 0x1d
 2010 0675 54020000 		.4byte	.LBB12
 2011 0679 06000000 		.4byte	.LBE12-.LBB12
 2012 067d 8F060000 		.4byte	0x68f
 2013 0681 1E       		.uleb128 0x1e
 2014 0682 746D7000 		.ascii	"tmp\000"
 2015 0686 01       		.byte	0x1
 2016 0687 8F       		.byte	0x8f
 2017 0688 6C000000 		.4byte	0x6c
 2018 068c 01       		.uleb128 0x1
 2019 068d 53       		.byte	0x53
 2020 068e 00       		.byte	0
 2021 068f 1D       		.uleb128 0x1d
 2022 0690 6C020000 		.4byte	.LBB13
 2023 0694 06000000 		.4byte	.LBE13-.LBB13
 2024 0698 AA060000 		.4byte	0x6aa
 2025 069c 1E       		.uleb128 0x1e
 2026 069d 746D7000 		.ascii	"tmp\000"
 2027 06a1 01       		.byte	0x1
 2028 06a2 91       		.byte	0x91
 2029 06a3 6C000000 		.4byte	0x6c
 2030 06a7 01       		.uleb128 0x1
 2031 06a8 53       		.byte	0x53
 2032 06a9 00       		.byte	0
 2033 06aa 1D       		.uleb128 0x1d
 2034 06ab 8A020000 		.4byte	.LBB14
 2035 06af 06000000 		.4byte	.LBE14-.LBB14
 2036 06b3 C5060000 		.4byte	0x6c5
 2037 06b7 1E       		.uleb128 0x1e
 2038 06b8 746D7000 		.ascii	"tmp\000"
 2039 06bc 01       		.byte	0x1
 2040 06bd 97       		.byte	0x97
 2041 06be 6C000000 		.4byte	0x6c
 2042 06c2 01       		.uleb128 0x1
 2043 06c3 53       		.byte	0x53
 2044 06c4 00       		.byte	0
ARM GAS  /tmp/cc2GUxSc.s 			page 37


 2045 06c5 1D       		.uleb128 0x1d
 2046 06c6 B2020000 		.4byte	.LBB15
 2047 06ca 06000000 		.4byte	.LBE15-.LBB15
 2048 06ce E0060000 		.4byte	0x6e0
 2049 06d2 1E       		.uleb128 0x1e
 2050 06d3 746D7000 		.ascii	"tmp\000"
 2051 06d7 01       		.byte	0x1
 2052 06d8 97       		.byte	0x97
 2053 06d9 6C000000 		.4byte	0x6c
 2054 06dd 01       		.uleb128 0x1
 2055 06de 53       		.byte	0x53
 2056 06df 00       		.byte	0
 2057 06e0 1D       		.uleb128 0x1d
 2058 06e1 B8020000 		.4byte	.LBB16
 2059 06e5 06000000 		.4byte	.LBE16-.LBB16
 2060 06e9 FB060000 		.4byte	0x6fb
 2061 06ed 1E       		.uleb128 0x1e
 2062 06ee 746D7000 		.ascii	"tmp\000"
 2063 06f2 01       		.byte	0x1
 2064 06f3 98       		.byte	0x98
 2065 06f4 6C000000 		.4byte	0x6c
 2066 06f8 01       		.uleb128 0x1
 2067 06f9 53       		.byte	0x53
 2068 06fa 00       		.byte	0
 2069 06fb 1D       		.uleb128 0x1d
 2070 06fc E0020000 		.4byte	.LBB17
 2071 0700 06000000 		.4byte	.LBE17-.LBB17
 2072 0704 16070000 		.4byte	0x716
 2073 0708 1E       		.uleb128 0x1e
 2074 0709 746D7000 		.ascii	"tmp\000"
 2075 070d 01       		.byte	0x1
 2076 070e 98       		.byte	0x98
 2077 070f 6C000000 		.4byte	0x6c
 2078 0713 01       		.uleb128 0x1
 2079 0714 53       		.byte	0x53
 2080 0715 00       		.byte	0
 2081 0716 1D       		.uleb128 0x1d
 2082 0717 E6020000 		.4byte	.LBB18
 2083 071b 06000000 		.4byte	.LBE18-.LBB18
 2084 071f 31070000 		.4byte	0x731
 2085 0723 1E       		.uleb128 0x1e
 2086 0724 746D7000 		.ascii	"tmp\000"
 2087 0728 01       		.byte	0x1
 2088 0729 99       		.byte	0x99
 2089 072a 6C000000 		.4byte	0x6c
 2090 072e 01       		.uleb128 0x1
 2091 072f 53       		.byte	0x53
 2092 0730 00       		.byte	0
 2093 0731 1D       		.uleb128 0x1d
 2094 0732 0E030000 		.4byte	.LBB19
 2095 0736 06000000 		.4byte	.LBE19-.LBB19
 2096 073a 4C070000 		.4byte	0x74c
 2097 073e 1E       		.uleb128 0x1e
 2098 073f 746D7000 		.ascii	"tmp\000"
 2099 0743 01       		.byte	0x1
 2100 0744 99       		.byte	0x99
 2101 0745 6C000000 		.4byte	0x6c
ARM GAS  /tmp/cc2GUxSc.s 			page 38


 2102 0749 01       		.uleb128 0x1
 2103 074a 53       		.byte	0x53
 2104 074b 00       		.byte	0
 2105 074c 1D       		.uleb128 0x1d
 2106 074d 14030000 		.4byte	.LBB20
 2107 0751 06000000 		.4byte	.LBE20-.LBB20
 2108 0755 67070000 		.4byte	0x767
 2109 0759 1E       		.uleb128 0x1e
 2110 075a 746D7000 		.ascii	"tmp\000"
 2111 075e 01       		.byte	0x1
 2112 075f 9E       		.byte	0x9e
 2113 0760 6C000000 		.4byte	0x6c
 2114 0764 01       		.uleb128 0x1
 2115 0765 53       		.byte	0x53
 2116 0766 00       		.byte	0
 2117 0767 1D       		.uleb128 0x1d
 2118 0768 AA030000 		.4byte	.LBB21
 2119 076c 06000000 		.4byte	.LBE21-.LBB21
 2120 0770 82070000 		.4byte	0x782
 2121 0774 1E       		.uleb128 0x1e
 2122 0775 746D7000 		.ascii	"tmp\000"
 2123 0779 01       		.byte	0x1
 2124 077a A8       		.byte	0xa8
 2125 077b 6C000000 		.4byte	0x6c
 2126 077f 01       		.uleb128 0x1
 2127 0780 53       		.byte	0x53
 2128 0781 00       		.byte	0
 2129 0782 1D       		.uleb128 0x1d
 2130 0783 DC030000 		.4byte	.LBB22
 2131 0787 06000000 		.4byte	.LBE22-.LBB22
 2132 078b 9D070000 		.4byte	0x79d
 2133 078f 1E       		.uleb128 0x1e
 2134 0790 746D7000 		.ascii	"tmp\000"
 2135 0794 01       		.byte	0x1
 2136 0795 AC       		.byte	0xac
 2137 0796 6C000000 		.4byte	0x6c
 2138 079a 01       		.uleb128 0x1
 2139 079b 53       		.byte	0x53
 2140 079c 00       		.byte	0
 2141 079d 1D       		.uleb128 0x1d
 2142 079e F4030000 		.4byte	.LBB23
 2143 07a2 06000000 		.4byte	.LBE23-.LBB23
 2144 07a6 B8070000 		.4byte	0x7b8
 2145 07aa 1E       		.uleb128 0x1e
 2146 07ab 746D7000 		.ascii	"tmp\000"
 2147 07af 01       		.byte	0x1
 2148 07b0 AE       		.byte	0xae
 2149 07b1 6C000000 		.4byte	0x6c
 2150 07b5 01       		.uleb128 0x1
 2151 07b6 53       		.byte	0x53
 2152 07b7 00       		.byte	0
 2153 07b8 1D       		.uleb128 0x1d
 2154 07b9 28040000 		.4byte	.LBB24
 2155 07bd 06000000 		.4byte	.LBE24-.LBB24
 2156 07c1 D3070000 		.4byte	0x7d3
 2157 07c5 1E       		.uleb128 0x1e
 2158 07c6 746D7000 		.ascii	"tmp\000"
ARM GAS  /tmp/cc2GUxSc.s 			page 39


 2159 07ca 01       		.byte	0x1
 2160 07cb B3       		.byte	0xb3
 2161 07cc 6C000000 		.4byte	0x6c
 2162 07d0 01       		.uleb128 0x1
 2163 07d1 53       		.byte	0x53
 2164 07d2 00       		.byte	0
 2165 07d3 1D       		.uleb128 0x1d
 2166 07d4 4E040000 		.4byte	.LBB25
 2167 07d8 06000000 		.4byte	.LBE25-.LBB25
 2168 07dc EE070000 		.4byte	0x7ee
 2169 07e0 1E       		.uleb128 0x1e
 2170 07e1 746D7000 		.ascii	"tmp\000"
 2171 07e5 01       		.byte	0x1
 2172 07e6 B3       		.byte	0xb3
 2173 07e7 6C000000 		.4byte	0x6c
 2174 07eb 01       		.uleb128 0x1
 2175 07ec 53       		.byte	0x53
 2176 07ed 00       		.byte	0
 2177 07ee 1D       		.uleb128 0x1d
 2178 07ef 54040000 		.4byte	.LBB26
 2179 07f3 06000000 		.4byte	.LBE26-.LBB26
 2180 07f7 09080000 		.4byte	0x809
 2181 07fb 1E       		.uleb128 0x1e
 2182 07fc 746D7000 		.ascii	"tmp\000"
 2183 0800 01       		.byte	0x1
 2184 0801 B4       		.byte	0xb4
 2185 0802 6C000000 		.4byte	0x6c
 2186 0806 01       		.uleb128 0x1
 2187 0807 53       		.byte	0x53
 2188 0808 00       		.byte	0
 2189 0809 1D       		.uleb128 0x1d
 2190 080a 7C040000 		.4byte	.LBB27
 2191 080e 06000000 		.4byte	.LBE27-.LBB27
 2192 0812 24080000 		.4byte	0x824
 2193 0816 1E       		.uleb128 0x1e
 2194 0817 746D7000 		.ascii	"tmp\000"
 2195 081b 01       		.byte	0x1
 2196 081c B4       		.byte	0xb4
 2197 081d 6C000000 		.4byte	0x6c
 2198 0821 01       		.uleb128 0x1
 2199 0822 53       		.byte	0x53
 2200 0823 00       		.byte	0
 2201 0824 1D       		.uleb128 0x1d
 2202 0825 98040000 		.4byte	.LBB28
 2203 0829 06000000 		.4byte	.LBE28-.LBB28
 2204 082d 3F080000 		.4byte	0x83f
 2205 0831 1E       		.uleb128 0x1e
 2206 0832 746D7000 		.ascii	"tmp\000"
 2207 0836 01       		.byte	0x1
 2208 0837 B7       		.byte	0xb7
 2209 0838 6C000000 		.4byte	0x6c
 2210 083c 01       		.uleb128 0x1
 2211 083d 53       		.byte	0x53
 2212 083e 00       		.byte	0
 2213 083f 1D       		.uleb128 0x1d
 2214 0840 20050000 		.4byte	.LBB29
 2215 0844 06000000 		.4byte	.LBE29-.LBB29
ARM GAS  /tmp/cc2GUxSc.s 			page 40


 2216 0848 5A080000 		.4byte	0x85a
 2217 084c 1E       		.uleb128 0x1e
 2218 084d 746D7000 		.ascii	"tmp\000"
 2219 0851 01       		.byte	0x1
 2220 0852 C1       		.byte	0xc1
 2221 0853 6C000000 		.4byte	0x6c
 2222 0857 01       		.uleb128 0x1
 2223 0858 53       		.byte	0x53
 2224 0859 00       		.byte	0
 2225 085a 1D       		.uleb128 0x1d
 2226 085b 58050000 		.4byte	.LBB30
 2227 085f 06000000 		.4byte	.LBE30-.LBB30
 2228 0863 75080000 		.4byte	0x875
 2229 0867 1E       		.uleb128 0x1e
 2230 0868 746D7000 		.ascii	"tmp\000"
 2231 086c 01       		.byte	0x1
 2232 086d C5       		.byte	0xc5
 2233 086e 6C000000 		.4byte	0x6c
 2234 0872 01       		.uleb128 0x1
 2235 0873 53       		.byte	0x53
 2236 0874 00       		.byte	0
 2237 0875 1D       		.uleb128 0x1d
 2238 0876 70050000 		.4byte	.LBB31
 2239 087a 06000000 		.4byte	.LBE31-.LBB31
 2240 087e 90080000 		.4byte	0x890
 2241 0882 1E       		.uleb128 0x1e
 2242 0883 746D7000 		.ascii	"tmp\000"
 2243 0887 01       		.byte	0x1
 2244 0888 C7       		.byte	0xc7
 2245 0889 6C000000 		.4byte	0x6c
 2246 088d 01       		.uleb128 0x1
 2247 088e 53       		.byte	0x53
 2248 088f 00       		.byte	0
 2249 0890 1D       		.uleb128 0x1d
 2250 0891 A4050000 		.4byte	.LBB32
 2251 0895 06000000 		.4byte	.LBE32-.LBB32
 2252 0899 AB080000 		.4byte	0x8ab
 2253 089d 1E       		.uleb128 0x1e
 2254 089e 746D7000 		.ascii	"tmp\000"
 2255 08a2 01       		.byte	0x1
 2256 08a3 CC       		.byte	0xcc
 2257 08a4 6C000000 		.4byte	0x6c
 2258 08a8 01       		.uleb128 0x1
 2259 08a9 53       		.byte	0x53
 2260 08aa 00       		.byte	0
 2261 08ab 1D       		.uleb128 0x1d
 2262 08ac CE050000 		.4byte	.LBB33
 2263 08b0 06000000 		.4byte	.LBE33-.LBB33
 2264 08b4 C6080000 		.4byte	0x8c6
 2265 08b8 1E       		.uleb128 0x1e
 2266 08b9 746D7000 		.ascii	"tmp\000"
 2267 08bd 01       		.byte	0x1
 2268 08be CC       		.byte	0xcc
 2269 08bf 6C000000 		.4byte	0x6c
 2270 08c3 01       		.uleb128 0x1
 2271 08c4 53       		.byte	0x53
 2272 08c5 00       		.byte	0
ARM GAS  /tmp/cc2GUxSc.s 			page 41


 2273 08c6 1D       		.uleb128 0x1d
 2274 08c7 D4050000 		.4byte	.LBB34
 2275 08cb 06000000 		.4byte	.LBE34-.LBB34
 2276 08cf E1080000 		.4byte	0x8e1
 2277 08d3 1E       		.uleb128 0x1e
 2278 08d4 746D7000 		.ascii	"tmp\000"
 2279 08d8 01       		.byte	0x1
 2280 08d9 CD       		.byte	0xcd
 2281 08da 6C000000 		.4byte	0x6c
 2282 08de 01       		.uleb128 0x1
 2283 08df 53       		.byte	0x53
 2284 08e0 00       		.byte	0
 2285 08e1 1D       		.uleb128 0x1d
 2286 08e2 FA050000 		.4byte	.LBB35
 2287 08e6 06000000 		.4byte	.LBE35-.LBB35
 2288 08ea FC080000 		.4byte	0x8fc
 2289 08ee 1E       		.uleb128 0x1e
 2290 08ef 746D7000 		.ascii	"tmp\000"
 2291 08f3 01       		.byte	0x1
 2292 08f4 CD       		.byte	0xcd
 2293 08f5 6C000000 		.4byte	0x6c
 2294 08f9 01       		.uleb128 0x1
 2295 08fa 53       		.byte	0x53
 2296 08fb 00       		.byte	0
 2297 08fc 1D       		.uleb128 0x1d
 2298 08fd 1C060000 		.4byte	.LBB36
 2299 0901 06000000 		.4byte	.LBE36-.LBB36
 2300 0905 17090000 		.4byte	0x917
 2301 0909 1E       		.uleb128 0x1e
 2302 090a 746D7000 		.ascii	"tmp\000"
 2303 090e 01       		.byte	0x1
 2304 090f D8       		.byte	0xd8
 2305 0910 6C000000 		.4byte	0x6c
 2306 0914 01       		.uleb128 0x1
 2307 0915 53       		.byte	0x53
 2308 0916 00       		.byte	0
 2309 0917 1D       		.uleb128 0x1d
 2310 0918 3E060000 		.4byte	.LBB37
 2311 091c 06000000 		.4byte	.LBE37-.LBB37
 2312 0920 32090000 		.4byte	0x932
 2313 0924 1E       		.uleb128 0x1e
 2314 0925 746D7000 		.ascii	"tmp\000"
 2315 0929 01       		.byte	0x1
 2316 092a D8       		.byte	0xd8
 2317 092b 6C000000 		.4byte	0x6c
 2318 092f 01       		.uleb128 0x1
 2319 0930 53       		.byte	0x53
 2320 0931 00       		.byte	0
 2321 0932 1D       		.uleb128 0x1d
 2322 0933 44060000 		.4byte	.LBB38
 2323 0937 06000000 		.4byte	.LBE38-.LBB38
 2324 093b 4D090000 		.4byte	0x94d
 2325 093f 1E       		.uleb128 0x1e
 2326 0940 746D7000 		.ascii	"tmp\000"
 2327 0944 01       		.byte	0x1
 2328 0945 D9       		.byte	0xd9
 2329 0946 6C000000 		.4byte	0x6c
ARM GAS  /tmp/cc2GUxSc.s 			page 42


 2330 094a 01       		.uleb128 0x1
 2331 094b 53       		.byte	0x53
 2332 094c 00       		.byte	0
 2333 094d 1D       		.uleb128 0x1d
 2334 094e 68060000 		.4byte	.LBB39
 2335 0952 06000000 		.4byte	.LBE39-.LBB39
 2336 0956 68090000 		.4byte	0x968
 2337 095a 1E       		.uleb128 0x1e
 2338 095b 746D7000 		.ascii	"tmp\000"
 2339 095f 01       		.byte	0x1
 2340 0960 D9       		.byte	0xd9
 2341 0961 6C000000 		.4byte	0x6c
 2342 0965 01       		.uleb128 0x1
 2343 0966 53       		.byte	0x53
 2344 0967 00       		.byte	0
 2345 0968 1D       		.uleb128 0x1d
 2346 0969 6E060000 		.4byte	.LBB40
 2347 096d 06000000 		.4byte	.LBE40-.LBB40
 2348 0971 83090000 		.4byte	0x983
 2349 0975 1E       		.uleb128 0x1e
 2350 0976 746D7000 		.ascii	"tmp\000"
 2351 097a 01       		.byte	0x1
 2352 097b DA       		.byte	0xda
 2353 097c 6C000000 		.4byte	0x6c
 2354 0980 01       		.uleb128 0x1
 2355 0981 53       		.byte	0x53
 2356 0982 00       		.byte	0
 2357 0983 1D       		.uleb128 0x1d
 2358 0984 92060000 		.4byte	.LBB41
 2359 0988 06000000 		.4byte	.LBE41-.LBB41
 2360 098c 9E090000 		.4byte	0x99e
 2361 0990 1E       		.uleb128 0x1e
 2362 0991 746D7000 		.ascii	"tmp\000"
 2363 0995 01       		.byte	0x1
 2364 0996 DA       		.byte	0xda
 2365 0997 6C000000 		.4byte	0x6c
 2366 099b 01       		.uleb128 0x1
 2367 099c 53       		.byte	0x53
 2368 099d 00       		.byte	0
 2369 099e 1D       		.uleb128 0x1d
 2370 099f 98060000 		.4byte	.LBB42
 2371 09a3 06000000 		.4byte	.LBE42-.LBB42
 2372 09a7 B9090000 		.4byte	0x9b9
 2373 09ab 1E       		.uleb128 0x1e
 2374 09ac 746D7000 		.ascii	"tmp\000"
 2375 09b0 01       		.byte	0x1
 2376 09b1 DB       		.byte	0xdb
 2377 09b2 6C000000 		.4byte	0x6c
 2378 09b6 01       		.uleb128 0x1
 2379 09b7 53       		.byte	0x53
 2380 09b8 00       		.byte	0
 2381 09b9 1D       		.uleb128 0x1d
 2382 09ba B8060000 		.4byte	.LBB43
 2383 09be 06000000 		.4byte	.LBE43-.LBB43
 2384 09c2 D4090000 		.4byte	0x9d4
 2385 09c6 1E       		.uleb128 0x1e
 2386 09c7 746D7000 		.ascii	"tmp\000"
ARM GAS  /tmp/cc2GUxSc.s 			page 43


 2387 09cb 01       		.byte	0x1
 2388 09cc DB       		.byte	0xdb
 2389 09cd 6C000000 		.4byte	0x6c
 2390 09d1 01       		.uleb128 0x1
 2391 09d2 53       		.byte	0x53
 2392 09d3 00       		.byte	0
 2393 09d4 1F       		.uleb128 0x1f
 2394 09d5 1A000000 		.4byte	.LVL0
 2395 09d9 E7120000 		.4byte	0x12e7
 2396 09dd E7090000 		.4byte	0x9e7
 2397 09e1 20       		.uleb128 0x20
 2398 09e2 01       		.uleb128 0x1
 2399 09e3 50       		.byte	0x50
 2400 09e4 01       		.uleb128 0x1
 2401 09e5 31       		.byte	0x31
 2402 09e6 00       		.byte	0
 2403 09e7 1F       		.uleb128 0x1f
 2404 09e8 2A000000 		.4byte	.LVL2
 2405 09ec 01130000 		.4byte	0x1301
 2406 09f0 070A0000 		.4byte	0xa07
 2407 09f4 20       		.uleb128 0x20
 2408 09f5 01       		.uleb128 0x1
 2409 09f6 52       		.byte	0x52
 2410 09f7 02       		.uleb128 0x2
 2411 09f8 09       		.byte	0x9
 2412 09f9 FF       		.byte	0xff
 2413 09fa 20       		.uleb128 0x20
 2414 09fb 01       		.uleb128 0x1
 2415 09fc 51       		.byte	0x51
 2416 09fd 02       		.uleb128 0x2
 2417 09fe 74       		.byte	0x74
 2418 09ff 00       		.sleb128 0
 2419 0a00 20       		.uleb128 0x20
 2420 0a01 01       		.uleb128 0x1
 2421 0a02 50       		.byte	0x50
 2422 0a03 02       		.uleb128 0x2
 2423 0a04 75       		.byte	0x75
 2424 0a05 00       		.sleb128 0
 2425 0a06 00       		.byte	0
 2426 0a07 1F       		.uleb128 0x1f
 2427 0a08 3A000000 		.4byte	.LVL5
 2428 0a0c E7120000 		.4byte	0x12e7
 2429 0a10 1A0A0000 		.4byte	0xa1a
 2430 0a14 20       		.uleb128 0x20
 2431 0a15 01       		.uleb128 0x1
 2432 0a16 50       		.byte	0x50
 2433 0a17 01       		.uleb128 0x1
 2434 0a18 32       		.byte	0x32
 2435 0a19 00       		.byte	0
 2436 0a1a 1F       		.uleb128 0x1f
 2437 0a1b 4C000000 		.4byte	.LVL6
 2438 0a1f 26130000 		.4byte	0x1326
 2439 0a23 3A0A0000 		.4byte	0xa3a
 2440 0a27 20       		.uleb128 0x20
 2441 0a28 01       		.uleb128 0x1
 2442 0a29 52       		.byte	0x52
 2443 0a2a 02       		.uleb128 0x2
ARM GAS  /tmp/cc2GUxSc.s 			page 44


 2444 0a2b 09       		.byte	0x9
 2445 0a2c FF       		.byte	0xff
 2446 0a2d 20       		.uleb128 0x20
 2447 0a2e 01       		.uleb128 0x1
 2448 0a2f 51       		.byte	0x51
 2449 0a30 02       		.uleb128 0x2
 2450 0a31 08       		.byte	0x8
 2451 0a32 41       		.byte	0x41
 2452 0a33 20       		.uleb128 0x20
 2453 0a34 01       		.uleb128 0x1
 2454 0a35 50       		.byte	0x50
 2455 0a36 02       		.uleb128 0x2
 2456 0a37 75       		.byte	0x75
 2457 0a38 00       		.sleb128 0
 2458 0a39 00       		.byte	0
 2459 0a3a 1F       		.uleb128 0x1f
 2460 0a3b 5A000000 		.4byte	.LVL8
 2461 0a3f E7120000 		.4byte	0x12e7
 2462 0a43 4D0A0000 		.4byte	0xa4d
 2463 0a47 20       		.uleb128 0x20
 2464 0a48 01       		.uleb128 0x1
 2465 0a49 50       		.byte	0x50
 2466 0a4a 01       		.uleb128 0x1
 2467 0a4b 33       		.byte	0x33
 2468 0a4c 00       		.byte	0
 2469 0a4d 1F       		.uleb128 0x1f
 2470 0a4e 6E000000 		.4byte	.LVL9
 2471 0a52 01130000 		.4byte	0x1301
 2472 0a56 6C0A0000 		.4byte	0xa6c
 2473 0a5a 20       		.uleb128 0x20
 2474 0a5b 01       		.uleb128 0x1
 2475 0a5c 52       		.byte	0x52
 2476 0a5d 01       		.uleb128 0x1
 2477 0a5e 31       		.byte	0x31
 2478 0a5f 20       		.uleb128 0x20
 2479 0a60 01       		.uleb128 0x1
 2480 0a61 51       		.byte	0x51
 2481 0a62 02       		.uleb128 0x2
 2482 0a63 08       		.byte	0x8
 2483 0a64 58       		.byte	0x58
 2484 0a65 20       		.uleb128 0x20
 2485 0a66 01       		.uleb128 0x1
 2486 0a67 50       		.byte	0x50
 2487 0a68 02       		.uleb128 0x2
 2488 0a69 75       		.byte	0x75
 2489 0a6a 00       		.sleb128 0
 2490 0a6b 00       		.byte	0
 2491 0a6c 1F       		.uleb128 0x1f
 2492 0a6d 7C000000 		.4byte	.LVL11
 2493 0a71 E7120000 		.4byte	0x12e7
 2494 0a75 870A0000 		.4byte	0xa87
 2495 0a79 20       		.uleb128 0x20
 2496 0a7a 01       		.uleb128 0x1
 2497 0a7b 51       		.byte	0x51
 2498 0a7c 04       		.uleb128 0x4
 2499 0a7d 76       		.byte	0x76
 2500 0a7e 00       		.sleb128 0
ARM GAS  /tmp/cc2GUxSc.s 			page 45


 2501 0a7f 30       		.byte	0x30
 2502 0a80 29       		.byte	0x29
 2503 0a81 20       		.uleb128 0x20
 2504 0a82 01       		.uleb128 0x1
 2505 0a83 50       		.byte	0x50
 2506 0a84 01       		.uleb128 0x1
 2507 0a85 34       		.byte	0x34
 2508 0a86 00       		.byte	0
 2509 0a87 21       		.uleb128 0x21
 2510 0a88 8A000000 		.4byte	.LVL12
 2511 0a8c 45130000 		.4byte	0x1345
 2512 0a90 1F       		.uleb128 0x1f
 2513 0a91 92000000 		.4byte	.LVL13
 2514 0a95 4C130000 		.4byte	0x134c
 2515 0a99 AA0A0000 		.4byte	0xaaa
 2516 0a9d 20       		.uleb128 0x20
 2517 0a9e 01       		.uleb128 0x1
 2518 0a9f 51       		.byte	0x51
 2519 0aa0 02       		.uleb128 0x2
 2520 0aa1 08       		.byte	0x8
 2521 0aa2 58       		.byte	0x58
 2522 0aa3 20       		.uleb128 0x20
 2523 0aa4 01       		.uleb128 0x1
 2524 0aa5 50       		.byte	0x50
 2525 0aa6 02       		.uleb128 0x2
 2526 0aa7 75       		.byte	0x75
 2527 0aa8 00       		.sleb128 0
 2528 0aa9 00       		.byte	0
 2529 0aaa 21       		.uleb128 0x21
 2530 0aab 98000000 		.4byte	.LVL15
 2531 0aaf 66130000 		.4byte	0x1366
 2532 0ab3 1F       		.uleb128 0x1f
 2533 0ab4 AC000000 		.4byte	.LVL17
 2534 0ab8 E7120000 		.4byte	0x12e7
 2535 0abc CE0A0000 		.4byte	0xace
 2536 0ac0 20       		.uleb128 0x20
 2537 0ac1 01       		.uleb128 0x1
 2538 0ac2 51       		.byte	0x51
 2539 0ac3 04       		.uleb128 0x4
 2540 0ac4 74       		.byte	0x74
 2541 0ac5 00       		.sleb128 0
 2542 0ac6 30       		.byte	0x30
 2543 0ac7 29       		.byte	0x29
 2544 0ac8 20       		.uleb128 0x20
 2545 0ac9 01       		.uleb128 0x1
 2546 0aca 50       		.byte	0x50
 2547 0acb 01       		.uleb128 0x1
 2548 0acc 35       		.byte	0x35
 2549 0acd 00       		.byte	0
 2550 0ace 1F       		.uleb128 0x1f
 2551 0acf BA000000 		.4byte	.LVL18
 2552 0ad3 26130000 		.4byte	0x1326
 2553 0ad7 ED0A0000 		.4byte	0xaed
 2554 0adb 20       		.uleb128 0x20
 2555 0adc 01       		.uleb128 0x1
 2556 0add 52       		.byte	0x52
 2557 0ade 01       		.uleb128 0x1
ARM GAS  /tmp/cc2GUxSc.s 			page 46


 2558 0adf 31       		.byte	0x31
 2559 0ae0 20       		.uleb128 0x20
 2560 0ae1 01       		.uleb128 0x1
 2561 0ae2 51       		.byte	0x51
 2562 0ae3 02       		.uleb128 0x2
 2563 0ae4 08       		.byte	0x8
 2564 0ae5 58       		.byte	0x58
 2565 0ae6 20       		.uleb128 0x20
 2566 0ae7 01       		.uleb128 0x1
 2567 0ae8 50       		.byte	0x50
 2568 0ae9 02       		.uleb128 0x2
 2569 0aea 75       		.byte	0x75
 2570 0aeb 00       		.sleb128 0
 2571 0aec 00       		.byte	0
 2572 0aed 1F       		.uleb128 0x1f
 2573 0aee C8000000 		.4byte	.LVL20
 2574 0af2 E7120000 		.4byte	0x12e7
 2575 0af6 000B0000 		.4byte	0xb00
 2576 0afa 20       		.uleb128 0x20
 2577 0afb 01       		.uleb128 0x1
 2578 0afc 50       		.byte	0x50
 2579 0afd 01       		.uleb128 0x1
 2580 0afe 36       		.byte	0x36
 2581 0aff 00       		.byte	0
 2582 0b00 21       		.uleb128 0x21
 2583 0b01 D6000000 		.4byte	.LVL21
 2584 0b05 45130000 		.4byte	0x1345
 2585 0b09 1F       		.uleb128 0x1f
 2586 0b0a DE000000 		.4byte	.LVL22
 2587 0b0e 6D130000 		.4byte	0x136d
 2588 0b12 230B0000 		.4byte	0xb23
 2589 0b16 20       		.uleb128 0x20
 2590 0b17 01       		.uleb128 0x1
 2591 0b18 51       		.byte	0x51
 2592 0b19 02       		.uleb128 0x2
 2593 0b1a 08       		.byte	0x8
 2594 0b1b 58       		.byte	0x58
 2595 0b1c 20       		.uleb128 0x20
 2596 0b1d 01       		.uleb128 0x1
 2597 0b1e 50       		.byte	0x50
 2598 0b1f 02       		.uleb128 0x2
 2599 0b20 75       		.byte	0x75
 2600 0b21 00       		.sleb128 0
 2601 0b22 00       		.byte	0
 2602 0b23 21       		.uleb128 0x21
 2603 0b24 E4000000 		.4byte	.LVL24
 2604 0b28 66130000 		.4byte	0x1366
 2605 0b2c 1F       		.uleb128 0x1f
 2606 0b2d F8000000 		.4byte	.LVL25
 2607 0b31 E7120000 		.4byte	0x12e7
 2608 0b35 480B0000 		.4byte	0xb48
 2609 0b39 20       		.uleb128 0x20
 2610 0b3a 01       		.uleb128 0x1
 2611 0b3b 51       		.byte	0x51
 2612 0b3c 05       		.uleb128 0x5
 2613 0b3d 74       		.byte	0x74
 2614 0b3e 00       		.sleb128 0
ARM GAS  /tmp/cc2GUxSc.s 			page 47


 2615 0b3f 09       		.byte	0x9
 2616 0b40 FF       		.byte	0xff
 2617 0b41 29       		.byte	0x29
 2618 0b42 20       		.uleb128 0x20
 2619 0b43 01       		.uleb128 0x1
 2620 0b44 50       		.byte	0x50
 2621 0b45 01       		.uleb128 0x1
 2622 0b46 37       		.byte	0x37
 2623 0b47 00       		.byte	0
 2624 0b48 21       		.uleb128 0x21
 2625 0b49 06010000 		.4byte	.LVL26
 2626 0b4d 45130000 		.4byte	0x1345
 2627 0b51 1F       		.uleb128 0x1f
 2628 0b52 18010000 		.4byte	.LVL27
 2629 0b56 E7120000 		.4byte	0x12e7
 2630 0b5a 640B0000 		.4byte	0xb64
 2631 0b5e 20       		.uleb128 0x20
 2632 0b5f 01       		.uleb128 0x1
 2633 0b60 50       		.byte	0x50
 2634 0b61 01       		.uleb128 0x1
 2635 0b62 38       		.byte	0x38
 2636 0b63 00       		.byte	0
 2637 0b64 21       		.uleb128 0x21
 2638 0b65 24010000 		.4byte	.LVL29
 2639 0b69 66130000 		.4byte	0x1366
 2640 0b6d 21       		.uleb128 0x21
 2641 0b6e 34010000 		.4byte	.LVL30
 2642 0b72 45130000 		.4byte	0x1345
 2643 0b76 1F       		.uleb128 0x1f
 2644 0b77 4A010000 		.4byte	.LVL31
 2645 0b7b E7120000 		.4byte	0x12e7
 2646 0b7f 890B0000 		.4byte	0xb89
 2647 0b83 20       		.uleb128 0x20
 2648 0b84 01       		.uleb128 0x1
 2649 0b85 50       		.byte	0x50
 2650 0b86 01       		.uleb128 0x1
 2651 0b87 39       		.byte	0x39
 2652 0b88 00       		.byte	0
 2653 0b89 21       		.uleb128 0x21
 2654 0b8a 56010000 		.4byte	.LVL32
 2655 0b8e 66130000 		.4byte	0x1366
 2656 0b92 21       		.uleb128 0x21
 2657 0b93 66010000 		.4byte	.LVL33
 2658 0b97 45130000 		.4byte	0x1345
 2659 0b9b 1F       		.uleb128 0x1f
 2660 0b9c 7C010000 		.4byte	.LVL34
 2661 0ba0 E7120000 		.4byte	0x12e7
 2662 0ba4 AE0B0000 		.4byte	0xbae
 2663 0ba8 20       		.uleb128 0x20
 2664 0ba9 01       		.uleb128 0x1
 2665 0baa 50       		.byte	0x50
 2666 0bab 01       		.uleb128 0x1
 2667 0bac 3A       		.byte	0x3a
 2668 0bad 00       		.byte	0
 2669 0bae 21       		.uleb128 0x21
 2670 0baf 86010000 		.4byte	.LVL35
 2671 0bb3 66130000 		.4byte	0x1366
ARM GAS  /tmp/cc2GUxSc.s 			page 48


 2672 0bb7 1F       		.uleb128 0x1f
 2673 0bb8 9C010000 		.4byte	.LVL38
 2674 0bbc 87130000 		.4byte	0x1387
 2675 0bc0 D70B0000 		.4byte	0xbd7
 2676 0bc4 20       		.uleb128 0x20
 2677 0bc5 01       		.uleb128 0x1
 2678 0bc6 52       		.byte	0x52
 2679 0bc7 02       		.uleb128 0x2
 2680 0bc8 09       		.byte	0x9
 2681 0bc9 FF       		.byte	0xff
 2682 0bca 20       		.uleb128 0x20
 2683 0bcb 01       		.uleb128 0x1
 2684 0bcc 51       		.byte	0x51
 2685 0bcd 02       		.uleb128 0x2
 2686 0bce 91       		.byte	0x91
 2687 0bcf 6C       		.sleb128 -20
 2688 0bd0 20       		.uleb128 0x20
 2689 0bd1 01       		.uleb128 0x1
 2690 0bd2 50       		.byte	0x50
 2691 0bd3 02       		.uleb128 0x2
 2692 0bd4 75       		.byte	0x75
 2693 0bd5 00       		.sleb128 0
 2694 0bd6 00       		.byte	0
 2695 0bd7 1F       		.uleb128 0x1f
 2696 0bd8 AA010000 		.4byte	.LVL40
 2697 0bdc E7120000 		.4byte	0x12e7
 2698 0be0 EA0B0000 		.4byte	0xbea
 2699 0be4 20       		.uleb128 0x20
 2700 0be5 01       		.uleb128 0x1
 2701 0be6 50       		.byte	0x50
 2702 0be7 01       		.uleb128 0x1
 2703 0be8 3B       		.byte	0x3b
 2704 0be9 00       		.byte	0
 2705 0bea 21       		.uleb128 0x21
 2706 0beb B8010000 		.4byte	.LVL41
 2707 0bef A6130000 		.4byte	0x13a6
 2708 0bf3 1F       		.uleb128 0x1f
 2709 0bf4 C4010000 		.4byte	.LVL43
 2710 0bf8 B7130000 		.4byte	0x13b7
 2711 0bfc 0F0C0000 		.4byte	0xc0f
 2712 0c00 20       		.uleb128 0x20
 2713 0c01 01       		.uleb128 0x1
 2714 0c02 51       		.byte	0x51
 2715 0c03 05       		.uleb128 0x5
 2716 0c04 03       		.byte	0x3
 2717 0c05 00000000 		.4byte	.LC0
 2718 0c09 20       		.uleb128 0x20
 2719 0c0a 01       		.uleb128 0x1
 2720 0c0b 50       		.byte	0x50
 2721 0c0c 01       		.uleb128 0x1
 2722 0c0d 3C       		.byte	0x3c
 2723 0c0e 00       		.byte	0
 2724 0c0f 1F       		.uleb128 0x1f
 2725 0c10 D6010000 		.4byte	.LVL44
 2726 0c14 01130000 		.4byte	0x1301
 2727 0c18 2F0C0000 		.4byte	0xc2f
 2728 0c1c 20       		.uleb128 0x20
ARM GAS  /tmp/cc2GUxSc.s 			page 49


 2729 0c1d 01       		.uleb128 0x1
 2730 0c1e 52       		.byte	0x52
 2731 0c1f 02       		.uleb128 0x2
 2732 0c20 09       		.byte	0x9
 2733 0c21 FF       		.byte	0xff
 2734 0c22 20       		.uleb128 0x20
 2735 0c23 01       		.uleb128 0x1
 2736 0c24 51       		.byte	0x51
 2737 0c25 02       		.uleb128 0x2
 2738 0c26 08       		.byte	0x8
 2739 0c27 47       		.byte	0x47
 2740 0c28 20       		.uleb128 0x20
 2741 0c29 01       		.uleb128 0x1
 2742 0c2a 50       		.byte	0x50
 2743 0c2b 02       		.uleb128 0x2
 2744 0c2c 75       		.byte	0x75
 2745 0c2d 00       		.sleb128 0
 2746 0c2e 00       		.byte	0
 2747 0c2f 1F       		.uleb128 0x1f
 2748 0c30 E4010000 		.4byte	.LVL46
 2749 0c34 E7120000 		.4byte	0x12e7
 2750 0c38 420C0000 		.4byte	0xc42
 2751 0c3c 20       		.uleb128 0x20
 2752 0c3d 01       		.uleb128 0x1
 2753 0c3e 50       		.byte	0x50
 2754 0c3f 01       		.uleb128 0x1
 2755 0c40 3D       		.byte	0x3d
 2756 0c41 00       		.byte	0
 2757 0c42 1F       		.uleb128 0x1f
 2758 0c43 F6010000 		.4byte	.LVL47
 2759 0c47 87130000 		.4byte	0x1387
 2760 0c4b 620C0000 		.4byte	0xc62
 2761 0c4f 20       		.uleb128 0x20
 2762 0c50 01       		.uleb128 0x1
 2763 0c51 52       		.byte	0x52
 2764 0c52 02       		.uleb128 0x2
 2765 0c53 09       		.byte	0x9
 2766 0c54 FF       		.byte	0xff
 2767 0c55 20       		.uleb128 0x20
 2768 0c56 01       		.uleb128 0x1
 2769 0c57 51       		.byte	0x51
 2770 0c58 02       		.uleb128 0x2
 2771 0c59 91       		.byte	0x91
 2772 0c5a 6C       		.sleb128 -20
 2773 0c5b 20       		.uleb128 0x20
 2774 0c5c 01       		.uleb128 0x1
 2775 0c5d 50       		.byte	0x50
 2776 0c5e 02       		.uleb128 0x2
 2777 0c5f 75       		.byte	0x75
 2778 0c60 00       		.sleb128 0
 2779 0c61 00       		.byte	0
 2780 0c62 1F       		.uleb128 0x1f
 2781 0c63 04020000 		.4byte	.LVL49
 2782 0c67 E7120000 		.4byte	0x12e7
 2783 0c6b 750C0000 		.4byte	0xc75
 2784 0c6f 20       		.uleb128 0x20
 2785 0c70 01       		.uleb128 0x1
ARM GAS  /tmp/cc2GUxSc.s 			page 50


 2786 0c71 50       		.byte	0x50
 2787 0c72 01       		.uleb128 0x1
 2788 0c73 3E       		.byte	0x3e
 2789 0c74 00       		.byte	0
 2790 0c75 1F       		.uleb128 0x1f
 2791 0c76 1A020000 		.4byte	.LVL51
 2792 0c7a E7120000 		.4byte	0x12e7
 2793 0c7e 900C0000 		.4byte	0xc90
 2794 0c82 20       		.uleb128 0x20
 2795 0c83 01       		.uleb128 0x1
 2796 0c84 51       		.byte	0x51
 2797 0c85 04       		.uleb128 0x4
 2798 0c86 76       		.byte	0x76
 2799 0c87 00       		.sleb128 0
 2800 0c88 30       		.byte	0x30
 2801 0c89 29       		.byte	0x29
 2802 0c8a 20       		.uleb128 0x20
 2803 0c8b 01       		.uleb128 0x1
 2804 0c8c 50       		.byte	0x50
 2805 0c8d 01       		.uleb128 0x1
 2806 0c8e 3F       		.byte	0x3f
 2807 0c8f 00       		.byte	0
 2808 0c90 1F       		.uleb128 0x1f
 2809 0c91 30020000 		.4byte	.LVL52
 2810 0c95 E7120000 		.4byte	0x12e7
 2811 0c99 A30C0000 		.4byte	0xca3
 2812 0c9d 20       		.uleb128 0x20
 2813 0c9e 01       		.uleb128 0x1
 2814 0c9f 50       		.byte	0x50
 2815 0ca0 01       		.uleb128 0x1
 2816 0ca1 40       		.byte	0x40
 2817 0ca2 00       		.byte	0
 2818 0ca3 1F       		.uleb128 0x1f
 2819 0ca4 40020000 		.4byte	.LVL53
 2820 0ca8 87130000 		.4byte	0x1387
 2821 0cac C20C0000 		.4byte	0xcc2
 2822 0cb0 20       		.uleb128 0x20
 2823 0cb1 01       		.uleb128 0x1
 2824 0cb2 52       		.byte	0x52
 2825 0cb3 01       		.uleb128 0x1
 2826 0cb4 31       		.byte	0x31
 2827 0cb5 20       		.uleb128 0x20
 2828 0cb6 01       		.uleb128 0x1
 2829 0cb7 51       		.byte	0x51
 2830 0cb8 02       		.uleb128 0x2
 2831 0cb9 91       		.byte	0x91
 2832 0cba 6C       		.sleb128 -20
 2833 0cbb 20       		.uleb128 0x20
 2834 0cbc 01       		.uleb128 0x1
 2835 0cbd 50       		.byte	0x50
 2836 0cbe 02       		.uleb128 0x2
 2837 0cbf 75       		.byte	0x75
 2838 0cc0 00       		.sleb128 0
 2839 0cc1 00       		.byte	0
 2840 0cc2 1F       		.uleb128 0x1f
 2841 0cc3 4E020000 		.4byte	.LVL55
 2842 0cc7 E7120000 		.4byte	0x12e7
ARM GAS  /tmp/cc2GUxSc.s 			page 51


 2843 0ccb D50C0000 		.4byte	0xcd5
 2844 0ccf 20       		.uleb128 0x20
 2845 0cd0 01       		.uleb128 0x1
 2846 0cd1 50       		.byte	0x50
 2847 0cd2 01       		.uleb128 0x1
 2848 0cd3 41       		.byte	0x41
 2849 0cd4 00       		.byte	0
 2850 0cd5 21       		.uleb128 0x21
 2851 0cd6 5E020000 		.4byte	.LVL56
 2852 0cda 45130000 		.4byte	0x1345
 2853 0cde 1F       		.uleb128 0x1f
 2854 0cdf 66020000 		.4byte	.LVL57
 2855 0ce3 D7130000 		.4byte	0x13d7
 2856 0ce7 F80C0000 		.4byte	0xcf8
 2857 0ceb 20       		.uleb128 0x20
 2858 0cec 01       		.uleb128 0x1
 2859 0ced 51       		.byte	0x51
 2860 0cee 02       		.uleb128 0x2
 2861 0cef 91       		.byte	0x91
 2862 0cf0 6C       		.sleb128 -20
 2863 0cf1 20       		.uleb128 0x20
 2864 0cf2 01       		.uleb128 0x1
 2865 0cf3 50       		.byte	0x50
 2866 0cf4 02       		.uleb128 0x2
 2867 0cf5 75       		.byte	0x75
 2868 0cf6 00       		.sleb128 0
 2869 0cf7 00       		.byte	0
 2870 0cf8 21       		.uleb128 0x21
 2871 0cf9 6C020000 		.4byte	.LVL59
 2872 0cfd 66130000 		.4byte	0x1366
 2873 0d01 1F       		.uleb128 0x1f
 2874 0d02 84020000 		.4byte	.LVL60
 2875 0d06 E7120000 		.4byte	0x12e7
 2876 0d0a 1D0D0000 		.4byte	0xd1d
 2877 0d0e 20       		.uleb128 0x20
 2878 0d0f 01       		.uleb128 0x1
 2879 0d10 51       		.byte	0x51
 2880 0d11 05       		.uleb128 0x5
 2881 0d12 74       		.byte	0x74
 2882 0d13 00       		.sleb128 0
 2883 0d14 09       		.byte	0x9
 2884 0d15 FF       		.byte	0xff
 2885 0d16 29       		.byte	0x29
 2886 0d17 20       		.uleb128 0x20
 2887 0d18 01       		.uleb128 0x1
 2888 0d19 50       		.byte	0x50
 2889 0d1a 01       		.uleb128 0x1
 2890 0d1b 42       		.byte	0x42
 2891 0d1c 00       		.byte	0
 2892 0d1d 21       		.uleb128 0x21
 2893 0d1e 94020000 		.4byte	.LVL61
 2894 0d22 45130000 		.4byte	0x1345
 2895 0d26 1F       		.uleb128 0x1f
 2896 0d27 A8020000 		.4byte	.LVL62
 2897 0d2b E7120000 		.4byte	0x12e7
 2898 0d2f 390D0000 		.4byte	0xd39
 2899 0d33 20       		.uleb128 0x20
ARM GAS  /tmp/cc2GUxSc.s 			page 52


 2900 0d34 01       		.uleb128 0x1
 2901 0d35 50       		.byte	0x50
 2902 0d36 01       		.uleb128 0x1
 2903 0d37 43       		.byte	0x43
 2904 0d38 00       		.byte	0
 2905 0d39 21       		.uleb128 0x21
 2906 0d3a B2020000 		.4byte	.LVL63
 2907 0d3e 66130000 		.4byte	0x1366
 2908 0d42 21       		.uleb128 0x21
 2909 0d43 C2020000 		.4byte	.LVL64
 2910 0d47 45130000 		.4byte	0x1345
 2911 0d4b 1F       		.uleb128 0x1f
 2912 0d4c D4020000 		.4byte	.LVL65
 2913 0d50 E7120000 		.4byte	0x12e7
 2914 0d54 5E0D0000 		.4byte	0xd5e
 2915 0d58 20       		.uleb128 0x20
 2916 0d59 01       		.uleb128 0x1
 2917 0d5a 50       		.byte	0x50
 2918 0d5b 01       		.uleb128 0x1
 2919 0d5c 44       		.byte	0x44
 2920 0d5d 00       		.byte	0
 2921 0d5e 21       		.uleb128 0x21
 2922 0d5f E0020000 		.4byte	.LVL67
 2923 0d63 66130000 		.4byte	0x1366
 2924 0d67 21       		.uleb128 0x21
 2925 0d68 F0020000 		.4byte	.LVL68
 2926 0d6c 45130000 		.4byte	0x1345
 2927 0d70 1F       		.uleb128 0x1f
 2928 0d71 02030000 		.4byte	.LVL69
 2929 0d75 E7120000 		.4byte	0x12e7
 2930 0d79 8B0D0000 		.4byte	0xd8b
 2931 0d7d 20       		.uleb128 0x20
 2932 0d7e 01       		.uleb128 0x1
 2933 0d7f 51       		.byte	0x51
 2934 0d80 04       		.uleb128 0x4
 2935 0d81 76       		.byte	0x76
 2936 0d82 00       		.sleb128 0
 2937 0d83 30       		.byte	0x30
 2938 0d84 29       		.byte	0x29
 2939 0d85 20       		.uleb128 0x20
 2940 0d86 01       		.uleb128 0x1
 2941 0d87 50       		.byte	0x50
 2942 0d88 01       		.uleb128 0x1
 2943 0d89 45       		.byte	0x45
 2944 0d8a 00       		.byte	0
 2945 0d8b 21       		.uleb128 0x21
 2946 0d8c 0E030000 		.4byte	.LVL70
 2947 0d90 66130000 		.4byte	0x1366
 2948 0d94 21       		.uleb128 0x21
 2949 0d95 1E030000 		.4byte	.LVL71
 2950 0d99 45130000 		.4byte	0x1345
 2951 0d9d 1F       		.uleb128 0x1f
 2952 0d9e 26030000 		.4byte	.LVL72
 2953 0da2 4C130000 		.4byte	0x134c
 2954 0da6 B70D0000 		.4byte	0xdb7
 2955 0daa 20       		.uleb128 0x20
 2956 0dab 01       		.uleb128 0x1
ARM GAS  /tmp/cc2GUxSc.s 			page 53


 2957 0dac 51       		.byte	0x51
 2958 0dad 02       		.uleb128 0x2
 2959 0dae 08       		.byte	0x8
 2960 0daf 41       		.byte	0x41
 2961 0db0 20       		.uleb128 0x20
 2962 0db1 01       		.uleb128 0x1
 2963 0db2 50       		.byte	0x50
 2964 0db3 02       		.uleb128 0x2
 2965 0db4 75       		.byte	0x75
 2966 0db5 00       		.sleb128 0
 2967 0db6 00       		.byte	0
 2968 0db7 1F       		.uleb128 0x1f
 2969 0db8 34030000 		.4byte	.LVL74
 2970 0dbc E7120000 		.4byte	0x12e7
 2971 0dc0 CA0D0000 		.4byte	0xdca
 2972 0dc4 20       		.uleb128 0x20
 2973 0dc5 01       		.uleb128 0x1
 2974 0dc6 50       		.byte	0x50
 2975 0dc7 01       		.uleb128 0x1
 2976 0dc8 46       		.byte	0x46
 2977 0dc9 00       		.byte	0
 2978 0dca 1F       		.uleb128 0x1f
 2979 0dcb 42030000 		.4byte	.LVL75
 2980 0dcf 4C130000 		.4byte	0x134c
 2981 0dd3 E40D0000 		.4byte	0xde4
 2982 0dd7 20       		.uleb128 0x20
 2983 0dd8 01       		.uleb128 0x1
 2984 0dd9 51       		.byte	0x51
 2985 0dda 02       		.uleb128 0x2
 2986 0ddb 08       		.byte	0x8
 2987 0ddc 42       		.byte	0x42
 2988 0ddd 20       		.uleb128 0x20
 2989 0dde 01       		.uleb128 0x1
 2990 0ddf 50       		.byte	0x50
 2991 0de0 02       		.uleb128 0x2
 2992 0de1 75       		.byte	0x75
 2993 0de2 00       		.sleb128 0
 2994 0de3 00       		.byte	0
 2995 0de4 1F       		.uleb128 0x1f
 2996 0de5 50030000 		.4byte	.LVL77
 2997 0de9 E7120000 		.4byte	0x12e7
 2998 0ded F70D0000 		.4byte	0xdf7
 2999 0df1 20       		.uleb128 0x20
 3000 0df2 01       		.uleb128 0x1
 3001 0df3 50       		.byte	0x50
 3002 0df4 01       		.uleb128 0x1
 3003 0df5 47       		.byte	0x47
 3004 0df6 00       		.byte	0
 3005 0df7 1F       		.uleb128 0x1f
 3006 0df8 5E030000 		.4byte	.LVL78
 3007 0dfc 4C130000 		.4byte	0x134c
 3008 0e00 110E0000 		.4byte	0xe11
 3009 0e04 20       		.uleb128 0x20
 3010 0e05 01       		.uleb128 0x1
 3011 0e06 51       		.byte	0x51
 3012 0e07 02       		.uleb128 0x2
 3013 0e08 08       		.byte	0x8
ARM GAS  /tmp/cc2GUxSc.s 			page 54


 3014 0e09 43       		.byte	0x43
 3015 0e0a 20       		.uleb128 0x20
 3016 0e0b 01       		.uleb128 0x1
 3017 0e0c 50       		.byte	0x50
 3018 0e0d 02       		.uleb128 0x2
 3019 0e0e 75       		.byte	0x75
 3020 0e0f 00       		.sleb128 0
 3021 0e10 00       		.byte	0
 3022 0e11 1F       		.uleb128 0x1f
 3023 0e12 6C030000 		.4byte	.LVL80
 3024 0e16 E7120000 		.4byte	0x12e7
 3025 0e1a 240E0000 		.4byte	0xe24
 3026 0e1e 20       		.uleb128 0x20
 3027 0e1f 01       		.uleb128 0x1
 3028 0e20 50       		.byte	0x50
 3029 0e21 01       		.uleb128 0x1
 3030 0e22 48       		.byte	0x48
 3031 0e23 00       		.byte	0
 3032 0e24 1F       		.uleb128 0x1f
 3033 0e25 7A030000 		.4byte	.LVL81
 3034 0e29 4C130000 		.4byte	0x134c
 3035 0e2d 3E0E0000 		.4byte	0xe3e
 3036 0e31 20       		.uleb128 0x20
 3037 0e32 01       		.uleb128 0x1
 3038 0e33 51       		.byte	0x51
 3039 0e34 02       		.uleb128 0x2
 3040 0e35 08       		.byte	0x8
 3041 0e36 44       		.byte	0x44
 3042 0e37 20       		.uleb128 0x20
 3043 0e38 01       		.uleb128 0x1
 3044 0e39 50       		.byte	0x50
 3045 0e3a 02       		.uleb128 0x2
 3046 0e3b 75       		.byte	0x75
 3047 0e3c 00       		.sleb128 0
 3048 0e3d 00       		.byte	0
 3049 0e3e 1F       		.uleb128 0x1f
 3050 0e3f 88030000 		.4byte	.LVL83
 3051 0e43 E7120000 		.4byte	0x12e7
 3052 0e47 510E0000 		.4byte	0xe51
 3053 0e4b 20       		.uleb128 0x20
 3054 0e4c 01       		.uleb128 0x1
 3055 0e4d 50       		.byte	0x50
 3056 0e4e 01       		.uleb128 0x1
 3057 0e4f 49       		.byte	0x49
 3058 0e50 00       		.byte	0
 3059 0e51 1F       		.uleb128 0x1f
 3060 0e52 98030000 		.4byte	.LVL84
 3061 0e56 4C130000 		.4byte	0x134c
 3062 0e5a 6B0E0000 		.4byte	0xe6b
 3063 0e5e 20       		.uleb128 0x20
 3064 0e5f 01       		.uleb128 0x1
 3065 0e60 51       		.byte	0x51
 3066 0e61 02       		.uleb128 0x2
 3067 0e62 08       		.byte	0x8
 3068 0e63 45       		.byte	0x45
 3069 0e64 20       		.uleb128 0x20
 3070 0e65 01       		.uleb128 0x1
ARM GAS  /tmp/cc2GUxSc.s 			page 55


 3071 0e66 50       		.byte	0x50
 3072 0e67 02       		.uleb128 0x2
 3073 0e68 75       		.byte	0x75
 3074 0e69 00       		.sleb128 0
 3075 0e6a 00       		.byte	0
 3076 0e6b 21       		.uleb128 0x21
 3077 0e6c AA030000 		.4byte	.LVL86
 3078 0e70 66130000 		.4byte	0x1366
 3079 0e74 1F       		.uleb128 0x1f
 3080 0e75 BE030000 		.4byte	.LVL87
 3081 0e79 E7120000 		.4byte	0x12e7
 3082 0e7d A10E0000 		.4byte	0xea1
 3083 0e81 20       		.uleb128 0x20
 3084 0e82 01       		.uleb128 0x1
 3085 0e83 51       		.byte	0x51
 3086 0e84 16       		.uleb128 0x16
 3087 0e85 30       		.byte	0x30
 3088 0e86 31       		.byte	0x31
 3089 0e87 76       		.byte	0x76
 3090 0e88 00       		.sleb128 0
 3091 0e89 1C       		.byte	0x1c
 3092 0e8a 31       		.byte	0x31
 3093 0e8b 40       		.byte	0x40
 3094 0e8c 4B       		.byte	0x4b
 3095 0e8d 24       		.byte	0x24
 3096 0e8e 22       		.byte	0x22
 3097 0e8f 76       		.byte	0x76
 3098 0e90 00       		.sleb128 0
 3099 0e91 40       		.byte	0x40
 3100 0e92 4B       		.byte	0x4b
 3101 0e93 24       		.byte	0x24
 3102 0e94 22       		.byte	0x22
 3103 0e95 2D       		.byte	0x2d
 3104 0e96 28       		.byte	0x28
 3105 0e97 0100     		.2byte	0x1
 3106 0e99 16       		.byte	0x16
 3107 0e9a 13       		.byte	0x13
 3108 0e9b 20       		.uleb128 0x20
 3109 0e9c 01       		.uleb128 0x1
 3110 0e9d 50       		.byte	0x50
 3111 0e9e 01       		.uleb128 0x1
 3112 0e9f 4A       		.byte	0x4a
 3113 0ea0 00       		.byte	0
 3114 0ea1 1F       		.uleb128 0x1f
 3115 0ea2 D4030000 		.4byte	.LVL88
 3116 0ea6 E7120000 		.4byte	0x12e7
 3117 0eaa BC0E0000 		.4byte	0xebc
 3118 0eae 20       		.uleb128 0x20
 3119 0eaf 01       		.uleb128 0x1
 3120 0eb0 51       		.byte	0x51
 3121 0eb1 04       		.uleb128 0x4
 3122 0eb2 74       		.byte	0x74
 3123 0eb3 00       		.sleb128 0
 3124 0eb4 30       		.byte	0x30
 3125 0eb5 29       		.byte	0x29
 3126 0eb6 20       		.uleb128 0x20
 3127 0eb7 01       		.uleb128 0x1
ARM GAS  /tmp/cc2GUxSc.s 			page 56


 3128 0eb8 50       		.byte	0x50
 3129 0eb9 01       		.uleb128 0x1
 3130 0eba 4B       		.byte	0x4b
 3131 0ebb 00       		.byte	0
 3132 0ebc 21       		.uleb128 0x21
 3133 0ebd E6030000 		.4byte	.LVL90
 3134 0ec1 45130000 		.4byte	0x1345
 3135 0ec5 1F       		.uleb128 0x1f
 3136 0ec6 EE030000 		.4byte	.LVL91
 3137 0eca D7130000 		.4byte	0x13d7
 3138 0ece DF0E0000 		.4byte	0xedf
 3139 0ed2 20       		.uleb128 0x20
 3140 0ed3 01       		.uleb128 0x1
 3141 0ed4 51       		.byte	0x51
 3142 0ed5 02       		.uleb128 0x2
 3143 0ed6 91       		.byte	0x91
 3144 0ed7 6C       		.sleb128 -20
 3145 0ed8 20       		.uleb128 0x20
 3146 0ed9 01       		.uleb128 0x1
 3147 0eda 50       		.byte	0x50
 3148 0edb 02       		.uleb128 0x2
 3149 0edc 75       		.byte	0x75
 3150 0edd 00       		.sleb128 0
 3151 0ede 00       		.byte	0
 3152 0edf 21       		.uleb128 0x21
 3153 0ee0 F4030000 		.4byte	.LVL93
 3154 0ee4 66130000 		.4byte	0x1366
 3155 0ee8 1F       		.uleb128 0x1f
 3156 0ee9 08040000 		.4byte	.LVL94
 3157 0eed E7120000 		.4byte	0x12e7
 3158 0ef1 150F0000 		.4byte	0xf15
 3159 0ef5 20       		.uleb128 0x20
 3160 0ef6 01       		.uleb128 0x1
 3161 0ef7 51       		.byte	0x51
 3162 0ef8 16       		.uleb128 0x16
 3163 0ef9 30       		.byte	0x30
 3164 0efa 31       		.byte	0x31
 3165 0efb 76       		.byte	0x76
 3166 0efc 00       		.sleb128 0
 3167 0efd 1C       		.byte	0x1c
 3168 0efe 31       		.byte	0x31
 3169 0eff 40       		.byte	0x40
 3170 0f00 4B       		.byte	0x4b
 3171 0f01 24       		.byte	0x24
 3172 0f02 22       		.byte	0x22
 3173 0f03 76       		.byte	0x76
 3174 0f04 00       		.sleb128 0
 3175 0f05 40       		.byte	0x40
 3176 0f06 4B       		.byte	0x4b
 3177 0f07 24       		.byte	0x24
 3178 0f08 22       		.byte	0x22
 3179 0f09 2D       		.byte	0x2d
 3180 0f0a 28       		.byte	0x28
 3181 0f0b 0100     		.2byte	0x1
 3182 0f0d 16       		.byte	0x16
 3183 0f0e 13       		.byte	0x13
 3184 0f0f 20       		.uleb128 0x20
ARM GAS  /tmp/cc2GUxSc.s 			page 57


 3185 0f10 01       		.uleb128 0x1
 3186 0f11 50       		.byte	0x50
 3187 0f12 01       		.uleb128 0x1
 3188 0f13 4C       		.byte	0x4c
 3189 0f14 00       		.byte	0
 3190 0f15 21       		.uleb128 0x21
 3191 0f16 16040000 		.4byte	.LVL95
 3192 0f1a A6130000 		.4byte	0x13a6
 3193 0f1e 1F       		.uleb128 0x1f
 3194 0f1f 22040000 		.4byte	.LVL97
 3195 0f23 B7130000 		.4byte	0x13b7
 3196 0f27 3A0F0000 		.4byte	0xf3a
 3197 0f2b 20       		.uleb128 0x20
 3198 0f2c 01       		.uleb128 0x1
 3199 0f2d 51       		.byte	0x51
 3200 0f2e 05       		.uleb128 0x5
 3201 0f2f 03       		.byte	0x3
 3202 0f30 00000000 		.4byte	.LC0
 3203 0f34 20       		.uleb128 0x20
 3204 0f35 01       		.uleb128 0x1
 3205 0f36 50       		.byte	0x50
 3206 0f37 01       		.uleb128 0x1
 3207 0f38 4D       		.byte	0x4d
 3208 0f39 00       		.byte	0
 3209 0f3a 21       		.uleb128 0x21
 3210 0f3b 32040000 		.4byte	.LVL98
 3211 0f3f 45130000 		.4byte	0x1345
 3212 0f43 1F       		.uleb128 0x1f
 3213 0f44 42040000 		.4byte	.LVL99
 3214 0f48 E7120000 		.4byte	0x12e7
 3215 0f4c 560F0000 		.4byte	0xf56
 3216 0f50 20       		.uleb128 0x20
 3217 0f51 01       		.uleb128 0x1
 3218 0f52 50       		.byte	0x50
 3219 0f53 01       		.uleb128 0x1
 3220 0f54 4E       		.byte	0x4e
 3221 0f55 00       		.byte	0
 3222 0f56 21       		.uleb128 0x21
 3223 0f57 4E040000 		.4byte	.LVL101
 3224 0f5b 66130000 		.4byte	0x1366
 3225 0f5f 21       		.uleb128 0x21
 3226 0f60 5E040000 		.4byte	.LVL102
 3227 0f64 45130000 		.4byte	0x1345
 3228 0f68 1F       		.uleb128 0x1f
 3229 0f69 70040000 		.4byte	.LVL103
 3230 0f6d E7120000 		.4byte	0x12e7
 3231 0f71 7B0F0000 		.4byte	0xf7b
 3232 0f75 20       		.uleb128 0x20
 3233 0f76 01       		.uleb128 0x1
 3234 0f77 50       		.byte	0x50
 3235 0f78 01       		.uleb128 0x1
 3236 0f79 4F       		.byte	0x4f
 3237 0f7a 00       		.byte	0
 3238 0f7b 21       		.uleb128 0x21
 3239 0f7c 7C040000 		.4byte	.LVL104
 3240 0f80 66130000 		.4byte	0x1366
 3241 0f84 1F       		.uleb128 0x1f
ARM GAS  /tmp/cc2GUxSc.s 			page 58


 3242 0f85 92040000 		.4byte	.LVL105
 3243 0f89 E7120000 		.4byte	0x12e7
 3244 0f8d 980F0000 		.4byte	0xf98
 3245 0f91 20       		.uleb128 0x20
 3246 0f92 01       		.uleb128 0x1
 3247 0f93 50       		.byte	0x50
 3248 0f94 02       		.uleb128 0x2
 3249 0f95 08       		.byte	0x8
 3250 0f96 20       		.byte	0x20
 3251 0f97 00       		.byte	0
 3252 0f98 21       		.uleb128 0x21
 3253 0f99 A2040000 		.4byte	.LVL106
 3254 0f9d 45130000 		.4byte	0x1345
 3255 0fa1 1F       		.uleb128 0x1f
 3256 0fa2 AA040000 		.4byte	.LVL107
 3257 0fa6 6D130000 		.4byte	0x136d
 3258 0faa BB0F0000 		.4byte	0xfbb
 3259 0fae 20       		.uleb128 0x20
 3260 0faf 01       		.uleb128 0x1
 3261 0fb0 51       		.byte	0x51
 3262 0fb1 02       		.uleb128 0x2
 3263 0fb2 08       		.byte	0x8
 3264 0fb3 45       		.byte	0x45
 3265 0fb4 20       		.uleb128 0x20
 3266 0fb5 01       		.uleb128 0x1
 3267 0fb6 50       		.byte	0x50
 3268 0fb7 02       		.uleb128 0x2
 3269 0fb8 75       		.byte	0x75
 3270 0fb9 00       		.sleb128 0
 3271 0fba 00       		.byte	0
 3272 0fbb 1F       		.uleb128 0x1f
 3273 0fbc B8040000 		.4byte	.LVL109
 3274 0fc0 E7120000 		.4byte	0x12e7
 3275 0fc4 CF0F0000 		.4byte	0xfcf
 3276 0fc8 20       		.uleb128 0x20
 3277 0fc9 01       		.uleb128 0x1
 3278 0fca 50       		.byte	0x50
 3279 0fcb 02       		.uleb128 0x2
 3280 0fcc 08       		.byte	0x8
 3281 0fcd 21       		.byte	0x21
 3282 0fce 00       		.byte	0
 3283 0fcf 1F       		.uleb128 0x1f
 3284 0fd0 C6040000 		.4byte	.LVL110
 3285 0fd4 6D130000 		.4byte	0x136d
 3286 0fd8 E90F0000 		.4byte	0xfe9
 3287 0fdc 20       		.uleb128 0x20
 3288 0fdd 01       		.uleb128 0x1
 3289 0fde 51       		.byte	0x51
 3290 0fdf 02       		.uleb128 0x2
 3291 0fe0 08       		.byte	0x8
 3292 0fe1 44       		.byte	0x44
 3293 0fe2 20       		.uleb128 0x20
 3294 0fe3 01       		.uleb128 0x1
 3295 0fe4 50       		.byte	0x50
 3296 0fe5 02       		.uleb128 0x2
 3297 0fe6 75       		.byte	0x75
 3298 0fe7 00       		.sleb128 0
ARM GAS  /tmp/cc2GUxSc.s 			page 59


 3299 0fe8 00       		.byte	0
 3300 0fe9 1F       		.uleb128 0x1f
 3301 0fea D4040000 		.4byte	.LVL112
 3302 0fee E7120000 		.4byte	0x12e7
 3303 0ff2 FD0F0000 		.4byte	0xffd
 3304 0ff6 20       		.uleb128 0x20
 3305 0ff7 01       		.uleb128 0x1
 3306 0ff8 50       		.byte	0x50
 3307 0ff9 02       		.uleb128 0x2
 3308 0ffa 08       		.byte	0x8
 3309 0ffb 22       		.byte	0x22
 3310 0ffc 00       		.byte	0
 3311 0ffd 1F       		.uleb128 0x1f
 3312 0ffe E2040000 		.4byte	.LVL113
 3313 1002 6D130000 		.4byte	0x136d
 3314 1006 17100000 		.4byte	0x1017
 3315 100a 20       		.uleb128 0x20
 3316 100b 01       		.uleb128 0x1
 3317 100c 51       		.byte	0x51
 3318 100d 02       		.uleb128 0x2
 3319 100e 08       		.byte	0x8
 3320 100f 43       		.byte	0x43
 3321 1010 20       		.uleb128 0x20
 3322 1011 01       		.uleb128 0x1
 3323 1012 50       		.byte	0x50
 3324 1013 02       		.uleb128 0x2
 3325 1014 75       		.byte	0x75
 3326 1015 00       		.sleb128 0
 3327 1016 00       		.byte	0
 3328 1017 1F       		.uleb128 0x1f
 3329 1018 F0040000 		.4byte	.LVL115
 3330 101c E7120000 		.4byte	0x12e7
 3331 1020 2B100000 		.4byte	0x102b
 3332 1024 20       		.uleb128 0x20
 3333 1025 01       		.uleb128 0x1
 3334 1026 50       		.byte	0x50
 3335 1027 02       		.uleb128 0x2
 3336 1028 08       		.byte	0x8
 3337 1029 23       		.byte	0x23
 3338 102a 00       		.byte	0
 3339 102b 1F       		.uleb128 0x1f
 3340 102c FE040000 		.4byte	.LVL116
 3341 1030 6D130000 		.4byte	0x136d
 3342 1034 45100000 		.4byte	0x1045
 3343 1038 20       		.uleb128 0x20
 3344 1039 01       		.uleb128 0x1
 3345 103a 51       		.byte	0x51
 3346 103b 02       		.uleb128 0x2
 3347 103c 08       		.byte	0x8
 3348 103d 42       		.byte	0x42
 3349 103e 20       		.uleb128 0x20
 3350 103f 01       		.uleb128 0x1
 3351 1040 50       		.byte	0x50
 3352 1041 02       		.uleb128 0x2
 3353 1042 75       		.byte	0x75
 3354 1043 00       		.sleb128 0
 3355 1044 00       		.byte	0
ARM GAS  /tmp/cc2GUxSc.s 			page 60


 3356 1045 1F       		.uleb128 0x1f
 3357 1046 0C050000 		.4byte	.LVL118
 3358 104a E7120000 		.4byte	0x12e7
 3359 104e 59100000 		.4byte	0x1059
 3360 1052 20       		.uleb128 0x20
 3361 1053 01       		.uleb128 0x1
 3362 1054 50       		.byte	0x50
 3363 1055 02       		.uleb128 0x2
 3364 1056 08       		.byte	0x8
 3365 1057 24       		.byte	0x24
 3366 1058 00       		.byte	0
 3367 1059 1F       		.uleb128 0x1f
 3368 105a 1A050000 		.4byte	.LVL119
 3369 105e 6D130000 		.4byte	0x136d
 3370 1062 73100000 		.4byte	0x1073
 3371 1066 20       		.uleb128 0x20
 3372 1067 01       		.uleb128 0x1
 3373 1068 51       		.byte	0x51
 3374 1069 02       		.uleb128 0x2
 3375 106a 08       		.byte	0x8
 3376 106b 41       		.byte	0x41
 3377 106c 20       		.uleb128 0x20
 3378 106d 01       		.uleb128 0x1
 3379 106e 50       		.byte	0x50
 3380 106f 02       		.uleb128 0x2
 3381 1070 75       		.byte	0x75
 3382 1071 00       		.sleb128 0
 3383 1072 00       		.byte	0
 3384 1073 21       		.uleb128 0x21
 3385 1074 20050000 		.4byte	.LVL121
 3386 1078 66130000 		.4byte	0x1366
 3387 107c 1F       		.uleb128 0x1f
 3388 107d 34050000 		.4byte	.LVL122
 3389 1081 E7120000 		.4byte	0x12e7
 3390 1085 AA100000 		.4byte	0x10aa
 3391 1089 20       		.uleb128 0x20
 3392 108a 01       		.uleb128 0x1
 3393 108b 51       		.byte	0x51
 3394 108c 16       		.uleb128 0x16
 3395 108d 30       		.byte	0x30
 3396 108e 31       		.byte	0x31
 3397 108f 74       		.byte	0x74
 3398 1090 00       		.sleb128 0
 3399 1091 1C       		.byte	0x1c
 3400 1092 31       		.byte	0x31
 3401 1093 40       		.byte	0x40
 3402 1094 4B       		.byte	0x4b
 3403 1095 24       		.byte	0x24
 3404 1096 22       		.byte	0x22
 3405 1097 74       		.byte	0x74
 3406 1098 00       		.sleb128 0
 3407 1099 40       		.byte	0x40
 3408 109a 4B       		.byte	0x4b
 3409 109b 24       		.byte	0x24
 3410 109c 22       		.byte	0x22
 3411 109d 2D       		.byte	0x2d
 3412 109e 28       		.byte	0x28
ARM GAS  /tmp/cc2GUxSc.s 			page 61


 3413 109f 0100     		.2byte	0x1
 3414 10a1 16       		.byte	0x16
 3415 10a2 13       		.byte	0x13
 3416 10a3 20       		.uleb128 0x20
 3417 10a4 01       		.uleb128 0x1
 3418 10a5 50       		.byte	0x50
 3419 10a6 02       		.uleb128 0x2
 3420 10a7 08       		.byte	0x8
 3421 10a8 25       		.byte	0x25
 3422 10a9 00       		.byte	0
 3423 10aa 1F       		.uleb128 0x1f
 3424 10ab 50050000 		.4byte	.LVL123
 3425 10af E7120000 		.4byte	0x12e7
 3426 10b3 BE100000 		.4byte	0x10be
 3427 10b7 20       		.uleb128 0x20
 3428 10b8 01       		.uleb128 0x1
 3429 10b9 50       		.byte	0x50
 3430 10ba 02       		.uleb128 0x2
 3431 10bb 08       		.byte	0x8
 3432 10bc 26       		.byte	0x26
 3433 10bd 00       		.byte	0
 3434 10be 21       		.uleb128 0x21
 3435 10bf 62050000 		.4byte	.LVL125
 3436 10c3 45130000 		.4byte	0x1345
 3437 10c7 1F       		.uleb128 0x1f
 3438 10c8 6A050000 		.4byte	.LVL126
 3439 10cc D7130000 		.4byte	0x13d7
 3440 10d0 E1100000 		.4byte	0x10e1
 3441 10d4 20       		.uleb128 0x20
 3442 10d5 01       		.uleb128 0x1
 3443 10d6 51       		.byte	0x51
 3444 10d7 02       		.uleb128 0x2
 3445 10d8 91       		.byte	0x91
 3446 10d9 6C       		.sleb128 -20
 3447 10da 20       		.uleb128 0x20
 3448 10db 01       		.uleb128 0x1
 3449 10dc 50       		.byte	0x50
 3450 10dd 02       		.uleb128 0x2
 3451 10de 75       		.byte	0x75
 3452 10df 00       		.sleb128 0
 3453 10e0 00       		.byte	0
 3454 10e1 21       		.uleb128 0x21
 3455 10e2 70050000 		.4byte	.LVL128
 3456 10e6 66130000 		.4byte	0x1366
 3457 10ea 1F       		.uleb128 0x1f
 3458 10eb 84050000 		.4byte	.LVL129
 3459 10ef E7120000 		.4byte	0x12e7
 3460 10f3 18110000 		.4byte	0x1118
 3461 10f7 20       		.uleb128 0x20
 3462 10f8 01       		.uleb128 0x1
 3463 10f9 51       		.byte	0x51
 3464 10fa 16       		.uleb128 0x16
 3465 10fb 30       		.byte	0x30
 3466 10fc 31       		.byte	0x31
 3467 10fd 76       		.byte	0x76
 3468 10fe 00       		.sleb128 0
 3469 10ff 1C       		.byte	0x1c
ARM GAS  /tmp/cc2GUxSc.s 			page 62


 3470 1100 31       		.byte	0x31
 3471 1101 40       		.byte	0x40
 3472 1102 4B       		.byte	0x4b
 3473 1103 24       		.byte	0x24
 3474 1104 22       		.byte	0x22
 3475 1105 76       		.byte	0x76
 3476 1106 00       		.sleb128 0
 3477 1107 40       		.byte	0x40
 3478 1108 4B       		.byte	0x4b
 3479 1109 24       		.byte	0x24
 3480 110a 22       		.byte	0x22
 3481 110b 2D       		.byte	0x2d
 3482 110c 28       		.byte	0x28
 3483 110d 0100     		.2byte	0x1
 3484 110f 16       		.byte	0x16
 3485 1110 13       		.byte	0x13
 3486 1111 20       		.uleb128 0x20
 3487 1112 01       		.uleb128 0x1
 3488 1113 50       		.byte	0x50
 3489 1114 02       		.uleb128 0x2
 3490 1115 08       		.byte	0x8
 3491 1116 27       		.byte	0x27
 3492 1117 00       		.byte	0
 3493 1118 21       		.uleb128 0x21
 3494 1119 92050000 		.4byte	.LVL130
 3495 111d A6130000 		.4byte	0x13a6
 3496 1121 1F       		.uleb128 0x1f
 3497 1122 9E050000 		.4byte	.LVL132
 3498 1126 B7130000 		.4byte	0x13b7
 3499 112a 3E110000 		.4byte	0x113e
 3500 112e 20       		.uleb128 0x20
 3501 112f 01       		.uleb128 0x1
 3502 1130 51       		.byte	0x51
 3503 1131 05       		.uleb128 0x5
 3504 1132 03       		.byte	0x3
 3505 1133 00000000 		.4byte	.LC0
 3506 1137 20       		.uleb128 0x20
 3507 1138 01       		.uleb128 0x1
 3508 1139 50       		.byte	0x50
 3509 113a 02       		.uleb128 0x2
 3510 113b 08       		.byte	0x8
 3511 113c 28       		.byte	0x28
 3512 113d 00       		.byte	0
 3513 113e 21       		.uleb128 0x21
 3514 113f AE050000 		.4byte	.LVL133
 3515 1143 45130000 		.4byte	0x1345
 3516 1147 1F       		.uleb128 0x1f
 3517 1148 C4050000 		.4byte	.LVL134
 3518 114c E7120000 		.4byte	0x12e7
 3519 1150 5B110000 		.4byte	0x115b
 3520 1154 20       		.uleb128 0x20
 3521 1155 01       		.uleb128 0x1
 3522 1156 50       		.byte	0x50
 3523 1157 02       		.uleb128 0x2
 3524 1158 08       		.byte	0x8
 3525 1159 29       		.byte	0x29
 3526 115a 00       		.byte	0
ARM GAS  /tmp/cc2GUxSc.s 			page 63


 3527 115b 21       		.uleb128 0x21
 3528 115c CE050000 		.4byte	.LVL136
 3529 1160 66130000 		.4byte	0x1366
 3530 1164 21       		.uleb128 0x21
 3531 1165 DE050000 		.4byte	.LVL137
 3532 1169 45130000 		.4byte	0x1345
 3533 116d 1F       		.uleb128 0x1f
 3534 116e F0050000 		.4byte	.LVL138
 3535 1172 E7120000 		.4byte	0x12e7
 3536 1176 81110000 		.4byte	0x1181
 3537 117a 20       		.uleb128 0x20
 3538 117b 01       		.uleb128 0x1
 3539 117c 50       		.byte	0x50
 3540 117d 02       		.uleb128 0x2
 3541 117e 08       		.byte	0x8
 3542 117f 2A       		.byte	0x2a
 3543 1180 00       		.byte	0
 3544 1181 21       		.uleb128 0x21
 3545 1182 FA050000 		.4byte	.LVL139
 3546 1186 66130000 		.4byte	0x1366
 3547 118a 1F       		.uleb128 0x1f
 3548 118b 10060000 		.4byte	.LVL141
 3549 118f E7120000 		.4byte	0x12e7
 3550 1193 A6110000 		.4byte	0x11a6
 3551 1197 20       		.uleb128 0x20
 3552 1198 01       		.uleb128 0x1
 3553 1199 51       		.byte	0x51
 3554 119a 04       		.uleb128 0x4
 3555 119b 76       		.byte	0x76
 3556 119c 00       		.sleb128 0
 3557 119d 30       		.byte	0x30
 3558 119e 29       		.byte	0x29
 3559 119f 20       		.uleb128 0x20
 3560 11a0 01       		.uleb128 0x1
 3561 11a1 50       		.byte	0x50
 3562 11a2 02       		.uleb128 0x2
 3563 11a3 08       		.byte	0x8
 3564 11a4 2B       		.byte	0x2b
 3565 11a5 00       		.byte	0
 3566 11a6 1F       		.uleb128 0x1f
 3567 11a7 1C060000 		.4byte	.LVL142
 3568 11ab F1130000 		.4byte	0x13f1
 3569 11af BA110000 		.4byte	0x11ba
 3570 11b3 20       		.uleb128 0x20
 3571 11b4 01       		.uleb128 0x1
 3572 11b5 50       		.byte	0x50
 3573 11b6 02       		.uleb128 0x2
 3574 11b7 75       		.byte	0x75
 3575 11b8 00       		.sleb128 0
 3576 11b9 00       		.byte	0
 3577 11ba 21       		.uleb128 0x21
 3578 11bb 26060000 		.4byte	.LVL143
 3579 11bf 45130000 		.4byte	0x1345
 3580 11c3 1F       		.uleb128 0x1f
 3581 11c4 34060000 		.4byte	.LVL144
 3582 11c8 E7120000 		.4byte	0x12e7
 3583 11cc DF110000 		.4byte	0x11df
ARM GAS  /tmp/cc2GUxSc.s 			page 64


 3584 11d0 20       		.uleb128 0x20
 3585 11d1 01       		.uleb128 0x1
 3586 11d2 51       		.byte	0x51
 3587 11d3 04       		.uleb128 0x4
 3588 11d4 74       		.byte	0x74
 3589 11d5 00       		.sleb128 0
 3590 11d6 30       		.byte	0x30
 3591 11d7 29       		.byte	0x29
 3592 11d8 20       		.uleb128 0x20
 3593 11d9 01       		.uleb128 0x1
 3594 11da 50       		.byte	0x50
 3595 11db 02       		.uleb128 0x2
 3596 11dc 08       		.byte	0x8
 3597 11dd 2C       		.byte	0x2c
 3598 11de 00       		.byte	0
 3599 11df 21       		.uleb128 0x21
 3600 11e0 3E060000 		.4byte	.LVL145
 3601 11e4 66130000 		.4byte	0x1366
 3602 11e8 21       		.uleb128 0x21
 3603 11e9 4E060000 		.4byte	.LVL146
 3604 11ed 45130000 		.4byte	0x1345
 3605 11f1 1F       		.uleb128 0x1f
 3606 11f2 60060000 		.4byte	.LVL147
 3607 11f6 E7120000 		.4byte	0x12e7
 3608 11fa 05120000 		.4byte	0x1205
 3609 11fe 20       		.uleb128 0x20
 3610 11ff 01       		.uleb128 0x1
 3611 1200 50       		.byte	0x50
 3612 1201 02       		.uleb128 0x2
 3613 1202 08       		.byte	0x8
 3614 1203 2D       		.byte	0x2d
 3615 1204 00       		.byte	0
 3616 1205 21       		.uleb128 0x21
 3617 1206 68060000 		.4byte	.LVL148
 3618 120a 66130000 		.4byte	0x1366
 3619 120e 21       		.uleb128 0x21
 3620 120f 78060000 		.4byte	.LVL149
 3621 1213 45130000 		.4byte	0x1345
 3622 1217 1F       		.uleb128 0x1f
 3623 1218 8A060000 		.4byte	.LVL150
 3624 121c E7120000 		.4byte	0x12e7
 3625 1220 2B120000 		.4byte	0x122b
 3626 1224 20       		.uleb128 0x20
 3627 1225 01       		.uleb128 0x1
 3628 1226 50       		.byte	0x50
 3629 1227 02       		.uleb128 0x2
 3630 1228 08       		.byte	0x8
 3631 1229 2E       		.byte	0x2e
 3632 122a 00       		.byte	0
 3633 122b 21       		.uleb128 0x21
 3634 122c 92060000 		.4byte	.LVL151
 3635 1230 66130000 		.4byte	0x1366
 3636 1234 21       		.uleb128 0x21
 3637 1235 A2060000 		.4byte	.LVL152
 3638 1239 45130000 		.4byte	0x1345
 3639 123d 1F       		.uleb128 0x1f
 3640 123e B4060000 		.4byte	.LVL153
ARM GAS  /tmp/cc2GUxSc.s 			page 65


 3641 1242 E7120000 		.4byte	0x12e7
 3642 1246 51120000 		.4byte	0x1251
 3643 124a 20       		.uleb128 0x20
 3644 124b 01       		.uleb128 0x1
 3645 124c 50       		.byte	0x50
 3646 124d 02       		.uleb128 0x2
 3647 124e 08       		.byte	0x8
 3648 124f 2F       		.byte	0x2f
 3649 1250 00       		.byte	0
 3650 1251 21       		.uleb128 0x21
 3651 1252 B8060000 		.4byte	.LVL154
 3652 1256 66130000 		.4byte	0x1366
 3653 125a 00       		.byte	0
 3654 125b 19       		.uleb128 0x19
 3655 125c E2010000 		.4byte	.LASF80
 3656 1260 01       		.byte	0x1
 3657 1261 47       		.byte	0x47
 3658 1262 00000000 		.4byte	.LFB7
 3659 1266 14000000 		.4byte	.LFE7-.LFB7
 3660 126a 01       		.uleb128 0x1
 3661 126b 9C       		.byte	0x9c
 3662 126c 89120000 		.4byte	0x1289
 3663 1270 22       		.uleb128 0x22
 3664 1271 0A000000 		.4byte	.LVL155
 3665 1275 02140000 		.4byte	0x1402
 3666 1279 20       		.uleb128 0x20
 3667 127a 01       		.uleb128 0x1
 3668 127b 52       		.byte	0x52
 3669 127c 01       		.uleb128 0x1
 3670 127d 35       		.byte	0x35
 3671 127e 20       		.uleb128 0x20
 3672 127f 01       		.uleb128 0x1
 3673 1280 50       		.byte	0x50
 3674 1281 05       		.uleb128 0x5
 3675 1282 03       		.byte	0x3
 3676 1283 00000000 		.4byte	.LANCHOR0
 3677 1287 00       		.byte	0
 3678 1288 00       		.byte	0
 3679 1289 1E       		.uleb128 0x1e
 3680 128a 6D623100 		.ascii	"mb1\000"
 3681 128e 01       		.byte	0x1
 3682 128f 3C       		.byte	0x3c
 3683 1290 FC030000 		.4byte	0x3fc
 3684 1294 05       		.uleb128 0x5
 3685 1295 03       		.byte	0x3
 3686 1296 00000000 		.4byte	mb1
 3687 129a 23       		.uleb128 0x23
 3688 129b 63000000 		.4byte	.LASF81
 3689 129f 0A       		.byte	0xa
 3690 12a0 A6       		.byte	0xa6
 3691 12a1 F3040000 		.4byte	0x4f3
 3692 12a5 24       		.uleb128 0x24
 3693 12a6 0C020000 		.4byte	.LASF82
 3694 12aa 01       		.byte	0x1
 3695 12ab DE       		.byte	0xde
 3696 12ac B6120000 		.4byte	0x12b6
 3697 12b0 05       		.uleb128 0x5
ARM GAS  /tmp/cc2GUxSc.s 			page 66


 3698 12b1 03       		.byte	0x3
 3699 12b2 00000000 		.4byte	testmbox1
 3700 12b6 10       		.uleb128 0x10
 3701 12b7 5A040000 		.4byte	0x45a
 3702 12bb 14       		.uleb128 0x14
 3703 12bc CB120000 		.4byte	0x12cb
 3704 12c0 CB120000 		.4byte	0x12cb
 3705 12c4 15       		.uleb128 0x15
 3706 12c5 27030000 		.4byte	0x327
 3707 12c9 01       		.byte	0x1
 3708 12ca 00       		.byte	0
 3709 12cb 09       		.uleb128 0x9
 3710 12cc 04       		.byte	0x4
 3711 12cd B6120000 		.4byte	0x12b6
 3712 12d1 24       		.uleb128 0x24
 3713 12d2 4E000000 		.4byte	.LASF83
 3714 12d6 01       		.byte	0x1
 3715 12d7 EA       		.byte	0xea
 3716 12d8 E2120000 		.4byte	0x12e2
 3717 12dc 05       		.uleb128 0x5
 3718 12dd 03       		.byte	0x3
 3719 12de 00000000 		.4byte	patternmbox
 3720 12e2 10       		.uleb128 0x10
 3721 12e3 BB120000 		.4byte	0x12bb
 3722 12e7 25       		.uleb128 0x25
 3723 12e8 BA040000 		.4byte	.LASF84
 3724 12ec 0A       		.byte	0xa
 3725 12ed 58       		.byte	0x58
 3726 12ee 97000000 		.4byte	0x97
 3727 12f2 01130000 		.4byte	0x1301
 3728 12f6 26       		.uleb128 0x26
 3729 12f7 2C000000 		.4byte	0x2c
 3730 12fb 26       		.uleb128 0x26
 3731 12fc 97000000 		.4byte	0x97
 3732 1300 00       		.byte	0
 3733 1301 25       		.uleb128 0x25
 3734 1302 DC000000 		.4byte	.LASF85
 3735 1306 09       		.byte	0x9
 3736 1307 3E       		.byte	0x3e
 3737 1308 E0000000 		.4byte	0xe0
 3738 130c 20130000 		.4byte	0x1320
 3739 1310 26       		.uleb128 0x26
 3740 1311 20130000 		.4byte	0x1320
 3741 1315 26       		.uleb128 0x26
 3742 1316 E0000000 		.4byte	0xe0
 3743 131a 26       		.uleb128 0x26
 3744 131b F6000000 		.4byte	0xf6
 3745 131f 00       		.byte	0
 3746 1320 09       		.uleb128 0x9
 3747 1321 04       		.byte	0x4
 3748 1322 FC030000 		.4byte	0x3fc
 3749 1326 25       		.uleb128 0x25
 3750 1327 51040000 		.4byte	.LASF86
 3751 132b 09       		.byte	0x9
 3752 132c 41       		.byte	0x41
 3753 132d E0000000 		.4byte	0xe0
 3754 1331 45130000 		.4byte	0x1345
ARM GAS  /tmp/cc2GUxSc.s 			page 67


 3755 1335 26       		.uleb128 0x26
 3756 1336 20130000 		.4byte	0x1320
 3757 133a 26       		.uleb128 0x26
 3758 133b E0000000 		.4byte	0xe0
 3759 133f 26       		.uleb128 0x26
 3760 1340 F6000000 		.4byte	0xf6
 3761 1344 00       		.byte	0
 3762 1345 27       		.uleb128 0x27
 3763 1346 86020000 		.4byte	.LASF88
 3764 134a 0B       		.byte	0xb
 3765 134b E0       		.byte	0xe0
 3766 134c 25       		.uleb128 0x25
 3767 134d 16000000 		.4byte	.LASF87
 3768 1351 09       		.byte	0x9
 3769 1352 40       		.byte	0x40
 3770 1353 E0000000 		.4byte	0xe0
 3771 1357 66130000 		.4byte	0x1366
 3772 135b 26       		.uleb128 0x26
 3773 135c 20130000 		.4byte	0x1320
 3774 1360 26       		.uleb128 0x26
 3775 1361 E0000000 		.4byte	0xe0
 3776 1365 00       		.byte	0
 3777 1366 27       		.uleb128 0x27
 3778 1367 95020000 		.4byte	.LASF89
 3779 136b 0B       		.byte	0xb
 3780 136c E1       		.byte	0xe1
 3781 136d 25       		.uleb128 0x25
 3782 136e 28000000 		.4byte	.LASF90
 3783 1372 09       		.byte	0x9
 3784 1373 43       		.byte	0x43
 3785 1374 E0000000 		.4byte	0xe0
 3786 1378 87130000 		.4byte	0x1387
 3787 137c 26       		.uleb128 0x26
 3788 137d 20130000 		.4byte	0x1320
 3789 1381 26       		.uleb128 0x26
 3790 1382 E0000000 		.4byte	0xe0
 3791 1386 00       		.byte	0
 3792 1387 25       		.uleb128 0x25
 3793 1388 71040000 		.4byte	.LASF91
 3794 138c 09       		.byte	0x9
 3795 138d 44       		.byte	0x44
 3796 138e E0000000 		.4byte	0xe0
 3797 1392 A6130000 		.4byte	0x13a6
 3798 1396 26       		.uleb128 0x26
 3799 1397 20130000 		.4byte	0x1320
 3800 139b 26       		.uleb128 0x26
 3801 139c F6030000 		.4byte	0x3f6
 3802 13a0 26       		.uleb128 0x26
 3803 13a1 F6000000 		.4byte	0xf6
 3804 13a5 00       		.byte	0
 3805 13a6 28       		.uleb128 0x28
 3806 13a7 C2000000 		.4byte	.LASF94
 3807 13ab 0A       		.byte	0xa
 3808 13ac 56       		.byte	0x56
 3809 13ad B7130000 		.4byte	0x13b7
 3810 13b1 26       		.uleb128 0x26
 3811 13b2 47040000 		.4byte	0x447
ARM GAS  /tmp/cc2GUxSc.s 			page 68


 3812 13b6 00       		.byte	0
 3813 13b7 25       		.uleb128 0x25
 3814 13b8 58020000 		.4byte	.LASF92
 3815 13bc 0A       		.byte	0xa
 3816 13bd 59       		.byte	0x59
 3817 13be 97000000 		.4byte	0x97
 3818 13c2 D1130000 		.4byte	0x13d1
 3819 13c6 26       		.uleb128 0x26
 3820 13c7 2C000000 		.4byte	0x2c
 3821 13cb 26       		.uleb128 0x26
 3822 13cc D1130000 		.4byte	0x13d1
 3823 13d0 00       		.byte	0
 3824 13d1 09       		.uleb128 0x9
 3825 13d2 04       		.byte	0x4
 3826 13d3 47040000 		.4byte	0x447
 3827 13d7 25       		.uleb128 0x25
 3828 13d8 C9010000 		.4byte	.LASF93
 3829 13dc 09       		.byte	0x9
 3830 13dd 46       		.byte	0x46
 3831 13de E0000000 		.4byte	0xe0
 3832 13e2 F1130000 		.4byte	0x13f1
 3833 13e6 26       		.uleb128 0x26
 3834 13e7 20130000 		.4byte	0x1320
 3835 13eb 26       		.uleb128 0x26
 3836 13ec F6030000 		.4byte	0x3f6
 3837 13f0 00       		.byte	0
 3838 13f1 28       		.uleb128 0x28
 3839 13f2 33020000 		.4byte	.LASF95
 3840 13f6 09       		.byte	0x9
 3841 13f7 3D       		.byte	0x3d
 3842 13f8 02140000 		.4byte	0x1402
 3843 13fc 26       		.uleb128 0x26
 3844 13fd 20130000 		.4byte	0x1320
 3845 1401 00       		.byte	0
 3846 1402 29       		.uleb128 0x29
 3847 1403 69010000 		.4byte	.LASF100
 3848 1407 09       		.byte	0x9
 3849 1408 3C       		.byte	0x3c
 3850 1409 26       		.uleb128 0x26
 3851 140a 20130000 		.4byte	0x1320
 3852 140e 26       		.uleb128 0x26
 3853 140f F6030000 		.4byte	0x3f6
 3854 1413 26       		.uleb128 0x26
 3855 1414 01010000 		.4byte	0x101
 3856 1418 00       		.byte	0
 3857 1419 00       		.byte	0
 3858              		.section	.debug_abbrev,"",%progbits
 3859              	.Ldebug_abbrev0:
 3860 0000 01       		.uleb128 0x1
 3861 0001 11       		.uleb128 0x11
 3862 0002 01       		.byte	0x1
 3863 0003 25       		.uleb128 0x25
 3864 0004 0E       		.uleb128 0xe
 3865 0005 13       		.uleb128 0x13
 3866 0006 0B       		.uleb128 0xb
 3867 0007 03       		.uleb128 0x3
 3868 0008 0E       		.uleb128 0xe
ARM GAS  /tmp/cc2GUxSc.s 			page 69


 3869 0009 1B       		.uleb128 0x1b
 3870 000a 0E       		.uleb128 0xe
 3871 000b 55       		.uleb128 0x55
 3872 000c 17       		.uleb128 0x17
 3873 000d 11       		.uleb128 0x11
 3874 000e 01       		.uleb128 0x1
 3875 000f 10       		.uleb128 0x10
 3876 0010 17       		.uleb128 0x17
 3877 0011 00       		.byte	0
 3878 0012 00       		.byte	0
 3879 0013 02       		.uleb128 0x2
 3880 0014 24       		.uleb128 0x24
 3881 0015 00       		.byte	0
 3882 0016 0B       		.uleb128 0xb
 3883 0017 0B       		.uleb128 0xb
 3884 0018 3E       		.uleb128 0x3e
 3885 0019 0B       		.uleb128 0xb
 3886 001a 03       		.uleb128 0x3
 3887 001b 08       		.uleb128 0x8
 3888 001c 00       		.byte	0
 3889 001d 00       		.byte	0
 3890 001e 03       		.uleb128 0x3
 3891 001f 24       		.uleb128 0x24
 3892 0020 00       		.byte	0
 3893 0021 0B       		.uleb128 0xb
 3894 0022 0B       		.uleb128 0xb
 3895 0023 3E       		.uleb128 0x3e
 3896 0024 0B       		.uleb128 0xb
 3897 0025 03       		.uleb128 0x3
 3898 0026 0E       		.uleb128 0xe
 3899 0027 00       		.byte	0
 3900 0028 00       		.byte	0
 3901 0029 04       		.uleb128 0x4
 3902 002a 16       		.uleb128 0x16
 3903 002b 00       		.byte	0
 3904 002c 03       		.uleb128 0x3
 3905 002d 0E       		.uleb128 0xe
 3906 002e 3A       		.uleb128 0x3a
 3907 002f 0B       		.uleb128 0xb
 3908 0030 3B       		.uleb128 0x3b
 3909 0031 0B       		.uleb128 0xb
 3910 0032 49       		.uleb128 0x49
 3911 0033 13       		.uleb128 0x13
 3912 0034 00       		.byte	0
 3913 0035 00       		.byte	0
 3914 0036 05       		.uleb128 0x5
 3915 0037 13       		.uleb128 0x13
 3916 0038 01       		.byte	0x1
 3917 0039 03       		.uleb128 0x3
 3918 003a 0E       		.uleb128 0xe
 3919 003b 0B       		.uleb128 0xb
 3920 003c 0B       		.uleb128 0xb
 3921 003d 3A       		.uleb128 0x3a
 3922 003e 0B       		.uleb128 0xb
 3923 003f 3B       		.uleb128 0x3b
 3924 0040 0B       		.uleb128 0xb
 3925 0041 01       		.uleb128 0x1
ARM GAS  /tmp/cc2GUxSc.s 			page 70


 3926 0042 13       		.uleb128 0x13
 3927 0043 00       		.byte	0
 3928 0044 00       		.byte	0
 3929 0045 06       		.uleb128 0x6
 3930 0046 0D       		.uleb128 0xd
 3931 0047 00       		.byte	0
 3932 0048 03       		.uleb128 0x3
 3933 0049 0E       		.uleb128 0xe
 3934 004a 3A       		.uleb128 0x3a
 3935 004b 0B       		.uleb128 0xb
 3936 004c 3B       		.uleb128 0x3b
 3937 004d 0B       		.uleb128 0xb
 3938 004e 49       		.uleb128 0x49
 3939 004f 13       		.uleb128 0x13
 3940 0050 38       		.uleb128 0x38
 3941 0051 0B       		.uleb128 0xb
 3942 0052 00       		.byte	0
 3943 0053 00       		.byte	0
 3944 0054 07       		.uleb128 0x7
 3945 0055 0D       		.uleb128 0xd
 3946 0056 00       		.byte	0
 3947 0057 03       		.uleb128 0x3
 3948 0058 08       		.uleb128 0x8
 3949 0059 3A       		.uleb128 0x3a
 3950 005a 0B       		.uleb128 0xb
 3951 005b 3B       		.uleb128 0x3b
 3952 005c 0B       		.uleb128 0xb
 3953 005d 49       		.uleb128 0x49
 3954 005e 13       		.uleb128 0x13
 3955 005f 38       		.uleb128 0x38
 3956 0060 0B       		.uleb128 0xb
 3957 0061 00       		.byte	0
 3958 0062 00       		.byte	0
 3959 0063 08       		.uleb128 0x8
 3960 0064 13       		.uleb128 0x13
 3961 0065 01       		.byte	0x1
 3962 0066 0B       		.uleb128 0xb
 3963 0067 0B       		.uleb128 0xb
 3964 0068 3A       		.uleb128 0x3a
 3965 0069 0B       		.uleb128 0xb
 3966 006a 3B       		.uleb128 0x3b
 3967 006b 0B       		.uleb128 0xb
 3968 006c 01       		.uleb128 0x1
 3969 006d 13       		.uleb128 0x13
 3970 006e 00       		.byte	0
 3971 006f 00       		.byte	0
 3972 0070 09       		.uleb128 0x9
 3973 0071 0F       		.uleb128 0xf
 3974 0072 00       		.byte	0
 3975 0073 0B       		.uleb128 0xb
 3976 0074 0B       		.uleb128 0xb
 3977 0075 49       		.uleb128 0x49
 3978 0076 13       		.uleb128 0x13
 3979 0077 00       		.byte	0
 3980 0078 00       		.byte	0
 3981 0079 0A       		.uleb128 0xa
 3982 007a 0F       		.uleb128 0xf
ARM GAS  /tmp/cc2GUxSc.s 			page 71


 3983 007b 00       		.byte	0
 3984 007c 0B       		.uleb128 0xb
 3985 007d 0B       		.uleb128 0xb
 3986 007e 00       		.byte	0
 3987 007f 00       		.byte	0
 3988 0080 0B       		.uleb128 0xb
 3989 0081 13       		.uleb128 0x13
 3990 0082 01       		.byte	0x1
 3991 0083 03       		.uleb128 0x3
 3992 0084 0E       		.uleb128 0xe
 3993 0085 0B       		.uleb128 0xb
 3994 0086 0B       		.uleb128 0xb
 3995 0087 3A       		.uleb128 0x3a
 3996 0088 0B       		.uleb128 0xb
 3997 0089 3B       		.uleb128 0x3b
 3998 008a 05       		.uleb128 0x5
 3999 008b 01       		.uleb128 0x1
 4000 008c 13       		.uleb128 0x13
 4001 008d 00       		.byte	0
 4002 008e 00       		.byte	0
 4003 008f 0C       		.uleb128 0xc
 4004 0090 0D       		.uleb128 0xd
 4005 0091 00       		.byte	0
 4006 0092 03       		.uleb128 0x3
 4007 0093 08       		.uleb128 0x8
 4008 0094 3A       		.uleb128 0x3a
 4009 0095 0B       		.uleb128 0xb
 4010 0096 3B       		.uleb128 0x3b
 4011 0097 05       		.uleb128 0x5
 4012 0098 49       		.uleb128 0x49
 4013 0099 13       		.uleb128 0x13
 4014 009a 38       		.uleb128 0x38
 4015 009b 0B       		.uleb128 0xb
 4016 009c 00       		.byte	0
 4017 009d 00       		.byte	0
 4018 009e 0D       		.uleb128 0xd
 4019 009f 35       		.uleb128 0x35
 4020 00a0 00       		.byte	0
 4021 00a1 49       		.uleb128 0x49
 4022 00a2 13       		.uleb128 0x13
 4023 00a3 00       		.byte	0
 4024 00a4 00       		.byte	0
 4025 00a5 0E       		.uleb128 0xe
 4026 00a6 17       		.uleb128 0x17
 4027 00a7 01       		.byte	0x1
 4028 00a8 0B       		.uleb128 0xb
 4029 00a9 0B       		.uleb128 0xb
 4030 00aa 3A       		.uleb128 0x3a
 4031 00ab 0B       		.uleb128 0xb
 4032 00ac 3B       		.uleb128 0x3b
 4033 00ad 0B       		.uleb128 0xb
 4034 00ae 01       		.uleb128 0x1
 4035 00af 13       		.uleb128 0x13
 4036 00b0 00       		.byte	0
 4037 00b1 00       		.byte	0
 4038 00b2 0F       		.uleb128 0xf
 4039 00b3 0D       		.uleb128 0xd
ARM GAS  /tmp/cc2GUxSc.s 			page 72


 4040 00b4 00       		.byte	0
 4041 00b5 03       		.uleb128 0x3
 4042 00b6 0E       		.uleb128 0xe
 4043 00b7 3A       		.uleb128 0x3a
 4044 00b8 0B       		.uleb128 0xb
 4045 00b9 3B       		.uleb128 0x3b
 4046 00ba 0B       		.uleb128 0xb
 4047 00bb 49       		.uleb128 0x49
 4048 00bc 13       		.uleb128 0x13
 4049 00bd 00       		.byte	0
 4050 00be 00       		.byte	0
 4051 00bf 10       		.uleb128 0x10
 4052 00c0 26       		.uleb128 0x26
 4053 00c1 00       		.byte	0
 4054 00c2 49       		.uleb128 0x49
 4055 00c3 13       		.uleb128 0x13
 4056 00c4 00       		.byte	0
 4057 00c5 00       		.byte	0
 4058 00c6 11       		.uleb128 0x11
 4059 00c7 15       		.uleb128 0x15
 4060 00c8 00       		.byte	0
 4061 00c9 27       		.uleb128 0x27
 4062 00ca 19       		.uleb128 0x19
 4063 00cb 00       		.byte	0
 4064 00cc 00       		.byte	0
 4065 00cd 12       		.uleb128 0x12
 4066 00ce 13       		.uleb128 0x13
 4067 00cf 01       		.byte	0x1
 4068 00d0 0B       		.uleb128 0xb
 4069 00d1 05       		.uleb128 0x5
 4070 00d2 3A       		.uleb128 0x3a
 4071 00d3 0B       		.uleb128 0xb
 4072 00d4 3B       		.uleb128 0x3b
 4073 00d5 0B       		.uleb128 0xb
 4074 00d6 01       		.uleb128 0x1
 4075 00d7 13       		.uleb128 0x13
 4076 00d8 00       		.byte	0
 4077 00d9 00       		.byte	0
 4078 00da 13       		.uleb128 0x13
 4079 00db 0D       		.uleb128 0xd
 4080 00dc 00       		.byte	0
 4081 00dd 03       		.uleb128 0x3
 4082 00de 08       		.uleb128 0x8
 4083 00df 3A       		.uleb128 0x3a
 4084 00e0 0B       		.uleb128 0xb
 4085 00e1 3B       		.uleb128 0x3b
 4086 00e2 0B       		.uleb128 0xb
 4087 00e3 49       		.uleb128 0x49
 4088 00e4 13       		.uleb128 0x13
 4089 00e5 38       		.uleb128 0x38
 4090 00e6 05       		.uleb128 0x5
 4091 00e7 00       		.byte	0
 4092 00e8 00       		.byte	0
 4093 00e9 14       		.uleb128 0x14
 4094 00ea 01       		.uleb128 0x1
 4095 00eb 01       		.byte	0x1
 4096 00ec 49       		.uleb128 0x49
ARM GAS  /tmp/cc2GUxSc.s 			page 73


 4097 00ed 13       		.uleb128 0x13
 4098 00ee 01       		.uleb128 0x1
 4099 00ef 13       		.uleb128 0x13
 4100 00f0 00       		.byte	0
 4101 00f1 00       		.byte	0
 4102 00f2 15       		.uleb128 0x15
 4103 00f3 21       		.uleb128 0x21
 4104 00f4 00       		.byte	0
 4105 00f5 49       		.uleb128 0x49
 4106 00f6 13       		.uleb128 0x13
 4107 00f7 2F       		.uleb128 0x2f
 4108 00f8 0B       		.uleb128 0xb
 4109 00f9 00       		.byte	0
 4110 00fa 00       		.byte	0
 4111 00fb 16       		.uleb128 0x16
 4112 00fc 17       		.uleb128 0x17
 4113 00fd 01       		.byte	0x1
 4114 00fe 03       		.uleb128 0x3
 4115 00ff 0E       		.uleb128 0xe
 4116 0100 0B       		.uleb128 0xb
 4117 0101 05       		.uleb128 0x5
 4118 0102 3A       		.uleb128 0x3a
 4119 0103 0B       		.uleb128 0xb
 4120 0104 3B       		.uleb128 0x3b
 4121 0105 0B       		.uleb128 0xb
 4122 0106 01       		.uleb128 0x1
 4123 0107 13       		.uleb128 0x13
 4124 0108 00       		.byte	0
 4125 0109 00       		.byte	0
 4126 010a 17       		.uleb128 0x17
 4127 010b 0D       		.uleb128 0xd
 4128 010c 00       		.byte	0
 4129 010d 03       		.uleb128 0x3
 4130 010e 08       		.uleb128 0x8
 4131 010f 3A       		.uleb128 0x3a
 4132 0110 0B       		.uleb128 0xb
 4133 0111 3B       		.uleb128 0x3b
 4134 0112 0B       		.uleb128 0xb
 4135 0113 49       		.uleb128 0x49
 4136 0114 13       		.uleb128 0x13
 4137 0115 00       		.byte	0
 4138 0116 00       		.byte	0
 4139 0117 18       		.uleb128 0x18
 4140 0118 21       		.uleb128 0x21
 4141 0119 00       		.byte	0
 4142 011a 49       		.uleb128 0x49
 4143 011b 13       		.uleb128 0x13
 4144 011c 2F       		.uleb128 0x2f
 4145 011d 05       		.uleb128 0x5
 4146 011e 00       		.byte	0
 4147 011f 00       		.byte	0
 4148 0120 19       		.uleb128 0x19
 4149 0121 2E       		.uleb128 0x2e
 4150 0122 01       		.byte	0x1
 4151 0123 03       		.uleb128 0x3
 4152 0124 0E       		.uleb128 0xe
 4153 0125 3A       		.uleb128 0x3a
ARM GAS  /tmp/cc2GUxSc.s 			page 74


 4154 0126 0B       		.uleb128 0xb
 4155 0127 3B       		.uleb128 0x3b
 4156 0128 0B       		.uleb128 0xb
 4157 0129 27       		.uleb128 0x27
 4158 012a 19       		.uleb128 0x19
 4159 012b 11       		.uleb128 0x11
 4160 012c 01       		.uleb128 0x1
 4161 012d 12       		.uleb128 0x12
 4162 012e 06       		.uleb128 0x6
 4163 012f 40       		.uleb128 0x40
 4164 0130 18       		.uleb128 0x18
 4165 0131 9742     		.uleb128 0x2117
 4166 0133 19       		.uleb128 0x19
 4167 0134 01       		.uleb128 0x1
 4168 0135 13       		.uleb128 0x13
 4169 0136 00       		.byte	0
 4170 0137 00       		.byte	0
 4171 0138 1A       		.uleb128 0x1a
 4172 0139 34       		.uleb128 0x34
 4173 013a 00       		.byte	0
 4174 013b 03       		.uleb128 0x3
 4175 013c 0E       		.uleb128 0xe
 4176 013d 3A       		.uleb128 0x3a
 4177 013e 0B       		.uleb128 0xb
 4178 013f 3B       		.uleb128 0x3b
 4179 0140 0B       		.uleb128 0xb
 4180 0141 49       		.uleb128 0x49
 4181 0142 13       		.uleb128 0x13
 4182 0143 02       		.uleb128 0x2
 4183 0144 17       		.uleb128 0x17
 4184 0145 00       		.byte	0
 4185 0146 00       		.byte	0
 4186 0147 1B       		.uleb128 0x1b
 4187 0148 34       		.uleb128 0x34
 4188 0149 00       		.byte	0
 4189 014a 03       		.uleb128 0x3
 4190 014b 0E       		.uleb128 0xe
 4191 014c 3A       		.uleb128 0x3a
 4192 014d 0B       		.uleb128 0xb
 4193 014e 3B       		.uleb128 0x3b
 4194 014f 0B       		.uleb128 0xb
 4195 0150 49       		.uleb128 0x49
 4196 0151 13       		.uleb128 0x13
 4197 0152 02       		.uleb128 0x2
 4198 0153 18       		.uleb128 0x18
 4199 0154 00       		.byte	0
 4200 0155 00       		.byte	0
 4201 0156 1C       		.uleb128 0x1c
 4202 0157 34       		.uleb128 0x34
 4203 0158 00       		.byte	0
 4204 0159 03       		.uleb128 0x3
 4205 015a 08       		.uleb128 0x8
 4206 015b 3A       		.uleb128 0x3a
 4207 015c 0B       		.uleb128 0xb
 4208 015d 3B       		.uleb128 0x3b
 4209 015e 0B       		.uleb128 0xb
 4210 015f 49       		.uleb128 0x49
ARM GAS  /tmp/cc2GUxSc.s 			page 75


 4211 0160 13       		.uleb128 0x13
 4212 0161 02       		.uleb128 0x2
 4213 0162 17       		.uleb128 0x17
 4214 0163 00       		.byte	0
 4215 0164 00       		.byte	0
 4216 0165 1D       		.uleb128 0x1d
 4217 0166 0B       		.uleb128 0xb
 4218 0167 01       		.byte	0x1
 4219 0168 11       		.uleb128 0x11
 4220 0169 01       		.uleb128 0x1
 4221 016a 12       		.uleb128 0x12
 4222 016b 06       		.uleb128 0x6
 4223 016c 01       		.uleb128 0x1
 4224 016d 13       		.uleb128 0x13
 4225 016e 00       		.byte	0
 4226 016f 00       		.byte	0
 4227 0170 1E       		.uleb128 0x1e
 4228 0171 34       		.uleb128 0x34
 4229 0172 00       		.byte	0
 4230 0173 03       		.uleb128 0x3
 4231 0174 08       		.uleb128 0x8
 4232 0175 3A       		.uleb128 0x3a
 4233 0176 0B       		.uleb128 0xb
 4234 0177 3B       		.uleb128 0x3b
 4235 0178 0B       		.uleb128 0xb
 4236 0179 49       		.uleb128 0x49
 4237 017a 13       		.uleb128 0x13
 4238 017b 02       		.uleb128 0x2
 4239 017c 18       		.uleb128 0x18
 4240 017d 00       		.byte	0
 4241 017e 00       		.byte	0
 4242 017f 1F       		.uleb128 0x1f
 4243 0180 898201   		.uleb128 0x4109
 4244 0183 01       		.byte	0x1
 4245 0184 11       		.uleb128 0x11
 4246 0185 01       		.uleb128 0x1
 4247 0186 31       		.uleb128 0x31
 4248 0187 13       		.uleb128 0x13
 4249 0188 01       		.uleb128 0x1
 4250 0189 13       		.uleb128 0x13
 4251 018a 00       		.byte	0
 4252 018b 00       		.byte	0
 4253 018c 20       		.uleb128 0x20
 4254 018d 8A8201   		.uleb128 0x410a
 4255 0190 00       		.byte	0
 4256 0191 02       		.uleb128 0x2
 4257 0192 18       		.uleb128 0x18
 4258 0193 9142     		.uleb128 0x2111
 4259 0195 18       		.uleb128 0x18
 4260 0196 00       		.byte	0
 4261 0197 00       		.byte	0
 4262 0198 21       		.uleb128 0x21
 4263 0199 898201   		.uleb128 0x4109
 4264 019c 00       		.byte	0
 4265 019d 11       		.uleb128 0x11
 4266 019e 01       		.uleb128 0x1
 4267 019f 31       		.uleb128 0x31
ARM GAS  /tmp/cc2GUxSc.s 			page 76


 4268 01a0 13       		.uleb128 0x13
 4269 01a1 00       		.byte	0
 4270 01a2 00       		.byte	0
 4271 01a3 22       		.uleb128 0x22
 4272 01a4 898201   		.uleb128 0x4109
 4273 01a7 01       		.byte	0x1
 4274 01a8 11       		.uleb128 0x11
 4275 01a9 01       		.uleb128 0x1
 4276 01aa 9542     		.uleb128 0x2115
 4277 01ac 19       		.uleb128 0x19
 4278 01ad 31       		.uleb128 0x31
 4279 01ae 13       		.uleb128 0x13
 4280 01af 00       		.byte	0
 4281 01b0 00       		.byte	0
 4282 01b1 23       		.uleb128 0x23
 4283 01b2 34       		.uleb128 0x34
 4284 01b3 00       		.byte	0
 4285 01b4 03       		.uleb128 0x3
 4286 01b5 0E       		.uleb128 0xe
 4287 01b6 3A       		.uleb128 0x3a
 4288 01b7 0B       		.uleb128 0xb
 4289 01b8 3B       		.uleb128 0x3b
 4290 01b9 0B       		.uleb128 0xb
 4291 01ba 49       		.uleb128 0x49
 4292 01bb 13       		.uleb128 0x13
 4293 01bc 3F       		.uleb128 0x3f
 4294 01bd 19       		.uleb128 0x19
 4295 01be 3C       		.uleb128 0x3c
 4296 01bf 19       		.uleb128 0x19
 4297 01c0 00       		.byte	0
 4298 01c1 00       		.byte	0
 4299 01c2 24       		.uleb128 0x24
 4300 01c3 34       		.uleb128 0x34
 4301 01c4 00       		.byte	0
 4302 01c5 03       		.uleb128 0x3
 4303 01c6 0E       		.uleb128 0xe
 4304 01c7 3A       		.uleb128 0x3a
 4305 01c8 0B       		.uleb128 0xb
 4306 01c9 3B       		.uleb128 0x3b
 4307 01ca 0B       		.uleb128 0xb
 4308 01cb 49       		.uleb128 0x49
 4309 01cc 13       		.uleb128 0x13
 4310 01cd 3F       		.uleb128 0x3f
 4311 01ce 19       		.uleb128 0x19
 4312 01cf 02       		.uleb128 0x2
 4313 01d0 18       		.uleb128 0x18
 4314 01d1 00       		.byte	0
 4315 01d2 00       		.byte	0
 4316 01d3 25       		.uleb128 0x25
 4317 01d4 2E       		.uleb128 0x2e
 4318 01d5 01       		.byte	0x1
 4319 01d6 3F       		.uleb128 0x3f
 4320 01d7 19       		.uleb128 0x19
 4321 01d8 03       		.uleb128 0x3
 4322 01d9 0E       		.uleb128 0xe
 4323 01da 3A       		.uleb128 0x3a
 4324 01db 0B       		.uleb128 0xb
ARM GAS  /tmp/cc2GUxSc.s 			page 77


 4325 01dc 3B       		.uleb128 0x3b
 4326 01dd 0B       		.uleb128 0xb
 4327 01de 27       		.uleb128 0x27
 4328 01df 19       		.uleb128 0x19
 4329 01e0 49       		.uleb128 0x49
 4330 01e1 13       		.uleb128 0x13
 4331 01e2 3C       		.uleb128 0x3c
 4332 01e3 19       		.uleb128 0x19
 4333 01e4 01       		.uleb128 0x1
 4334 01e5 13       		.uleb128 0x13
 4335 01e6 00       		.byte	0
 4336 01e7 00       		.byte	0
 4337 01e8 26       		.uleb128 0x26
 4338 01e9 05       		.uleb128 0x5
 4339 01ea 00       		.byte	0
 4340 01eb 49       		.uleb128 0x49
 4341 01ec 13       		.uleb128 0x13
 4342 01ed 00       		.byte	0
 4343 01ee 00       		.byte	0
 4344 01ef 27       		.uleb128 0x27
 4345 01f0 2E       		.uleb128 0x2e
 4346 01f1 00       		.byte	0
 4347 01f2 3F       		.uleb128 0x3f
 4348 01f3 19       		.uleb128 0x19
 4349 01f4 03       		.uleb128 0x3
 4350 01f5 0E       		.uleb128 0xe
 4351 01f6 3A       		.uleb128 0x3a
 4352 01f7 0B       		.uleb128 0xb
 4353 01f8 3B       		.uleb128 0x3b
 4354 01f9 0B       		.uleb128 0xb
 4355 01fa 27       		.uleb128 0x27
 4356 01fb 19       		.uleb128 0x19
 4357 01fc 3C       		.uleb128 0x3c
 4358 01fd 19       		.uleb128 0x19
 4359 01fe 00       		.byte	0
 4360 01ff 00       		.byte	0
 4361 0200 28       		.uleb128 0x28
 4362 0201 2E       		.uleb128 0x2e
 4363 0202 01       		.byte	0x1
 4364 0203 3F       		.uleb128 0x3f
 4365 0204 19       		.uleb128 0x19
 4366 0205 03       		.uleb128 0x3
 4367 0206 0E       		.uleb128 0xe
 4368 0207 3A       		.uleb128 0x3a
 4369 0208 0B       		.uleb128 0xb
 4370 0209 3B       		.uleb128 0x3b
 4371 020a 0B       		.uleb128 0xb
 4372 020b 27       		.uleb128 0x27
 4373 020c 19       		.uleb128 0x19
 4374 020d 3C       		.uleb128 0x3c
 4375 020e 19       		.uleb128 0x19
 4376 020f 01       		.uleb128 0x1
 4377 0210 13       		.uleb128 0x13
 4378 0211 00       		.byte	0
 4379 0212 00       		.byte	0
 4380 0213 29       		.uleb128 0x29
 4381 0214 2E       		.uleb128 0x2e
ARM GAS  /tmp/cc2GUxSc.s 			page 78


 4382 0215 01       		.byte	0x1
 4383 0216 3F       		.uleb128 0x3f
 4384 0217 19       		.uleb128 0x19
 4385 0218 03       		.uleb128 0x3
 4386 0219 0E       		.uleb128 0xe
 4387 021a 3A       		.uleb128 0x3a
 4388 021b 0B       		.uleb128 0xb
 4389 021c 3B       		.uleb128 0x3b
 4390 021d 0B       		.uleb128 0xb
 4391 021e 27       		.uleb128 0x27
 4392 021f 19       		.uleb128 0x19
 4393 0220 3C       		.uleb128 0x3c
 4394 0221 19       		.uleb128 0x19
 4395 0222 00       		.byte	0
 4396 0223 00       		.byte	0
 4397 0224 00       		.byte	0
 4398              		.section	.debug_loc,"",%progbits
 4399              	.Ldebug_loc0:
 4400              	.LLST0:
 4401 0000 2A000000 		.4byte	.LVL2
 4402 0004 34000000 		.4byte	.LVL3
 4403 0008 0100     		.2byte	0x1
 4404 000a 50       		.byte	0x50
 4405 000b 4C000000 		.4byte	.LVL6
 4406 000f 56000000 		.4byte	.LVL7
 4407 0013 0100     		.2byte	0x1
 4408 0015 50       		.byte	0x50
 4409 0016 6E000000 		.4byte	.LVL9
 4410 001a 78000000 		.4byte	.LVL10
 4411 001e 0100     		.2byte	0x1
 4412 0020 50       		.byte	0x50
 4413 0021 78000000 		.4byte	.LVL10
 4414 0025 94000000 		.4byte	.LVL14
 4415 0029 0300     		.2byte	0x3
 4416 002b 76       		.byte	0x76
 4417 002c 7F       		.sleb128 -1
 4418 002d 9F       		.byte	0x9f
 4419 002e 94000000 		.4byte	.LVL14
 4420 0032 97000000 		.4byte	.LVL15-1
 4421 0036 0100     		.2byte	0x1
 4422 0038 50       		.byte	0x50
 4423 0039 97000000 		.4byte	.LVL15-1
 4424 003d A2000000 		.4byte	.LVL16
 4425 0041 0100     		.2byte	0x1
 4426 0043 54       		.byte	0x54
 4427 0044 A2000000 		.4byte	.LVL16
 4428 0048 BA000000 		.4byte	.LVL18
 4429 004c 0300     		.2byte	0x3
 4430 004e 74       		.byte	0x74
 4431 004f 7F       		.sleb128 -1
 4432 0050 9F       		.byte	0x9f
 4433 0051 BA000000 		.4byte	.LVL18
 4434 0055 C4000000 		.4byte	.LVL19
 4435 0059 0100     		.2byte	0x1
 4436 005b 50       		.byte	0x50
 4437 005c C4000000 		.4byte	.LVL19
 4438 0060 C7000000 		.4byte	.LVL20-1
ARM GAS  /tmp/cc2GUxSc.s 			page 79


 4439 0064 0300     		.2byte	0x3
 4440 0066 72       		.byte	0x72
 4441 0067 7F       		.sleb128 -1
 4442 0068 9F       		.byte	0x9f
 4443 0069 E0000000 		.4byte	.LVL23
 4444 006d E3000000 		.4byte	.LVL24-1
 4445 0071 0100     		.2byte	0x1
 4446 0073 50       		.byte	0x50
 4447 0074 E3000000 		.4byte	.LVL24-1
 4448 0078 1A010000 		.4byte	.LVL28
 4449 007c 0100     		.2byte	0x1
 4450 007e 54       		.byte	0x54
 4451 007f 9C010000 		.4byte	.LVL38
 4452 0083 A6010000 		.4byte	.LVL39
 4453 0087 0100     		.2byte	0x1
 4454 0089 50       		.byte	0x50
 4455 008a D6010000 		.4byte	.LVL44
 4456 008e E0010000 		.4byte	.LVL45
 4457 0092 0100     		.2byte	0x1
 4458 0094 50       		.byte	0x50
 4459 0095 F6010000 		.4byte	.LVL47
 4460 0099 00020000 		.4byte	.LVL48
 4461 009d 0100     		.2byte	0x1
 4462 009f 50       		.byte	0x50
 4463 00a0 40020000 		.4byte	.LVL53
 4464 00a4 4A020000 		.4byte	.LVL54
 4465 00a8 0100     		.2byte	0x1
 4466 00aa 50       		.byte	0x50
 4467 00ab 4A020000 		.4byte	.LVL54
 4468 00af 4D020000 		.4byte	.LVL55-1
 4469 00b3 0300     		.2byte	0x3
 4470 00b5 73       		.byte	0x73
 4471 00b6 7F       		.sleb128 -1
 4472 00b7 9F       		.byte	0x9f
 4473 00b8 68020000 		.4byte	.LVL58
 4474 00bc 6B020000 		.4byte	.LVL59-1
 4475 00c0 0100     		.2byte	0x1
 4476 00c2 50       		.byte	0x50
 4477 00c3 6B020000 		.4byte	.LVL59-1
 4478 00c7 D6020000 		.4byte	.LVL66
 4479 00cb 0100     		.2byte	0x1
 4480 00cd 54       		.byte	0x54
 4481 00ce 26030000 		.4byte	.LVL72
 4482 00d2 30030000 		.4byte	.LVL73
 4483 00d6 0100     		.2byte	0x1
 4484 00d8 50       		.byte	0x50
 4485 00d9 42030000 		.4byte	.LVL75
 4486 00dd 4C030000 		.4byte	.LVL76
 4487 00e1 0100     		.2byte	0x1
 4488 00e3 50       		.byte	0x50
 4489 00e4 5E030000 		.4byte	.LVL78
 4490 00e8 68030000 		.4byte	.LVL79
 4491 00ec 0100     		.2byte	0x1
 4492 00ee 50       		.byte	0x50
 4493 00ef 7A030000 		.4byte	.LVL81
 4494 00f3 84030000 		.4byte	.LVL82
 4495 00f7 0100     		.2byte	0x1
ARM GAS  /tmp/cc2GUxSc.s 			page 80


 4496 00f9 50       		.byte	0x50
 4497 00fa A6030000 		.4byte	.LVL85
 4498 00fe A9030000 		.4byte	.LVL86-1
 4499 0102 0100     		.2byte	0x1
 4500 0104 50       		.byte	0x50
 4501 0105 A9030000 		.4byte	.LVL86-1
 4502 0109 F0030000 		.4byte	.LVL92
 4503 010d 0100     		.2byte	0x1
 4504 010f 56       		.byte	0x56
 4505 0110 F0030000 		.4byte	.LVL92
 4506 0114 F3030000 		.4byte	.LVL93-1
 4507 0118 0100     		.2byte	0x1
 4508 011a 50       		.byte	0x50
 4509 011b F3030000 		.4byte	.LVL93-1
 4510 011f AA040000 		.4byte	.LVL107
 4511 0123 0100     		.2byte	0x1
 4512 0125 56       		.byte	0x56
 4513 0126 AA040000 		.4byte	.LVL107
 4514 012a B4040000 		.4byte	.LVL108
 4515 012e 0100     		.2byte	0x1
 4516 0130 50       		.byte	0x50
 4517 0131 C6040000 		.4byte	.LVL110
 4518 0135 D0040000 		.4byte	.LVL111
 4519 0139 0100     		.2byte	0x1
 4520 013b 50       		.byte	0x50
 4521 013c E2040000 		.4byte	.LVL113
 4522 0140 EC040000 		.4byte	.LVL114
 4523 0144 0100     		.2byte	0x1
 4524 0146 50       		.byte	0x50
 4525 0147 FE040000 		.4byte	.LVL116
 4526 014b 08050000 		.4byte	.LVL117
 4527 014f 0100     		.2byte	0x1
 4528 0151 50       		.byte	0x50
 4529 0152 1C050000 		.4byte	.LVL120
 4530 0156 1F050000 		.4byte	.LVL121-1
 4531 015a 0100     		.2byte	0x1
 4532 015c 50       		.byte	0x50
 4533 015d 1F050000 		.4byte	.LVL121-1
 4534 0161 58050000 		.4byte	.LVL124
 4535 0165 0100     		.2byte	0x1
 4536 0167 54       		.byte	0x54
 4537 0168 6C050000 		.4byte	.LVL127
 4538 016c 6F050000 		.4byte	.LVL128-1
 4539 0170 0100     		.2byte	0x1
 4540 0172 50       		.byte	0x50
 4541 0173 6F050000 		.4byte	.LVL128-1
 4542 0177 06060000 		.4byte	.LVL140
 4543 017b 0100     		.2byte	0x1
 4544 017d 56       		.byte	0x56
 4545 017e 00000000 		.4byte	0
 4546 0182 00000000 		.4byte	0
 4547              	.LLST1:
 4548 0186 1E000000 		.4byte	.LVL1
 4549 018a 36000000 		.4byte	.LVL4
 4550 018e 0400     		.2byte	0x4
 4551 0190 74       		.byte	0x74
 4552 0191 BE7F     		.sleb128 -66
ARM GAS  /tmp/cc2GUxSc.s 			page 81


 4553 0193 9F       		.byte	0x9f
 4554 0194 36000000 		.4byte	.LVL4
 4555 0198 3A000000 		.4byte	.LVL5
 4556 019c 0400     		.2byte	0x4
 4557 019e 74       		.byte	0x74
 4558 019f BD7F     		.sleb128 -67
 4559 01a1 9F       		.byte	0x9f
 4560 01a2 8C010000 		.4byte	.LVL36
 4561 01a6 8E010000 		.4byte	.LVL37
 4562 01aa 0200     		.2byte	0x2
 4563 01ac 30       		.byte	0x30
 4564 01ad 9F       		.byte	0x9f
 4565 01ae 8E010000 		.4byte	.LVL37
 4566 01b2 B8010000 		.4byte	.LVL41
 4567 01b6 0500     		.2byte	0x5
 4568 01b8 35       		.byte	0x35
 4569 01b9 76       		.byte	0x76
 4570 01ba 00       		.sleb128 0
 4571 01bb 1C       		.byte	0x1c
 4572 01bc 9F       		.byte	0x9f
 4573 01bd B8010000 		.4byte	.LVL41
 4574 01c1 BA010000 		.4byte	.LVL42
 4575 01c5 0500     		.2byte	0x5
 4576 01c7 36       		.byte	0x36
 4577 01c8 76       		.byte	0x76
 4578 01c9 00       		.sleb128 0
 4579 01ca 1C       		.byte	0x1c
 4580 01cb 9F       		.byte	0x9f
 4581 01cc BA010000 		.4byte	.LVL42
 4582 01d0 10020000 		.4byte	.LVL50
 4583 01d4 0500     		.2byte	0x5
 4584 01d6 35       		.byte	0x35
 4585 01d7 76       		.byte	0x76
 4586 01d8 00       		.sleb128 0
 4587 01d9 1C       		.byte	0x1c
 4588 01da 9F       		.byte	0x9f
 4589 01db DC030000 		.4byte	.LVL89
 4590 01df 16040000 		.4byte	.LVL95
 4591 01e3 0500     		.2byte	0x5
 4592 01e5 35       		.byte	0x35
 4593 01e6 74       		.byte	0x74
 4594 01e7 00       		.sleb128 0
 4595 01e8 1C       		.byte	0x1c
 4596 01e9 9F       		.byte	0x9f
 4597 01ea 16040000 		.4byte	.LVL95
 4598 01ee 18040000 		.4byte	.LVL96
 4599 01f2 0500     		.2byte	0x5
 4600 01f4 36       		.byte	0x36
 4601 01f5 74       		.byte	0x74
 4602 01f6 00       		.sleb128 0
 4603 01f7 1C       		.byte	0x1c
 4604 01f8 9F       		.byte	0x9f
 4605 01f9 18040000 		.4byte	.LVL96
 4606 01fd 44040000 		.4byte	.LVL100
 4607 0201 0500     		.2byte	0x5
 4608 0203 35       		.byte	0x35
 4609 0204 74       		.byte	0x74
ARM GAS  /tmp/cc2GUxSc.s 			page 82


 4610 0205 00       		.sleb128 0
 4611 0206 1C       		.byte	0x1c
 4612 0207 9F       		.byte	0x9f
 4613 0208 58050000 		.4byte	.LVL124
 4614 020c 92050000 		.4byte	.LVL130
 4615 0210 0500     		.2byte	0x5
 4616 0212 35       		.byte	0x35
 4617 0213 74       		.byte	0x74
 4618 0214 00       		.sleb128 0
 4619 0215 1C       		.byte	0x1c
 4620 0216 9F       		.byte	0x9f
 4621 0217 92050000 		.4byte	.LVL130
 4622 021b 94050000 		.4byte	.LVL131
 4623 021f 0500     		.2byte	0x5
 4624 0221 36       		.byte	0x36
 4625 0222 74       		.byte	0x74
 4626 0223 00       		.sleb128 0
 4627 0224 1C       		.byte	0x1c
 4628 0225 9F       		.byte	0x9f
 4629 0226 94050000 		.4byte	.LVL131
 4630 022a C6050000 		.4byte	.LVL135
 4631 022e 0500     		.2byte	0x5
 4632 0230 35       		.byte	0x35
 4633 0231 74       		.byte	0x74
 4634 0232 00       		.sleb128 0
 4635 0233 1C       		.byte	0x1c
 4636 0234 9F       		.byte	0x9f
 4637 0235 00000000 		.4byte	0
 4638 0239 00000000 		.4byte	0
 4639              		.section	.debug_aranges,"",%progbits
 4640 0000 24000000 		.4byte	0x24
 4641 0004 0200     		.2byte	0x2
 4642 0006 00000000 		.4byte	.Ldebug_info0
 4643 000a 04       		.byte	0x4
 4644 000b 00       		.byte	0
 4645 000c 0000     		.2byte	0
 4646 000e 0000     		.2byte	0
 4647 0010 00000000 		.4byte	.LFB8
 4648 0014 C8060000 		.4byte	.LFE8-.LFB8
 4649 0018 00000000 		.4byte	.LFB7
 4650 001c 14000000 		.4byte	.LFE7-.LFB7
 4651 0020 00000000 		.4byte	0
 4652 0024 00000000 		.4byte	0
 4653              		.section	.debug_ranges,"",%progbits
 4654              	.Ldebug_ranges0:
 4655 0000 00000000 		.4byte	.LFB8
 4656 0004 C8060000 		.4byte	.LFE8
 4657 0008 00000000 		.4byte	.LFB7
 4658 000c 14000000 		.4byte	.LFE7
 4659 0010 00000000 		.4byte	0
 4660 0014 00000000 		.4byte	0
 4661              		.section	.debug_line,"",%progbits
 4662              	.Ldebug_line0:
 4663 0000 F7010000 		.section	.debug_str,"MS",%progbits,1
 4663      02000201 
 4663      00000201 
 4663      FB0E0D00 
ARM GAS  /tmp/cc2GUxSc.s 			page 83


 4663      01010101 
 4664              	.LASF40:
 4665 0000 705F6D73 		.ascii	"p_msg\000"
 4665      6700
 4666              	.LASF66:
 4667 0006 7264796D 		.ascii	"rdymsg\000"
 4667      736700
 4668              	.LASF11:
 4669 000d 75696E74 		.ascii	"uint64_t\000"
 4669      36345F74 
 4669      00
 4670              	.LASF87:
 4671 0016 63684D42 		.ascii	"chMBPostI\000"
 4671      506F7374 
 4671      4900
 4672              	.LASF65:
 4673 0020 4D61696C 		.ascii	"Mailbox\000"
 4673      626F7800 
 4674              	.LASF90:
 4675 0028 63684D42 		.ascii	"chMBPostAheadI\000"
 4675      506F7374 
 4675      41686561 
 4675      644900
 4676              	.LASF12:
 4677 0037 6C6F6E67 		.ascii	"long long unsigned int\000"
 4677      206C6F6E 
 4677      6720756E 
 4677      7369676E 
 4677      65642069 
 4678              	.LASF83:
 4679 004e 70617474 		.ascii	"patternmbox\000"
 4679      65726E6D 
 4679      626F7800 
 4680              	.LASF67:
 4681 005a 65786974 		.ascii	"exitcode\000"
 4681      636F6465 
 4681      00
 4682              	.LASF81:
 4683 0063 74657374 		.ascii	"test\000"
 4683      00
 4684              	.LASF61:
 4685 0068 6D625F77 		.ascii	"mb_wrptr\000"
 4685      72707472 
 4685      00
 4686              	.LASF27:
 4687 0071 705F7072 		.ascii	"p_prio\000"
 4687      696F00
 4688              	.LASF10:
 4689 0078 6C6F6E67 		.ascii	"long long int\000"
 4689      206C6F6E 
 4689      6720696E 
 4689      7400
 4690              	.LASF1:
 4691 0086 7369676E 		.ascii	"signed char\000"
 4691      65642063 
 4691      68617200 
 4692              	.LASF97:
ARM GAS  /tmp/cc2GUxSc.s 			page 84


 4693 0092 2E2E2F2E 		.ascii	"../../../test/testmbox.c\000"
 4693      2E2F2E2E 
 4693      2F746573 
 4693      742F7465 
 4693      73746D62 
 4694              	.LASF44:
 4695 00ab 705F6D70 		.ascii	"p_mpool\000"
 4695      6F6F6C00 
 4696              	.LASF13:
 4697 00b3 626F6F6C 		.ascii	"bool_t\000"
 4697      5F7400
 4698              	.LASF56:
 4699 00ba 6D5F7175 		.ascii	"m_queue\000"
 4699      65756500 
 4700              	.LASF94:
 4701 00c2 74657374 		.ascii	"test_emit_token\000"
 4701      5F656D69 
 4701      745F746F 
 4701      6B656E00 
 4702              	.LASF18:
 4703 00d2 74736C69 		.ascii	"tslices_t\000"
 4703      6365735F 
 4703      7400
 4704              	.LASF85:
 4705 00dc 63684D42 		.ascii	"chMBPost\000"
 4705      506F7374 
 4705      00
 4706              	.LASF7:
 4707 00e5 6C6F6E67 		.ascii	"long int\000"
 4707      20696E74 
 4707      00
 4708              	.LASF16:
 4709 00ee 74737461 		.ascii	"tstate_t\000"
 4709      74655F74 
 4709      00
 4710              	.LASF29:
 4711 00f7 705F6E65 		.ascii	"p_newer\000"
 4711      77657200 
 4712              	.LASF53:
 4713 00ff 735F7175 		.ascii	"s_queue\000"
 4713      65756500 
 4714              	.LASF47:
 4715 0107 72656761 		.ascii	"regarm_t\000"
 4715      726D5F74 
 4715      00
 4716              	.LASF98:
 4717 0110 2F686F6D 		.ascii	"/home/john/git/ChibiOS-RT/testhal/STM32F30x/USB_CDC"
 4717      652F6A6F 
 4717      686E2F67 
 4717      69742F43 
 4717      68696269 
 4718 0143 5F777332 		.ascii	"_ws2812\000"
 4718      38313200 
 4719              	.LASF23:
 4720 014b 636E745F 		.ascii	"cnt_t\000"
 4720      7400
 4721              	.LASF32:
ARM GAS  /tmp/cc2GUxSc.s 			page 85


 4722 0151 705F7374 		.ascii	"p_stklimit\000"
 4722      6B6C696D 
 4722      697400
 4723              	.LASF0:
 4724 015c 756E7369 		.ascii	"unsigned int\000"
 4724      676E6564 
 4724      20696E74 
 4724      00
 4725              	.LASF100:
 4726 0169 63684D42 		.ascii	"chMBInit\000"
 4726      496E6974 
 4726      00
 4727              	.LASF77:
 4728 0172 6D736731 		.ascii	"msg1\000"
 4728      00
 4729              	.LASF78:
 4730 0177 6D736732 		.ascii	"msg2\000"
 4730      00
 4731              	.LASF9:
 4732 017c 6C6F6E67 		.ascii	"long unsigned int\000"
 4732      20756E73 
 4732      69676E65 
 4732      6420696E 
 4732      7400
 4733              	.LASF74:
 4734 018e 74656172 		.ascii	"teardown\000"
 4734      646F776E 
 4734      00
 4735              	.LASF64:
 4736 0197 6D625F65 		.ascii	"mb_emptysem\000"
 4736      6D707479 
 4736      73656D00 
 4737              	.LASF72:
 4738 01a3 6E616D65 		.ascii	"name\000"
 4738      00
 4739              	.LASF54:
 4740 01a8 735F636E 		.ascii	"s_cnt\000"
 4740      7400
 4741              	.LASF50:
 4742 01ae 636F6E74 		.ascii	"context\000"
 4742      65787400 
 4743              	.LASF4:
 4744 01b6 73686F72 		.ascii	"short unsigned int\000"
 4744      7420756E 
 4744      7369676E 
 4744      65642069 
 4744      6E7400
 4745              	.LASF93:
 4746 01c9 63684D42 		.ascii	"chMBFetchI\000"
 4746      46657463 
 4746      684900
 4747              	.LASF20:
 4748 01d4 6D73675F 		.ascii	"msg_t\000"
 4748      7400
 4749              	.LASF15:
 4750 01da 746D6F64 		.ascii	"tmode_t\000"
 4750      655F7400 
ARM GAS  /tmp/cc2GUxSc.s 			page 86


 4751              	.LASF80:
 4752 01e2 6D626F78 		.ascii	"mbox1_setup\000"
 4752      315F7365 
 4752      74757000 
 4753              	.LASF46:
 4754 01ee 54687265 		.ascii	"ThreadsList\000"
 4754      6164734C 
 4754      69737400 
 4755              	.LASF21:
 4756 01fa 6576656E 		.ascii	"eventmask_t\000"
 4756      746D6173 
 4756      6B5F7400 
 4757              	.LASF55:
 4758 0206 4D757465 		.ascii	"Mutex\000"
 4758      7800
 4759              	.LASF82:
 4760 020c 74657374 		.ascii	"testmbox1\000"
 4760      6D626F78 
 4760      3100
 4761              	.LASF48:
 4762 0216 73746B61 		.ascii	"stkalign_t\000"
 4762      6C69676E 
 4762      5F7400
 4763              	.LASF51:
 4764 0221 73697A65 		.ascii	"sizetype\000"
 4764      74797065 
 4764      00
 4765              	.LASF62:
 4766 022a 6D625F72 		.ascii	"mb_rdptr\000"
 4766      64707472 
 4766      00
 4767              	.LASF95:
 4768 0233 63684D42 		.ascii	"chMBReset\000"
 4768      52657365 
 4768      7400
 4769              	.LASF30:
 4770 023d 705F6F6C 		.ascii	"p_older\000"
 4770      64657200 
 4771              	.LASF45:
 4772 0245 54687265 		.ascii	"ThreadsQueue\000"
 4772      61647351 
 4772      75657565 
 4772      00
 4773              	.LASF73:
 4774 0252 73657475 		.ascii	"setup\000"
 4774      7000
 4775              	.LASF92:
 4776 0258 5F746573 		.ascii	"_test_assert_sequence\000"
 4776      745F6173 
 4776      73657274 
 4776      5F736571 
 4776      75656E63 
 4777              	.LASF59:
 4778 026e 6D625F62 		.ascii	"mb_buffer\000"
 4778      75666665 
 4778      7200
 4779              	.LASF79:
ARM GAS  /tmp/cc2GUxSc.s 			page 87


 4780 0278 6D626F78 		.ascii	"mbox1_execute\000"
 4780      315F6578 
 4780      65637574 
 4780      6500
 4781              	.LASF88:
 4782 0286 6462675F 		.ascii	"dbg_check_lock\000"
 4782      63686563 
 4782      6B5F6C6F 
 4782      636B00
 4783              	.LASF89:
 4784 0295 6462675F 		.ascii	"dbg_check_unlock\000"
 4784      63686563 
 4784      6B5F756E 
 4784      6C6F636B 
 4784      00
 4785              	.LASF17:
 4786 02a6 74726566 		.ascii	"trefs_t\000"
 4786      735F7400 
 4787              	.LASF26:
 4788 02ae 705F7072 		.ascii	"p_prev\000"
 4788      657600
 4789              	.LASF75:
 4790 02b5 65786563 		.ascii	"execute\000"
 4790      75746500 
 4791              	.LASF19:
 4792 02bd 74707269 		.ascii	"tprio_t\000"
 4792      6F5F7400 
 4793              	.LASF96:
 4794 02c5 474E5520 		.ascii	"GNU C 4.8.3 20131129 (release) [ARM/embedded-4_8-br"
 4794      4320342E 
 4794      382E3320 
 4794      32303133 
 4794      31313239 
 4795 02f8 616E6368 		.ascii	"anch revision 205641] -mcpu=cortex-m4 -mno-thumb-in"
 4795      20726576 
 4795      6973696F 
 4795      6E203230 
 4795      35363431 
 4796 032b 74657277 		.ascii	"terwork -mthumb -ggdb -O2 -fomit-frame-pointer -fal"
 4796      6F726B20 
 4796      2D6D7468 
 4796      756D6220 
 4796      2D676764 
 4797 035e 69676E2D 		.ascii	"ign-functions=16 -ffunction-sections -fdata-section"
 4797      66756E63 
 4797      74696F6E 
 4797      733D3136 
 4797      202D6666 
 4798 0391 73202D66 		.ascii	"s -fno-common\000"
 4798      6E6F2D63 
 4798      6F6D6D6F 
 4798      6E00
 4799              	.LASF14:
 4800 039f 5F426F6F 		.ascii	"_Bool\000"
 4800      6C00
 4801              	.LASF6:
 4802 03a5 696E7433 		.ascii	"int32_t\000"
ARM GAS  /tmp/cc2GUxSc.s 			page 88


 4802      325F7400 
 4803              	.LASF2:
 4804 03ad 756E7369 		.ascii	"unsigned char\000"
 4804      676E6564 
 4804      20636861 
 4804      7200
 4805              	.LASF60:
 4806 03bb 6D625F74 		.ascii	"mb_top\000"
 4806      6F7000
 4807              	.LASF42:
 4808 03c2 705F6D74 		.ascii	"p_mtxlist\000"
 4808      786C6973 
 4808      7400
 4809              	.LASF3:
 4810 03cc 73686F72 		.ascii	"short int\000"
 4810      7420696E 
 4810      7400
 4811              	.LASF33:
 4812 03d6 705F7374 		.ascii	"p_state\000"
 4812      61746500 
 4813              	.LASF36:
 4814 03de 705F7072 		.ascii	"p_preempt\000"
 4814      65656D70 
 4814      7400
 4815              	.LASF69:
 4816 03e8 65776D61 		.ascii	"ewmask\000"
 4816      736B00
 4817              	.LASF25:
 4818 03ef 705F6E65 		.ascii	"p_next\000"
 4818      787400
 4819              	.LASF34:
 4820 03f6 705F666C 		.ascii	"p_flags\000"
 4820      61677300 
 4821              	.LASF24:
 4822 03fe 54687265 		.ascii	"Thread\000"
 4822      616400
 4823              	.LASF71:
 4824 0405 74657374 		.ascii	"testcase\000"
 4824      63617365 
 4824      00
 4825              	.LASF41:
 4826 040e 705F6570 		.ascii	"p_epending\000"
 4826      656E6469 
 4826      6E6700
 4827              	.LASF8:
 4828 0419 75696E74 		.ascii	"uint32_t\000"
 4828      33325F74 
 4828      00
 4829              	.LASF70:
 4830 0422 63686172 		.ascii	"char\000"
 4830      00
 4831              	.LASF58:
 4832 0427 6D5F6E65 		.ascii	"m_next\000"
 4832      787400
 4833              	.LASF22:
 4834 042e 73797374 		.ascii	"systime_t\000"
 4834      696D655F 
ARM GAS  /tmp/cc2GUxSc.s 			page 89


 4834      7400
 4835              	.LASF43:
 4836 0438 705F7265 		.ascii	"p_realprio\000"
 4836      616C7072 
 4836      696F00
 4837              	.LASF76:
 4838 0443 62756666 		.ascii	"buffer\000"
 4838      657200
 4839              	.LASF37:
 4840 044a 705F7469 		.ascii	"p_time\000"
 4840      6D6500
 4841              	.LASF86:
 4842 0451 63684D42 		.ascii	"chMBPostAhead\000"
 4842      506F7374 
 4842      41686561 
 4842      6400
 4843              	.LASF49:
 4844 045f 696E7463 		.ascii	"intctx\000"
 4844      747800
 4845              	.LASF39:
 4846 0466 705F6D73 		.ascii	"p_msgqueue\000"
 4846      67717565 
 4846      756500
 4847              	.LASF91:
 4848 0471 63684D42 		.ascii	"chMBFetch\000"
 4848      46657463 
 4848      6800
 4849              	.LASF52:
 4850 047b 53656D61 		.ascii	"Semaphore\000"
 4850      70686F72 
 4850      6500
 4851              	.LASF63:
 4852 0485 6D625F66 		.ascii	"mb_fullsem\000"
 4852      756C6C73 
 4852      656D00
 4853              	.LASF99:
 4854 0490 74657374 		.ascii	"test_buffers\000"
 4854      5F627566 
 4854      66657273 
 4854      00
 4855              	.LASF35:
 4856 049d 705F7265 		.ascii	"p_refs\000"
 4856      667300
 4857              	.LASF5:
 4858 04a4 75696E74 		.ascii	"uint8_t\000"
 4858      385F7400 
 4859              	.LASF68:
 4860 04ac 77746F62 		.ascii	"wtobjp\000"
 4860      6A7000
 4861              	.LASF31:
 4862 04b3 705F6E61 		.ascii	"p_name\000"
 4862      6D6500
 4863              	.LASF84:
 4864 04ba 5F746573 		.ascii	"_test_assert\000"
 4864      745F6173 
 4864      73657274 
 4864      00
ARM GAS  /tmp/cc2GUxSc.s 			page 90


 4865              	.LASF57:
 4866 04c7 6D5F6F77 		.ascii	"m_owner\000"
 4866      6E657200 
 4867              	.LASF28:
 4868 04cf 705F6374 		.ascii	"p_ctx\000"
 4868      7800
 4869              	.LASF38:
 4870 04d5 705F7761 		.ascii	"p_waiting\000"
 4870      6974696E 
 4870      6700
 4871              		.ident	"GCC: (GNU Tools for ARM Embedded Processors) 4.8.3 20131129 (release) [ARM/embedded-4_8-br
ARM GAS  /tmp/cc2GUxSc.s 			page 91


DEFINED SYMBOLS
                            *ABS*:0000000000000000 testmbox.c
     /tmp/cc2GUxSc.s:19     .text.mbox1_execute:0000000000000000 $t
     /tmp/cc2GUxSc.s:24     .text.mbox1_execute:0000000000000000 mbox1_execute
     /tmp/cc2GUxSc.s:97     .text.mbox1_execute:0000000000000060 $d
     /tmp/cc2GUxSc.s:100    .text.mbox1_execute:0000000000000064 $t
     /tmp/cc2GUxSc.s:605    .text.mbox1_execute:000000000000039c $d
     /tmp/cc2GUxSc.s:608    .text.mbox1_execute:00000000000003a4 $t
     /tmp/cc2GUxSc.s:1121   .text.mbox1_execute:00000000000006c0 $d
     /tmp/cc2GUxSc.s:1127   .text.mbox1_setup:0000000000000000 $t
     /tmp/cc2GUxSc.s:1132   .text.mbox1_setup:0000000000000000 mbox1_setup
     /tmp/cc2GUxSc.s:1148   .text.mbox1_setup:000000000000000c $d
     /tmp/cc2GUxSc.s:1175   .rodata.patternmbox:0000000000000000 patternmbox
     /tmp/cc2GUxSc.s:1189   .rodata.testmbox1:0000000000000000 testmbox1
     /tmp/cc2GUxSc.s:1156   .data.mb1:0000000000000000 $d
     /tmp/cc2GUxSc.s:1160   .data.mb1:0000000000000000 mb1
     /tmp/cc2GUxSc.s:1172   .rodata.patternmbox:0000000000000000 $d
     /tmp/cc2GUxSc.s:1179   .rodata.str1.4:0000000000000000 $d
     /tmp/cc2GUxSc.s:1186   .rodata.testmbox1:0000000000000000 $d
                     .debug_frame:0000000000000010 $d
     /tmp/cc2GUxSc.s:1126   .text.mbox1_execute:00000000000006c8 $t
     /tmp/cc2GUxSc.s:1155   .text.mbox1_setup:0000000000000014 $t

UNDEFINED SYMBOLS
_test_assert
chMBPost
chMBPostAhead
dbg_check_lock
chMBPostI
dbg_check_unlock
chMBPostAheadI
chMBFetch
test_emit_token
_test_assert_sequence
chMBFetchI
chMBReset
chMBInit
test
