ARM GAS  /tmp/cc2GUxSc.s 			page 1


   1              		.syntax unified
   2              		.cpu cortex-m4
   3              		.fpu softvfp
   4              		.eabi_attribute 20, 1
   5              		.eabi_attribute 21, 1
   6              		.eabi_attribute 23, 3
   7              		.eabi_attribute 24, 1
   8              		.eabi_attribute 25, 1
   9              		.eabi_attribute 26, 1
  10              		.eabi_attribute 30, 2
  11              		.eabi_attribute 34, 1
  12              		.eabi_attribute 18, 4
  13              		.thumb
  14              		.file	"testmbox.c"
  15              		.text
  16              	.Ltext0:
  17              		.cfi_sections	.debug_frame
  18              		.section	.text.mbox1_execute,"ax",%progbits
  19              		.align	2
  20              		.p2align 4,,15
  21              		.thumb
  22              		.thumb_func
  23              		.type	mbox1_execute, %function
  24              	mbox1_execute:
  25              	.LFB8:
  26              		.file 1 "../../../test/testmbox.c"
  27              		.loc 1 76 0
  28              		.cfi_startproc
  29              		@ args = 0, pretend = 0, frame = 8
  30              		@ frame_needed = 0, uses_anonymous_args = 0
  31 0000 70B5     		push	{r4, r5, r6, lr}
  32              		.cfi_def_cfa_offset 16
  33              		.cfi_offset 4, -16
  34              		.cfi_offset 5, -12
  35              		.cfi_offset 6, -8
  36              		.cfi_offset 14, -4
  37              		.loc 1 83 0
  38 0002 174D     		ldr	r5, .L29
  39 0004 696A     		ldr	r1, [r5, #36]
  40 0006 B1F1050E 		subs	lr, r1, #5
  41 000a DEF10001 		rsbs	r1, lr, #0
  42              		.loc 1 76 0
  43 000e 82B0     		sub	sp, sp, #8
  44              		.cfi_def_cfa_offset 24
  45              		.loc 1 83 0
  46 0010 51EB0E01 		adcs	r1, r1, lr
  47 0014 0120     		movs	r0, #1
  48 0016 FFF7FEFF 		bl	_test_assert
  49              	.LVL0:
  50 001a F8B9     		cbnz	r0, .L1
  51 001c 4224     		movs	r4, #66
  52              	.L4:
  53              	.LVL1:
  54              		.loc 1 89 0
  55 001e 2146     		mov	r1, r4
  56 0020 0F48     		ldr	r0, .L29
  57 0022 4FF0FF32 		mov	r2, #-1
ARM GAS  /tmp/cc2GUxSc.s 			page 2


  58 0026 FFF7FEFF 		bl	chMBPost
  59              	.LVL2:
  60              		.loc 1 90 0
  61 002a D0F10101 		rsbs	r1, r0, #1
  62 002e 38BF     		it	cc
  63 0030 0021     		movcc	r1, #0
  64 0032 0220     		movs	r0, #2
  65              	.LVL3:
  66 0034 0134     		adds	r4, r4, #1
  67              	.LVL4:
  68 0036 FFF7FEFF 		bl	_test_assert
  69              	.LVL5:
  70 003a 78B9     		cbnz	r0, .L1
  71              		.loc 1 88 0
  72 003c 462C     		cmp	r4, #70
  73 003e EED1     		bne	.L4
  74              		.loc 1 92 0
  75 0040 4121     		movs	r1, #65
  76 0042 0748     		ldr	r0, .L29
  77 0044 4FF0FF32 		mov	r2, #-1
  78 0048 FFF7FEFF 		bl	chMBPostAhead
  79              	.LVL6:
  80              		.loc 1 93 0
  81 004c D0F10101 		rsbs	r1, r0, #1
  82 0050 38BF     		it	cc
  83 0052 0021     		movcc	r1, #0
  84 0054 0320     		movs	r0, #3
  85              	.LVL7:
  86 0056 FFF7FEFF 		bl	_test_assert
  87              	.LVL8:
  88 005a 18B1     		cbz	r0, .L28
  89              	.L1:
  90              		.loc 1 220 0
  91 005c 02B0     		add	sp, sp, #8
  92              		@ sp needed
  93 005e 70BD     		pop	{r4, r5, r6, pc}
  94              	.L30:
  95              		.align	2
  96              	.L29:
  97 0060 00000000 		.word	.LANCHOR0
  98              	.L28:
  99              		.loc 1 98 0
 100 0064 5821     		movs	r1, #88
 101 0066 CD48     		ldr	r0, .L31
 102 0068 0122     		movs	r2, #1
 103 006a FFF7FEFF 		bl	chMBPost
 104              	.LVL9:
 105              		.loc 1 99 0
 106 006e B0F1FF36 		subs	r6, r0, #-1
 107 0072 7142     		rsbs	r1, r6, #0
 108 0074 7141     		adcs	r1, r1, r6
 109 0076 0420     		movs	r0, #4
 110              	.LVL10:
 111 0078 FFF7FEFF 		bl	_test_assert
 112              	.LVL11:
 113 007c 0028     		cmp	r0, #0
 114 007e EDD1     		bne	.L1
ARM GAS  /tmp/cc2GUxSc.s 			page 3


 115              	.LBB2:
 116              		.loc 1 100 0
 117 0080 2023     		movs	r3, #32
 118              	@ 100 "../../../test/testmbox.c" 1
 119 0082 83F31188 		msr     BASEPRI, r3
 120              	@ 0 "" 2
 121              		.thumb
 122              	.LBE2:
 123 0086 FFF7FEFF 		bl	dbg_check_lock
 124              	.LVL12:
 125              		.loc 1 101 0
 126 008a 5821     		movs	r1, #88
 127 008c C348     		ldr	r0, .L31
 128 008e FFF7FEFF 		bl	chMBPostI
 129              	.LVL13:
 130 0092 0446     		mov	r4, r0
 131              	.LVL14:
 132              		.loc 1 102 0
 133 0094 FFF7FEFF 		bl	dbg_check_unlock
 134              	.LVL15:
 135              	.LBB3:
 136 0098 0023     		movs	r3, #0
 137              	@ 102 "../../../test/testmbox.c" 1
 138 009a 83F31188 		msr     BASEPRI, r3
 139              	@ 0 "" 2
 140              		.thumb
 141              	.LBE3:
 142              		.loc 1 103 0
 143 009e B4F1FF34 		subs	r4, r4, #-1
 144              	.LVL16:
 145 00a2 6142     		rsbs	r1, r4, #0
 146 00a4 6141     		adcs	r1, r1, r4
 147 00a6 0520     		movs	r0, #5
 148 00a8 FFF7FEFF 		bl	_test_assert
 149              	.LVL17:
 150 00ac 0028     		cmp	r0, #0
 151 00ae D5D1     		bne	.L1
 152              		.loc 1 104 0
 153 00b0 5821     		movs	r1, #88
 154 00b2 0122     		movs	r2, #1
 155 00b4 B948     		ldr	r0, .L31
 156 00b6 FFF7FEFF 		bl	chMBPostAhead
 157              	.LVL18:
 158              		.loc 1 105 0
 159 00ba B0F1FF32 		subs	r2, r0, #-1
 160 00be 5142     		rsbs	r1, r2, #0
 161 00c0 5141     		adcs	r1, r1, r2
 162 00c2 0620     		movs	r0, #6
 163              	.LVL19:
 164 00c4 FFF7FEFF 		bl	_test_assert
 165              	.LVL20:
 166 00c8 0028     		cmp	r0, #0
 167 00ca C7D1     		bne	.L1
 168              	.LBB4:
 169              		.loc 1 106 0
 170 00cc 2023     		movs	r3, #32
 171              	@ 106 "../../../test/testmbox.c" 1
ARM GAS  /tmp/cc2GUxSc.s 			page 4


 172 00ce 83F31188 		msr     BASEPRI, r3
 173              	@ 0 "" 2
 174              		.thumb
 175              	.LBE4:
 176 00d2 FFF7FEFF 		bl	dbg_check_lock
 177              	.LVL21:
 178              		.loc 1 107 0
 179 00d6 5821     		movs	r1, #88
 180 00d8 B048     		ldr	r0, .L31
 181 00da FFF7FEFF 		bl	chMBPostAheadI
 182              	.LVL22:
 183 00de 0446     		mov	r4, r0
 184              	.LVL23:
 185              		.loc 1 108 0
 186 00e0 FFF7FEFF 		bl	dbg_check_unlock
 187              	.LVL24:
 188              	.LBB5:
 189 00e4 0023     		movs	r3, #0
 190              	@ 108 "../../../test/testmbox.c" 1
 191 00e6 83F31188 		msr     BASEPRI, r3
 192              	@ 0 "" 2
 193              		.thumb
 194              	.LBE5:
 195              		.loc 1 109 0
 196 00ea B4F1FF33 		subs	r3, r4, #-1
 197 00ee 5942     		rsbs	r1, r3, #0
 198 00f0 5941     		adcs	r1, r1, r3
 199 00f2 0720     		movs	r0, #7
 200 00f4 FFF7FEFF 		bl	_test_assert
 201              	.LVL25:
 202 00f8 0028     		cmp	r0, #0
 203 00fa AFD1     		bne	.L1
 204              	.LBB6:
 205              		.loc 1 114 0
 206 00fc 2023     		movs	r3, #32
 207              	@ 114 "../../../test/testmbox.c" 1
 208 00fe 83F31188 		msr     BASEPRI, r3
 209              	@ 0 "" 2
 210              		.thumb
 211              	.LBE6:
 212 0102 FFF7FEFF 		bl	dbg_check_lock
 213              	.LVL26:
 214 0106 696A     		ldr	r1, [r5, #36]
 215 0108 D1F10101 		rsbs	r1, r1, #1
 216 010c 4FF00800 		mov	r0, #8
 217 0110 38BF     		it	cc
 218 0112 0021     		movcc	r1, #0
 219 0114 FFF7FEFF 		bl	_test_assert
 220              	.LVL27:
 221 0118 0446     		mov	r4, r0
 222              	.LVL28:
 223 011a 0028     		cmp	r0, #0
 224 011c 40F0CA82 		bne	.L25
 225              		.loc 1 114 0 is_stmt 0 discriminator 2
 226 0120 FFF7FEFF 		bl	dbg_check_unlock
 227              	.LVL29:
 228              	.LBB7:
ARM GAS  /tmp/cc2GUxSc.s 			page 5


 229 0124 2346     		mov	r3, r4
 230              	@ 114 "../../../test/testmbox.c" 1
 231 0126 83F31188 		msr     BASEPRI, r3
 232              	@ 0 "" 2
 233              		.thumb
 234              	.LBE7:
 235              	.LBB8:
 236              		.loc 1 115 0 is_stmt 1 discriminator 2
 237 012a 2023     		movs	r3, #32
 238              	@ 115 "../../../test/testmbox.c" 1
 239 012c 83F31188 		msr     BASEPRI, r3
 240              	@ 0 "" 2
 241              		.thumb
 242              	.LBE8:
 243 0130 FFF7FEFF 		bl	dbg_check_lock
 244              	.LVL30:
 245 0134 A969     		ldr	r1, [r5, #24]
 246 0136 B1F1050C 		subs	ip, r1, #5
 247 013a DCF10001 		rsbs	r1, ip, #0
 248 013e 4FF00900 		mov	r0, #9
 249 0142 51EB0C01 		adcs	r1, r1, ip
 250 0146 FFF7FEFF 		bl	_test_assert
 251              	.LVL31:
 252 014a 0446     		mov	r4, r0
 253 014c 0028     		cmp	r0, #0
 254 014e 40F0B182 		bne	.L25
 255 0152 FFF7FEFF 		bl	dbg_check_unlock
 256              	.LVL32:
 257              	.LBB9:
 258 0156 2346     		mov	r3, r4
 259              	@ 115 "../../../test/testmbox.c" 1
 260 0158 83F31188 		msr     BASEPRI, r3
 261              	@ 0 "" 2
 262              		.thumb
 263              	.LBE9:
 264              	.LBB10:
 265              		.loc 1 116 0 discriminator 2
 266 015c 2023     		movs	r3, #32
 267              	@ 116 "../../../test/testmbox.c" 1
 268 015e 83F31188 		msr     BASEPRI, r3
 269              	@ 0 "" 2
 270              		.thumb
 271              	.LBE10:
 272 0162 FFF7FEFF 		bl	dbg_check_lock
 273              	.LVL33:
 274 0166 E968     		ldr	r1, [r5, #12]
 275 0168 AB68     		ldr	r3, [r5, #8]
 276 016a B1EB030E 		subs	lr, r1, r3
 277 016e DEF10001 		rsbs	r1, lr, #0
 278 0172 51EB0E01 		adcs	r1, r1, lr
 279 0176 0A20     		movs	r0, #10
 280 0178 FFF7FEFF 		bl	_test_assert
 281              	.LVL34:
 282 017c 0028     		cmp	r0, #0
 283 017e 40F09982 		bne	.L25
 284 0182 FFF7FEFF 		bl	dbg_check_unlock
 285              	.LVL35:
ARM GAS  /tmp/cc2GUxSc.s 			page 6


 286              	.LBB11:
 287 0186 0023     		movs	r3, #0
 288              	@ 116 "../../../test/testmbox.c" 1
 289 0188 83F31188 		msr     BASEPRI, r3
 290              	@ 0 "" 2
 291              	.LVL36:
 292              		.thumb
 293 018c 0526     		movs	r6, #5
 294              	.LVL37:
 295              	.L10:
 296              	.LBE11:
 297              		.loc 1 122 0
 298 018e 834C     		ldr	r4, .L31
 299 0190 01A9     		add	r1, sp, #4
 300 0192 2046     		mov	r0, r4
 301 0194 4FF0FF32 		mov	r2, #-1
 302 0198 FFF7FEFF 		bl	chMBFetch
 303              	.LVL38:
 304              		.loc 1 123 0
 305 019c D0F10101 		rsbs	r1, r0, #1
 306 01a0 38BF     		it	cc
 307 01a2 0021     		movcc	r1, #0
 308 01a4 0B20     		movs	r0, #11
 309              	.LVL39:
 310 01a6 FFF7FEFF 		bl	_test_assert
 311              	.LVL40:
 312 01aa 0028     		cmp	r0, #0
 313 01ac 7FF456AF 		bne	.L1
 314              		.loc 1 124 0
 315 01b0 9DF80400 		ldrb	r0, [sp, #4]	@ zero_extendqisi2
 316 01b4 FFF7FEFF 		bl	test_emit_token
 317              	.LVL41:
 318              		.loc 1 121 0
 319 01b8 013E     		subs	r6, r6, #1
 320              	.LVL42:
 321 01ba E8D1     		bne	.L10
 322              		.loc 1 126 0
 323 01bc 0C20     		movs	r0, #12
 324 01be 7849     		ldr	r1, .L31+4
 325 01c0 FFF7FEFF 		bl	_test_assert_sequence
 326              	.LVL43:
 327 01c4 0028     		cmp	r0, #0
 328 01c6 7FF449AF 		bne	.L1
 329              		.loc 1 131 0
 330 01ca 4721     		movs	r1, #71
 331 01cc 2046     		mov	r0, r4
 332 01ce 4FF0FF32 		mov	r2, #-1
 333 01d2 FFF7FEFF 		bl	chMBPost
 334              	.LVL44:
 335              		.loc 1 132 0
 336 01d6 D0F10101 		rsbs	r1, r0, #1
 337 01da 38BF     		it	cc
 338 01dc 0021     		movcc	r1, #0
 339 01de 0D20     		movs	r0, #13
 340              	.LVL45:
 341 01e0 FFF7FEFF 		bl	_test_assert
 342              	.LVL46:
ARM GAS  /tmp/cc2GUxSc.s 			page 7


 343 01e4 0028     		cmp	r0, #0
 344 01e6 7FF439AF 		bne	.L1
 345              		.loc 1 133 0
 346 01ea 01A9     		add	r1, sp, #4
 347 01ec 2046     		mov	r0, r4
 348 01ee 4FF0FF32 		mov	r2, #-1
 349 01f2 FFF7FEFF 		bl	chMBFetch
 350              	.LVL47:
 351              		.loc 1 134 0
 352 01f6 D0F10101 		rsbs	r1, r0, #1
 353 01fa 38BF     		it	cc
 354 01fc 0021     		movcc	r1, #0
 355 01fe 0E20     		movs	r0, #14
 356              	.LVL48:
 357 0200 FFF7FEFF 		bl	_test_assert
 358              	.LVL49:
 359 0204 0028     		cmp	r0, #0
 360 0206 7FF429AF 		bne	.L1
 361              		.loc 1 135 0
 362 020a 2168     		ldr	r1, [r4]
 363 020c A368     		ldr	r3, [r4, #8]
 364 020e CE1A     		subs	r6, r1, r3
 365              	.LVL50:
 366 0210 7142     		rsbs	r1, r6, #0
 367 0212 7141     		adcs	r1, r1, r6
 368 0214 0F20     		movs	r0, #15
 369 0216 FFF7FEFF 		bl	_test_assert
 370              	.LVL51:
 371 021a 0028     		cmp	r0, #0
 372 021c 7FF41EAF 		bne	.L1
 373              		.loc 1 136 0
 374 0220 2168     		ldr	r1, [r4]
 375 0222 E368     		ldr	r3, [r4, #12]
 376 0224 CA1A     		subs	r2, r1, r3
 377 0226 5142     		rsbs	r1, r2, #0
 378 0228 5141     		adcs	r1, r1, r2
 379 022a 1020     		movs	r0, #16
 380 022c FFF7FEFF 		bl	_test_assert
 381              	.LVL52:
 382 0230 0028     		cmp	r0, #0
 383 0232 7FF413AF 		bne	.L1
 384              		.loc 1 141 0
 385 0236 01A9     		add	r1, sp, #4
 386 0238 2046     		mov	r0, r4
 387 023a 0122     		movs	r2, #1
 388 023c FFF7FEFF 		bl	chMBFetch
 389              	.LVL53:
 390              		.loc 1 142 0
 391 0240 B0F1FF33 		subs	r3, r0, #-1
 392 0244 5942     		rsbs	r1, r3, #0
 393 0246 5941     		adcs	r1, r1, r3
 394 0248 1120     		movs	r0, #17
 395              	.LVL54:
 396 024a FFF7FEFF 		bl	_test_assert
 397              	.LVL55:
 398 024e 0028     		cmp	r0, #0
 399 0250 7FF404AF 		bne	.L1
ARM GAS  /tmp/cc2GUxSc.s 			page 8


 400              	.LBB12:
 401              		.loc 1 143 0
 402 0254 2023     		movs	r3, #32
 403              	@ 143 "../../../test/testmbox.c" 1
 404 0256 83F31188 		msr     BASEPRI, r3
 405              	@ 0 "" 2
 406              		.thumb
 407              	.LBE12:
 408 025a FFF7FEFF 		bl	dbg_check_lock
 409              	.LVL56:
 410              		.loc 1 144 0
 411 025e 01A9     		add	r1, sp, #4
 412 0260 2046     		mov	r0, r4
 413 0262 FFF7FEFF 		bl	chMBFetchI
 414              	.LVL57:
 415 0266 0446     		mov	r4, r0
 416              	.LVL58:
 417              		.loc 1 145 0
 418 0268 FFF7FEFF 		bl	dbg_check_unlock
 419              	.LVL59:
 420              	.LBB13:
 421 026c 0023     		movs	r3, #0
 422              	@ 145 "../../../test/testmbox.c" 1
 423 026e 83F31188 		msr     BASEPRI, r3
 424              	@ 0 "" 2
 425              		.thumb
 426              	.LBE13:
 427              		.loc 1 146 0
 428 0272 B4F1FF3C 		subs	ip, r4, #-1
 429 0276 DCF10001 		rsbs	r1, ip, #0
 430 027a 51EB0C01 		adcs	r1, r1, ip
 431 027e 1220     		movs	r0, #18
 432 0280 FFF7FEFF 		bl	_test_assert
 433              	.LVL60:
 434 0284 0028     		cmp	r0, #0
 435 0286 7FF4E9AE 		bne	.L1
 436              	.LBB14:
 437              		.loc 1 151 0
 438 028a 2023     		movs	r3, #32
 439              	@ 151 "../../../test/testmbox.c" 1
 440 028c 83F31188 		msr     BASEPRI, r3
 441              	@ 0 "" 2
 442              		.thumb
 443              	.LBE14:
 444 0290 FFF7FEFF 		bl	dbg_check_lock
 445              	.LVL61:
 446 0294 696A     		ldr	r1, [r5, #36]
 447 0296 B1F1050E 		subs	lr, r1, #5
 448 029a DEF10001 		rsbs	r1, lr, #0
 449 029e 51EB0E01 		adcs	r1, r1, lr
 450 02a2 1320     		movs	r0, #19
 451 02a4 FFF7FEFF 		bl	_test_assert
 452              	.LVL62:
 453 02a8 0028     		cmp	r0, #0
 454 02aa 40F00382 		bne	.L25
 455              		.loc 1 151 0 is_stmt 0 discriminator 2
 456 02ae FFF7FEFF 		bl	dbg_check_unlock
ARM GAS  /tmp/cc2GUxSc.s 			page 9


 457              	.LVL63:
 458              	.LBB15:
 459 02b2 0023     		movs	r3, #0
 460              	@ 151 "../../../test/testmbox.c" 1
 461 02b4 83F31188 		msr     BASEPRI, r3
 462              	@ 0 "" 2
 463              		.thumb
 464              	.LBE15:
 465              	.LBB16:
 466              		.loc 1 152 0 is_stmt 1 discriminator 2
 467 02b8 2023     		movs	r3, #32
 468              	@ 152 "../../../test/testmbox.c" 1
 469 02ba 83F31188 		msr     BASEPRI, r3
 470              	@ 0 "" 2
 471              		.thumb
 472              	.LBE16:
 473 02be FFF7FEFF 		bl	dbg_check_lock
 474              	.LVL64:
 475 02c2 A969     		ldr	r1, [r5, #24]
 476 02c4 D1F10101 		rsbs	r1, r1, #1
 477 02c8 4FF01400 		mov	r0, #20
 478 02cc 38BF     		it	cc
 479 02ce 0021     		movcc	r1, #0
 480 02d0 FFF7FEFF 		bl	_test_assert
 481              	.LVL65:
 482 02d4 0446     		mov	r4, r0
 483              	.LVL66:
 484 02d6 0028     		cmp	r0, #0
 485 02d8 40F0EC81 		bne	.L25
 486 02dc FFF7FEFF 		bl	dbg_check_unlock
 487              	.LVL67:
 488              	.LBB17:
 489 02e0 2346     		mov	r3, r4
 490              	@ 152 "../../../test/testmbox.c" 1
 491 02e2 83F31188 		msr     BASEPRI, r3
 492              	@ 0 "" 2
 493              		.thumb
 494              	.LBE17:
 495              	.LBB18:
 496              		.loc 1 153 0 discriminator 2
 497 02e6 2023     		movs	r3, #32
 498              	@ 153 "../../../test/testmbox.c" 1
 499 02e8 83F31188 		msr     BASEPRI, r3
 500              	@ 0 "" 2
 501              		.thumb
 502              	.LBE18:
 503 02ec FFF7FEFF 		bl	dbg_check_lock
 504              	.LVL68:
 505 02f0 E968     		ldr	r1, [r5, #12]
 506 02f2 AB68     		ldr	r3, [r5, #8]
 507 02f4 CE1A     		subs	r6, r1, r3
 508 02f6 7142     		rsbs	r1, r6, #0
 509 02f8 4FF01500 		mov	r0, #21
 510 02fc 7141     		adcs	r1, r1, r6
 511 02fe FFF7FEFF 		bl	_test_assert
 512              	.LVL69:
 513 0302 0446     		mov	r4, r0
ARM GAS  /tmp/cc2GUxSc.s 			page 10


 514 0304 0028     		cmp	r0, #0
 515 0306 40F0D581 		bne	.L25
 516 030a FFF7FEFF 		bl	dbg_check_unlock
 517              	.LVL70:
 518              	.LBB19:
 519 030e 2346     		mov	r3, r4
 520              	@ 153 "../../../test/testmbox.c" 1
 521 0310 83F31188 		msr     BASEPRI, r3
 522              	@ 0 "" 2
 523              		.thumb
 524              	.LBE19:
 525              	.LBB20:
 526              		.loc 1 158 0 discriminator 2
 527 0314 2023     		movs	r3, #32
 528              	@ 158 "../../../test/testmbox.c" 1
 529 0316 83F31188 		msr     BASEPRI, r3
 530              	@ 0 "" 2
 531              		.thumb
 532              	.LBE20:
 533 031a FFF7FEFF 		bl	dbg_check_lock
 534              	.LVL71:
 535              		.loc 1 159 0 discriminator 2
 536 031e 4121     		movs	r1, #65
 537 0320 1E48     		ldr	r0, .L31
 538 0322 FFF7FEFF 		bl	chMBPostI
 539              	.LVL72:
 540              		.loc 1 160 0 discriminator 2
 541 0326 D0F10101 		rsbs	r1, r0, #1
 542 032a 38BF     		it	cc
 543 032c 0021     		movcc	r1, #0
 544 032e 1620     		movs	r0, #22
 545              	.LVL73:
 546 0330 FFF7FEFF 		bl	_test_assert
 547              	.LVL74:
 548 0334 0028     		cmp	r0, #0
 549 0336 7FF491AE 		bne	.L1
 550              		.loc 1 161 0
 551 033a 4221     		movs	r1, #66
 552 033c 1748     		ldr	r0, .L31
 553 033e FFF7FEFF 		bl	chMBPostI
 554              	.LVL75:
 555              		.loc 1 162 0
 556 0342 D0F10101 		rsbs	r1, r0, #1
 557 0346 38BF     		it	cc
 558 0348 0021     		movcc	r1, #0
 559 034a 1720     		movs	r0, #23
 560              	.LVL76:
 561 034c FFF7FEFF 		bl	_test_assert
 562              	.LVL77:
 563 0350 0028     		cmp	r0, #0
 564 0352 7FF483AE 		bne	.L1
 565              		.loc 1 163 0
 566 0356 4321     		movs	r1, #67
 567 0358 1048     		ldr	r0, .L31
 568 035a FFF7FEFF 		bl	chMBPostI
 569              	.LVL78:
 570              		.loc 1 164 0
ARM GAS  /tmp/cc2GUxSc.s 			page 11


 571 035e D0F10101 		rsbs	r1, r0, #1
 572 0362 38BF     		it	cc
 573 0364 0021     		movcc	r1, #0
 574 0366 1820     		movs	r0, #24
 575              	.LVL79:
 576 0368 FFF7FEFF 		bl	_test_assert
 577              	.LVL80:
 578 036c 0028     		cmp	r0, #0
 579 036e 7FF475AE 		bne	.L1
 580              		.loc 1 165 0
 581 0372 4421     		movs	r1, #68
 582 0374 0948     		ldr	r0, .L31
 583 0376 FFF7FEFF 		bl	chMBPostI
 584              	.LVL81:
 585              		.loc 1 166 0
 586 037a D0F10101 		rsbs	r1, r0, #1
 587 037e 38BF     		it	cc
 588 0380 0021     		movcc	r1, #0
 589 0382 1920     		movs	r0, #25
 590              	.LVL82:
 591 0384 FFF7FEFF 		bl	_test_assert
 592              	.LVL83:
 593 0388 0446     		mov	r4, r0
 594 038a 0028     		cmp	r0, #0
 595 038c 7FF466AE 		bne	.L1
 596              		.loc 1 167 0
 597 0390 4521     		movs	r1, #69
 598 0392 0248     		ldr	r0, .L31
 599 0394 FFF7FEFF 		bl	chMBPostI
 600              	.LVL84:
 601 0398 04E0     		b	.L32
 602              	.L33:
 603 039a 00BF     		.align	2
 604              	.L31:
 605 039c 00000000 		.word	.LANCHOR0
 606 03a0 00000000 		.word	.LC0
 607              	.L32:
 608 03a4 0646     		mov	r6, r0
 609              	.LVL85:
 610              		.loc 1 168 0
 611 03a6 FFF7FEFF 		bl	dbg_check_unlock
 612              	.LVL86:
 613              	.LBB21:
 614 03aa 2346     		mov	r3, r4
 615              	@ 168 "../../../test/testmbox.c" 1
 616 03ac 83F31188 		msr     BASEPRI, r3
 617              	@ 0 "" 2
 618              		.thumb
 619              	.LBE21:
 620              		.loc 1 169 0
 621 03b0 D6F10101 		rsbs	r1, r6, #1
 622 03b4 38BF     		it	cc
 623 03b6 0021     		movcc	r1, #0
 624 03b8 1A20     		movs	r0, #26
 625 03ba FFF7FEFF 		bl	_test_assert
 626              	.LVL87:
 627 03be 0028     		cmp	r0, #0
ARM GAS  /tmp/cc2GUxSc.s 			page 12


 628 03c0 7FF44CAE 		bne	.L1
 629              		.loc 1 170 0
 630 03c4 E968     		ldr	r1, [r5, #12]
 631 03c6 AB68     		ldr	r3, [r5, #8]
 632 03c8 CC1A     		subs	r4, r1, r3
 633 03ca 6142     		rsbs	r1, r4, #0
 634 03cc 6141     		adcs	r1, r1, r4
 635 03ce 1B20     		movs	r0, #27
 636 03d0 FFF7FEFF 		bl	_test_assert
 637              	.LVL88:
 638 03d4 0028     		cmp	r0, #0
 639 03d6 7FF441AE 		bne	.L1
 640 03da 0524     		movs	r4, #5
 641              	.L15:
 642              	.LVL89:
 643              	.LBB22:
 644              		.loc 1 172 0
 645 03dc 2023     		movs	r3, #32
 646              	@ 172 "../../../test/testmbox.c" 1
 647 03de 83F31188 		msr     BASEPRI, r3
 648              	@ 0 "" 2
 649              		.thumb
 650              	.LBE22:
 651 03e2 FFF7FEFF 		bl	dbg_check_lock
 652              	.LVL90:
 653              		.loc 1 173 0
 654 03e6 01A9     		add	r1, sp, #4
 655 03e8 B548     		ldr	r0, .L34
 656 03ea FFF7FEFF 		bl	chMBFetchI
 657              	.LVL91:
 658 03ee 0646     		mov	r6, r0
 659              	.LVL92:
 660              		.loc 1 174 0
 661 03f0 FFF7FEFF 		bl	dbg_check_unlock
 662              	.LVL93:
 663              	.LBB23:
 664 03f4 0023     		movs	r3, #0
 665              	@ 174 "../../../test/testmbox.c" 1
 666 03f6 83F31188 		msr     BASEPRI, r3
 667              	@ 0 "" 2
 668              		.thumb
 669              	.LBE23:
 670              		.loc 1 175 0
 671 03fa D6F10101 		rsbs	r1, r6, #1
 672 03fe 38BF     		it	cc
 673 0400 0021     		movcc	r1, #0
 674 0402 1C20     		movs	r0, #28
 675 0404 FFF7FEFF 		bl	_test_assert
 676              	.LVL94:
 677 0408 0028     		cmp	r0, #0
 678 040a 7FF427AE 		bne	.L1
 679              		.loc 1 176 0
 680 040e 9DF80400 		ldrb	r0, [sp, #4]	@ zero_extendqisi2
 681 0412 FFF7FEFF 		bl	test_emit_token
 682              	.LVL95:
 683              		.loc 1 171 0
 684 0416 013C     		subs	r4, r4, #1
ARM GAS  /tmp/cc2GUxSc.s 			page 13


 685              	.LVL96:
 686 0418 E0D1     		bne	.L15
 687              		.loc 1 178 0
 688 041a 1D20     		movs	r0, #29
 689 041c A949     		ldr	r1, .L34+4
 690 041e FFF7FEFF 		bl	_test_assert_sequence
 691              	.LVL97:
 692 0422 0028     		cmp	r0, #0
 693 0424 7FF41AAE 		bne	.L1
 694              	.LBB24:
 695              		.loc 1 179 0
 696 0428 2023     		movs	r3, #32
 697              	@ 179 "../../../test/testmbox.c" 1
 698 042a 83F31188 		msr     BASEPRI, r3
 699              	@ 0 "" 2
 700              		.thumb
 701              	.LBE24:
 702 042e FFF7FEFF 		bl	dbg_check_lock
 703              	.LVL98:
 704 0432 696A     		ldr	r1, [r5, #36]
 705 0434 4A1F     		subs	r2, r1, #5
 706 0436 5142     		rsbs	r1, r2, #0
 707 0438 4FF01E00 		mov	r0, #30
 708 043c 5141     		adcs	r1, r1, r2
 709 043e FFF7FEFF 		bl	_test_assert
 710              	.LVL99:
 711 0442 0446     		mov	r4, r0
 712              	.LVL100:
 713 0444 0028     		cmp	r0, #0
 714 0446 40F03581 		bne	.L25
 715              		.loc 1 179 0 is_stmt 0 discriminator 2
 716 044a FFF7FEFF 		bl	dbg_check_unlock
 717              	.LVL101:
 718              	.LBB25:
 719 044e 2346     		mov	r3, r4
 720              	@ 179 "../../../test/testmbox.c" 1
 721 0450 83F31188 		msr     BASEPRI, r3
 722              	@ 0 "" 2
 723              		.thumb
 724              	.LBE25:
 725              	.LBB26:
 726              		.loc 1 180 0 is_stmt 1 discriminator 2
 727 0454 2023     		movs	r3, #32
 728              	@ 180 "../../../test/testmbox.c" 1
 729 0456 83F31188 		msr     BASEPRI, r3
 730              	@ 0 "" 2
 731              		.thumb
 732              	.LBE26:
 733 045a FFF7FEFF 		bl	dbg_check_lock
 734              	.LVL102:
 735 045e A969     		ldr	r1, [r5, #24]
 736 0460 D1F10101 		rsbs	r1, r1, #1
 737 0464 4FF01F00 		mov	r0, #31
 738 0468 38BF     		it	cc
 739 046a 0021     		movcc	r1, #0
 740 046c FFF7FEFF 		bl	_test_assert
 741              	.LVL103:
ARM GAS  /tmp/cc2GUxSc.s 			page 14


 742 0470 0446     		mov	r4, r0
 743 0472 0028     		cmp	r0, #0
 744 0474 40F01E81 		bne	.L25
 745 0478 FFF7FEFF 		bl	dbg_check_unlock
 746              	.LVL104:
 747              	.LBB27:
 748 047c 2346     		mov	r3, r4
 749              	@ 180 "../../../test/testmbox.c" 1
 750 047e 83F31188 		msr     BASEPRI, r3
 751              	@ 0 "" 2
 752              		.thumb
 753              	.LBE27:
 754              		.loc 1 181 0 discriminator 2
 755 0482 E968     		ldr	r1, [r5, #12]
 756 0484 AB68     		ldr	r3, [r5, #8]
 757 0486 CB1A     		subs	r3, r1, r3
 758 0488 5942     		rsbs	r1, r3, #0
 759 048a 5941     		adcs	r1, r1, r3
 760 048c 2020     		movs	r0, #32
 761 048e FFF7FEFF 		bl	_test_assert
 762              	.LVL105:
 763 0492 0028     		cmp	r0, #0
 764 0494 7FF4E2AD 		bne	.L1
 765              	.LBB28:
 766              		.loc 1 183 0
 767 0498 2023     		movs	r3, #32
 768              	@ 183 "../../../test/testmbox.c" 1
 769 049a 83F31188 		msr     BASEPRI, r3
 770              	@ 0 "" 2
 771              		.thumb
 772              	.LBE28:
 773 049e FFF7FEFF 		bl	dbg_check_lock
 774              	.LVL106:
 775              		.loc 1 184 0
 776 04a2 4521     		movs	r1, #69
 777 04a4 8648     		ldr	r0, .L34
 778 04a6 FFF7FEFF 		bl	chMBPostAheadI
 779              	.LVL107:
 780              		.loc 1 185 0
 781 04aa D0F10101 		rsbs	r1, r0, #1
 782 04ae 38BF     		it	cc
 783 04b0 0021     		movcc	r1, #0
 784 04b2 2120     		movs	r0, #33
 785              	.LVL108:
 786 04b4 FFF7FEFF 		bl	_test_assert
 787              	.LVL109:
 788 04b8 0028     		cmp	r0, #0
 789 04ba 7FF4CFAD 		bne	.L1
 790              		.loc 1 186 0
 791 04be 4421     		movs	r1, #68
 792 04c0 7F48     		ldr	r0, .L34
 793 04c2 FFF7FEFF 		bl	chMBPostAheadI
 794              	.LVL110:
 795              		.loc 1 187 0
 796 04c6 D0F10101 		rsbs	r1, r0, #1
 797 04ca 38BF     		it	cc
 798 04cc 0021     		movcc	r1, #0
ARM GAS  /tmp/cc2GUxSc.s 			page 15


 799 04ce 2220     		movs	r0, #34
 800              	.LVL111:
 801 04d0 FFF7FEFF 		bl	_test_assert
 802              	.LVL112:
 803 04d4 0028     		cmp	r0, #0
 804 04d6 7FF4C1AD 		bne	.L1
 805              		.loc 1 188 0
 806 04da 4321     		movs	r1, #67
 807 04dc 7848     		ldr	r0, .L34
 808 04de FFF7FEFF 		bl	chMBPostAheadI
 809              	.LVL113:
 810              		.loc 1 189 0
 811 04e2 D0F10101 		rsbs	r1, r0, #1
 812 04e6 38BF     		it	cc
 813 04e8 0021     		movcc	r1, #0
 814 04ea 2320     		movs	r0, #35
 815              	.LVL114:
 816 04ec FFF7FEFF 		bl	_test_assert
 817              	.LVL115:
 818 04f0 0028     		cmp	r0, #0
 819 04f2 7FF4B3AD 		bne	.L1
 820              		.loc 1 190 0
 821 04f6 4221     		movs	r1, #66
 822 04f8 7148     		ldr	r0, .L34
 823 04fa FFF7FEFF 		bl	chMBPostAheadI
 824              	.LVL116:
 825              		.loc 1 191 0
 826 04fe D0F10101 		rsbs	r1, r0, #1
 827 0502 38BF     		it	cc
 828 0504 0021     		movcc	r1, #0
 829 0506 2420     		movs	r0, #36
 830              	.LVL117:
 831 0508 FFF7FEFF 		bl	_test_assert
 832              	.LVL118:
 833 050c 0028     		cmp	r0, #0
 834 050e 7FF4A5AD 		bne	.L1
 835              		.loc 1 192 0
 836 0512 4121     		movs	r1, #65
 837 0514 6A48     		ldr	r0, .L34
 838 0516 FFF7FEFF 		bl	chMBPostAheadI
 839              	.LVL119:
 840 051a 0446     		mov	r4, r0
 841              	.LVL120:
 842              		.loc 1 193 0
 843 051c FFF7FEFF 		bl	dbg_check_unlock
 844              	.LVL121:
 845              	.LBB29:
 846 0520 0023     		movs	r3, #0
 847              	@ 193 "../../../test/testmbox.c" 1
 848 0522 83F31188 		msr     BASEPRI, r3
 849              	@ 0 "" 2
 850              		.thumb
 851              	.LBE29:
 852              		.loc 1 194 0
 853 0526 D4F10101 		rsbs	r1, r4, #1
 854 052a 38BF     		it	cc
 855 052c 0021     		movcc	r1, #0
ARM GAS  /tmp/cc2GUxSc.s 			page 16


 856 052e 2520     		movs	r0, #37
 857 0530 FFF7FEFF 		bl	_test_assert
 858              	.LVL122:
 859 0534 0028     		cmp	r0, #0
 860 0536 7FF491AD 		bne	.L1
 861              		.loc 1 195 0
 862 053a E968     		ldr	r1, [r5, #12]
 863 053c AB68     		ldr	r3, [r5, #8]
 864 053e B1EB030C 		subs	ip, r1, r3
 865 0542 DCF10001 		rsbs	r1, ip, #0
 866 0546 51EB0C01 		adcs	r1, r1, ip
 867 054a 2620     		movs	r0, #38
 868 054c FFF7FEFF 		bl	_test_assert
 869              	.LVL123:
 870 0550 0028     		cmp	r0, #0
 871 0552 7FF483AD 		bne	.L1
 872 0556 0524     		movs	r4, #5
 873              	.LVL124:
 874              	.L19:
 875              	.LBB30:
 876              		.loc 1 197 0
 877 0558 2023     		movs	r3, #32
 878              	@ 197 "../../../test/testmbox.c" 1
 879 055a 83F31188 		msr     BASEPRI, r3
 880              	@ 0 "" 2
 881              		.thumb
 882              	.LBE30:
 883 055e FFF7FEFF 		bl	dbg_check_lock
 884              	.LVL125:
 885              		.loc 1 198 0
 886 0562 01A9     		add	r1, sp, #4
 887 0564 5648     		ldr	r0, .L34
 888 0566 FFF7FEFF 		bl	chMBFetchI
 889              	.LVL126:
 890 056a 0646     		mov	r6, r0
 891              	.LVL127:
 892              		.loc 1 199 0
 893 056c FFF7FEFF 		bl	dbg_check_unlock
 894              	.LVL128:
 895              	.LBB31:
 896 0570 0023     		movs	r3, #0
 897              	@ 199 "../../../test/testmbox.c" 1
 898 0572 83F31188 		msr     BASEPRI, r3
 899              	@ 0 "" 2
 900              		.thumb
 901              	.LBE31:
 902              		.loc 1 200 0
 903 0576 D6F10101 		rsbs	r1, r6, #1
 904 057a 38BF     		it	cc
 905 057c 0021     		movcc	r1, #0
 906 057e 2720     		movs	r0, #39
 907 0580 FFF7FEFF 		bl	_test_assert
 908              	.LVL129:
 909 0584 0028     		cmp	r0, #0
 910 0586 7FF469AD 		bne	.L1
 911              		.loc 1 201 0
 912 058a 9DF80400 		ldrb	r0, [sp, #4]	@ zero_extendqisi2
ARM GAS  /tmp/cc2GUxSc.s 			page 17


 913 058e FFF7FEFF 		bl	test_emit_token
 914              	.LVL130:
 915              		.loc 1 196 0
 916 0592 013C     		subs	r4, r4, #1
 917              	.LVL131:
 918 0594 E0D1     		bne	.L19
 919              		.loc 1 203 0
 920 0596 2820     		movs	r0, #40
 921 0598 4A49     		ldr	r1, .L34+4
 922 059a FFF7FEFF 		bl	_test_assert_sequence
 923              	.LVL132:
 924 059e 0028     		cmp	r0, #0
 925 05a0 7FF45CAD 		bne	.L1
 926              	.LBB32:
 927              		.loc 1 204 0
 928 05a4 2023     		movs	r3, #32
 929              	@ 204 "../../../test/testmbox.c" 1
 930 05a6 83F31188 		msr     BASEPRI, r3
 931              	@ 0 "" 2
 932              		.thumb
 933              	.LBE32:
 934 05aa FFF7FEFF 		bl	dbg_check_lock
 935              	.LVL133:
 936 05ae 696A     		ldr	r1, [r5, #36]
 937 05b0 B1F1050E 		subs	lr, r1, #5
 938 05b4 DEF10001 		rsbs	r1, lr, #0
 939 05b8 4FF02900 		mov	r0, #41
 940 05bc 51EB0E01 		adcs	r1, r1, lr
 941 05c0 FFF7FEFF 		bl	_test_assert
 942              	.LVL134:
 943 05c4 0446     		mov	r4, r0
 944              	.LVL135:
 945 05c6 0028     		cmp	r0, #0
 946 05c8 74D1     		bne	.L25
 947              		.loc 1 204 0 is_stmt 0 discriminator 2
 948 05ca FFF7FEFF 		bl	dbg_check_unlock
 949              	.LVL136:
 950              	.LBB33:
 951 05ce 2346     		mov	r3, r4
 952              	@ 204 "../../../test/testmbox.c" 1
 953 05d0 83F31188 		msr     BASEPRI, r3
 954              	@ 0 "" 2
 955              		.thumb
 956              	.LBE33:
 957              	.LBB34:
 958              		.loc 1 205 0 is_stmt 1 discriminator 2
 959 05d4 2023     		movs	r3, #32
 960              	@ 205 "../../../test/testmbox.c" 1
 961 05d6 83F31188 		msr     BASEPRI, r3
 962              	@ 0 "" 2
 963              		.thumb
 964              	.LBE34:
 965 05da FFF7FEFF 		bl	dbg_check_lock
 966              	.LVL137:
 967 05de A969     		ldr	r1, [r5, #24]
 968 05e0 D1F10101 		rsbs	r1, r1, #1
 969 05e4 4FF02A00 		mov	r0, #42
ARM GAS  /tmp/cc2GUxSc.s 			page 18


 970 05e8 38BF     		it	cc
 971 05ea 0021     		movcc	r1, #0
 972 05ec FFF7FEFF 		bl	_test_assert
 973              	.LVL138:
 974 05f0 0446     		mov	r4, r0
 975 05f2 0028     		cmp	r0, #0
 976 05f4 5ED1     		bne	.L25
 977 05f6 FFF7FEFF 		bl	dbg_check_unlock
 978              	.LVL139:
 979              	.LBB35:
 980 05fa 2346     		mov	r3, r4
 981              	@ 205 "../../../test/testmbox.c" 1
 982 05fc 83F31188 		msr     BASEPRI, r3
 983              	@ 0 "" 2
 984              		.thumb
 985              	.LBE35:
 986              		.loc 1 206 0 discriminator 2
 987 0600 E968     		ldr	r1, [r5, #12]
 988 0602 AB68     		ldr	r3, [r5, #8]
 989 0604 CE1A     		subs	r6, r1, r3
 990              	.LVL140:
 991 0606 7142     		rsbs	r1, r6, #0
 992 0608 7141     		adcs	r1, r1, r6
 993 060a 2B20     		movs	r0, #43
 994 060c FFF7FEFF 		bl	_test_assert
 995              	.LVL141:
 996 0610 0028     		cmp	r0, #0
 997 0612 7FF423AD 		bne	.L1
 998              		.loc 1 211 0
 999 0616 2A48     		ldr	r0, .L34
 1000 0618 FFF7FEFF 		bl	chMBReset
 1001              	.LVL142:
 1002              	.LBB36:
 1003              		.loc 1 216 0
 1004 061c 2023     		movs	r3, #32
 1005              	@ 216 "../../../test/testmbox.c" 1
 1006 061e 83F31188 		msr     BASEPRI, r3
 1007              	@ 0 "" 2
 1008              		.thumb
 1009              	.LBE36:
 1010 0622 FFF7FEFF 		bl	dbg_check_lock
 1011              	.LVL143:
 1012 0626 696A     		ldr	r1, [r5, #36]
 1013 0628 4C1F     		subs	r4, r1, #5
 1014 062a 6142     		rsbs	r1, r4, #0
 1015 062c 6141     		adcs	r1, r1, r4
 1016 062e 2C20     		movs	r0, #44
 1017 0630 FFF7FEFF 		bl	_test_assert
 1018              	.LVL144:
 1019 0634 0446     		mov	r4, r0
 1020 0636 0028     		cmp	r0, #0
 1021 0638 3CD1     		bne	.L25
 1022              		.loc 1 216 0 is_stmt 0 discriminator 2
 1023 063a FFF7FEFF 		bl	dbg_check_unlock
 1024              	.LVL145:
 1025              	.LBB37:
 1026 063e 2346     		mov	r3, r4
ARM GAS  /tmp/cc2GUxSc.s 			page 19


 1027              	@ 216 "../../../test/testmbox.c" 1
 1028 0640 83F31188 		msr     BASEPRI, r3
 1029              	@ 0 "" 2
 1030              		.thumb
 1031              	.LBE37:
 1032              	.LBB38:
 1033              		.loc 1 217 0 is_stmt 1 discriminator 2
 1034 0644 2023     		movs	r3, #32
 1035              	@ 217 "../../../test/testmbox.c" 1
 1036 0646 83F31188 		msr     BASEPRI, r3
 1037              	@ 0 "" 2
 1038              		.thumb
 1039              	.LBE38:
 1040 064a FFF7FEFF 		bl	dbg_check_lock
 1041              	.LVL146:
 1042 064e A969     		ldr	r1, [r5, #24]
 1043 0650 D1F10101 		rsbs	r1, r1, #1
 1044 0654 4FF02D00 		mov	r0, #45
 1045 0658 38BF     		it	cc
 1046 065a 0021     		movcc	r1, #0
 1047 065c FFF7FEFF 		bl	_test_assert
 1048              	.LVL147:
 1049 0660 0446     		mov	r4, r0
 1050 0662 38BB     		cbnz	r0, .L25
 1051 0664 FFF7FEFF 		bl	dbg_check_unlock
 1052              	.LVL148:
 1053              	.LBB39:
 1054 0668 2346     		mov	r3, r4
 1055              	@ 217 "../../../test/testmbox.c" 1
 1056 066a 83F31188 		msr     BASEPRI, r3
 1057              	@ 0 "" 2
 1058              		.thumb
 1059              	.LBE39:
 1060              	.LBB40:
 1061              		.loc 1 218 0 discriminator 2
 1062 066e 2023     		movs	r3, #32
 1063              	@ 218 "../../../test/testmbox.c" 1
 1064 0670 83F31188 		msr     BASEPRI, r3
 1065              	@ 0 "" 2
 1066              		.thumb
 1067              	.LBE40:
 1068 0674 FFF7FEFF 		bl	dbg_check_lock
 1069              	.LVL149:
 1070 0678 2968     		ldr	r1, [r5]
 1071 067a AB68     		ldr	r3, [r5, #8]
 1072 067c CA1A     		subs	r2, r1, r3
 1073 067e 5142     		rsbs	r1, r2, #0
 1074 0680 4FF02E00 		mov	r0, #46
 1075 0684 5141     		adcs	r1, r1, r2
 1076 0686 FFF7FEFF 		bl	_test_assert
 1077              	.LVL150:
 1078 068a 0446     		mov	r4, r0
 1079 068c 90B9     		cbnz	r0, .L25
 1080 068e FFF7FEFF 		bl	dbg_check_unlock
 1081              	.LVL151:
 1082              	.LBB41:
 1083 0692 2346     		mov	r3, r4
ARM GAS  /tmp/cc2GUxSc.s 			page 20


 1084              	@ 218 "../../../test/testmbox.c" 1
 1085 0694 83F31188 		msr     BASEPRI, r3
 1086              	@ 0 "" 2
 1087              		.thumb
 1088              	.LBE41:
 1089              	.LBB42:
 1090              		.loc 1 219 0 discriminator 2
 1091 0698 2023     		movs	r3, #32
 1092              	@ 219 "../../../test/testmbox.c" 1
 1093 069a 83F31188 		msr     BASEPRI, r3
 1094              	@ 0 "" 2
 1095              		.thumb
 1096              	.LBE42:
 1097 069e FFF7FEFF 		bl	dbg_check_lock
 1098              	.LVL152:
 1099 06a2 2968     		ldr	r1, [r5]
 1100 06a4 EB68     		ldr	r3, [r5, #12]
 1101 06a6 CB1A     		subs	r3, r1, r3
 1102 06a8 5942     		rsbs	r1, r3, #0
 1103 06aa 4FF02F00 		mov	r0, #47
 1104 06ae 5941     		adcs	r1, r1, r3
 1105 06b0 FFF7FEFF 		bl	_test_assert
 1106              	.LVL153:
 1107              	.L25:
 1108 06b4 FFF7FEFF 		bl	dbg_check_unlock
 1109              	.LVL154:
 1110              	.LBB43:
 1111 06b8 0023     		movs	r3, #0
 1112              	@ 219 "../../../test/testmbox.c" 1
 1113 06ba 83F31188 		msr     BASEPRI, r3
 1114              	@ 0 "" 2
 1115              		.thumb
 1116              	.LBE43:
 1117 06be CDE4     		b	.L1
 1118              	.L35:
 1119              		.align	2
 1120              	.L34:
 1121 06c0 00000000 		.word	.LANCHOR0
 1122 06c4 00000000 		.word	.LC0
 1123              		.cfi_endproc
 1124              	.LFE8:
 1125              		.size	mbox1_execute, .-mbox1_execute
 1126 06c8 AFF30080 		.section	.text.mbox1_setup,"ax",%progbits
 1126      AFF30080 
 1127              		.align	2
 1128              		.p2align 4,,15
 1129              		.thumb
 1130              		.thumb_func
 1131              		.type	mbox1_setup, %function
 1132              	mbox1_setup:
 1133              	.LFB7:
 1134              		.loc 1 71 0
 1135              		.cfi_startproc
 1136              		@ args = 0, pretend = 0, frame = 0
 1137              		@ frame_needed = 0, uses_anonymous_args = 0
 1138              		@ link register save eliminated.
 1139              		.loc 1 73 0
ARM GAS  /tmp/cc2GUxSc.s 			page 21


 1140 0000 0248     		ldr	r0, .L37
 1141 0002 0349     		ldr	r1, .L37+4
 1142 0004 0522     		movs	r2, #5
 1143 0006 FFF7FEBF 		b	chMBInit
 1144              	.LVL155:
 1145              	.L38:
 1146 000a 00BF     		.align	2
 1147              	.L37:
 1148 000c 00000000 		.word	.LANCHOR0
 1149 0010 00000000 		.word	test
 1150              		.cfi_endproc
 1151              	.LFE7:
 1152              		.size	mbox1_setup, .-mbox1_setup
 1153              		.global	patternmbox
 1154              		.global	testmbox1
 1155 0014 AFF30080 		.section	.data.mb1,"aw",%progbits
 1155      AFF30080 
 1155      AFF30080 
 1156              		.align	2
 1157              		.set	.LANCHOR0,. + 0
 1158              		.type	mb1, %object
 1159              		.size	mb1, 40
 1160              	mb1:
 1161 0000 00000000 		.word	test
 1162 0004 14000000 		.word	test+20
 1163 0008 00000000 		.word	test
 1164 000c 00000000 		.word	test
 1165 0010 10000000 		.word	mb1+16
 1166 0014 10000000 		.word	mb1+16
 1167 0018 00000000 		.word	0
 1168 001c 1C000000 		.word	mb1+28
 1169 0020 1C000000 		.word	mb1+28
 1170 0024 05000000 		.word	5
 1171              		.section	.rodata.patternmbox,"a",%progbits
 1172              		.align	2
 1173              		.type	patternmbox, %object
 1174              		.size	patternmbox, 8
 1175              	patternmbox:
 1176 0000 00000000 		.word	testmbox1
 1177 0004 00000000 		.word	0
 1178              		.section	.rodata.str1.4,"aMS",%progbits,1
 1179              		.align	2
 1180              	.LC0:
 1181 0000 41424344 		.ascii	"ABCDE\000"
 1181      4500
 1182 0006 0000     		.space	2
 1183              	.LC1:
 1184 0008 4D61696C 		.ascii	"Mailboxes, queuing and timeouts\000"
 1184      626F7865 
 1184      732C2071 
 1184      75657569 
 1184      6E672061 
 1185              		.section	.rodata.testmbox1,"a",%progbits
 1186              		.align	2
 1187              		.type	testmbox1, %object
 1188              		.size	testmbox1, 16
 1189              	testmbox1:
ARM GAS  /tmp/cc2GUxSc.s 			page 22


 1190 0000 08000000 		.word	.LC1
 1191 0004 00000000 		.word	mbox1_setup
 1192 0008 00000000 		.word	0
 1193 000c 00000000 		.word	mbox1_execute
 1194              		.text
 1195              	.Letext0:
 1196              		.file 2 "/usr/arm-none-eabi/include/stdint.h"
 1197              		.file 3 "../../../os/ports/GCC/ARMCMx/chtypes.h"
 1198              		.file 4 "../../../os/kernel/include/chlists.h"
 1199              		.file 5 "../../../os/kernel/include/chthreads.h"
 1200              		.file 6 "../../../os/ports/GCC/ARMCMx/chcore_v7m.h"
 1201              		.file 7 "../../../os/kernel/include/chsem.h"
 1202              		.file 8 "../../../os/kernel/include/chmtx.h"
 1203              		.file 9 "../../../os/kernel/include/chmboxes.h"
 1204              		.file 10 "../../../test/test.h"
 1205              		.file 11 "../../../os/kernel/include/chdebug.h"