ARM GAS  /tmp/cc2N99KH.s 			page 1


   1              		.syntax unified
   2              		.cpu cortex-m4
   3              		.fpu softvfp
   4              		.eabi_attribute 20, 1
   5              		.eabi_attribute 21, 1
   6              		.eabi_attribute 23, 3
   7              		.eabi_attribute 24, 1
   8              		.eabi_attribute 25, 1
   9              		.eabi_attribute 26, 1
  10              		.eabi_attribute 30, 2
  11              		.eabi_attribute 34, 1
  12              		.eabi_attribute 18, 4
  13              		.thumb
  14              		.file	"usb_lld.c"
  15              		.text
  16              	.Ltext0:
  17              		.cfi_sections	.debug_frame
  18              		.section	.text.usb_packet_write_from_queue,"ax",%progbits
  19              		.align	2
  20              		.p2align 4,,15
  21              		.thumb
  22              		.thumb_func
  23              		.type	usb_packet_write_from_queue, %function
  24              	usb_packet_write_from_queue:
  25              	.LFB123:
  26              		.file 1 "../../../os/hal/platforms/STM32/USBv1/usb_lld.c"
  27              		.loc 1 223 0
  28              		.cfi_startproc
  29              		@ args = 0, pretend = 0, frame = 0
  30              		@ frame_needed = 0, uses_anonymous_args = 0
  31              	.LVL0:
  32              		.loc 1 225 0
  33 0000 0368     		ldr	r3, [r0]
  34 0002 03F1005C 		add	ip, r3, #536870912
  35              		.loc 1 223 0
  36 0006 2DE9F041 		push	{r4, r5, r6, r7, r8, lr}
  37              		.cfi_def_cfa_offset 24
  38              		.cfi_offset 4, -24
  39              		.cfi_offset 5, -20
  40              		.cfi_offset 6, -16
  41              		.cfi_offset 7, -12
  42              		.cfi_offset 8, -8
  43              		.cfi_offset 14, -4
  44              		.loc 1 225 0
  45 000a 0CF5405C 		add	ip, ip, #12288
  46              		.loc 1 227 0
  47 000e 93B2     		uxth	r3, r2
  48              		.loc 1 229 0
  49 0010 5FEA5208 		lsrs	r8, r2, #1
  50              		.loc 1 223 0
  51 0014 0C46     		mov	r4, r1
  52              		.loc 1 225 0
  53 0016 4FEA4C0C 		lsl	ip, ip, #1
  54              	.LVL1:
  55              		.loc 1 227 0
  56 001a 8380     		strh	r3, [r0, #4]	@ movhi
  57              		.loc 1 229 0
ARM GAS  /tmp/cc2N99KH.s 			page 2


  58 001c 18D0     		beq	.L2
  59 001e 0E69     		ldr	r6, [r1, #16]
  60              		.loc 1 225 0
  61 0020 6546     		mov	r5, ip
  62              		.loc 1 229 0
  63 0022 4146     		mov	r1, r8
  64              	.LVL2:
  65              	.L6:
  66              	.LBB34:
  67              		.loc 1 232 0
  68 0024 A069     		ldr	r0, [r4, #24]
  69 0026 431C     		adds	r3, r0, #1
  70              		.loc 1 233 0
  71 0028 9E42     		cmp	r6, r3
  72              		.loc 1 232 0
  73 002a A361     		str	r3, [r4, #24]
  74              		.loc 1 234 0
  75 002c 98BF     		it	ls
  76 002e E368     		ldrls	r3, [r4, #12]
  77              		.loc 1 232 0
  78 0030 0778     		ldrb	r7, [r0]	@ zero_extendqisi2
  79              	.LVL3:
  80              		.loc 1 235 0
  81 0032 581C     		adds	r0, r3, #1
  82 0034 A061     		str	r0, [r4, #24]
  83 0036 1B78     		ldrb	r3, [r3]	@ zero_extendqisi2
  84              		.loc 1 236 0
  85 0038 8642     		cmp	r6, r0
  86              		.loc 1 237 0
  87 003a 9CBF     		itt	ls
  88 003c E068     		ldrls	r0, [r4, #12]
  89 003e A061     		strls	r0, [r4, #24]
  90              		.loc 1 235 0
  91 0040 47EA0323 		orr	r3, r7, r3, lsl #8
  92              	.LVL4:
  93              	.LBE34:
  94              		.loc 1 229 0
  95 0044 0139     		subs	r1, r1, #1
  96              	.LVL5:
  97              	.LBB35:
  98              		.loc 1 238 0
  99 0046 45F8043B 		str	r3, [r5], #4
 100              	.LVL6:
 101              	.LBE35:
 102              		.loc 1 229 0
 103 004a EBD1     		bne	.L6
 104 004c 0CEB880C 		add	ip, ip, r8, lsl #2
 105              	.LVL7:
 106              	.L2:
 107              		.loc 1 243 0
 108 0050 D307     		lsls	r3, r2, #31
 109 0052 0BD5     		bpl	.L8
 110              		.loc 1 244 0
 111 0054 A169     		ldr	r1, [r4, #24]
 112              		.loc 1 245 0
 113 0056 2069     		ldr	r0, [r4, #16]
 114              		.loc 1 244 0
ARM GAS  /tmp/cc2N99KH.s 			page 3


 115 0058 4B1C     		adds	r3, r1, #1
 116 005a A361     		str	r3, [r4, #24]
 117              		.loc 1 245 0
 118 005c 8342     		cmp	r3, r0
 119              		.loc 1 244 0
 120 005e 0978     		ldrb	r1, [r1]	@ zero_extendqisi2
 121              		.loc 1 246 0
 122 0060 28BF     		it	cs
 123 0062 E368     		ldrcs	r3, [r4, #12]
 124              		.loc 1 244 0
 125 0064 CCF80010 		str	r1, [ip]
 126              		.loc 1 246 0
 127 0068 28BF     		it	cs
 128 006a A361     		strcs	r3, [r4, #24]
 129              	.L8:
 130              	.LBB36:
 131              		.loc 1 252 0
 132 006c 2023     		movs	r3, #32
 133              	@ 252 "../../../os/hal/platforms/STM32/USBv1/usb_lld.c" 1
 134 006e 83F31188 		msr     BASEPRI, r3
 135              	@ 0 "" 2
 136              		.thumb
 137              	.LBE36:
 138              		.loc 1 255 0
 139 0072 A368     		ldr	r3, [r4, #8]
 140              		.loc 1 256 0
 141 0074 2068     		ldr	r0, [r4]
 142              		.loc 1 253 0
 143 0076 0C4E     		ldr	r6, .L19
 144              		.loc 1 255 0
 145 0078 1A44     		add	r2, r2, r3
 146              	.LVL8:
 147              		.loc 1 253 0
 148 007a 0121     		movs	r1, #1
 149              		.loc 1 256 0
 150 007c A042     		cmp	r0, r4
 151              		.loc 1 255 0
 152 007e A260     		str	r2, [r4, #8]
 153              		.loc 1 253 0
 154 0080 3160     		str	r1, [r6]
 155              		.loc 1 257 0
 156 0082 18BF     		it	ne
 157 0084 0025     		movne	r5, #0
 158              		.loc 1 256 0
 159 0086 08D0     		beq	.L11
 160              	.L12:
 161              	.LVL9:
 162              	.LBB37:
 163              	.LBB38:
 164              		.file 2 "../../../os/kernel/include/chinline.h"
 165              		.loc 2 55 0
 166 0088 0368     		ldr	r3, [r0]
 167 008a 2360     		str	r3, [r4]
 168 008c 5C60     		str	r4, [r3, #4]
 169              	.LBE38:
 170              	.LBE37:
 171              		.loc 1 257 0
ARM GAS  /tmp/cc2N99KH.s 			page 4


 172 008e FFF7FEFF 		bl	chSchReadyI
 173              	.LVL10:
 174 0092 8562     		str	r5, [r0, #40]
 175              		.loc 1 256 0
 176 0094 2068     		ldr	r0, [r4]
 177 0096 A042     		cmp	r0, r4
 178 0098 F6D1     		bne	.L12
 179              	.LVL11:
 180              	.L11:
 181              		.loc 1 259 0
 182 009a 0023     		movs	r3, #0
 183 009c 3360     		str	r3, [r6]
 184              	.LBB39:
 185              		.loc 1 260 0
 186              	@ 260 "../../../os/hal/platforms/STM32/USBv1/usb_lld.c" 1
 187 009e 83F31188 		msr     BASEPRI, r3
 188              	@ 0 "" 2
 189              		.thumb
 190 00a2 BDE8F081 		pop	{r4, r5, r6, r7, r8, pc}
 191              	.LVL12:
 192              	.L20:
 193 00a6 00BF     		.align	2
 194              	.L19:
 195 00a8 00000000 		.word	dbg_lock_cnt
 196              	.LBE39:
 197              		.cfi_endproc
 198              	.LFE123:
 199              		.size	usb_packet_write_from_queue, .-usb_packet_write_from_queue
 200 00ac AFF30080 		.section	.text.Vector168,"ax",%progbits
 201              		.align	2
 202              		.p2align 4,,15
 203              		.global	Vector168
 204              		.thumb
 205              		.thumb_func
 206              		.type	Vector168, %function
 207              	Vector168:
 208              	.LFB124:
 209              		.loc 1 276 0
 210              		.cfi_startproc
 211              		@ args = 0, pretend = 0, frame = 0
 212              		@ frame_needed = 0, uses_anonymous_args = 0
 213 0000 08B5     		push	{r3, lr}
 214              		.cfi_def_cfa_offset 8
 215              		.cfi_offset 3, -8
 216              		.cfi_offset 14, -4
 217              		.loc 1 278 0
 218 0002 FFF7FEFF 		bl	dbg_check_enter_isr
 219              	.LVL13:
 220              		.loc 1 280 0
 221 0006 FFF7FEFF 		bl	dbg_check_leave_isr
 222              	.LVL14:
 223              		.loc 1 281 0
 224 000a BDE80840 		pop	{r3, lr}
 225              		.loc 1 280 0
 226 000e FFF7FEBF 		b	_port_irq_epilogue
 227              	.LVL15:
 228              		.cfi_endproc
ARM GAS  /tmp/cc2N99KH.s 			page 5


 229              	.LFE124:
 230              		.size	Vector168, .-Vector168
 231 0012 00BFAFF3 		.section	.text.Vector16C,"ax",%progbits
 231      0080AFF3 
 231      0080AFF3 
 231      0080
 232              		.align	2
 233              		.p2align 4,,15
 234              		.global	Vector16C
 235              		.thumb
 236              		.thumb_func
 237              		.type	Vector16C, %function
 238              	Vector16C:
 239              	.LFB125:
 240              		.loc 1 291 0
 241              		.cfi_startproc
 242              		@ args = 0, pretend = 0, frame = 8
 243              		@ frame_needed = 0, uses_anonymous_args = 0
 244              	.LVL16:
 245 0000 2DE9F04F 		push	{r4, r5, r6, r7, r8, r9, r10, fp, lr}
 246              		.cfi_def_cfa_offset 36
 247              		.cfi_offset 4, -36
 248              		.cfi_offset 5, -32
 249              		.cfi_offset 6, -28
 250              		.cfi_offset 7, -24
 251              		.cfi_offset 8, -20
 252              		.cfi_offset 9, -16
 253              		.cfi_offset 10, -12
 254              		.cfi_offset 11, -8
 255              		.cfi_offset 14, -4
 256 0004 83B0     		sub	sp, sp, #12
 257              		.cfi_def_cfa_offset 48
 258              		.loc 1 295 0
 259 0006 FFF7FEFF 		bl	dbg_check_enter_isr
 260              	.LVL17:
 261              		.loc 1 297 0
 262 000a 924B     		ldr	r3, .L111
 263 000c 5E6C     		ldr	r6, [r3, #68]
 264              	.LVL18:
 265              		.loc 1 300 0
 266 000e 7105     		lsls	r1, r6, #21
 267 0010 00F19F81 		bmi	.L106
 268              	.L23:
 269              		.loc 1 307 0
 270 0014 3205     		lsls	r2, r6, #20
 271 0016 11D5     		bpl	.L25
 272              		.loc 1 309 0
 273 0018 DFF83CB2 		ldr	fp, .L111+4
 274              		.loc 1 308 0
 275 001c 8D4B     		ldr	r3, .L111
 276              		.loc 1 309 0
 277 001e DBF80420 		ldr	r2, [fp, #4]
 278              		.loc 1 308 0
 279 0022 196C     		ldr	r1, [r3, #64]
 280              		.loc 1 309 0
 281 0024 1268     		ldr	r2, [r2]
 282              		.loc 1 308 0
ARM GAS  /tmp/cc2N99KH.s 			page 6


 283 0026 41F00801 		orr	r1, r1, #8
 284 002a 1964     		str	r1, [r3, #64]
 285              		.loc 1 309 0
 286 002c 12B1     		cbz	r2, .L26
 287              		.loc 1 309 0 is_stmt 0 discriminator 1
 288 002e 5846     		mov	r0, fp
 289 0030 0321     		movs	r1, #3
 290 0032 9047     		blx	r2
 291              	.LVL19:
 292              	.L26:
 293              		.loc 1 313 0 is_stmt 1
 294 0034 874B     		ldr	r3, .L111
 295 0036 6FF40062 		mvn	r2, #2048
 296 003a 5A64     		str	r2, [r3, #68]
 297              	.L25:
 298              		.loc 1 317 0
 299 003c F304     		lsls	r3, r6, #19
 300 003e 08D5     		bpl	.L27
 301              	.LBB59:
 302              		.loc 1 318 0
 303 0040 844B     		ldr	r3, .L111
 304 0042 9A6C     		ldr	r2, [r3, #72]
 305              	.LVL20:
 306              		.loc 1 319 0
 307 0044 1704     		lsls	r7, r2, #16
 308 0046 40F17481 		bpl	.L107
 309              	.LVL21:
 310              	.L29:
 311              		.loc 1 330 0
 312 004a 824B     		ldr	r3, .L111
 313 004c 6FF48052 		mvn	r2, #4096
 314 0050 5A64     		str	r2, [r3, #68]
 315              	.L27:
 316              	.LBE59:
 317              		.loc 1 334 0
 318 0052 B505     		lsls	r5, r6, #22
 319 0054 0BD5     		bpl	.L31
 320              		.loc 1 335 0
 321 0056 DFF800B2 		ldr	fp, .L111+4
 322 005a DBF80430 		ldr	r3, [fp, #4]
 323 005e DB68     		ldr	r3, [r3, #12]
 324 0060 0BB1     		cbz	r3, .L32
 325              		.loc 1 335 0 is_stmt 0 discriminator 1
 326 0062 5846     		mov	r0, fp
 327 0064 9847     		blx	r3
 328              	.LVL22:
 329              	.L32:
 330              		.loc 1 336 0 is_stmt 1
 331 0066 7B4B     		ldr	r3, .L111
 332 0068 6FF40072 		mvn	r2, #512
 333 006c 5A64     		str	r2, [r3, #68]
 334              	.L31:
 335              		.loc 1 340 0 discriminator 1
 336 006e 3404     		lsls	r4, r6, #16
 337 0070 40F1BF80 		bpl	.L61
 338 0074 DFF8E0B1 		ldr	fp, .L111+4
 339              	.L62:
ARM GAS  /tmp/cc2N99KH.s 			page 7


 340              	.LBB60:
 341              		.loc 1 343 0
 342 0078 06F00F06 		and	r6, r6, #15
 343              	.LVL23:
 344 007c 4FEA8609 		lsl	r9, r6, #2
 345 0080 09F18045 		add	r5, r9, #1073741824
 346 0084 05F5B845 		add	r5, r5, #23552
 347              		.loc 1 344 0
 348 0088 06F10208 		add	r8, r6, #2
 349              		.loc 1 343 0
 350 008c 2C68     		ldr	r4, [r5]
 351              	.LVL24:
 352              		.loc 1 344 0
 353 008e 0BEB8803 		add	r3, fp, r8, lsl #2
 354              		.loc 1 346 0
 355 0092 2006     		lsls	r0, r4, #24
 356              		.loc 1 344 0
 357 0094 5F68     		ldr	r7, [r3, #4]
 358              	.LVL25:
 359              		.loc 1 346 0
 360 0096 5BD5     		bpl	.L34
 361              	.LBB61:
 362              		.loc 1 349 0
 363 0098 2B68     		ldr	r3, [r5]
 364              		.loc 1 351 0
 365 009a 6E48     		ldr	r0, .L111
 366              		.loc 1 352 0
 367 009c 7969     		ldr	r1, [r7, #20]
 368              		.loc 1 349 0
 369 009e 23F4F143 		bic	r3, r3, #30848
 370 00a2 23F07003 		bic	r3, r3, #112
 371 00a6 2B60     		str	r3, [r5]
 372              		.loc 1 351 0
 373 00a8 026D     		ldr	r2, [r0, #80]
 374              		.loc 1 352 0
 375 00aa 8B68     		ldr	r3, [r1, #8]
 376              		.loc 1 353 0
 377 00ac 4868     		ldr	r0, [r1, #4]
 378              		.loc 1 351 0
 379 00ae 02F10052 		add	r2, r2, #536870912
 380 00b2 02F54052 		add	r2, r2, #12288
 381 00b6 4FEAC60E 		lsl	lr, r6, #3
 382 00ba 7244     		add	r2, r2, lr
 383 00bc 5200     		lsls	r2, r2, #1
 384 00be B2F804C0 		ldrh	ip, [r2, #4]
 385 00c2 1FFA8CFC 		uxth	ip, ip
 386              	.LVL26:
 387              		.loc 1 352 0
 388 00c6 6344     		add	r3, r3, ip
 389              	.LVL27:
 390 00c8 8B60     		str	r3, [r1, #8]
 391              		.loc 1 354 0
 392 00ca C31A     		subs	r3, r0, r3
 393              	.LVL28:
 394 00cc 00F0B380 		beq	.L35
 395              		.loc 1 356 0
 396 00d0 3A8A     		ldrh	r2, [r7, #16]
ARM GAS  /tmp/cc2N99KH.s 			page 8


 397              		.loc 1 359 0
 398 00d2 0878     		ldrb	r0, [r1]	@ zero_extendqisi2
 399 00d4 9342     		cmp	r3, r2
 400 00d6 38BF     		it	cc
 401 00d8 1A46     		movcc	r2, r3
 402              	.LVL29:
 403 00da 0028     		cmp	r0, #0
 404 00dc 40F01C81 		bne	.L108
 405              		.loc 1 364 0
 406 00e0 C868     		ldr	r0, [r1, #12]
 407 00e2 6044     		add	r0, r0, ip
 408 00e4 C860     		str	r0, [r1, #12]
 409              		.loc 1 365 0
 410 00e6 5B49     		ldr	r1, .L111
 411 00e8 0B6D     		ldr	r3, [r1, #80]
 412 00ea 03F10053 		add	r3, r3, #536870912
 413 00ee 03F54053 		add	r3, r3, #12288
 414 00f2 7344     		add	r3, r3, lr
 415 00f4 5B00     		lsls	r3, r3, #1
 416              	.LVL30:
 417              	.LBB62:
 418              	.LBB63:
 419              		.loc 1 201 0
 420 00f6 1FFA82FE 		uxth	lr, r2
 421              		.loc 1 199 0
 422 00fa 1968     		ldr	r1, [r3]
 423              		.loc 1 201 0
 424 00fc A3F804E0 		strh	lr, [r3, #4]	@ movhi
 425              		.loc 1 199 0
 426 0100 01F10051 		add	r1, r1, #536870912
 427              		.loc 1 202 0
 428 0104 531C     		adds	r3, r2, #1
 429              	.LVL31:
 430              		.loc 1 199 0
 431 0106 01F54051 		add	r1, r1, #12288
 432              		.loc 1 203 0
 433 010a 5B08     		lsrs	r3, r3, #1
 434              		.loc 1 199 0
 435 010c 4FEA4101 		lsl	r1, r1, #1
 436              	.LVL32:
 437              		.loc 1 203 0
 438 0110 06D0     		beq	.L37
 439 0112 821E     		subs	r2, r0, #2
 440              	.LVL33:
 441              	.L40:
 442              		.loc 1 206 0
 443 0114 32F8020F 		ldrh	r0, [r2, #2]!
 444              	.LVL34:
 445 0118 41F8040B 		str	r0, [r1], #4
 446              	.LVL35:
 447              		.loc 1 203 0
 448 011c 013B     		subs	r3, r3, #1
 449              	.LVL36:
 450 011e F9D1     		bne	.L40
 451              	.LVL37:
 452              	.L37:
 453              	.LBE63:
ARM GAS  /tmp/cc2N99KH.s 			page 9


 454              	.LBE62:
 455              	.LBB64:
 456              		.loc 1 369 0 discriminator 1
 457 0120 2023     		movs	r3, #32
 458              	@ 369 "../../../os/hal/platforms/STM32/USBv1/usb_lld.c" 1
 459 0122 83F31188 		msr     BASEPRI, r3
 460              	@ 0 "" 2
 461              		.thumb
 462 0126 09F18049 		add	r9, r9, #1073741824
 463 012a 09F5B849 		add	r9, r9, #23552
 464              	.LBE64:
 465 012e FFF7FEFF 		bl	dbg_check_lock_from_isr
 466              	.LVL38:
 467              	.LBB65:
 468              	.LBB66:
 469              		.loc 1 759 0 discriminator 1
 470 0132 D9F80030 		ldr	r3, [r9]
 471 0136 23F4F043 		bic	r3, r3, #30720
 472 013a 23F04003 		bic	r3, r3, #64
 473 013e 83F03003 		eor	r3, r3, #48
 474 0142 C9F80030 		str	r3, [r9]
 475              	.LBE66:
 476              	.LBE65:
 477              		.loc 1 371 0 discriminator 1
 478 0146 FFF7FEFF 		bl	dbg_check_unlock_from_isr
 479              	.LVL39:
 480              	.LBB67:
 481 014a 0023     		movs	r3, #0
 482              	@ 371 "../../../os/hal/platforms/STM32/USBv1/usb_lld.c" 1
 483 014c 83F31188 		msr     BASEPRI, r3
 484              	@ 0 "" 2
 485              	.LVL40:
 486              		.thumb
 487              	.L34:
 488              	.LBE67:
 489              	.LBE61:
 490              		.loc 1 378 0
 491 0150 2104     		lsls	r1, r4, #16
 492 0152 47D5     		bpl	.L41
 493              		.loc 1 379 0
 494 0154 2B68     		ldr	r3, [r5]
 495 0156 23F47843 		bic	r3, r3, #63488
 496 015a 23F07003 		bic	r3, r3, #112
 497              		.loc 1 381 0
 498 015e 2205     		lsls	r2, r4, #20
 499              		.loc 1 379 0
 500 0160 2B60     		str	r3, [r5]
 501              		.loc 1 381 0
 502 0162 5FD4     		bmi	.L109
 503              	.LBB68:
 504              		.loc 1 387 0
 505 0164 3B48     		ldr	r0, .L111
 506              		.loc 1 391 0
 507 0166 BC69     		ldr	r4, [r7, #24]
 508              	.LVL41:
 509              		.loc 1 387 0
 510 0168 036D     		ldr	r3, [r0, #80]
ARM GAS  /tmp/cc2N99KH.s 			page 10


 511              		.loc 1 391 0
 512 016a 2278     		ldrb	r2, [r4]	@ zero_extendqisi2
 513              		.loc 1 387 0
 514 016c 03F10053 		add	r3, r3, #536870912
 515 0170 03F54053 		add	r3, r3, #12288
 516 0174 03EBC603 		add	r3, r3, r6, lsl #3
 517 0178 5B00     		lsls	r3, r3, #1
 518              	.LVL42:
 519              		.loc 1 388 0
 520 017a B3F80CE0 		ldrh	lr, [r3, #12]
 521 017e 1FFA8EFE 		uxth	lr, lr
 522 0182 CEF30909 		ubfx	r9, lr, #0, #10
 523              	.LVL43:
 524              		.loc 1 391 0
 525 0186 002A     		cmp	r2, #0
 526 0188 68D1     		bne	.L110
 527              	.LBB69:
 528              	.LBB70:
 529              		.loc 1 131 0
 530 018a 9968     		ldr	r1, [r3, #8]
 531              	.LBE70:
 532              	.LBE69:
 533              		.loc 1 396 0
 534 018c E268     		ldr	r2, [r4, #12]
 535              	.LVL44:
 536              	.LBB72:
 537              	.LBB71:
 538              		.loc 1 131 0
 539 018e 01F10051 		add	r1, r1, #536870912
 540              		.loc 1 133 0
 541 0192 09F10103 		add	r3, r9, #1
 542              	.LVL45:
 543              		.loc 1 131 0
 544 0196 01F54051 		add	r1, r1, #12288
 545              		.loc 1 134 0
 546 019a 5B08     		lsrs	r3, r3, #1
 547              		.loc 1 131 0
 548 019c 4FEA4101 		lsl	r1, r1, #1
 549              	.LVL46:
 550              		.loc 1 134 0
 551 01a0 06D0     		beq	.L56
 552              	.L58:
 553              	.LVL47:
 554              		.loc 1 137 0
 555 01a2 51F8040B 		ldr	r0, [r1], #4
 556              	.LVL48:
 557 01a6 22F8020B 		strh	r0, [r2], #2	@ movhi
 558              	.LVL49:
 559              		.loc 1 134 0
 560 01aa 013B     		subs	r3, r3, #1
 561              	.LVL50:
 562 01ac F9D1     		bne	.L58
 563 01ae E268     		ldr	r2, [r4, #12]
 564              	.LVL51:
 565              	.L56:
 566              	.LBE71:
 567              	.LBE72:
ARM GAS  /tmp/cc2N99KH.s 			page 11


 568              		.loc 1 399 0
 569 01b0 4A44     		add	r2, r2, r9
 570 01b2 E260     		str	r2, [r4, #12]
 571 01b4 2346     		mov	r3, r4
 572              	.LVL52:
 573              	.L53:
 574              		.loc 1 404 0
 575 01b6 1A8A     		ldrh	r2, [r3, #16]
 576              		.loc 1 408 0
 577 01b8 7C8A     		ldrh	r4, [r7, #18]
 578              		.loc 1 402 0
 579 01ba 9868     		ldr	r0, [r3, #8]
 580              		.loc 1 403 0
 581 01bc 5968     		ldr	r1, [r3, #4]
 582              		.loc 1 404 0
 583 01be 013A     		subs	r2, r2, #1
 584 01c0 92B2     		uxth	r2, r2
 585              		.loc 1 402 0
 586 01c2 4844     		add	r0, r0, r9
 587              		.loc 1 403 0
 588 01c4 C9EB0101 		rsb	r1, r9, r1
 589              		.loc 1 408 0
 590 01c8 A145     		cmp	r9, r4
 591              		.loc 1 404 0
 592 01ca 1A82     		strh	r2, [r3, #16]	@ movhi
 593              		.loc 1 402 0
 594 01cc 9860     		str	r0, [r3, #8]
 595              		.loc 1 403 0
 596 01ce 5960     		str	r1, [r3, #4]
 597              		.loc 1 408 0
 598 01d0 16D3     		bcc	.L59
 599              		.loc 1 408 0 is_stmt 0 discriminator 1
 600 01d2 AAB1     		cbz	r2, .L59
 601              		.loc 1 414 0 is_stmt 1
 602 01d4 2B68     		ldr	r3, [r5]
 603 01d6 23F49043 		bic	r3, r3, #18432
 604 01da 23F07003 		bic	r3, r3, #112
 605 01de 83F44053 		eor	r3, r3, #12288
 606 01e2 2B60     		str	r3, [r5]
 607              	.LVL53:
 608              	.L41:
 609              	.LBE68:
 610              		.loc 1 418 0
 611 01e4 DFF86CE0 		ldr	lr, .L111
 612 01e8 DEF84460 		ldr	r6, [lr, #68]
 613              	.LVL54:
 614              	.LBE60:
 615              		.loc 1 340 0
 616 01ec 3304     		lsls	r3, r6, #16
 617 01ee 3FF543AF 		bmi	.L62
 618              	.LVL55:
 619              	.L61:
 620              		.loc 1 421 0
 621 01f2 FFF7FEFF 		bl	dbg_check_leave_isr
 622              	.LVL56:
 623              		.loc 1 422 0
 624 01f6 03B0     		add	sp, sp, #12
ARM GAS  /tmp/cc2N99KH.s 			page 12


 625              		@ sp needed
 626 01f8 BDE8F04F 		pop	{r4, r5, r6, r7, r8, r9, r10, fp, lr}
 627              	.LVL57:
 628              		.loc 1 421 0
 629 01fc FFF7FEBF 		b	_port_irq_epilogue
 630              	.LVL58:
 631              	.L59:
 632              	.LBB86:
 633              	.LBB82:
 634              		.loc 1 410 0
 635 0200 0BEB8808 		add	r8, fp, r8, lsl #2
 636 0204 BBF80A20 		ldrh	r2, [fp, #10]
 637 0208 D8F80430 		ldr	r3, [r8, #4]
 638 020c 1248     		ldr	r0, .L111+4
 639 020e DB68     		ldr	r3, [r3, #12]
 640 0210 0124     		movs	r4, #1
 641 0212 04FA06F1 		lsl	r1, r4, r6
 642 0216 22EA0102 		bic	r2, r2, r1
 643 021a ABF80A20 		strh	r2, [fp, #10]	@ movhi
 644 021e 3146     		mov	r1, r6
 645 0220 9847     		blx	r3
 646              	.LVL59:
 647 0222 DFE7     		b	.L41
 648              	.LVL60:
 649              	.L109:
 650              	.LBE82:
 651              		.loc 1 384 0
 652 0224 0BEB8808 		add	r8, fp, r8, lsl #2
 653 0228 3146     		mov	r1, r6
 654 022a D8F80430 		ldr	r3, [r8, #4]
 655 022e 0A48     		ldr	r0, .L111+4
 656 0230 5B68     		ldr	r3, [r3, #4]
 657 0232 9847     		blx	r3
 658              	.LVL61:
 659 0234 D6E7     		b	.L41
 660              	.LVL62:
 661              	.L35:
 662              	.LBB83:
 663              		.loc 1 375 0
 664 0236 084B     		ldr	r3, .L111+4
 665              	.LVL63:
 666 0238 0748     		ldr	r0, .L111+4
 667              	.LVL64:
 668 023a 1A89     		ldrh	r2, [r3, #8]
 669 023c BB68     		ldr	r3, [r7, #8]
 670 023e 4FF0010E 		mov	lr, #1
 671 0242 0EFA06F1 		lsl	r1, lr, r6
 672              	.LVL65:
 673 0246 22EA0102 		bic	r2, r2, r1
 674 024a 0281     		strh	r2, [r0, #8]	@ movhi
 675 024c 3146     		mov	r1, r6
 676 024e 9847     		blx	r3
 677              	.LVL66:
 678 0250 7EE7     		b	.L34
 679              	.L112:
 680 0252 00BF     		.align	2
 681              	.L111:
ARM GAS  /tmp/cc2N99KH.s 			page 13


 682 0254 005C0040 		.word	1073765376
 683 0258 00000000 		.word	.LANCHOR0
 684              	.LVL67:
 685              	.L110:
 686              	.LBE83:
 687              	.LBB84:
 688              	.LBB73:
 689              	.LBB74:
 690              		.loc 1 156 0
 691 025c 9B68     		ldr	r3, [r3, #8]
 692              	.LVL68:
 693              	.LBE74:
 694              	.LBE73:
 695              		.loc 1 392 0
 696 025e E468     		ldr	r4, [r4, #12]
 697              	.LVL69:
 698              	.LBB81:
 699              	.LBB80:
 700              		.loc 1 156 0
 701 0260 03F10053 		add	r3, r3, #536870912
 702 0264 03F54053 		add	r3, r3, #12288
 703 0268 5B00     		lsls	r3, r3, #1
 704              		.loc 1 159 0
 705 026a 5FEA5901 		lsrs	r1, r9, #1
 706              		.loc 1 156 0
 707 026e 0093     		str	r3, [sp]
 708              	.LVL70:
 709              		.loc 1 159 0
 710 0270 0191     		str	r1, [sp, #4]
 711 0272 21D0     		beq	.L44
 712              		.loc 1 156 0
 713 0274 0098     		ldr	r0, [sp]
 714              		.loc 1 159 0
 715 0276 0B46     		mov	r3, r1
 716              	.LVL71:
 717              	.L48:
 718              	.LBB75:
 719              		.loc 1 163 0
 720 0278 6269     		ldr	r2, [r4, #20]
 721              		.loc 1 162 0
 722 027a 50F8041B 		ldr	r1, [r0], #4
 723              	.LVL72:
 724              		.loc 1 163 0
 725 027e 02F1010A 		add	r10, r2, #1
 726 0282 C4F814A0 		str	r10, [r4, #20]
 727 0286 1170     		strb	r1, [r2]
 728              		.loc 1 164 0
 729 0288 2269     		ldr	r2, [r4, #16]
 730              		.loc 1 166 0
 731 028a 4FEA112C 		lsr	ip, r1, #8
 732              		.loc 1 164 0
 733 028e 6169     		ldr	r1, [r4, #20]
 734              	.LVL73:
 735 0290 9142     		cmp	r1, r2
 736              		.loc 1 165 0
 737 0292 28BF     		it	cs
 738 0294 E168     		ldrcs	r1, [r4, #12]
ARM GAS  /tmp/cc2N99KH.s 			page 14


 739              		.loc 1 166 0
 740 0296 4A1C     		adds	r2, r1, #1
 741 0298 6261     		str	r2, [r4, #20]
 742 029a 81F800C0 		strb	ip, [r1]
 743              		.loc 1 167 0
 744 029e 2269     		ldr	r2, [r4, #16]
 745 02a0 6169     		ldr	r1, [r4, #20]
 746 02a2 9142     		cmp	r1, r2
 747              		.loc 1 168 0
 748 02a4 24BF     		itt	cs
 749 02a6 E268     		ldrcs	r2, [r4, #12]
 750 02a8 6261     		strcs	r2, [r4, #20]
 751              	.LBE75:
 752              		.loc 1 159 0
 753 02aa 013B     		subs	r3, r3, #1
 754              	.LVL74:
 755 02ac E4D1     		bne	.L48
 756 02ae 9DE80C00 		ldmia	sp, {r2, r3}
 757              	.LVL75:
 758 02b2 02EB8302 		add	r2, r2, r3, lsl #2
 759 02b6 0092     		str	r2, [sp]
 760              	.LVL76:
 761              	.L44:
 762              		.loc 1 172 0
 763 02b8 1EF0010F 		tst	lr, #1
 764 02bc 0DD0     		beq	.L50
 765              		.loc 1 173 0
 766 02be 6369     		ldr	r3, [r4, #20]
 767 02c0 DDF800E0 		ldr	lr, [sp]
 768 02c4 591C     		adds	r1, r3, #1
 769 02c6 DEF80020 		ldr	r2, [lr]
 770 02ca 6161     		str	r1, [r4, #20]
 771 02cc 1A70     		strb	r2, [r3]
 772              		.loc 1 174 0
 773 02ce 2369     		ldr	r3, [r4, #16]
 774 02d0 6269     		ldr	r2, [r4, #20]
 775 02d2 9A42     		cmp	r2, r3
 776              		.loc 1 175 0
 777 02d4 24BF     		itt	cs
 778 02d6 E368     		ldrcs	r3, [r4, #12]
 779 02d8 6361     		strcs	r3, [r4, #20]
 780              	.L50:
 781              	.LBB76:
 782              		.loc 1 179 0
 783 02da 2023     		movs	r3, #32
 784              	@ 179 "../../../os/hal/platforms/STM32/USBv1/usb_lld.c" 1
 785 02dc 83F31188 		msr     BASEPRI, r3
 786              	@ 0 "" 2
 787              		.thumb
 788              	.LBE76:
 789 02e0 FFF7FEFF 		bl	dbg_check_lock_from_isr
 790              	.LVL77:
 791              		.loc 1 180 0
 792 02e4 A368     		ldr	r3, [r4, #8]
 793              		.loc 1 181 0
 794 02e6 2068     		ldr	r0, [r4]
 795              		.loc 1 180 0
ARM GAS  /tmp/cc2N99KH.s 			page 15


 796 02e8 4B44     		add	r3, r3, r9
 797              		.loc 1 181 0
 798 02ea A042     		cmp	r0, r4
 799              		.loc 1 180 0
 800 02ec A360     		str	r3, [r4, #8]
 801              		.loc 1 182 0
 802 02ee 18BF     		it	ne
 803 02f0 4FF0000A 		movne	r10, #0
 804              		.loc 1 181 0
 805 02f4 09D0     		beq	.L54
 806              	.L55:
 807              	.LVL78:
 808              	.LBB77:
 809              	.LBB78:
 810              		.loc 2 55 0
 811 02f6 0368     		ldr	r3, [r0]
 812 02f8 2360     		str	r3, [r4]
 813 02fa 5C60     		str	r4, [r3, #4]
 814              	.LBE78:
 815              	.LBE77:
 816              		.loc 1 182 0
 817 02fc FFF7FEFF 		bl	chSchReadyI
 818              	.LVL79:
 819 0300 C0F828A0 		str	r10, [r0, #40]
 820              		.loc 1 181 0
 821 0304 2068     		ldr	r0, [r4]
 822 0306 A042     		cmp	r0, r4
 823 0308 F5D1     		bne	.L55
 824              	.LVL80:
 825              	.L54:
 826              		.loc 1 183 0
 827 030a FFF7FEFF 		bl	dbg_check_unlock_from_isr
 828              	.LVL81:
 829              	.LBB79:
 830 030e 0023     		movs	r3, #0
 831              	@ 183 "../../../os/hal/platforms/STM32/USBv1/usb_lld.c" 1
 832 0310 83F31188 		msr     BASEPRI, r3
 833              	@ 0 "" 2
 834              		.thumb
 835 0314 BB69     		ldr	r3, [r7, #24]
 836 0316 4EE7     		b	.L53
 837              	.LVL82:
 838              	.L108:
 839              	.LBE79:
 840              	.LBE80:
 841              	.LBE81:
 842              	.LBE84:
 843              	.LBB85:
 844              		.loc 1 360 0
 845 0318 1648     		ldr	r0, .L113
 846 031a C968     		ldr	r1, [r1, #12]
 847 031c 036D     		ldr	r3, [r0, #80]
 848 031e 03F10053 		add	r3, r3, #536870912
 849 0322 03F54053 		add	r3, r3, #12288
 850 0326 03EB0E00 		add	r0, r3, lr
 851 032a 4000     		lsls	r0, r0, #1
 852 032c FFF7FEFF 		bl	usb_packet_write_from_queue
ARM GAS  /tmp/cc2N99KH.s 			page 16


 853              	.LVL83:
 854 0330 F6E6     		b	.L37
 855              	.LVL84:
 856              	.L107:
 857              	.LBE85:
 858              	.LBE86:
 859              	.LBB87:
 860              		.loc 1 321 0
 861 0332 DFF844B0 		ldr	fp, .L113+4
 862              		.loc 1 320 0
 863 0336 196C     		ldr	r1, [r3, #64]
 864              		.loc 1 321 0
 865 0338 DBF80420 		ldr	r2, [fp, #4]
 866              	.LVL85:
 867 033c 1268     		ldr	r2, [r2]
 868              		.loc 1 320 0
 869 033e 21F00801 		bic	r1, r1, #8
 870 0342 1964     		str	r1, [r3, #64]
 871              		.loc 1 321 0
 872 0344 002A     		cmp	r2, #0
 873 0346 3FF480AE 		beq	.L29
 874              		.loc 1 321 0 is_stmt 0 discriminator 1
 875 034a 5846     		mov	r0, fp
 876 034c 0421     		movs	r1, #4
 877 034e 9047     		blx	r2
 878              	.LVL86:
 879 0350 7BE6     		b	.L29
 880              	.L106:
 881              	.LBE87:
 882              		.loc 1 301 0 is_stmt 1
 883 0352 DFF824B0 		ldr	fp, .L113+4
 884 0356 5846     		mov	r0, fp
 885 0358 FFF7FEFF 		bl	_usb_reset
 886              	.LVL87:
 887              		.loc 1 302 0
 888 035c DBF80430 		ldr	r3, [fp, #4]
 889 0360 1B68     		ldr	r3, [r3]
 890 0362 13B1     		cbz	r3, .L24
 891              		.loc 1 302 0 is_stmt 0 discriminator 1
 892 0364 5846     		mov	r0, fp
 893 0366 0021     		movs	r1, #0
 894 0368 9847     		blx	r3
 895              	.LVL88:
 896              	.L24:
 897              		.loc 1 303 0 is_stmt 1
 898 036a 024B     		ldr	r3, .L113
 899 036c 6FF48062 		mvn	r2, #1024
 900 0370 5A64     		str	r2, [r3, #68]
 901 0372 4FE6     		b	.L23
 902              	.L114:
 903              		.align	2
 904              	.L113:
 905 0374 005C0040 		.word	1073765376
 906 0378 00000000 		.word	.LANCHOR0
 907              		.cfi_endproc
 908              	.LFE125:
 909              		.size	Vector16C, .-Vector16C
ARM GAS  /tmp/cc2N99KH.s 			page 17


 910 037c AFF30080 		.section	.text.usb_lld_init,"ax",%progbits
 911              		.align	2
 912              		.p2align 4,,15
 913              		.global	usb_lld_init
 914              		.thumb
 915              		.thumb_func
 916              		.type	usb_lld_init, %function
 917              	usb_lld_init:
 918              	.LFB126:
 919              		.loc 1 434 0
 920              		.cfi_startproc
 921              		@ args = 0, pretend = 0, frame = 0
 922              		@ frame_needed = 0, uses_anonymous_args = 0
 923              		@ link register save eliminated.
 924              		.loc 1 437 0
 925 0000 0148     		ldr	r0, .L116
 926 0002 FFF7FEBF 		b	usbObjectInit
 927              	.LVL89:
 928              	.L117:
 929 0006 00BF     		.align	2
 930              	.L116:
 931 0008 00000000 		.word	.LANCHOR0
 932              		.cfi_endproc
 933              	.LFE126:
 934              		.size	usb_lld_init, .-usb_lld_init
 935 000c AFF30080 		.section	.text.usb_lld_start,"ax",%progbits
 936              		.align	2
 937              		.p2align 4,,15
 938              		.global	usb_lld_start
 939              		.thumb
 940              		.thumb_func
 941              		.type	usb_lld_start, %function
 942              	usb_lld_start:
 943              	.LFB127:
 944              		.loc 1 447 0
 945              		.cfi_startproc
 946              		@ args = 0, pretend = 0, frame = 0
 947              		@ frame_needed = 0, uses_anonymous_args = 0
 948              	.LVL90:
 949 0000 38B5     		push	{r3, r4, r5, lr}
 950              		.cfi_def_cfa_offset 16
 951              		.cfi_offset 3, -16
 952              		.cfi_offset 4, -12
 953              		.cfi_offset 5, -8
 954              		.cfi_offset 14, -4
 955              		.loc 1 449 0
 956 0002 0378     		ldrb	r3, [r0]	@ zero_extendqisi2
 957 0004 012B     		cmp	r3, #1
 958              		.loc 1 447 0
 959 0006 0446     		mov	r4, r0
 960              		.loc 1 449 0
 961 0008 00D0     		beq	.L121
 962 000a 38BD     		pop	{r3, r4, r5, pc}
 963              	.L121:
 964              		.loc 1 452 0
 965 000c 0C4A     		ldr	r2, .L123
 966 000e 9042     		cmp	r0, r2
ARM GAS  /tmp/cc2N99KH.s 			page 18


 967 0010 04D0     		beq	.L122
 968              	.LVL91:
 969              	.L120:
 970              		.loc 1 468 0
 971 0012 2046     		mov	r0, r4
 972              		.loc 1 471 0
 973 0014 BDE83840 		pop	{r3, r4, r5, lr}
 974              	.LVL92:
 975              		.loc 1 468 0
 976 0018 FFF7FEBF 		b	_usb_reset
 977              	.LVL93:
 978              	.L122:
 979              		.loc 1 454 0
 980 001c 094A     		ldr	r2, .L123+4
 981              		.loc 1 456 0
 982 001e 0A4D     		ldr	r5, .L123+8
 983              		.loc 1 454 0
 984 0020 D169     		ldr	r1, [r2, #28]
 985 0022 41F40001 		orr	r1, r1, #8388608
 986 0026 D161     		str	r1, [r2, #28]
 987              		.loc 1 459 0
 988 0028 4A20     		movs	r0, #74
 989              	.LVL94:
 990              		.loc 1 456 0
 991 002a 2B64     		str	r3, [r5, #64]
 992              		.loc 1 459 0
 993 002c D021     		movs	r1, #208
 994 002e FFF7FEFF 		bl	nvicEnableVector
 995              	.LVL95:
 996              		.loc 1 461 0
 997 0032 4B20     		movs	r0, #75
 998 0034 E021     		movs	r1, #224
 999 0036 FFF7FEFF 		bl	nvicEnableVector
 1000              	.LVL96:
 1001              		.loc 1 464 0
 1002 003a 0023     		movs	r3, #0
 1003 003c 2B64     		str	r3, [r5, #64]
 1004 003e E8E7     		b	.L120
 1005              	.L124:
 1006              		.align	2
 1007              	.L123:
 1008 0040 00000000 		.word	.LANCHOR0
 1009 0044 00100240 		.word	1073876992
 1010 0048 005C0040 		.word	1073765376
 1011              		.cfi_endproc
 1012              	.LFE127:
 1013              		.size	usb_lld_start, .-usb_lld_start
 1014 004c AFF30080 		.section	.text.usb_lld_stop,"ax",%progbits
 1015              		.align	2
 1016              		.p2align 4,,15
 1017              		.global	usb_lld_stop
 1018              		.thumb
 1019              		.thumb_func
 1020              		.type	usb_lld_stop, %function
 1021              	usb_lld_stop:
 1022              	.LFB128:
 1023              		.loc 1 480 0
ARM GAS  /tmp/cc2N99KH.s 			page 19


 1024              		.cfi_startproc
 1025              		@ args = 0, pretend = 0, frame = 0
 1026              		@ frame_needed = 0, uses_anonymous_args = 0
 1027              	.LVL97:
 1028 0000 08B5     		push	{r3, lr}
 1029              		.cfi_def_cfa_offset 8
 1030              		.cfi_offset 3, -8
 1031              		.cfi_offset 14, -4
 1032              		.loc 1 483 0
 1033 0002 0378     		ldrb	r3, [r0]	@ zero_extendqisi2
 1034 0004 012B     		cmp	r3, #1
 1035 0006 00D0     		beq	.L127
 1036              	.LVL98:
 1037              	.L125:
 1038 0008 08BD     		pop	{r3, pc}
 1039              	.LVL99:
 1040              	.L127:
 1041              		.loc 1 485 0
 1042 000a 094B     		ldr	r3, .L128
 1043 000c 9842     		cmp	r0, r3
 1044 000e FBD1     		bne	.L125
 1045              		.loc 1 486 0
 1046 0010 4A20     		movs	r0, #74
 1047              	.LVL100:
 1048 0012 FFF7FEFF 		bl	nvicDisableVector
 1049              	.LVL101:
 1050              		.loc 1 487 0
 1051 0016 4B20     		movs	r0, #75
 1052 0018 FFF7FEFF 		bl	nvicDisableVector
 1053              	.LVL102:
 1054              		.loc 1 488 0
 1055 001c 054A     		ldr	r2, .L128+4
 1056              		.loc 1 489 0
 1057 001e 064B     		ldr	r3, .L128+8
 1058              		.loc 1 488 0
 1059 0020 0321     		movs	r1, #3
 1060 0022 1164     		str	r1, [r2, #64]
 1061              		.loc 1 489 0
 1062 0024 DA69     		ldr	r2, [r3, #28]
 1063 0026 22F40002 		bic	r2, r2, #8388608
 1064 002a DA61     		str	r2, [r3, #28]
 1065 002c ECE7     		b	.L125
 1066              	.L129:
 1067 002e 00BF     		.align	2
 1068              	.L128:
 1069 0030 00000000 		.word	.LANCHOR0
 1070 0034 005C0040 		.word	1073765376
 1071 0038 00100240 		.word	1073876992
 1072              		.cfi_endproc
 1073              	.LFE128:
 1074              		.size	usb_lld_stop, .-usb_lld_stop
 1075 003c AFF30080 		.section	.text.usb_lld_set_address,"ax",%progbits
 1076              		.align	2
 1077              		.p2align 4,,15
 1078              		.global	usb_lld_set_address
 1079              		.thumb
 1080              		.thumb_func
ARM GAS  /tmp/cc2N99KH.s 			page 20


 1081              		.type	usb_lld_set_address, %function
 1082              	usb_lld_set_address:
 1083              	.LFB130:
 1084              		.loc 1 532 0
 1085              		.cfi_startproc
 1086              		@ args = 0, pretend = 0, frame = 0
 1087              		@ frame_needed = 0, uses_anonymous_args = 0
 1088              		@ link register save eliminated.
 1089              	.LVL103:
 1090              		.loc 1 534 0
 1091 0000 90F87E20 		ldrb	r2, [r0, #126]	@ zero_extendqisi2
 1092 0004 024B     		ldr	r3, .L131
 1093 0006 42F08002 		orr	r2, r2, #128
 1094 000a DA64     		str	r2, [r3, #76]
 1095 000c 7047     		bx	lr
 1096              	.L132:
 1097 000e 00BF     		.align	2
 1098              	.L131:
 1099 0010 005C0040 		.word	1073765376
 1100              		.cfi_endproc
 1101              	.LFE130:
 1102              		.size	usb_lld_set_address, .-usb_lld_set_address
 1103 0014 AFF30080 		.section	.text.usb_lld_init_endpoint,"ax",%progbits
 1103      AFF30080 
 1103      AFF30080 
 1104              		.align	2
 1105              		.p2align 4,,15
 1106              		.global	usb_lld_init_endpoint
 1107              		.thumb
 1108              		.thumb_func
 1109              		.type	usb_lld_init_endpoint, %function
 1110              	usb_lld_init_endpoint:
 1111              	.LFB131:
 1112              		.loc 1 545 0
 1113              		.cfi_startproc
 1114              		@ args = 0, pretend = 0, frame = 0
 1115              		@ frame_needed = 0, uses_anonymous_args = 0
 1116              	.LVL104:
 1117              		.loc 1 548 0
 1118 0000 00EB8103 		add	r3, r0, r1, lsl #2
 1119              		.loc 1 545 0
 1120 0004 2DE9F041 		push	{r4, r5, r6, r7, r8, lr}
 1121              		.cfi_def_cfa_offset 24
 1122              		.cfi_offset 4, -24
 1123              		.cfi_offset 5, -20
 1124              		.cfi_offset 6, -16
 1125              		.cfi_offset 7, -12
 1126              		.cfi_offset 8, -8
 1127              		.cfi_offset 14, -4
 1128              		.loc 1 548 0
 1129 0008 DC68     		ldr	r4, [r3, #12]
 1130              	.LVL105:
 1131              		.loc 1 551 0
 1132 000a 2368     		ldr	r3, [r4]
 1133 000c 03F00303 		and	r3, r3, #3
 1134 0010 013B     		subs	r3, r3, #1
 1135 0012 022B     		cmp	r3, #2
ARM GAS  /tmp/cc2N99KH.s 			page 21


 1136 0014 9CBF     		itt	ls
 1137 0016 314A     		ldrls	r2, .L150
 1138 0018 32F81330 		ldrhls	r3, [r2, r3, lsl #1]
 1139              		.loc 1 566 0
 1140 001c A268     		ldr	r2, [r4, #8]
 1141              		.loc 1 545 0
 1142 001e 0546     		mov	r5, r0
 1143              		.loc 1 551 0
 1144 0020 88BF     		it	hi
 1145 0022 4FF40073 		movhi	r3, #512
 1146              	.LVL106:
 1147              		.loc 1 566 0
 1148 0026 0AB1     		cbz	r2, .L135
 1149              		.loc 1 567 0
 1150 0028 43F02003 		orr	r3, r3, #32
 1151              	.LVL107:
 1152              	.L135:
 1153              		.loc 1 570 0
 1154 002c E268     		ldr	r2, [r4, #12]
 1155 002e 0AB1     		cbz	r2, .L136
 1156              		.loc 1 571 0
 1157 0030 43F40053 		orr	r3, r3, #8192
 1158              	.LVL108:
 1159              	.L136:
 1160 0034 8A00     		lsls	r2, r1, #2
 1161 0036 02F18042 		add	r2, r2, #1073741824
 1162              		.loc 1 574 0
 1163 003a 43EA0100 		orr	r0, r3, r1
 1164              	.LVL109:
 1165 003e 02F5B842 		add	r2, r2, #23552
 1166 0042 20F4F040 		bic	r0, r0, #30720
 1167 0046 20F07000 		bic	r0, r0, #112
 1168 004a 1060     		str	r0, [r2]
 1169              		.loc 1 575 0
 1170 004c 1668     		ldr	r6, [r2]
 1171              		.loc 1 578 0
 1172 004e 678A     		ldrh	r7, [r4, #18]
 1173              		.loc 1 575 0
 1174 0050 47F67000 		movw	r0, #30832
 1175 0054 1840     		ands	r0, r0, r3
 1176 0056 7040     		eors	r0, r0, r6
 1177              		.loc 1 578 0
 1178 0058 3E2F     		cmp	r7, #62
 1179              		.loc 1 575 0
 1180 005a 1060     		str	r0, [r2]
 1181              		.loc 1 579 0
 1182 005c 07F1FF32 		add	r2, r7, #-1
 1183              		.loc 1 578 0
 1184 0060 2DD9     		bls	.L137
 1185              		.loc 1 579 0
 1186 0062 42F01F02 		orr	r2, r2, #31
 1187 0066 0132     		adds	r2, r2, #1
 1188 0068 5211     		asrs	r2, r2, #5
 1189 006a 6FEAC262 		mvn	r2, r2, lsl #27
 1190 006e 6FEA5242 		mvn	r2, r2, lsr #17
 1191 0072 92B2     		uxth	r2, r2
 1192              	.LVL110:
ARM GAS  /tmp/cc2N99KH.s 			page 22


 1193              	.L138:
 1194              		.loc 1 583 0
 1195 0074 1A4B     		ldr	r3, .L150+4
 1196              	.LVL111:
 1197              	.LBB88:
 1198              	.LBB89:
 1199              		.loc 1 113 0
 1200 0076 D5F88080 		ldr	r8, [r5, #128]
 1201              	.LBE89:
 1202              	.LBE88:
 1203              		.loc 1 583 0
 1204 007a 1E6D     		ldr	r6, [r3, #80]
 1205              		.loc 1 586 0
 1206 007c 238A     		ldrh	r3, [r4, #16]
 1207              		.loc 1 583 0
 1208 007e 06F10056 		add	r6, r6, #536870912
 1209 0082 06F54056 		add	r6, r6, #12288
 1210 0086 06EBC106 		add	r6, r6, r1, lsl #3
 1211 008a 7600     		lsls	r6, r6, #1
 1212              	.LVL112:
 1213              	.LBB94:
 1214              	.LBB90:
 1215              		.loc 1 114 0
 1216 008c 4344     		add	r3, r3, r8
 1217              	.LBE90:
 1218              	.LBE94:
 1219              		.loc 1 584 0
 1220 008e 0021     		movs	r1, #0
 1221              	.LVL113:
 1222              	.LBB95:
 1223              	.LBB91:
 1224              		.loc 1 115 0
 1225 0090 B3F5007F 		cmp	r3, #512
 1226              	.LBE91:
 1227              	.LBE95:
 1228              		.loc 1 584 0
 1229 0094 B180     		strh	r1, [r6, #4]	@ movhi
 1230              		.loc 1 585 0
 1231 0096 B281     		strh	r2, [r6, #12]	@ movhi
 1232              	.LVL114:
 1233              	.LBB96:
 1234              	.LBB92:
 1235              		.loc 1 114 0
 1236 0098 C5F88030 		str	r3, [r5, #128]
 1237              		.loc 1 115 0
 1238 009c 18D8     		bhi	.L149
 1239              	.LVL115:
 1240              	.L139:
 1241              	.LBE92:
 1242              	.LBE96:
 1243              		.loc 1 586 0
 1244 009e C6F80080 		str	r8, [r6]
 1245              	.LVL116:
 1246              	.LBB97:
 1247              	.LBB98:
 1248              		.loc 1 113 0
 1249 00a2 D5F88040 		ldr	r4, [r5, #128]
ARM GAS  /tmp/cc2N99KH.s 			page 23


 1250              	.LVL117:
 1251              		.loc 1 114 0
 1252 00a6 2744     		add	r7, r7, r4
 1253              	.LVL118:
 1254              		.loc 1 115 0
 1255 00a8 B7F5007F 		cmp	r7, #512
 1256              		.loc 1 114 0
 1257 00ac C5F88070 		str	r7, [r5, #128]
 1258              		.loc 1 115 0
 1259 00b0 02D9     		bls	.L140
 1260 00b2 0C48     		ldr	r0, .L150+8
 1261 00b4 FFF7FEFF 		bl	chDbgPanic
 1262              	.LVL119:
 1263              	.L140:
 1264              	.LBE98:
 1265              	.LBE97:
 1266              		.loc 1 587 0
 1267 00b8 B460     		str	r4, [r6, #8]
 1268 00ba BDE8F081 		pop	{r4, r5, r6, r7, r8, pc}
 1269              	.LVL120:
 1270              	.L137:
 1271              		.loc 1 582 0
 1272 00be 42F00102 		orr	r2, r2, #1
 1273 00c2 0132     		adds	r2, r2, #1
 1274 00c4 02EBD272 		add	r2, r2, r2, lsr #31
 1275 00c8 5202     		lsls	r2, r2, #9
 1276 00ca 02F47C42 		and	r2, r2, #64512
 1277              	.LVL121:
 1278 00ce D1E7     		b	.L138
 1279              	.LVL122:
 1280              	.L149:
 1281              	.LBB99:
 1282              	.LBB93:
 1283              		.loc 1 115 0
 1284 00d0 0448     		ldr	r0, .L150+8
 1285 00d2 FFF7FEFF 		bl	chDbgPanic
 1286              	.LVL123:
 1287 00d6 678A     		ldrh	r7, [r4, #18]
 1288 00d8 E1E7     		b	.L139
 1289              	.L151:
 1290 00da 00BF     		.align	2
 1291              	.L150:
 1292 00dc 00000000 		.word	.LANCHOR1
 1293 00e0 005C0040 		.word	1073765376
 1294 00e4 00000000 		.word	.LC0
 1295              	.LBE93:
 1296              	.LBE99:
 1297              		.cfi_endproc
 1298              	.LFE131:
 1299              		.size	usb_lld_init_endpoint, .-usb_lld_init_endpoint
 1300 00e8 AFF30080 		.section	.text.usb_lld_reset,"ax",%progbits
 1300      AFF30080 
 1301              		.align	2
 1302              		.p2align 4,,15
 1303              		.global	usb_lld_reset
 1304              		.thumb
 1305              		.thumb_func
ARM GAS  /tmp/cc2N99KH.s 			page 24


 1306              		.type	usb_lld_reset, %function
 1307              	usb_lld_reset:
 1308              	.LFB129:
 1309              		.loc 1 502 0
 1310              		.cfi_startproc
 1311              		@ args = 0, pretend = 0, frame = 0
 1312              		@ frame_needed = 0, uses_anonymous_args = 0
 1313              		@ link register save eliminated.
 1314              	.LVL124:
 1315              		.loc 1 513 0
 1316 0000 4168     		ldr	r1, [r0, #4]
 1317              		.loc 1 506 0
 1318 0002 0D4B     		ldr	r3, .L155
 1319              		.loc 1 513 0
 1320 0004 C968     		ldr	r1, [r1, #12]
 1321              		.loc 1 502 0
 1322 0006 F0B4     		push	{r4, r5, r6, r7}
 1323              		.cfi_def_cfa_offset 16
 1324              		.cfi_offset 4, -16
 1325              		.cfi_offset 5, -12
 1326              		.cfi_offset 6, -8
 1327              		.cfi_offset 7, -4
 1328              		.loc 1 513 0
 1329 0008 0029     		cmp	r1, #0
 1330              		.loc 1 506 0
 1331 000a 4FF00004 		mov	r4, #0
 1332              		.loc 1 521 0
 1333 000e 0B4D     		ldr	r5, .L155+4
 1334              		.loc 1 506 0
 1335 0010 1C65     		str	r4, [r3, #80]
 1336              		.loc 1 509 0
 1337 0012 14BF     		ite	ne
 1338 0014 4FF41E47 		movne	r7, #40448
 1339 0018 4FF41C47 		moveq	r7, #39936
 1340              	.LBB100:
 1341              	.LBB101:
 1342              		.loc 1 101 0
 1343 001c 4026     		movs	r6, #64
 1344              	.LBE101:
 1345              	.LBE100:
 1346              		.loc 1 508 0
 1347 001e 4FF0800C 		mov	ip, #128
 1348              		.loc 1 507 0
 1349 0022 5C64     		str	r4, [r3, #68]
 1350              		.loc 1 522 0
 1351 0024 2146     		mov	r1, r4
 1352              		.loc 1 508 0
 1353 0026 C3F84CC0 		str	ip, [r3, #76]
 1354              	.LVL125:
 1355              		.loc 1 515 0
 1356 002a 1F64     		str	r7, [r3, #64]
 1357              	.LVL126:
 1358              	.LBB103:
 1359              	.LBB102:
 1360              		.loc 1 101 0
 1361 002c C0F88060 		str	r6, [r0, #128]
 1362              	.LBE102:
ARM GAS  /tmp/cc2N99KH.s 			page 25


 1363              	.LBE103:
 1364              		.loc 1 521 0
 1365 0030 C560     		str	r5, [r0, #12]
 1366              		.loc 1 523 0
 1367 0032 F0BC     		pop	{r4, r5, r6, r7}
 1368              	.LVL127:
 1369              		.loc 1 522 0
 1370 0034 FFF7FEBF 		b	usb_lld_init_endpoint
 1371              	.LVL128:
 1372              	.L156:
 1373              		.align	2
 1374              	.L155:
 1375 0038 005C0040 		.word	1073765376
 1376 003c 00000000 		.word	.LANCHOR2
 1377              		.cfi_endproc
 1378              	.LFE129:
 1379              		.size	usb_lld_reset, .-usb_lld_reset
 1380              		.section	.text.usb_lld_disable_endpoints,"ax",%progbits
 1381              		.align	2
 1382              		.p2align 4,,15
 1383              		.global	usb_lld_disable_endpoints
 1384              		.thumb
 1385              		.thumb_func
 1386              		.type	usb_lld_disable_endpoints, %function
 1387              	usb_lld_disable_endpoints:
 1388              	.LFB132:
 1389              		.loc 1 597 0
 1390              		.cfi_startproc
 1391              		@ args = 0, pretend = 0, frame = 0
 1392              		@ frame_needed = 0, uses_anonymous_args = 0
 1393              		@ link register save eliminated.
 1394              	.LVL129:
 1395              	.LBB104:
 1396              	.LBB105:
 1397              		.loc 1 101 0
 1398 0000 4023     		movs	r3, #64
 1399 0002 C0F88030 		str	r3, [r0, #128]
 1400              	.LVL130:
 1401              	.LBE105:
 1402              	.LBE104:
 1403              		.loc 1 604 0
 1404 0006 0122     		movs	r2, #1
 1405              		.loc 1 606 0
 1406 0008 0020     		movs	r0, #0
 1407              	.LVL131:
 1408              	.L159:
 1409 000a 9300     		lsls	r3, r2, #2
 1410 000c 03F18043 		add	r3, r3, #1073741824
 1411 0010 03F5B843 		add	r3, r3, #23552
 1412              		.loc 1 604 0 discriminator 2
 1413 0014 0132     		adds	r2, r2, #1
 1414              	.LVL132:
 1415              		.loc 1 605 0 discriminator 2
 1416 0016 1968     		ldr	r1, [r3]
 1417 0018 1960     		str	r1, [r3]
 1418              		.loc 1 604 0 discriminator 2
 1419 001a 082A     		cmp	r2, #8
ARM GAS  /tmp/cc2N99KH.s 			page 26


 1420              		.loc 1 606 0 discriminator 2
 1421 001c 1860     		str	r0, [r3]
 1422              		.loc 1 604 0 discriminator 2
 1423 001e F4D1     		bne	.L159
 1424              		.loc 1 608 0
 1425 0020 7047     		bx	lr
 1426              		.cfi_endproc
 1427              	.LFE132:
 1428              		.size	usb_lld_disable_endpoints, .-usb_lld_disable_endpoints
 1429 0022 00BFAFF3 		.section	.text.usb_lld_get_status_out,"ax",%progbits
 1429      0080AFF3 
 1429      0080AFF3 
 1429      0080
 1430              		.align	2
 1431              		.p2align 4,,15
 1432              		.global	usb_lld_get_status_out
 1433              		.thumb
 1434              		.thumb_func
 1435              		.type	usb_lld_get_status_out, %function
 1436              	usb_lld_get_status_out:
 1437              	.LFB133:
 1438              		.loc 1 622 0
 1439              		.cfi_startproc
 1440              		@ args = 0, pretend = 0, frame = 0
 1441              		@ frame_needed = 0, uses_anonymous_args = 0
 1442              		@ link register save eliminated.
 1443              	.LVL133:
 1444              		.loc 1 625 0
 1445 0000 054B     		ldr	r3, .L166
 1446 0002 53F82100 		ldr	r0, [r3, r1, lsl #2]
 1447              	.LVL134:
 1448 0006 10F44050 		ands	r0, r0, #12288
 1449 000a 04D0     		beq	.L164
 1450 000c B0F5805F 		cmp	r0, #4096
 1451              		.loc 1 631 0
 1452 0010 0CBF     		ite	eq
 1453 0012 0120     		moveq	r0, #1
 1454 0014 0220     		movne	r0, #2
 1455              	.L164:
 1456              		.loc 1 633 0
 1457 0016 7047     		bx	lr
 1458              	.L167:
 1459              		.align	2
 1460              	.L166:
 1461 0018 005C0040 		.word	1073765376
 1462              		.cfi_endproc
 1463              	.LFE133:
 1464              		.size	usb_lld_get_status_out, .-usb_lld_get_status_out
 1465 001c AFF30080 		.section	.text.usb_lld_get_status_in,"ax",%progbits
 1466              		.align	2
 1467              		.p2align 4,,15
 1468              		.global	usb_lld_get_status_in
 1469              		.thumb
 1470              		.thumb_func
 1471              		.type	usb_lld_get_status_in, %function
 1472              	usb_lld_get_status_in:
 1473              	.LFB134:
ARM GAS  /tmp/cc2N99KH.s 			page 27


 1474              		.loc 1 647 0
 1475              		.cfi_startproc
 1476              		@ args = 0, pretend = 0, frame = 0
 1477              		@ frame_needed = 0, uses_anonymous_args = 0
 1478              		@ link register save eliminated.
 1479              	.LVL135:
 1480              		.loc 1 650 0
 1481 0000 054B     		ldr	r3, .L173
 1482 0002 53F82100 		ldr	r0, [r3, r1, lsl #2]
 1483              	.LVL136:
 1484 0006 10F03000 		ands	r0, r0, #48
 1485 000a 03D0     		beq	.L171
 1486 000c 1028     		cmp	r0, #16
 1487              		.loc 1 656 0
 1488 000e 0CBF     		ite	eq
 1489 0010 0120     		moveq	r0, #1
 1490 0012 0220     		movne	r0, #2
 1491              	.L171:
 1492              		.loc 1 658 0
 1493 0014 7047     		bx	lr
 1494              	.L174:
 1495 0016 00BF     		.align	2
 1496              	.L173:
 1497 0018 005C0040 		.word	1073765376
 1498              		.cfi_endproc
 1499              	.LFE134:
 1500              		.size	usb_lld_get_status_in, .-usb_lld_get_status_in
 1501 001c AFF30080 		.section	.text.usb_lld_read_setup,"ax",%progbits
 1502              		.align	2
 1503              		.p2align 4,,15
 1504              		.global	usb_lld_read_setup
 1505              		.thumb
 1506              		.thumb_func
 1507              		.type	usb_lld_read_setup, %function
 1508              	usb_lld_read_setup:
 1509              	.LFB135:
 1510              		.loc 1 674 0
 1511              		.cfi_startproc
 1512              		@ args = 0, pretend = 0, frame = 0
 1513              		@ frame_needed = 0, uses_anonymous_args = 0
 1514              		@ link register save eliminated.
 1515              	.LVL137:
 1516              		.loc 1 680 0
 1517 0000 0B4B     		ldr	r3, .L179
 1518 0002 1B6D     		ldr	r3, [r3, #80]
 1519 0004 03F10053 		add	r3, r3, #536870912
 1520 0008 03F54053 		add	r3, r3, #12288
 1521 000c 03EBC101 		add	r1, r3, r1, lsl #3
 1522              	.LVL138:
 1523 0010 4B00     		lsls	r3, r1, #1
 1524              	.LVL139:
 1525 0012 02F10800 		add	r0, r2, #8
 1526              	.LVL140:
 1527              		.loc 1 681 0
 1528 0016 9B68     		ldr	r3, [r3, #8]
 1529              	.LVL141:
 1530 0018 03F10053 		add	r3, r3, #536870912
ARM GAS  /tmp/cc2N99KH.s 			page 28


 1531 001c 03F54053 		add	r3, r3, #12288
 1532 0020 5B00     		lsls	r3, r3, #1
 1533              	.LVL142:
 1534              	.L177:
 1535              		.loc 1 683 0 discriminator 2
 1536 0022 53F8041B 		ldr	r1, [r3], #4
 1537              	.LVL143:
 1538 0026 22F8021B 		strh	r1, [r2], #2	@ movhi
 1539              	.LVL144:
 1540              		.loc 1 682 0 discriminator 2
 1541 002a 8242     		cmp	r2, r0
 1542 002c F9D1     		bne	.L177
 1543              		.loc 1 686 0
 1544 002e 7047     		bx	lr
 1545              	.L180:
 1546              		.align	2
 1547              	.L179:
 1548 0030 005C0040 		.word	1073765376
 1549              		.cfi_endproc
 1550              	.LFE135:
 1551              		.size	usb_lld_read_setup, .-usb_lld_read_setup
 1552 0034 AFF30080 		.section	.text.usb_lld_prepare_receive,"ax",%progbits
 1552      AFF30080 
 1552      AFF30080 
 1553              		.align	2
 1554              		.p2align 4,,15
 1555              		.global	usb_lld_prepare_receive
 1556              		.thumb
 1557              		.thumb_func
 1558              		.type	usb_lld_prepare_receive, %function
 1559              	usb_lld_prepare_receive:
 1560              	.LFB136:
 1561              		.loc 1 696 0
 1562              		.cfi_startproc
 1563              		@ args = 0, pretend = 0, frame = 0
 1564              		@ frame_needed = 0, uses_anonymous_args = 0
 1565              		@ link register save eliminated.
 1566              	.LVL145:
 1567              		.loc 1 697 0
 1568 0000 00EB8101 		add	r1, r0, r1, lsl #2
 1569              	.LVL146:
 1570 0004 C968     		ldr	r1, [r1, #12]
 1571 0006 8B69     		ldr	r3, [r1, #24]
 1572              	.LVL147:
 1573              		.loc 1 700 0
 1574 0008 5A68     		ldr	r2, [r3, #4]
 1575 000a 32B1     		cbz	r2, .L184
 1576              		.loc 1 703 0
 1577 000c 498A     		ldrh	r1, [r1, #18]
 1578 000e 013A     		subs	r2, r2, #1
 1579 0010 0A44     		add	r2, r2, r1
 1580 0012 B2FBF1F1 		udiv	r1, r2, r1
 1581 0016 1982     		strh	r1, [r3, #16]	@ movhi
 1582 0018 7047     		bx	lr
 1583              	.L184:
 1584              		.loc 1 701 0
 1585 001a 0122     		movs	r2, #1
ARM GAS  /tmp/cc2N99KH.s 			page 29


 1586 001c 1A82     		strh	r2, [r3, #16]	@ movhi
 1587 001e 7047     		bx	lr
 1588              		.cfi_endproc
 1589              	.LFE136:
 1590              		.size	usb_lld_prepare_receive, .-usb_lld_prepare_receive
 1591              		.section	.text.usb_lld_prepare_transmit,"ax",%progbits
 1592              		.align	2
 1593              		.p2align 4,,15
 1594              		.global	usb_lld_prepare_transmit
 1595              		.thumb
 1596              		.thumb_func
 1597              		.type	usb_lld_prepare_transmit, %function
 1598              	usb_lld_prepare_transmit:
 1599              	.LFB137:
 1600              		.loc 1 715 0
 1601              		.cfi_startproc
 1602              		@ args = 0, pretend = 0, frame = 0
 1603              		@ frame_needed = 0, uses_anonymous_args = 0
 1604              		@ link register save eliminated.
 1605              	.LVL148:
 1606              		.loc 1 717 0
 1607 0000 00EB8100 		add	r0, r0, r1, lsl #2
 1608              	.LVL149:
 1609              		.loc 1 715 0
 1610 0004 10B4     		push	{r4}
 1611              		.cfi_def_cfa_offset 4
 1612              		.cfi_offset 4, -4
 1613              		.loc 1 717 0
 1614 0006 C368     		ldr	r3, [r0, #12]
 1615 0008 5869     		ldr	r0, [r3, #20]
 1616              	.LVL150:
 1617              		.loc 1 721 0
 1618 000a 1A8A     		ldrh	r2, [r3, #16]
 1619              		.loc 1 720 0
 1620 000c 4368     		ldr	r3, [r0, #4]
 1621              	.LVL151:
 1622              		.loc 1 715 0
 1623 000e 0C46     		mov	r4, r1
 1624              		.loc 1 724 0
 1625 0010 0178     		ldrb	r1, [r0]	@ zero_extendqisi2
 1626              	.LVL152:
 1627 0012 9A42     		cmp	r2, r3
 1628 0014 28BF     		it	cs
 1629 0016 1A46     		movcs	r2, r3
 1630              	.LVL153:
 1631              		.loc 1 725 0
 1632 0018 164B     		ldr	r3, .L196
 1633              		.loc 1 724 0
 1634 001a F1B9     		cbnz	r1, .L195
 1635              		.loc 1 728 0
 1636 001c C168     		ldr	r1, [r0, #12]
 1637 001e 186D     		ldr	r0, [r3, #80]
 1638              	.LVL154:
 1639 0020 00F10050 		add	r0, r0, #536870912
 1640 0024 00F54050 		add	r0, r0, #12288
 1641 0028 00EBC404 		add	r4, r0, r4, lsl #3
 1642              	.LVL155:
ARM GAS  /tmp/cc2N99KH.s 			page 30


 1643 002c 6400     		lsls	r4, r4, #1
 1644              	.LVL156:
 1645              	.LBB106:
 1646              	.LBB107:
 1647              		.loc 1 201 0
 1648 002e 93B2     		uxth	r3, r2
 1649              		.loc 1 199 0
 1650 0030 2068     		ldr	r0, [r4]
 1651              		.loc 1 201 0
 1652 0032 A380     		strh	r3, [r4, #4]	@ movhi
 1653              		.loc 1 199 0
 1654 0034 00F10050 		add	r0, r0, #536870912
 1655              		.loc 1 202 0
 1656 0038 531C     		adds	r3, r2, #1
 1657              		.loc 1 199 0
 1658 003a 00F54050 		add	r0, r0, #12288
 1659              		.loc 1 203 0
 1660 003e 5B08     		lsrs	r3, r3, #1
 1661              		.loc 1 199 0
 1662 0040 4FEA4002 		lsl	r2, r0, #1
 1663              	.LVL157:
 1664              		.loc 1 203 0
 1665 0044 06D0     		beq	.L185
 1666 0046 0239     		subs	r1, r1, #2
 1667              	.LVL158:
 1668              	.L190:
 1669              		.loc 1 206 0
 1670 0048 31F8020F 		ldrh	r0, [r1, #2]!
 1671              	.LVL159:
 1672 004c 42F8040B 		str	r0, [r2], #4
 1673              	.LVL160:
 1674              		.loc 1 203 0
 1675 0050 013B     		subs	r3, r3, #1
 1676              	.LVL161:
 1677 0052 F9D1     		bne	.L190
 1678              	.LVL162:
 1679              	.L185:
 1680              	.LBE107:
 1681              	.LBE106:
 1682              		.loc 1 730 0
 1683 0054 5DF8044B 		ldr	r4, [sp], #4
 1684              	.LVL163:
 1685 0058 7047     		bx	lr
 1686              	.LVL164:
 1687              	.L195:
 1688              		.loc 1 725 0
 1689 005a 1B6D     		ldr	r3, [r3, #80]
 1690 005c C168     		ldr	r1, [r0, #12]
 1691 005e 03F10053 		add	r3, r3, #536870912
 1692 0062 03F54053 		add	r3, r3, #12288
 1693 0066 03EBC400 		add	r0, r3, r4, lsl #3
 1694              	.LVL165:
 1695 006a 4000     		lsls	r0, r0, #1
 1696              		.loc 1 730 0
 1697 006c 5DF8044B 		ldr	r4, [sp], #4
 1698              	.LVL166:
 1699              		.loc 1 725 0
ARM GAS  /tmp/cc2N99KH.s 			page 31


 1700 0070 FFF7FEBF 		b	usb_packet_write_from_queue
 1701              	.LVL167:
 1702              	.L197:
 1703              		.align	2
 1704              	.L196:
 1705 0074 005C0040 		.word	1073765376
 1706              		.cfi_endproc
 1707              	.LFE137:
 1708              		.size	usb_lld_prepare_transmit, .-usb_lld_prepare_transmit
 1709 0078 AFF30080 		.section	.text.usb_lld_start_out,"ax",%progbits
 1709      AFF30080 
 1710              		.align	2
 1711              		.p2align 4,,15
 1712              		.global	usb_lld_start_out
 1713              		.thumb
 1714              		.thumb_func
 1715              		.type	usb_lld_start_out, %function
 1716              	usb_lld_start_out:
 1717              	.LFB138:
 1718              		.loc 1 740 0
 1719              		.cfi_startproc
 1720              		@ args = 0, pretend = 0, frame = 0
 1721              		@ frame_needed = 0, uses_anonymous_args = 0
 1722              		@ link register save eliminated.
 1723              	.LVL168:
 1724 0000 8900     		lsls	r1, r1, #2
 1725              	.LVL169:
 1726 0002 01F18041 		add	r1, r1, #1073741824
 1727 0006 01F5B841 		add	r1, r1, #23552
 1728              		.loc 1 744 0
 1729 000a 0B68     		ldr	r3, [r1]
 1730 000c 23F49043 		bic	r3, r3, #18432
 1731 0010 23F07003 		bic	r3, r3, #112
 1732 0014 83F44053 		eor	r3, r3, #12288
 1733 0018 0B60     		str	r3, [r1]
 1734 001a 7047     		bx	lr
 1735              		.cfi_endproc
 1736              	.LFE138:
 1737              		.size	usb_lld_start_out, .-usb_lld_start_out
 1738 001c AFF30080 		.section	.text.usb_lld_start_in,"ax",%progbits
 1739              		.align	2
 1740              		.p2align 4,,15
 1741              		.global	usb_lld_start_in
 1742              		.thumb
 1743              		.thumb_func
 1744              		.type	usb_lld_start_in, %function
 1745              	usb_lld_start_in:
 1746              	.LFB139:
 1747              		.loc 1 755 0
 1748              		.cfi_startproc
 1749              		@ args = 0, pretend = 0, frame = 0
 1750              		@ frame_needed = 0, uses_anonymous_args = 0
 1751              		@ link register save eliminated.
 1752              	.LVL170:
 1753 0000 8900     		lsls	r1, r1, #2
 1754              	.LVL171:
 1755 0002 01F18041 		add	r1, r1, #1073741824
ARM GAS  /tmp/cc2N99KH.s 			page 32


 1756 0006 01F5B841 		add	r1, r1, #23552
 1757              		.loc 1 759 0
 1758 000a 0B68     		ldr	r3, [r1]
 1759 000c 23F4F043 		bic	r3, r3, #30720
 1760 0010 23F04003 		bic	r3, r3, #64
 1761 0014 83F03003 		eor	r3, r3, #48
 1762 0018 0B60     		str	r3, [r1]
 1763 001a 7047     		bx	lr
 1764              		.cfi_endproc
 1765              	.LFE139:
 1766              		.size	usb_lld_start_in, .-usb_lld_start_in
 1767 001c AFF30080 		.section	.text.usb_lld_stall_out,"ax",%progbits
 1768              		.align	2
 1769              		.p2align 4,,15
 1770              		.global	usb_lld_stall_out
 1771              		.thumb
 1772              		.thumb_func
 1773              		.type	usb_lld_stall_out, %function
 1774              	usb_lld_stall_out:
 1775              	.LFB140:
 1776              		.loc 1 770 0
 1777              		.cfi_startproc
 1778              		@ args = 0, pretend = 0, frame = 0
 1779              		@ frame_needed = 0, uses_anonymous_args = 0
 1780              		@ link register save eliminated.
 1781              	.LVL172:
 1782 0000 8900     		lsls	r1, r1, #2
 1783              	.LVL173:
 1784 0002 01F18041 		add	r1, r1, #1073741824
 1785 0006 01F5B841 		add	r1, r1, #23552
 1786              		.loc 1 774 0
 1787 000a 0B68     		ldr	r3, [r1]
 1788 000c 23F49043 		bic	r3, r3, #18432
 1789 0010 23F07003 		bic	r3, r3, #112
 1790 0014 83F48053 		eor	r3, r3, #4096
 1791 0018 0B60     		str	r3, [r1]
 1792 001a 7047     		bx	lr
 1793              		.cfi_endproc
 1794              	.LFE140:
 1795              		.size	usb_lld_stall_out, .-usb_lld_stall_out
 1796 001c AFF30080 		.section	.text.usb_lld_stall_in,"ax",%progbits
 1797              		.align	2
 1798              		.p2align 4,,15
 1799              		.global	usb_lld_stall_in
 1800              		.thumb
 1801              		.thumb_func
 1802              		.type	usb_lld_stall_in, %function
 1803              	usb_lld_stall_in:
 1804              	.LFB141:
 1805              		.loc 1 785 0
 1806              		.cfi_startproc
 1807              		@ args = 0, pretend = 0, frame = 0
 1808              		@ frame_needed = 0, uses_anonymous_args = 0
 1809              		@ link register save eliminated.
 1810              	.LVL174:
 1811 0000 8900     		lsls	r1, r1, #2
 1812              	.LVL175:
ARM GAS  /tmp/cc2N99KH.s 			page 33


 1813 0002 01F18041 		add	r1, r1, #1073741824
 1814 0006 01F5B841 		add	r1, r1, #23552
 1815              		.loc 1 789 0
 1816 000a 0B68     		ldr	r3, [r1]
 1817 000c 23F4F043 		bic	r3, r3, #30720
 1818 0010 23F04003 		bic	r3, r3, #64
 1819 0014 83F01003 		eor	r3, r3, #16
 1820 0018 0B60     		str	r3, [r1]
 1821 001a 7047     		bx	lr
 1822              		.cfi_endproc
 1823              	.LFE141:
 1824              		.size	usb_lld_stall_in, .-usb_lld_stall_in
 1825 001c AFF30080 		.section	.text.usb_lld_clear_out,"ax",%progbits
 1826              		.align	2
 1827              		.p2align 4,,15
 1828              		.global	usb_lld_clear_out
 1829              		.thumb
 1830              		.thumb_func
 1831              		.type	usb_lld_clear_out, %function
 1832              	usb_lld_clear_out:
 1833              	.LFB142:
 1834              		.loc 1 800 0
 1835              		.cfi_startproc
 1836              		@ args = 0, pretend = 0, frame = 0
 1837              		@ frame_needed = 0, uses_anonymous_args = 0
 1838              		@ link register save eliminated.
 1839              	.LVL176:
 1840 0000 8900     		lsls	r1, r1, #2
 1841              	.LVL177:
 1842 0002 01F18041 		add	r1, r1, #1073741824
 1843 0006 01F5B841 		add	r1, r1, #23552
 1844              		.loc 1 806 0
 1845 000a 0B68     		ldr	r3, [r1]
 1846 000c 03F44053 		and	r3, r3, #12288
 1847 0010 B3F5405F 		cmp	r3, #12288
 1848 0014 07D0     		beq	.L202
 1849              		.loc 1 807 0
 1850 0016 0B68     		ldr	r3, [r1]
 1851 0018 23F4F043 		bic	r3, r3, #30720
 1852 001c 23F04003 		bic	r3, r3, #64
 1853 0020 83F40053 		eor	r3, r3, #8192
 1854 0024 0B60     		str	r3, [r1]
 1855              	.L202:
 1856 0026 7047     		bx	lr
 1857              		.cfi_endproc
 1858              	.LFE142:
 1859              		.size	usb_lld_clear_out, .-usb_lld_clear_out
 1860 0028 AFF30080 		.section	.text.usb_lld_clear_in,"ax",%progbits
 1860      AFF30080 
 1861              		.align	2
 1862              		.p2align 4,,15
 1863              		.global	usb_lld_clear_in
 1864              		.thumb
 1865              		.thumb_func
 1866              		.type	usb_lld_clear_in, %function
 1867              	usb_lld_clear_in:
 1868              	.LFB143:
ARM GAS  /tmp/cc2N99KH.s 			page 34


 1869              		.loc 1 818 0
 1870              		.cfi_startproc
 1871              		@ args = 0, pretend = 0, frame = 0
 1872              		@ frame_needed = 0, uses_anonymous_args = 0
 1873              		@ link register save eliminated.
 1874              	.LVL178:
 1875 0000 8900     		lsls	r1, r1, #2
 1876              	.LVL179:
 1877 0002 01F18041 		add	r1, r1, #1073741824
 1878 0006 01F5B841 		add	r1, r1, #23552
 1879              		.loc 1 824 0
 1880 000a 0B68     		ldr	r3, [r1]
 1881 000c 03F03003 		and	r3, r3, #48
 1882 0010 302B     		cmp	r3, #48
 1883 0012 07D0     		beq	.L207
 1884              		.loc 1 825 0
 1885 0014 0B68     		ldr	r3, [r1]
 1886 0016 23F4F043 		bic	r3, r3, #30720
 1887 001a 23F04003 		bic	r3, r3, #64
 1888 001e 83F02003 		eor	r3, r3, #32
 1889 0022 0B60     		str	r3, [r1]
 1890              	.L207:
 1891 0024 7047     		bx	lr
 1892              		.cfi_endproc
 1893              	.LFE143:
 1894              		.size	usb_lld_clear_in, .-usb_lld_clear_in
 1895              		.global	USBD1
 1896 0026 00BFAFF3 		.section	.bss.USBD1,"aw",%nobits
 1896      0080AFF3 
 1896      0080
 1897              		.align	2
 1898              		.set	.LANCHOR0,. + 0
 1899              		.type	USBD1, %object
 1900              		.size	USBD1, 132
 1901              	USBD1:
 1902 0000 00000000 		.space	132
 1902      00000000 
 1902      00000000 
 1902      00000000 
 1902      00000000 
 1903              		.section	.rodata.str1.4,"aMS",%progbits,1
 1904              		.align	2
 1905              	.LC0:
 1906 0000 7573625F 		.ascii	"usb_pm_alloc(), #1\000"
 1906      706D5F61 
 1906      6C6C6F63 
 1906      28292C20 
 1906      233100
 1907 0013 00       		.section	.rodata.CSWTCH.21,"a",%progbits
 1908              		.align	2
 1909              		.set	.LANCHOR1,. + 0
 1910              		.type	CSWTCH.21, %object
 1911              		.size	CSWTCH.21, 6
 1912              	CSWTCH.21:
 1913 0000 0004     		.short	1024
 1914 0002 0000     		.short	0
 1915 0004 0006     		.short	1536
ARM GAS  /tmp/cc2N99KH.s 			page 35


 1916 0006 0000     		.section	.bss.ep0_state,"aw",%nobits
 1917              		.align	2
 1918              		.type	ep0_state, %object
 1919              		.size	ep0_state, 20
 1920              	ep0_state:
 1921 0000 00000000 		.space	20
 1921      00000000 
 1921      00000000 
 1921      00000000 
 1921      00000000 
 1922              		.section	.bss.ep0setup_buffer,"aw",%nobits
 1923              		.align	2
 1924              		.type	ep0setup_buffer, %object
 1925              		.size	ep0setup_buffer, 8
 1926              	ep0setup_buffer:
 1927 0000 00000000 		.space	8
 1927      00000000 
 1928              		.section	.rodata.ep0config,"a",%progbits
 1929              		.align	2
 1930              		.set	.LANCHOR2,. + 0
 1931              		.type	ep0config, %object
 1932              		.size	ep0config, 36
 1933              	ep0config:
 1934 0000 00000000 		.word	0
 1935 0004 00000000 		.word	_usb_ep0setup
 1936 0008 00000000 		.word	_usb_ep0in
 1937 000c 00000000 		.word	_usb_ep0out
 1938 0010 4000     		.short	64
 1939 0012 4000     		.short	64
 1940 0014 00000000 		.word	ep0_state
 1941 0018 00000000 		.word	ep0_state
 1942 001c 0100     		.short	1
 1943 001e 0000     		.space	2
 1944 0020 00000000 		.word	ep0setup_buffer
 1945              		.text
 1946              	.Letext0:
 1947              		.file 3 "/usr/lib/gcc/arm-none-eabi/4.8.3/include/stddef.h"
 1948              		.file 4 "/usr/arm-none-eabi/include/stdint.h"
 1949              		.file 5 "../../../os/ports/GCC/ARMCMx/chtypes.h"
 1950              		.file 6 "../../../os/kernel/include/chlists.h"
 1951              		.file 7 "../../../os/kernel/include/chthreads.h"
 1952              		.file 8 "../../../os/ports/GCC/ARMCMx/chcore_v7m.h"
 1953              		.file 9 "../../../os/kernel/include/chmtx.h"
 1954              		.file 10 "../../../os/kernel/include/chqueues.h"
 1955              		.file 11 "../../../os/hal/platforms/STM32F30x/stm32f30x.h"
 1956              		.file 12 "../../../os/hal/include/usb.h"
 1957              		.file 13 "../../../os/hal/platforms/STM32/USBv1/usb_lld.h"
 1958              		.file 14 "../../../os/hal/platforms/STM32/USBv1/stm32_usb.h"
 1959              		.file 15 "../../../os/kernel/include/chdebug.h"
 1960              		.file 16 "../../../os/ports/common/ARMCMx/CMSIS/include/core_cm4.h"
 1961              		.file 17 "../../../os/ports/common/ARMCMx/nvic.h"
 1962              		.file 18 "../../../os/kernel/include/chschd.h"