ARM GAS  /tmp/ccR3cH69.s 			page 1


   1              		.syntax unified
   2              		.cpu cortex-m4
   3              		.fpu softvfp
   4              		.eabi_attribute 20, 1
   5              		.eabi_attribute 21, 1
   6              		.eabi_attribute 23, 3
   7              		.eabi_attribute 24, 1
   8              		.eabi_attribute 25, 1
   9              		.eabi_attribute 26, 1
  10              		.eabi_attribute 30, 2
  11              		.eabi_attribute 34, 1
  12              		.eabi_attribute 18, 4
  13              		.thumb
  14              		.file	"chthreads.c"
  15              		.text
  16              	.Ltext0:
  17              		.cfi_sections	.debug_frame
  18              		.section	.text._thread_init,"ax",%progbits
  19              		.align	2
  20              		.p2align 4,,15
  21              		.global	_thread_init
  22              		.thumb
  23              		.thumb_func
  24              		.type	_thread_init, %function
  25              	_thread_init:
  26              	.LFB7:
  27              		.file 1 "../../os/kernel/src/chthreads.c"
  28              		.loc 1 69 0
  29              		.cfi_startproc
  30              		@ args = 0, pretend = 0, frame = 0
  31              		@ frame_needed = 0, uses_anonymous_args = 0
  32              		@ link register save eliminated.
  33              	.LVL0:
  34 0000 2DE9F003 		push	{r4, r5, r6, r7, r8, r9}
  35              		.cfi_def_cfa_offset 24
  36              		.cfi_offset 4, -24
  37              		.cfi_offset 5, -20
  38              		.cfi_offset 6, -16
  39              		.cfi_offset 7, -12
  40              		.cfi_offset 8, -8
  41              		.cfi_offset 9, -4
  42              		.loc 1 92 0
  43 0004 114C     		ldr	r4, .L2
  44              		.loc 1 78 0
  45 0006 0164     		str	r1, [r0, #64]
  46              		.loc 1 92 0
  47 0008 6569     		ldr	r5, [r4, #20]
  48 000a 4561     		str	r5, [r0, #20]
  49              		.loc 1 73 0
  50 000c 0022     		movs	r2, #0
  51              		.loc 1 98 0
  52 000e 00F12C06 		add	r6, r0, #44
  53              		.loc 1 72 0
  54 0012 4FF00209 		mov	r9, #2
  55              		.loc 1 75 0
  56 0016 4FF01408 		mov	r8, #20
  57              		.loc 1 95 0
ARM GAS  /tmp/ccR3cH69.s 			page 2


  58 001a 00F12807 		add	r7, r0, #40
  59              		.loc 1 88 0
  60 001e 4FF0010C 		mov	ip, #1
  61              		.loc 1 92 0
  62 0022 0461     		str	r4, [r0, #16]
  63              		.loc 1 71 0
  64 0024 8160     		str	r1, [r0, #8]
  65              		.loc 1 72 0
  66 0026 80F81C90 		strb	r9, [r0, #28]
  67              		.loc 1 92 0
  68 002a 6061     		str	r0, [r4, #20]
  69              		.loc 1 75 0
  70 002c 80F81F80 		strb	r8, [r0, #31]
  71              		.loc 1 88 0
  72 0030 80F81EC0 		strb	ip, [r0, #30]
  73              		.loc 1 73 0
  74 0034 4277     		strb	r2, [r0, #29]
  75              		.loc 1 79 0
  76 0036 C263     		str	r2, [r0, #60]
  77              		.loc 1 82 0
  78 0038 8263     		str	r2, [r0, #56]
  79              		.loc 1 85 0
  80 003a 0262     		str	r2, [r0, #32]
  81              		.loc 1 91 0
  82 003c 8261     		str	r2, [r0, #24]
  83              		.loc 1 92 0
  84 003e 2861     		str	r0, [r5, #16]
  85              		.loc 1 95 0
  86 0040 8762     		str	r7, [r0, #40]
  87              		.loc 1 98 0
  88 0042 0663     		str	r6, [r0, #48]
  89 0044 C662     		str	r6, [r0, #44]
  90              		.loc 1 107 0
  91 0046 BDE8F003 		pop	{r4, r5, r6, r7, r8, r9}
  92 004a 7047     		bx	lr
  93              	.L3:
  94              		.align	2
  95              	.L2:
  96 004c 00000000 		.word	rlist
  97              		.cfi_endproc
  98              	.LFE7:
  99              		.size	_thread_init, .-_thread_init
 100              		.section	.text.chThdCreateI,"ax",%progbits
 101              		.align	2
 102              		.p2align 4,,15
 103              		.global	chThdCreateI
 104              		.thumb
 105              		.thumb_func
 106              		.type	chThdCreateI, %function
 107              	chThdCreateI:
 108              	.LFB8:
 109              		.loc 1 151 0
 110              		.cfi_startproc
 111              		@ args = 4, pretend = 0, frame = 0
 112              		@ frame_needed = 0, uses_anonymous_args = 0
 113              		@ link register save eliminated.
 114              	.LVL1:
ARM GAS  /tmp/ccR3cH69.s 			page 3


 115 0000 2DE9F00F 		push	{r4, r5, r6, r7, r8, r9, r10, fp}
 116              		.cfi_def_cfa_offset 32
 117              		.cfi_offset 4, -32
 118              		.cfi_offset 5, -28
 119              		.cfi_offset 6, -24
 120              		.cfi_offset 7, -20
 121              		.cfi_offset 8, -16
 122              		.cfi_offset 9, -12
 123              		.cfi_offset 10, -8
 124              		.cfi_offset 11, -4
 125              	.LBB16:
 126              	.LBB17:
 127              		.loc 1 92 0
 128 0004 184D     		ldr	r5, .L5
 129              	.LBE17:
 130              	.LBE16:
 131              		.loc 1 151 0
 132 0006 089F     		ldr	r7, [sp, #32]
 133              	.LBB23:
 134              	.LBB18:
 135              		.loc 1 92 0
 136 0008 D5F814C0 		ldr	ip, [r5, #20]
 137              	.LBE18:
 138              	.LBE23:
 139              		.loc 1 160 0
 140 000c DFF85C80 		ldr	r8, .L5+4
 141 0010 2439     		subs	r1, r1, #36
 142              	.LVL2:
 143 0012 4618     		adds	r6, r0, r1
 144 0014 C660     		str	r6, [r0, #12]
 145              	.LBB24:
 146              	.LBB19:
 147              		.loc 1 72 0
 148 0016 4FF0020B 		mov	fp, #2
 149              	.LBE19:
 150              	.LBE24:
 151              		.loc 1 160 0
 152 001a 4350     		str	r3, [r0, r1]
 153              	.LBB25:
 154              	.LBB20:
 155              		.loc 1 75 0
 156 001c 4FF0140A 		mov	r10, #20
 157              	.LBE20:
 158              	.LBE25:
 159              		.loc 1 160 0
 160 0020 7760     		str	r7, [r6, #4]
 161              	.LBB26:
 162              	.LBB21:
 163              		.loc 1 73 0
 164 0022 0023     		movs	r3, #0
 165              	.LVL3:
 166              		.loc 1 98 0
 167 0024 00F12C07 		add	r7, r0, #44
 168              		.loc 1 88 0
 169 0028 4FF00109 		mov	r9, #1
 170              		.loc 1 95 0
 171 002c 00F12801 		add	r1, r0, #40
ARM GAS  /tmp/ccR3cH69.s 			page 4


 172              	.LVL4:
 173              	.LBE21:
 174              	.LBE26:
 175              		.loc 1 160 0
 176 0030 C6F82080 		str	r8, [r6, #32]
 177              	.LVL5:
 178              	.LBB27:
 179              	.LBB22:
 180              		.loc 1 92 0
 181 0034 0561     		str	r5, [r0, #16]
 182              		.loc 1 71 0
 183 0036 8260     		str	r2, [r0, #8]
 184              		.loc 1 72 0
 185 0038 80F81CB0 		strb	fp, [r0, #28]
 186              	.LVL6:
 187              		.loc 1 75 0
 188 003c 80F81FA0 		strb	r10, [r0, #31]
 189              		.loc 1 88 0
 190 0040 80F81E90 		strb	r9, [r0, #30]
 191              		.loc 1 92 0
 192 0044 C0F814C0 		str	ip, [r0, #20]
 193              		.loc 1 78 0
 194 0048 0264     		str	r2, [r0, #64]
 195              		.loc 1 92 0
 196 004a 6861     		str	r0, [r5, #20]
 197              		.loc 1 73 0
 198 004c 4377     		strb	r3, [r0, #29]
 199              		.loc 1 79 0
 200 004e C363     		str	r3, [r0, #60]
 201              		.loc 1 82 0
 202 0050 8363     		str	r3, [r0, #56]
 203              		.loc 1 85 0
 204 0052 0362     		str	r3, [r0, #32]
 205              		.loc 1 91 0
 206 0054 8361     		str	r3, [r0, #24]
 207              		.loc 1 92 0
 208 0056 CCF81000 		str	r0, [ip, #16]
 209              		.loc 1 98 0
 210 005a 0763     		str	r7, [r0, #48]
 211 005c C762     		str	r7, [r0, #44]
 212              		.loc 1 95 0
 213 005e 8162     		str	r1, [r0, #40]
 214              	.LBE22:
 215              	.LBE27:
 216              		.loc 1 162 0
 217 0060 BDE8F00F 		pop	{r4, r5, r6, r7, r8, r9, r10, fp}
 218              	.LVL7:
 219 0064 7047     		bx	lr
 220              	.L6:
 221 0066 00BF     		.align	2
 222              	.L5:
 223 0068 00000000 		.word	rlist
 224 006c 00000000 		.word	_port_thread_start
 225              		.cfi_endproc
 226              	.LFE8:
 227              		.size	chThdCreateI, .-chThdCreateI
 228              		.section	.text.chThdCreateStatic,"ax",%progbits
ARM GAS  /tmp/ccR3cH69.s 			page 5


 229              		.align	2
 230              		.p2align 4,,15
 231              		.global	chThdCreateStatic
 232              		.thumb
 233              		.thumb_func
 234              		.type	chThdCreateStatic, %function
 235              	chThdCreateStatic:
 236              	.LFB9:
 237              		.loc 1 181 0
 238              		.cfi_startproc
 239              		@ args = 4, pretend = 0, frame = 0
 240              		@ frame_needed = 0, uses_anonymous_args = 0
 241              	.LVL8:
 242 0000 2DE9F84F 		push	{r3, r4, r5, r6, r7, r8, r9, r10, fp, lr}
 243              		.cfi_def_cfa_offset 40
 244              		.cfi_offset 3, -40
 245              		.cfi_offset 4, -36
 246              		.cfi_offset 5, -32
 247              		.cfi_offset 6, -28
 248              		.cfi_offset 7, -24
 249              		.cfi_offset 8, -20
 250              		.cfi_offset 9, -16
 251              		.cfi_offset 10, -12
 252              		.cfi_offset 11, -8
 253              		.cfi_offset 14, -4
 254              		.loc 1 181 0
 255 0004 9E46     		mov	lr, r3
 256 0006 0446     		mov	r4, r0
 257              	.LBB28:
 258              		.loc 1 192 0
 259 0008 2023     		movs	r3, #32
 260              	.LVL9:
 261              	@ 192 "../../os/kernel/src/chthreads.c" 1
 262 000a 83F31188 		msr     BASEPRI, r3
 263              	@ 0 "" 2
 264              	.LVL10:
 265              		.thumb
 266              	.LBE28:
 267              	.LBB29:
 268              	.LBB30:
 269              	.LBB31:
 270              	.LBB32:
 271              		.loc 1 92 0
 272 000e 1B4E     		ldr	r6, .L8
 273              	.LBE32:
 274              	.LBE31:
 275              		.loc 1 160 0
 276 0010 DFF86CB0 		ldr	fp, .L8+4
 277              	.LBB40:
 278              	.LBB33:
 279              		.loc 1 92 0
 280 0014 7769     		ldr	r7, [r6, #20]
 281              	.LBE33:
 282              	.LBE40:
 283              		.loc 1 160 0
 284 0016 2439     		subs	r1, r1, #36
 285              	.LVL11:
ARM GAS  /tmp/ccR3cH69.s 			page 6


 286 0018 0844     		add	r0, r0, r1
 287              	.LVL12:
 288              	.LBB41:
 289              	.LBB34:
 290              		.loc 1 73 0
 291 001a 0025     		movs	r5, #0
 292              	.LBE34:
 293              	.LBE41:
 294              		.loc 1 160 0
 295 001c E060     		str	r0, [r4, #12]
 296              	.LBB42:
 297              	.LBB35:
 298              		.loc 1 98 0
 299 001e 04F12C03 		add	r3, r4, #44
 300              	.LBE35:
 301              	.LBE42:
 302              		.loc 1 160 0
 303 0022 44F801E0 		str	lr, [r4, r1]
 304              	.LBB43:
 305              	.LBB36:
 306              		.loc 1 95 0
 307 0026 04F1280C 		add	ip, r4, #40
 308              	.LBE36:
 309              	.LBE43:
 310              		.loc 1 160 0
 311 002a 0A99     		ldr	r1, [sp, #40]
 312              	.LVL13:
 313 002c 4160     		str	r1, [r0, #4]
 314              	.LBB44:
 315              	.LBB37:
 316              		.loc 1 72 0
 317 002e 4FF0020A 		mov	r10, #2
 318              		.loc 1 75 0
 319 0032 4FF01409 		mov	r9, #20
 320              		.loc 1 88 0
 321 0036 4FF00108 		mov	r8, #1
 322              	.LBE37:
 323              	.LBE44:
 324              		.loc 1 160 0
 325 003a C0F820B0 		str	fp, [r0, #32]
 326              	.LVL14:
 327              	.LBE30:
 328              	.LBE29:
 329              		.loc 1 193 0
 330 003e 2946     		mov	r1, r5
 331              	.LBB49:
 332              	.LBB47:
 333              	.LBB45:
 334              	.LBB38:
 335              		.loc 1 71 0
 336 0040 A260     		str	r2, [r4, #8]
 337              		.loc 1 92 0
 338 0042 2661     		str	r6, [r4, #16]
 339 0044 6761     		str	r7, [r4, #20]
 340              		.loc 1 78 0
 341 0046 2264     		str	r2, [r4, #64]
 342              		.loc 1 72 0
ARM GAS  /tmp/ccR3cH69.s 			page 7


 343 0048 84F81CA0 		strb	r10, [r4, #28]
 344              		.loc 1 75 0
 345 004c 84F81F90 		strb	r9, [r4, #31]
 346              		.loc 1 88 0
 347 0050 84F81E80 		strb	r8, [r4, #30]
 348              		.loc 1 73 0
 349 0054 6577     		strb	r5, [r4, #29]
 350              		.loc 1 92 0
 351 0056 7461     		str	r4, [r6, #20]
 352              		.loc 1 79 0
 353 0058 E563     		str	r5, [r4, #60]
 354              		.loc 1 82 0
 355 005a A563     		str	r5, [r4, #56]
 356              		.loc 1 85 0
 357 005c 2562     		str	r5, [r4, #32]
 358              		.loc 1 91 0
 359 005e A561     		str	r5, [r4, #24]
 360              	.LBE38:
 361              	.LBE45:
 362              	.LBE47:
 363              	.LBE49:
 364              		.loc 1 193 0
 365 0060 2046     		mov	r0, r4
 366              	.LBB50:
 367              	.LBB48:
 368              	.LBB46:
 369              	.LBB39:
 370              		.loc 1 92 0
 371 0062 3C61     		str	r4, [r7, #16]
 372              		.loc 1 98 0
 373 0064 2363     		str	r3, [r4, #48]
 374 0066 E362     		str	r3, [r4, #44]
 375              		.loc 1 95 0
 376 0068 C4F828C0 		str	ip, [r4, #40]
 377              	.LBE39:
 378              	.LBE46:
 379              	.LBE48:
 380              	.LBE50:
 381              		.loc 1 193 0
 382 006c FFF7FEFF 		bl	chSchWakeupS
 383              	.LVL15:
 384              	.LBB51:
 385              		.loc 1 194 0
 386 0070 2B46     		mov	r3, r5
 387              	@ 194 "../../os/kernel/src/chthreads.c" 1
 388 0072 83F31188 		msr     BASEPRI, r3
 389              	@ 0 "" 2
 390              		.thumb
 391              	.LBE51:
 392              		.loc 1 196 0
 393 0076 2046     		mov	r0, r4
 394 0078 BDE8F88F 		pop	{r3, r4, r5, r6, r7, r8, r9, r10, fp, pc}
 395              	.LVL16:
 396              	.L9:
 397              		.align	2
 398              	.L8:
 399 007c 00000000 		.word	rlist
ARM GAS  /tmp/ccR3cH69.s 			page 8


 400 0080 00000000 		.word	_port_thread_start
 401              		.cfi_endproc
 402              	.LFE9:
 403              		.size	chThdCreateStatic, .-chThdCreateStatic
 404 0084 AFF30080 		.section	.text.chThdSetPriority,"ax",%progbits
 404      AFF30080 
 404      AFF30080 
 405              		.align	2
 406              		.p2align 4,,15
 407              		.global	chThdSetPriority
 408              		.thumb
 409              		.thumb_func
 410              		.type	chThdSetPriority, %function
 411              	chThdSetPriority:
 412              	.LFB10:
 413              		.loc 1 210 0
 414              		.cfi_startproc
 415              		@ args = 0, pretend = 0, frame = 0
 416              		@ frame_needed = 0, uses_anonymous_args = 0
 417              	.LVL17:
 418 0000 10B5     		push	{r4, lr}
 419              		.cfi_def_cfa_offset 8
 420              		.cfi_offset 4, -8
 421              		.cfi_offset 14, -4
 422              	.LBB52:
 423              		.loc 1 215 0
 424 0002 2023     		movs	r3, #32
 425              	@ 215 "../../os/kernel/src/chthreads.c" 1
 426 0004 83F31188 		msr     BASEPRI, r3
 427              	@ 0 "" 2
 428              		.thumb
 429              	.LBE52:
 430              		.loc 1 217 0
 431 0008 084B     		ldr	r3, .L14
 432 000a 9B69     		ldr	r3, [r3, #24]
 433 000c 1C6C     		ldr	r4, [r3, #64]
 434              	.LVL18:
 435              		.loc 1 218 0
 436 000e 9968     		ldr	r1, [r3, #8]
 437 0010 8C42     		cmp	r4, r1
 438 0012 01D0     		beq	.L11
 439              		.loc 1 218 0 is_stmt 0 discriminator 1
 440 0014 8142     		cmp	r1, r0
 441 0016 00D2     		bcs	.L12
 442              	.L11:
 443              		.loc 1 219 0 is_stmt 1
 444 0018 9860     		str	r0, [r3, #8]
 445              	.L12:
 446              		.loc 1 220 0
 447 001a 1864     		str	r0, [r3, #64]
 448              		.loc 1 225 0
 449 001c FFF7FEFF 		bl	chSchRescheduleS
 450              	.LVL19:
 451              	.LBB53:
 452              		.loc 1 226 0
 453 0020 0023     		movs	r3, #0
 454              	@ 226 "../../os/kernel/src/chthreads.c" 1
ARM GAS  /tmp/ccR3cH69.s 			page 9


 455 0022 83F31188 		msr     BASEPRI, r3
 456              	@ 0 "" 2
 457              		.thumb
 458              	.LBE53:
 459              		.loc 1 228 0
 460 0026 2046     		mov	r0, r4
 461 0028 10BD     		pop	{r4, pc}
 462              	.LVL20:
 463              	.L15:
 464 002a 00BF     		.align	2
 465              	.L14:
 466 002c 00000000 		.word	rlist
 467              		.cfi_endproc
 468              	.LFE10:
 469              		.size	chThdSetPriority, .-chThdSetPriority
 470              		.section	.text.chThdResume,"ax",%progbits
 471              		.align	2
 472              		.p2align 4,,15
 473              		.global	chThdResume
 474              		.thumb
 475              		.thumb_func
 476              		.type	chThdResume, %function
 477              	chThdResume:
 478              	.LFB11:
 479              		.loc 1 243 0
 480              		.cfi_startproc
 481              		@ args = 0, pretend = 0, frame = 0
 482              		@ frame_needed = 0, uses_anonymous_args = 0
 483              	.LVL21:
 484 0000 10B5     		push	{r4, lr}
 485              		.cfi_def_cfa_offset 8
 486              		.cfi_offset 4, -8
 487              		.cfi_offset 14, -4
 488              	.LBB54:
 489              		.loc 1 245 0
 490 0002 2023     		movs	r3, #32
 491              	.LBE54:
 492              		.loc 1 243 0
 493 0004 0446     		mov	r4, r0
 494              	.LBB55:
 495              		.loc 1 245 0
 496              	@ 245 "../../os/kernel/src/chthreads.c" 1
 497 0006 83F31188 		msr     BASEPRI, r3
 498              	@ 0 "" 2
 499              		.thumb
 500              	.LBE55:
 501              		.loc 1 249 0
 502 000a 0021     		movs	r1, #0
 503 000c FFF7FEFF 		bl	chSchWakeupS
 504              	.LVL22:
 505              	.LBB56:
 506              		.loc 1 250 0
 507 0010 0023     		movs	r3, #0
 508              	@ 250 "../../os/kernel/src/chthreads.c" 1
 509 0012 83F31188 		msr     BASEPRI, r3
 510              	@ 0 "" 2
 511              		.thumb
ARM GAS  /tmp/ccR3cH69.s 			page 10


 512              	.LBE56:
 513              		.loc 1 252 0
 514 0016 2046     		mov	r0, r4
 515 0018 10BD     		pop	{r4, pc}
 516              		.cfi_endproc
 517              	.LFE11:
 518              		.size	chThdResume, .-chThdResume
 519 001a 00BFAFF3 		.section	.text.chThdTerminate,"ax",%progbits
 519      0080
 520              		.align	2
 521              		.p2align 4,,15
 522              		.global	chThdTerminate
 523              		.thumb
 524              		.thumb_func
 525              		.type	chThdTerminate, %function
 526              	chThdTerminate:
 527              	.LFB12:
 528              		.loc 1 266 0
 529              		.cfi_startproc
 530              		@ args = 0, pretend = 0, frame = 0
 531              		@ frame_needed = 0, uses_anonymous_args = 0
 532              		@ link register save eliminated.
 533              	.LVL23:
 534              	.LBB57:
 535              		.loc 1 268 0
 536 0000 2023     		movs	r3, #32
 537              	@ 268 "../../os/kernel/src/chthreads.c" 1
 538 0002 83F31188 		msr     BASEPRI, r3
 539              	@ 0 "" 2
 540              		.thumb
 541              	.LBE57:
 542              		.loc 1 269 0
 543 0006 437F     		ldrb	r3, [r0, #29]	@ zero_extendqisi2
 544 0008 43F00403 		orr	r3, r3, #4
 545 000c 4377     		strb	r3, [r0, #29]
 546              	.LBB58:
 547              		.loc 1 270 0
 548 000e 0023     		movs	r3, #0
 549              	@ 270 "../../os/kernel/src/chthreads.c" 1
 550 0010 83F31188 		msr     BASEPRI, r3
 551              	@ 0 "" 2
 552              		.thumb
 553 0014 7047     		bx	lr
 554              	.LBE58:
 555              		.cfi_endproc
 556              	.LFE12:
 557              		.size	chThdTerminate, .-chThdTerminate
 558 0016 00BFAFF3 		.section	.text.chThdSleep,"ax",%progbits
 558      0080AFF3 
 558      0080
 559              		.align	2
 560              		.p2align 4,,15
 561              		.global	chThdSleep
 562              		.thumb
 563              		.thumb_func
 564              		.type	chThdSleep, %function
 565              	chThdSleep:
ARM GAS  /tmp/ccR3cH69.s 			page 11


 566              	.LFB13:
 567              		.loc 1 285 0
 568              		.cfi_startproc
 569              		@ args = 0, pretend = 0, frame = 0
 570              		@ frame_needed = 0, uses_anonymous_args = 0
 571              	.LVL24:
 572 0000 08B5     		push	{r3, lr}
 573              		.cfi_def_cfa_offset 8
 574              		.cfi_offset 3, -8
 575              		.cfi_offset 14, -4
 576              		.loc 1 285 0
 577 0002 0146     		mov	r1, r0
 578              	.LBB59:
 579              		.loc 1 289 0
 580 0004 2023     		movs	r3, #32
 581              	@ 289 "../../os/kernel/src/chthreads.c" 1
 582 0006 83F31188 		msr     BASEPRI, r3
 583              	@ 0 "" 2
 584              		.thumb
 585              	.LBE59:
 586              		.loc 1 290 0
 587 000a 0620     		movs	r0, #6
 588              	.LVL25:
 589 000c FFF7FEFF 		bl	chSchGoSleepTimeoutS
 590              	.LVL26:
 591              	.LBB60:
 592              		.loc 1 291 0
 593 0010 0023     		movs	r3, #0
 594              	@ 291 "../../os/kernel/src/chthreads.c" 1
 595 0012 83F31188 		msr     BASEPRI, r3
 596              	@ 0 "" 2
 597              		.thumb
 598 0016 08BD     		pop	{r3, pc}
 599              	.LBE60:
 600              		.cfi_endproc
 601              	.LFE13:
 602              		.size	chThdSleep, .-chThdSleep
 603 0018 AFF30080 		.section	.text.chThdSleepUntil,"ax",%progbits
 603      AFF30080 
 604              		.align	2
 605              		.p2align 4,,15
 606              		.global	chThdSleepUntil
 607              		.thumb
 608              		.thumb_func
 609              		.type	chThdSleepUntil, %function
 610              	chThdSleepUntil:
 611              	.LFB14:
 612              		.loc 1 302 0
 613              		.cfi_startproc
 614              		@ args = 0, pretend = 0, frame = 0
 615              		@ frame_needed = 0, uses_anonymous_args = 0
 616              	.LVL27:
 617 0000 08B5     		push	{r3, lr}
 618              		.cfi_def_cfa_offset 8
 619              		.cfi_offset 3, -8
 620              		.cfi_offset 14, -4
 621              	.LBB61:
ARM GAS  /tmp/ccR3cH69.s 			page 12


 622              		.loc 1 304 0
 623 0002 2023     		movs	r3, #32
 624              	@ 304 "../../os/kernel/src/chthreads.c" 1
 625 0004 83F31188 		msr     BASEPRI, r3
 626              	@ 0 "" 2
 627              		.thumb
 628              	.LBE61:
 629              		.loc 1 305 0
 630 0008 054B     		ldr	r3, .L24
 631 000a D968     		ldr	r1, [r3, #12]
 632              	.LVL28:
 633 000c 411A     		subs	r1, r0, r1
 634              	.LVL29:
 635 000e 02D0     		beq	.L20
 636              		.loc 1 306 0
 637 0010 0620     		movs	r0, #6
 638 0012 FFF7FEFF 		bl	chSchGoSleepTimeoutS
 639              	.LVL30:
 640              	.L20:
 641              	.LBB62:
 642              		.loc 1 307 0
 643 0016 0023     		movs	r3, #0
 644              	@ 307 "../../os/kernel/src/chthreads.c" 1
 645 0018 83F31188 		msr     BASEPRI, r3
 646              	@ 0 "" 2
 647              		.thumb
 648 001c 08BD     		pop	{r3, pc}
 649              	.L25:
 650 001e 00BF     		.align	2
 651              	.L24:
 652 0020 00000000 		.word	vtlist
 653              	.LBE62:
 654              		.cfi_endproc
 655              	.LFE14:
 656              		.size	chThdSleepUntil, .-chThdSleepUntil
 657 0024 AFF30080 		.section	.text.chThdYield,"ax",%progbits
 657      AFF30080 
 657      AFF30080 
 658              		.align	2
 659              		.p2align 4,,15
 660              		.global	chThdYield
 661              		.thumb
 662              		.thumb_func
 663              		.type	chThdYield, %function
 664              	chThdYield:
 665              	.LFB15:
 666              		.loc 1 317 0
 667              		.cfi_startproc
 668              		@ args = 0, pretend = 0, frame = 0
 669              		@ frame_needed = 0, uses_anonymous_args = 0
 670 0000 08B5     		push	{r3, lr}
 671              		.cfi_def_cfa_offset 8
 672              		.cfi_offset 3, -8
 673              		.cfi_offset 14, -4
 674              	.LBB63:
 675              		.loc 1 319 0
 676 0002 2023     		movs	r3, #32
ARM GAS  /tmp/ccR3cH69.s 			page 13


 677              	@ 319 "../../os/kernel/src/chthreads.c" 1
 678 0004 83F31188 		msr     BASEPRI, r3
 679              	@ 0 "" 2
 680              		.thumb
 681              	.LBE63:
 682              		.loc 1 320 0
 683 0008 064B     		ldr	r3, .L28
 684 000a 1A68     		ldr	r2, [r3]
 685 000c 9B69     		ldr	r3, [r3, #24]
 686 000e 9268     		ldr	r2, [r2, #8]
 687 0010 9B68     		ldr	r3, [r3, #8]
 688 0012 9A42     		cmp	r2, r3
 689 0014 01D3     		bcc	.L27
 690              		.loc 1 320 0 is_stmt 0 discriminator 1
 691 0016 FFF7FEFF 		bl	chSchDoRescheduleBehind
 692              	.LVL31:
 693              	.L27:
 694              	.LBB64:
 695              		.loc 1 321 0 is_stmt 1
 696 001a 0023     		movs	r3, #0
 697              	@ 321 "../../os/kernel/src/chthreads.c" 1
 698 001c 83F31188 		msr     BASEPRI, r3
 699              	@ 0 "" 2
 700              		.thumb
 701 0020 08BD     		pop	{r3, pc}
 702              	.L29:
 703 0022 00BF     		.align	2
 704              	.L28:
 705 0024 00000000 		.word	rlist
 706              	.LBE64:
 707              		.cfi_endproc
 708              	.LFE15:
 709              		.size	chThdYield, .-chThdYield
 710 0028 AFF30080 		.section	.text.chThdExitS,"ax",%progbits
 710      AFF30080 
 711              		.align	2
 712              		.p2align 4,,15
 713              		.global	chThdExitS
 714              		.thumb
 715              		.thumb_func
 716              		.type	chThdExitS, %function
 717              	chThdExitS:
 718              	.LFB17:
 719              		.loc 1 359 0
 720              		.cfi_startproc
 721              		@ args = 0, pretend = 0, frame = 0
 722              		@ frame_needed = 0, uses_anonymous_args = 0
 723              	.LVL32:
 724 0000 38B5     		push	{r3, r4, r5, lr}
 725              		.cfi_def_cfa_offset 16
 726              		.cfi_offset 3, -16
 727              		.cfi_offset 4, -12
 728              		.cfi_offset 5, -8
 729              		.cfi_offset 14, -4
 730              		.loc 1 360 0
 731 0002 0E4B     		ldr	r3, .L36
 732 0004 9C69     		ldr	r4, [r3, #24]
ARM GAS  /tmp/ccR3cH69.s 			page 14


 733              	.LVL33:
 734              		.loc 1 367 0
 735 0006 2546     		mov	r5, r4
 736              		.loc 1 362 0
 737 0008 6062     		str	r0, [r4, #36]
 738              		.loc 1 367 0
 739 000a 55F8280F 		ldr	r0, [r5, #40]!
 740              	.LVL34:
 741 000e A842     		cmp	r0, r5
 742 0010 06D0     		beq	.L34
 743              	.LVL35:
 744              	.L35:
 745              	.LBB65:
 746              	.LBB66:
 747              		.file 2 "../../os/kernel/include/chinline.h"
 748              		.loc 2 82 0
 749 0012 0368     		ldr	r3, [r0]
 750 0014 A362     		str	r3, [r4, #40]
 751              	.LBE66:
 752              	.LBE65:
 753              		.loc 1 368 0
 754 0016 FFF7FEFF 		bl	chSchReadyI
 755              	.LVL36:
 756              		.loc 1 367 0
 757 001a A06A     		ldr	r0, [r4, #40]
 758 001c A842     		cmp	r0, r5
 759 001e F8D1     		bne	.L35
 760              	.LVL37:
 761              	.L34:
 762              		.loc 1 373 0
 763 0020 637F     		ldrb	r3, [r4, #29]	@ zero_extendqisi2
 764 0022 9B07     		lsls	r3, r3, #30
 765 0024 04D1     		bne	.L33
 766              		.loc 1 374 0
 767 0026 6369     		ldr	r3, [r4, #20]
 768 0028 2269     		ldr	r2, [r4, #16]
 769 002a 1A61     		str	r2, [r3, #16]
 770 002c 2269     		ldr	r2, [r4, #16]
 771 002e 5361     		str	r3, [r2, #20]
 772              	.L33:
 773              		.loc 1 376 0
 774 0030 0E20     		movs	r0, #14
 775              		.loc 1 379 0
 776 0032 BDE83840 		pop	{r3, r4, r5, lr}
 777              	.LVL38:
 778              		.loc 1 376 0
 779 0036 FFF7FEBF 		b	chSchGoSleepS
 780              	.LVL39:
 781              	.L37:
 782 003a 00BF     		.align	2
 783              	.L36:
 784 003c 00000000 		.word	rlist
 785              		.cfi_endproc
 786              	.LFE17:
 787              		.size	chThdExitS, .-chThdExitS
 788              		.section	.text.chThdExit,"ax",%progbits
 789              		.align	2
ARM GAS  /tmp/ccR3cH69.s 			page 15


 790              		.p2align 4,,15
 791              		.global	chThdExit
 792              		.thumb
 793              		.thumb_func
 794              		.type	chThdExit, %function
 795              	chThdExit:
 796              	.LFB16:
 797              		.loc 1 338 0
 798              		.cfi_startproc
 799              		@ args = 0, pretend = 0, frame = 0
 800              		@ frame_needed = 0, uses_anonymous_args = 0
 801              		@ link register save eliminated.
 802              	.LVL40:
 803              	.LBB67:
 804              		.loc 1 340 0
 805 0000 2023     		movs	r3, #32
 806              	@ 340 "../../os/kernel/src/chthreads.c" 1
 807 0002 83F31188 		msr     BASEPRI, r3
 808              	@ 0 "" 2
 809              		.thumb
 810              	.LBE67:
 811              		.loc 1 341 0
 812 0006 FFF7FEBF 		b	chThdExitS
 813              	.LVL41:
 814              		.cfi_endproc
 815              	.LFE16:
 816              		.size	chThdExit, .-chThdExit
 817 000a 00BFAFF3 		.section	.text.chThdWait,"ax",%progbits
 817      0080
 818              		.align	2
 819              		.p2align 4,,15
 820              		.global	chThdWait
 821              		.thumb
 822              		.thumb_func
 823              		.type	chThdWait, %function
 824              	chThdWait:
 825              	.LFB18:
 826              		.loc 1 413 0
 827              		.cfi_startproc
 828              		@ args = 0, pretend = 0, frame = 0
 829              		@ frame_needed = 0, uses_anonymous_args = 0
 830              	.LVL42:
 831 0000 38B5     		push	{r3, r4, r5, lr}
 832              		.cfi_def_cfa_offset 16
 833              		.cfi_offset 3, -16
 834              		.cfi_offset 4, -12
 835              		.cfi_offset 5, -8
 836              		.cfi_offset 14, -4
 837              		.loc 1 413 0
 838 0002 0446     		mov	r4, r0
 839              	.LBB68:
 840              		.loc 1 418 0
 841 0004 2023     		movs	r3, #32
 842              	@ 418 "../../os/kernel/src/chthreads.c" 1
 843 0006 83F31188 		msr     BASEPRI, r3
 844              	@ 0 "" 2
 845              		.thumb
ARM GAS  /tmp/ccR3cH69.s 			page 16


 846              	.LBE68:
 847              		.loc 1 423 0
 848 000a 037F     		ldrb	r3, [r0, #28]	@ zero_extendqisi2
 849 000c 0E2B     		cmp	r3, #14
 850 000e 07D0     		beq	.L40
 851              		.loc 1 424 0
 852 0010 084B     		ldr	r3, .L44
 853              	.LBB69:
 854              	.LBB70:
 855              		.loc 2 75 0
 856 0012 826A     		ldr	r2, [r0, #40]
 857              	.LBE70:
 858              	.LBE69:
 859              		.loc 1 424 0
 860 0014 9B69     		ldr	r3, [r3, #24]
 861              	.LVL43:
 862              		.loc 1 425 0
 863 0016 0720     		movs	r0, #7
 864              	.LVL44:
 865              	.LBB72:
 866              	.LBB71:
 867              		.loc 2 75 0
 868 0018 1A60     		str	r2, [r3]
 869              		.loc 2 76 0
 870 001a A362     		str	r3, [r4, #40]
 871              	.LBE71:
 872              	.LBE72:
 873              		.loc 1 425 0
 874 001c FFF7FEFF 		bl	chSchGoSleepS
 875              	.LVL45:
 876              	.L40:
 877              		.loc 1 427 0
 878 0020 656A     		ldr	r5, [r4, #36]
 879              	.LVL46:
 880              	.LBB73:
 881              		.loc 1 428 0
 882 0022 0023     		movs	r3, #0
 883              	@ 428 "../../os/kernel/src/chthreads.c" 1
 884 0024 83F31188 		msr     BASEPRI, r3
 885              	@ 0 "" 2
 886              		.thumb
 887              	.LBE73:
 888              		.loc 1 430 0
 889 0028 2046     		mov	r0, r4
 890 002a FFF7FEFF 		bl	chThdRelease
 891              	.LVL47:
 892              		.loc 1 433 0
 893 002e 2846     		mov	r0, r5
 894 0030 38BD     		pop	{r3, r4, r5, pc}
 895              	.LVL48:
 896              	.L45:
 897 0032 00BF     		.align	2
 898              	.L44:
 899 0034 00000000 		.word	rlist
 900              		.cfi_endproc
 901              	.LFE18:
 902              		.size	chThdWait, .-chThdWait
ARM GAS  /tmp/ccR3cH69.s 			page 17


 903 0038 AFF30080 		.text
 903      AFF30080 
 904              	.Letext0:
 905              		.file 3 "/usr/lib/gcc/arm-none-eabi/4.8.3/include/stddef.h"
 906              		.file 4 "/usr/arm-none-eabi/include/stdint.h"
 907              		.file 5 "../../os/ports/GCC/ARMCMx/chtypes.h"
 908              		.file 6 "../../os/kernel/include/chlists.h"
 909              		.file 7 "../../os/kernel/include/chthreads.h"
 910              		.file 8 "../../os/ports/GCC/ARMCMx/chcore_v7m.h"
 911              		.file 9 "../../os/kernel/include/chvt.h"
 912              		.file 10 "../../os/kernel/include/chschd.h"
 913              		.file 11 "../../os/kernel/include/chmtx.h"
 914              		.file 12 "../../os/kernel/include/chdynamic.h"