ARM GAS  /tmp/ccLqIsz1.s 			page 1


   1              		.syntax unified
   2              		.cpu cortex-m4
   3              		.fpu softvfp
   4              		.eabi_attribute 20, 1
   5              		.eabi_attribute 21, 1
   6              		.eabi_attribute 23, 3
   7              		.eabi_attribute 24, 1
   8              		.eabi_attribute 25, 1
   9              		.eabi_attribute 26, 1
  10              		.eabi_attribute 30, 2
  11              		.eabi_attribute 34, 1
  12              		.eabi_attribute 18, 4
  13              		.thumb
  14              		.file	"hal.c"
  15              		.text
  16              	.Ltext0:
  17              		.cfi_sections	.debug_frame
  18              		.section	.text.halInit,"ax",%progbits
  19              		.align	2
  20              		.p2align 4,,15
  21              		.global	halInit
  22              		.thumb
  23              		.thumb_func
  24              		.type	halInit, %function
  25              	halInit:
  26              	.LFB118:
  27              		.file 1 "../../os/hal/src/hal.c"
  28              		.loc 1 61 0
  29              		.cfi_startproc
  30              		@ args = 0, pretend = 0, frame = 0
  31              		@ frame_needed = 0, uses_anonymous_args = 0
  32 0000 08B5     		push	{r3, lr}
  33              		.cfi_def_cfa_offset 8
  34              		.cfi_offset 3, -8
  35              		.cfi_offset 14, -4
  36              		.loc 1 63 0
  37 0002 FFF7FEFF 		bl	hal_lld_init
  38              	.LVL0:
  39              		.loc 1 69 0
  40 0006 0448     		ldr	r0, .L2
  41 0008 FFF7FEFF 		bl	_pal_lld_init
  42              	.LVL1:
  43              		.loc 1 99 0
  44 000c FFF7FEFF 		bl	sdInit
  45              	.LVL2:
  46              		.loc 1 124 0
  47 0010 BDE80840 		pop	{r3, lr}
  48              		.loc 1 123 0
  49 0014 FFF7FEBF 		b	boardInit
  50              	.LVL3:
  51              	.L3:
  52              		.align	2
  53              	.L2:
  54 0018 00000000 		.word	pal_default_config
  55              		.cfi_endproc
  56              	.LFE118:
  57              		.size	halInit, .-halInit
ARM GAS  /tmp/ccLqIsz1.s 			page 2


  58 001c AFF30080 		.section	.text.halIsCounterWithin,"ax",%progbits
  59              		.align	2
  60              		.p2align 4,,15
  61              		.global	halIsCounterWithin
  62              		.thumb
  63              		.thumb_func
  64              		.type	halIsCounterWithin, %function
  65              	halIsCounterWithin:
  66              	.LFB119:
  67              		.loc 1 170 0
  68              		.cfi_startproc
  69              		@ args = 0, pretend = 0, frame = 0
  70              		@ frame_needed = 0, uses_anonymous_args = 0
  71              		@ link register save eliminated.
  72              	.LVL4:
  73              		.loc 1 171 0
  74 0000 084B     		ldr	r3, .L13
  75              		.loc 1 173 0
  76 0002 8142     		cmp	r1, r0
  77              		.loc 1 171 0
  78 0004 5B68     		ldr	r3, [r3, #4]
  79              	.LVL5:
  80              		.loc 1 173 0
  81 0006 06D9     		bls	.L5
  82              		.loc 1 173 0 is_stmt 0 discriminator 1
  83 0008 8342     		cmp	r3, r0
  84 000a 08D3     		bcc	.L9
  85              	.L11:
  86 000c 8B42     		cmp	r3, r1
  87 000e 2CBF     		ite	cs
  88 0010 0020     		movcs	r0, #0
  89              	.LVL6:
  90 0012 0120     		movcc	r0, #1
  91 0014 7047     		bx	lr
  92              	.LVL7:
  93              	.L5:
  94              		.loc 1 174 0 is_stmt 1
  95 0016 8342     		cmp	r3, r0
  96 0018 F8D3     		bcc	.L11
  97 001a 0120     		movs	r0, #1
  98              	.LVL8:
  99              		.loc 1 175 0
 100 001c 7047     		bx	lr
 101              	.LVL9:
 102              	.L9:
 103 001e 0020     		movs	r0, #0
 104              	.LVL10:
 105 0020 7047     		bx	lr
 106              	.L14:
 107 0022 00BF     		.align	2
 108              	.L13:
 109 0024 001000E0 		.word	-536866816
 110              		.cfi_endproc
 111              	.LFE119:
 112              		.size	halIsCounterWithin, .-halIsCounterWithin
 113 0028 AFF30080 		.section	.text.halPolledDelay,"ax",%progbits
 113      AFF30080 
ARM GAS  /tmp/ccLqIsz1.s 			page 3


 114              		.align	2
 115              		.p2align 4,,15
 116              		.global	halPolledDelay
 117              		.thumb
 118              		.thumb_func
 119              		.type	halPolledDelay, %function
 120              	halPolledDelay:
 121              	.LFB120:
 122              		.loc 1 189 0
 123              		.cfi_startproc
 124              		@ args = 0, pretend = 0, frame = 0
 125              		@ frame_needed = 0, uses_anonymous_args = 0
 126              		@ link register save eliminated.
 127              	.LVL11:
 128              		.loc 1 190 0
 129 0000 0C49     		ldr	r1, .L26
 130 0002 4A68     		ldr	r2, [r1, #4]
 131              	.LVL12:
 132              		.loc 1 191 0
 133 0004 1044     		add	r0, r0, r2
 134              	.LVL13:
 135              	.L21:
 136              	.LBB4:
 137              	.LBB5:
 138              		.loc 1 173 0 discriminator 1
 139 0006 8242     		cmp	r2, r0
 140              		.loc 1 171 0 discriminator 1
 141 0008 4B68     		ldr	r3, [r1, #4]
 142              	.LVL14:
 143              		.loc 1 173 0 discriminator 1
 144 000a 0CD2     		bcs	.L16
 145              		.loc 1 173 0 is_stmt 0
 146 000c 9A42     		cmp	r2, r3
 147 000e 03D9     		bls	.L24
 148 0010 0023     		movs	r3, #0
 149              	.LVL15:
 150              	.LBE5:
 151              	.LBE4:
 152              		.loc 1 192 0 is_stmt 1
 153 0012 002B     		cmp	r3, #0
 154 0014 F7D1     		bne	.L21
 155              	.L25:
 156              		.loc 1 194 0
 157 0016 7047     		bx	lr
 158              	.LVL16:
 159              	.L24:
 160 0018 9842     		cmp	r0, r3
 161 001a 94BF     		ite	ls
 162 001c 0023     		movls	r3, #0
 163              	.LVL17:
 164 001e 0123     		movhi	r3, #1
 165              		.loc 1 192 0
 166 0020 002B     		cmp	r3, #0
 167 0022 F0D1     		bne	.L21
 168 0024 F7E7     		b	.L25
 169              	.LVL18:
 170              	.L16:
ARM GAS  /tmp/ccLqIsz1.s 			page 4


 171              	.LBB7:
 172              	.LBB6:
 173              		.loc 1 174 0
 174 0026 9A42     		cmp	r2, r3
 175 0028 F6D8     		bhi	.L24
 176 002a 0123     		movs	r3, #1
 177              	.LVL19:
 178              	.LBE6:
 179              	.LBE7:
 180              		.loc 1 192 0
 181 002c 002B     		cmp	r3, #0
 182 002e EAD1     		bne	.L21
 183 0030 F1E7     		b	.L25
 184              	.L27:
 185 0032 00BF     		.align	2
 186              	.L26:
 187 0034 001000E0 		.word	-536866816
 188              		.cfi_endproc
 189              	.LFE120:
 190              		.size	halPolledDelay, .-halPolledDelay
 191 0038 AFF30080 		.text
 191      AFF30080 
 192              	.Letext0:
 193              		.file 2 "/usr/arm-none-eabi/include/stdint.h"
 194              		.file 3 "../../os/ports/GCC/ARMCMx/chtypes.h"
 195              		.file 4 "../../os/ports/common/ARMCMx/nvic.h"
 196              		.file 5 "../../os/hal/platforms/STM32F30x/hal_lld.h"
 197              		.file 6 "../../os/hal/platforms/STM32/GPIOv2/pal_lld.h"
 198              		.file 7 "../../os/ports/common/ARMCMx/CMSIS/include/core_cm4.h"
 199              		.file 8 "../../os/hal/include/serial.h"
 200              		.file 9 "../../boards/ST_STM32F303C/board.h"