ARM GAS  /tmp/cctLm93U.s 			page 1


   1              		.syntax unified
   2              		.cpu cortex-m4
   3              		.fpu softvfp
   4              		.eabi_attribute 20, 1
   5              		.eabi_attribute 21, 1
   6              		.eabi_attribute 23, 3
   7              		.eabi_attribute 24, 1
   8              		.eabi_attribute 25, 1
   9              		.eabi_attribute 26, 1
  10              		.eabi_attribute 30, 2
  11              		.eabi_attribute 34, 1
  12              		.eabi_attribute 18, 4
  13              		.thumb
  14              		.file	"main.c"
  15              		.text
  16              	.Ltext0:
  17              		.cfi_sections	.debug_frame
  18              		.section	.text.Thread1,"ax",%progbits
  19              		.align	2
  20              		.p2align 4,,15
  21              		.thumb
  22              		.thumb_func
  23              		.type	Thread1, %function
  24              	Thread1:
  25              	.LFB118:
  26              		.file 1 "main.c"
  27              		.loc 1 25 0
  28              		.cfi_startproc
  29              		@ Volatile: function does not return.
  30              		@ args = 0, pretend = 0, frame = 0
  31              		@ frame_needed = 0, uses_anonymous_args = 0
  32              	.LVL0:
  33              		.loc 1 28 0
  34 0000 0E4B     		ldr	r3, .L4
  35 0002 0F4A     		ldr	r2, .L4+4
  36 0004 9B69     		ldr	r3, [r3, #24]
  37              		.loc 1 30 0
  38 0006 4FF40076 		mov	r6, #512
  39              		.loc 1 25 0
  40 000a 80B5     		push	{r7, lr}
  41              		.cfi_def_cfa_offset 8
  42              		.cfi_offset 7, -8
  43              		.cfi_offset 14, -4
  44              		.loc 1 30 0
  45 000c 4FF09044 		mov	r4, #1207959552
  46              		.loc 1 28 0
  47 0010 9A61     		str	r2, [r3, #24]
  48              		.loc 1 30 0
  49 0012 3746     		mov	r7, r6	@ movhi
  50              	.LVL1:
  51              	.L2:
  52              		.loc 1 30 0 is_stmt 0 discriminator 1
  53 0014 2783     		strh	r7, [r4, #24]	@ movhi
  54              		.loc 1 31 0 is_stmt 1 discriminator 1
  55 0016 7D20     		movs	r0, #125
  56 0018 FFF7FEFF 		bl	chThdSleep
  57              	.LVL2:
ARM GAS  /tmp/cctLm93U.s 			page 2


  58              		.loc 1 34 0 discriminator 1
  59 001c 4FF48075 		mov	r5, #256
  60              		.loc 1 32 0 discriminator 1
  61 0020 6683     		strh	r6, [r4, #26]	@ movhi
  62              		.loc 1 33 0 discriminator 1
  63 0022 7D20     		movs	r0, #125
  64 0024 FFF7FEFF 		bl	chThdSleep
  65              	.LVL3:
  66              		.loc 1 34 0 discriminator 1
  67 0028 2583     		strh	r5, [r4, #24]	@ movhi
  68              		.loc 1 35 0 discriminator 1
  69 002a 7D20     		movs	r0, #125
  70 002c FFF7FEFF 		bl	chThdSleep
  71              	.LVL4:
  72              		.loc 1 36 0 discriminator 1
  73 0030 6583     		strh	r5, [r4, #26]	@ movhi
  74              		.loc 1 37 0 discriminator 1
  75 0032 7D20     		movs	r0, #125
  76 0034 FFF7FEFF 		bl	chThdSleep
  77              	.LVL5:
  78 0038 ECE7     		b	.L2
  79              	.L5:
  80 003a 00BF     		.align	2
  81              	.L4:
  82 003c 00000000 		.word	rlist
  83 0040 00000000 		.word	.LC0
  84              		.cfi_endproc
  85              	.LFE118:
  86              		.size	Thread1, .-Thread1
  87 0044 AFF30080 		.section	.text.startup.main,"ax",%progbits
  87      AFF30080 
  87      AFF30080 
  88              		.align	2
  89              		.p2align 4,,15
  90              		.global	main
  91              		.thumb
  92              		.thumb_func
  93              		.type	main, %function
  94              	main:
  95              	.LFB119:
  96              		.loc 1 44 0
  97              		.cfi_startproc
  98              		@ Volatile: function does not return.
  99              		@ args = 0, pretend = 0, frame = 0
 100              		@ frame_needed = 0, uses_anonymous_args = 0
 101 0000 00B5     		push	{lr}
 102              		.cfi_def_cfa_offset 4
 103              		.cfi_offset 14, -4
 104 0002 83B0     		sub	sp, sp, #12
 105              		.cfi_def_cfa_offset 16
 106              		.loc 1 53 0
 107 0004 FFF7FEFF 		bl	halInit
 108              	.LVL6:
 109              		.loc 1 54 0
 110 0008 FFF7FEFF 		bl	chSysInit
 111              	.LVL7:
 112              		.loc 1 67 0
ARM GAS  /tmp/cctLm93U.s 			page 3


 113 000c 0023     		movs	r3, #0
 114 000e 0093     		str	r3, [sp]
 115 0010 0A48     		ldr	r0, .L12
 116 0012 0B4B     		ldr	r3, .L12+4
 117 0014 4FF49871 		mov	r1, #304
 118 0018 4022     		movs	r2, #64
 119 001a FFF7FEFF 		bl	chThdCreateStatic
 120              	.LVL8:
 121              		.loc 1 75 0
 122 001e 4FF09044 		mov	r4, #1207959552
 123 0022 03E0     		b	.L8
 124              	.L7:
 125              		.loc 1 77 0
 126 0024 4FF4FA70 		mov	r0, #500
 127 0028 FFF7FEFF 		bl	chThdSleep
 128              	.LVL9:
 129              	.L8:
 130              		.loc 1 75 0
 131 002c 2369     		ldr	r3, [r4, #16]
 132 002e 9B07     		lsls	r3, r3, #30
 133 0030 F8D5     		bpl	.L7
 134              		.loc 1 76 0
 135 0032 0448     		ldr	r0, .L12+8
 136 0034 FFF7FEFF 		bl	TestThread
 137              	.LVL10:
 138 0038 F4E7     		b	.L7
 139              	.L13:
 140 003a 00BF     		.align	2
 141              	.L12:
 142 003c 00000000 		.word	.LANCHOR0
 143 0040 00000000 		.word	Thread1
 144 0044 00000000 		.word	SD1
 145              		.cfi_endproc
 146              	.LFE119:
 147              		.size	main, .-main
 148 0048 AFF30080 		.section	.bss.waThread1,"aw",%nobits
 148      AFF30080 
 149              		.align	3
 150              		.set	.LANCHOR0,. + 0
 151              		.type	waThread1, %object
 152              		.size	waThread1, 304
 153              	waThread1:
 154 0000 00000000 		.space	304
 154      00000000 
 154      00000000 
 154      00000000 
 154      00000000 
 155              		.section	.rodata.str1.4,"aMS",%progbits,1
 156              		.align	2
 157              	.LC0:
 158 0000 626C696E 		.ascii	"blinker\000"
 158      6B657200 
 159              		.text
 160              	.Letext0:
 161              		.file 2 "/usr/lib/gcc/arm-none-eabi/4.8.3/include/stddef.h"
 162              		.file 3 "/usr/arm-none-eabi/include/stdint.h"
 163              		.file 4 "../../os/ports/GCC/ARMCMx/chtypes.h"
ARM GAS  /tmp/cctLm93U.s 			page 4


 164              		.file 5 "../../os/kernel/include/chlists.h"
 165              		.file 6 "../../os/kernel/include/chthreads.h"
 166              		.file 7 "../../os/ports/GCC/ARMCMx/chcore_v7m.h"
 167              		.file 8 "../../os/kernel/include/chschd.h"
 168              		.file 9 "../../os/kernel/include/chmtx.h"
 169              		.file 10 "../../os/kernel/include/chevents.h"
 170              		.file 11 "../../os/kernel/include/chqueues.h"
 171              		.file 12 "../../os/hal/platforms/STM32F30x/stm32f30x.h"
 172              		.file 13 "../../os/hal/platforms/STM32/GPIOv2/pal_lld.h"
 173              		.file 14 "../../os/hal/include/serial.h"
 174              		.file 15 "../../os/ports/common/ARMCMx/CMSIS/include/core_cm4.h"
 175              		.file 16 "../../os/hal/include/hal.h"
 176              		.file 17 "../../os/kernel/include/chsys.h"
 177              		.file 18 "../../test/test.h"
 178              		.file 19 "../../os/hal/platforms/STM32/USARTv2/serial_lld.h"