ARM GAS  /tmp/ccxK3mY9.s 			page 1


   1              		.syntax unified
   2              		.cpu cortex-m4
   3              		.fpu softvfp
   4              		.eabi_attribute 20, 1
   5              		.eabi_attribute 21, 1
   6              		.eabi_attribute 23, 3
   7              		.eabi_attribute 24, 1
   8              		.eabi_attribute 25, 1
   9              		.eabi_attribute 26, 1
  10              		.eabi_attribute 30, 2
  11              		.eabi_attribute 34, 1
  12              		.eabi_attribute 18, 4
  13              		.thumb
  14              		.file	"testsem.c"
  15              		.text
  16              	.Ltext0:
  17              		.cfi_sections	.debug_frame
  18              		.section	.text.sem1_execute,"ax",%progbits
  19              		.align	2
  20              		.p2align 4,,15
  21              		.thumb
  22              		.thumb_func
  23              		.type	sem1_execute, %function
  24              	sem1_execute:
  25              	.LFB9:
  26              		.file 1 "../../test/testsem.c"
  27              		.loc 1 84 0
  28              		.cfi_startproc
  29              		@ args = 0, pretend = 0, frame = 0
  30              		@ frame_needed = 0, uses_anonymous_args = 0
  31 0000 2DE9F041 		push	{r4, r5, r6, r7, r8, lr}
  32              		.cfi_def_cfa_offset 24
  33              		.cfi_offset 4, -24
  34              		.cfi_offset 5, -20
  35              		.cfi_offset 6, -16
  36              		.cfi_offset 7, -12
  37              		.cfi_offset 8, -8
  38              		.cfi_offset 14, -4
  39              		.loc 1 86 0
  40 0004 414D     		ldr	r5, .L5
  41 0006 424E     		ldr	r6, .L5+4
  42 0008 AB69     		ldr	r3, [r5, #24]
  43 000a D6F80080 		ldr	r8, [r6]
  44 000e 9A68     		ldr	r2, [r3, #8]
  45 0010 404F     		ldr	r7, .L5+8
  46 0012 414B     		ldr	r3, .L5+12
  47 0014 414C     		ldr	r4, .L5+16
  48              		.loc 1 84 0
  49 0016 82B0     		sub	sp, sp, #8
  50              		.cfi_def_cfa_offset 32
  51              		.loc 1 86 0
  52 0018 0532     		adds	r2, r2, #5
  53 001a 4FF49871 		mov	r1, #304
  54 001e 0097     		str	r7, [sp]
  55 0020 4046     		mov	r0, r8
  56 0022 FFF7FEFF 		bl	chThdCreateStatic
  57              	.LVL0:
ARM GAS  /tmp/ccxK3mY9.s 			page 2


  58              		.loc 1 87 0
  59 0026 AA69     		ldr	r2, [r5, #24]
  60 0028 7368     		ldr	r3, [r6, #4]
  61 002a 9268     		ldr	r2, [r2, #8]
  62 002c 3C49     		ldr	r1, .L5+20
  63              		.loc 1 86 0
  64 002e 2060     		str	r0, [r4]
  65              		.loc 1 87 0
  66 0030 0132     		adds	r2, r2, #1
  67 0032 1846     		mov	r0, r3
  68 0034 0091     		str	r1, [sp]
  69 0036 384B     		ldr	r3, .L5+12
  70 0038 4FF49871 		mov	r1, #304
  71 003c FFF7FEFF 		bl	chThdCreateStatic
  72              	.LVL1:
  73              		.loc 1 88 0
  74 0040 AA69     		ldr	r2, [r5, #24]
  75 0042 B368     		ldr	r3, [r6, #8]
  76 0044 9268     		ldr	r2, [r2, #8]
  77 0046 3749     		ldr	r1, .L5+24
  78              		.loc 1 87 0
  79 0048 6060     		str	r0, [r4, #4]
  80              		.loc 1 88 0
  81 004a 0332     		adds	r2, r2, #3
  82 004c 1846     		mov	r0, r3
  83 004e 0091     		str	r1, [sp]
  84 0050 314B     		ldr	r3, .L5+12
  85 0052 4FF49871 		mov	r1, #304
  86 0056 FFF7FEFF 		bl	chThdCreateStatic
  87              	.LVL2:
  88              		.loc 1 89 0
  89 005a AA69     		ldr	r2, [r5, #24]
  90 005c F368     		ldr	r3, [r6, #12]
  91 005e 9268     		ldr	r2, [r2, #8]
  92 0060 3149     		ldr	r1, .L5+28
  93              		.loc 1 88 0
  94 0062 A060     		str	r0, [r4, #8]
  95              		.loc 1 89 0
  96 0064 0432     		adds	r2, r2, #4
  97 0066 1846     		mov	r0, r3
  98 0068 0091     		str	r1, [sp]
  99 006a 2B4B     		ldr	r3, .L5+12
 100 006c 4FF49871 		mov	r1, #304
 101 0070 FFF7FEFF 		bl	chThdCreateStatic
 102              	.LVL3:
 103              		.loc 1 90 0
 104 0074 AA69     		ldr	r2, [r5, #24]
 105 0076 3369     		ldr	r3, [r6, #16]
 106 0078 9268     		ldr	r2, [r2, #8]
 107 007a 2C49     		ldr	r1, .L5+32
 108              		.loc 1 89 0
 109 007c E060     		str	r0, [r4, #12]
 110              		.loc 1 90 0
 111 007e 0232     		adds	r2, r2, #2
 112 0080 1846     		mov	r0, r3
 113 0082 0091     		str	r1, [sp]
 114 0084 244B     		ldr	r3, .L5+12
ARM GAS  /tmp/ccxK3mY9.s 			page 3


 115 0086 4FF49871 		mov	r1, #304
 116 008a FFF7FEFF 		bl	chThdCreateStatic
 117              	.LVL4:
 118 008e 2061     		str	r0, [r4, #16]
 119              		.loc 1 91 0
 120 0090 2748     		ldr	r0, .L5+36
 121 0092 FFF7FEFF 		bl	chSemSignal
 122              	.LVL5:
 123              		.loc 1 92 0
 124 0096 2648     		ldr	r0, .L5+36
 125 0098 FFF7FEFF 		bl	chSemSignal
 126              	.LVL6:
 127              		.loc 1 93 0
 128 009c 2448     		ldr	r0, .L5+36
 129 009e FFF7FEFF 		bl	chSemSignal
 130              	.LVL7:
 131              		.loc 1 94 0
 132 00a2 2348     		ldr	r0, .L5+36
 133 00a4 FFF7FEFF 		bl	chSemSignal
 134              	.LVL8:
 135              		.loc 1 95 0
 136 00a8 2148     		ldr	r0, .L5+36
 137 00aa FFF7FEFF 		bl	chSemSignal
 138              	.LVL9:
 139              		.loc 1 96 0
 140 00ae FFF7FEFF 		bl	test_wait_threads
 141              	.LVL10:
 142              		.loc 1 100 0
 143 00b2 0120     		movs	r0, #1
 144 00b4 1F49     		ldr	r1, .L5+40
 145 00b6 FFF7FEFF 		bl	_test_assert_sequence
 146              	.LVL11:
 147 00ba 10B1     		cbz	r0, .L4
 148              		.loc 1 109 0
 149 00bc 02B0     		add	sp, sp, #8
 150              		@ sp needed
 151 00be BDE8F081 		pop	{r4, r5, r6, r7, r8, pc}
 152              	.L4:
 153              		.loc 1 102 0
 154 00c2 AA69     		ldr	r2, [r5, #24]
 155 00c4 144B     		ldr	r3, .L5+12
 156 00c6 9268     		ldr	r2, [r2, #8]
 157 00c8 0097     		str	r7, [sp]
 158 00ca 0532     		adds	r2, r2, #5
 159 00cc 4046     		mov	r0, r8
 160 00ce 4FF49871 		mov	r1, #304
 161 00d2 FFF7FEFF 		bl	chThdCreateStatic
 162              	.LVL12:
 163              	.LBB2:
 164              		.loc 1 103 0
 165 00d6 2023     		movs	r3, #32
 166              	.LBE2:
 167              		.loc 1 102 0
 168 00d8 2060     		str	r0, [r4]
 169              	.LBB3:
 170              		.loc 1 103 0
 171              	@ 103 "../../test/testsem.c" 1
ARM GAS  /tmp/ccxK3mY9.s 			page 4


 172 00da 83F31188 		msr     BASEPRI, r3
 173              	@ 0 "" 2
 174              		.thumb
 175              	.LBE3:
 176              		.loc 1 104 0
 177 00de 1448     		ldr	r0, .L5+36
 178 00e0 0221     		movs	r1, #2
 179 00e2 FFF7FEFF 		bl	chSemAddCounterI
 180              	.LVL13:
 181              		.loc 1 105 0
 182 00e6 FFF7FEFF 		bl	chSchRescheduleS
 183              	.LVL14:
 184              	.LBB4:
 185              		.loc 1 106 0
 186 00ea 0023     		movs	r3, #0
 187              	@ 106 "../../test/testsem.c" 1
 188 00ec 83F31188 		msr     BASEPRI, r3
 189              	@ 0 "" 2
 190              		.thumb
 191              	.LBE4:
 192              		.loc 1 107 0
 193 00f0 FFF7FEFF 		bl	test_wait_threads
 194              	.LVL15:
 195              		.loc 1 108 0
 196 00f4 0E4B     		ldr	r3, .L5+36
 197 00f6 9968     		ldr	r1, [r3, #8]
 198 00f8 4B1E     		subs	r3, r1, #1
 199 00fa 5942     		rsbs	r1, r3, #0
 200 00fc 4FF00200 		mov	r0, #2
 201 0100 5941     		adcs	r1, r1, r3
 202              		.loc 1 109 0
 203 0102 02B0     		add	sp, sp, #8
 204              		@ sp needed
 205 0104 BDE8F041 		pop	{r4, r5, r6, r7, r8, lr}
 206              		.loc 1 108 0
 207 0108 FFF7FEBF 		b	_test_assert
 208              	.LVL16:
 209              	.L6:
 210              		.align	2
 211              	.L5:
 212 010c 00000000 		.word	rlist
 213 0110 00000000 		.word	wa
 214 0114 00000000 		.word	.LC0
 215 0118 00000000 		.word	thread1
 216 011c 00000000 		.word	threads
 217 0120 04000000 		.word	.LC1
 218 0124 08000000 		.word	.LC2
 219 0128 0C000000 		.word	.LC3
 220 012c 10000000 		.word	.LC4
 221 0130 00000000 		.word	.LANCHOR0
 222 0134 14000000 		.word	.LC5
 223              		.cfi_endproc
 224              	.LFE9:
 225              		.size	sem1_execute, .-sem1_execute
 226 0138 AFF30080 		.section	.text.thread3,"ax",%progbits
 226      AFF30080 
 227              		.align	2
ARM GAS  /tmp/ccxK3mY9.s 			page 5


 228              		.p2align 4,,15
 229              		.thumb
 230              		.thumb_func
 231              		.type	thread3, %function
 232              	thread3:
 233              	.LFB14:
 234              		.loc 1 210 0
 235              		.cfi_startproc
 236              		@ args = 0, pretend = 0, frame = 0
 237              		@ frame_needed = 0, uses_anonymous_args = 0
 238              	.LVL17:
 239 0000 10B5     		push	{r4, lr}
 240              		.cfi_def_cfa_offset 8
 241              		.cfi_offset 4, -8
 242              		.cfi_offset 14, -4
 243              		.loc 1 213 0
 244 0002 044C     		ldr	r4, .L8
 245 0004 2046     		mov	r0, r4
 246              	.LVL18:
 247 0006 FFF7FEFF 		bl	chSemWait
 248              	.LVL19:
 249              		.loc 1 214 0
 250 000a 2046     		mov	r0, r4
 251 000c FFF7FEFF 		bl	chSemSignal
 252              	.LVL20:
 253              		.loc 1 216 0
 254 0010 0020     		movs	r0, #0
 255 0012 10BD     		pop	{r4, pc}
 256              	.L9:
 257              		.align	2
 258              	.L8:
 259 0014 00000000 		.word	.LANCHOR0
 260              		.cfi_endproc
 261              	.LFE14:
 262              		.size	thread3, .-thread3
 263 0018 AFF30080 		.section	.text.thread1,"ax",%progbits
 263      AFF30080 
 264              		.align	2
 265              		.p2align 4,,15
 266              		.thumb
 267              		.thumb_func
 268              		.type	thread1, %function
 269              	thread1:
 270              	.LFB8:
 271              		.loc 1 77 0
 272              		.cfi_startproc
 273              		@ args = 0, pretend = 0, frame = 0
 274              		@ frame_needed = 0, uses_anonymous_args = 0
 275              	.LVL21:
 276 0000 10B5     		push	{r4, lr}
 277              		.cfi_def_cfa_offset 8
 278              		.cfi_offset 4, -8
 279              		.cfi_offset 14, -4
 280              		.loc 1 77 0
 281 0002 0446     		mov	r4, r0
 282              		.loc 1 79 0
 283 0004 0348     		ldr	r0, .L11
ARM GAS  /tmp/ccxK3mY9.s 			page 6


 284              	.LVL22:
 285 0006 FFF7FEFF 		bl	chSemWait
 286              	.LVL23:
 287              		.loc 1 80 0
 288 000a 2078     		ldrb	r0, [r4]	@ zero_extendqisi2
 289 000c FFF7FEFF 		bl	test_emit_token
 290              	.LVL24:
 291              		.loc 1 82 0
 292 0010 0020     		movs	r0, #0
 293 0012 10BD     		pop	{r4, pc}
 294              	.LVL25:
 295              	.L12:
 296              		.align	2
 297              	.L11:
 298 0014 00000000 		.word	.LANCHOR0
 299              		.cfi_endproc
 300              	.LFE8:
 301              		.size	thread1, .-thread1
 302 0018 AFF30080 		.section	.text.sem1_setup,"ax",%progbits
 302      AFF30080 
 303              		.align	2
 304              		.p2align 4,,15
 305              		.thumb
 306              		.thumb_func
 307              		.type	sem1_setup, %function
 308              	sem1_setup:
 309              	.LFB7:
 310              		.loc 1 72 0
 311              		.cfi_startproc
 312              		@ args = 0, pretend = 0, frame = 0
 313              		@ frame_needed = 0, uses_anonymous_args = 0
 314              		@ link register save eliminated.
 315              		.loc 1 74 0
 316 0000 0148     		ldr	r0, .L14
 317 0002 0021     		movs	r1, #0
 318 0004 FFF7FEBF 		b	chSemInit
 319              	.LVL26:
 320              	.L15:
 321              		.align	2
 322              	.L14:
 323 0008 00000000 		.word	.LANCHOR0
 324              		.cfi_endproc
 325              	.LFE7:
 326              		.size	sem1_setup, .-sem1_setup
 327 000c AFF30080 		.section	.text.sem2_setup,"ax",%progbits
 328              		.align	2
 329              		.p2align 4,,15
 330              		.thumb
 331              		.thumb_func
 332              		.type	sem2_setup, %function
 333              	sem2_setup:
 334              	.LFB10:
 335              		.loc 1 129 0
 336              		.cfi_startproc
 337              		@ args = 0, pretend = 0, frame = 0
 338              		@ frame_needed = 0, uses_anonymous_args = 0
 339              		@ link register save eliminated.
ARM GAS  /tmp/ccxK3mY9.s 			page 7


 340              		.loc 1 131 0
 341 0000 0148     		ldr	r0, .L17
 342 0002 0021     		movs	r1, #0
 343 0004 FFF7FEBF 		b	chSemInit
 344              	.LVL27:
 345              	.L18:
 346              		.align	2
 347              	.L17:
 348 0008 00000000 		.word	.LANCHOR0
 349              		.cfi_endproc
 350              	.LFE10:
 351              		.size	sem2_setup, .-sem2_setup
 352 000c AFF30080 		.section	.text.sem3_setup,"ax",%progbits
 353              		.align	2
 354              		.p2align 4,,15
 355              		.thumb
 356              		.thumb_func
 357              		.type	sem3_setup, %function
 358              	sem3_setup:
 359              	.LFB13:
 360              		.loc 1 205 0
 361              		.cfi_startproc
 362              		@ args = 0, pretend = 0, frame = 0
 363              		@ frame_needed = 0, uses_anonymous_args = 0
 364              		@ link register save eliminated.
 365              		.loc 1 207 0
 366 0000 0148     		ldr	r0, .L20
 367 0002 0021     		movs	r1, #0
 368 0004 FFF7FEBF 		b	chSemInit
 369              	.LVL28:
 370              	.L21:
 371              		.align	2
 372              	.L20:
 373 0008 00000000 		.word	.LANCHOR0
 374              		.cfi_endproc
 375              	.LFE13:
 376              		.size	sem3_setup, .-sem3_setup
 377 000c AFF30080 		.section	.text.thread2,"ax",%progbits
 378              		.align	2
 379              		.p2align 4,,15
 380              		.thumb
 381              		.thumb_func
 382              		.type	thread2, %function
 383              	thread2:
 384              	.LFB11:
 385              		.loc 1 134 0
 386              		.cfi_startproc
 387              		@ args = 0, pretend = 0, frame = 0
 388              		@ frame_needed = 0, uses_anonymous_args = 0
 389              	.LVL29:
 390 0000 08B5     		push	{r3, lr}
 391              		.cfi_def_cfa_offset 8
 392              		.cfi_offset 3, -8
 393              		.cfi_offset 14, -4
 394              		.loc 1 137 0
 395 0002 3220     		movs	r0, #50
 396              	.LVL30:
ARM GAS  /tmp/ccxK3mY9.s 			page 8


 397 0004 FFF7FEFF 		bl	chThdSleep
 398              	.LVL31:
 399              	.LBB5:
 400              		.loc 1 138 0
 401 0008 2023     		movs	r3, #32
 402              	@ 138 "../../test/testsem.c" 1
 403 000a 83F31188 		msr     BASEPRI, r3
 404              	@ 0 "" 2
 405              		.thumb
 406              	.LBE5:
 407              		.loc 1 139 0
 408 000e 0548     		ldr	r0, .L23
 409 0010 FFF7FEFF 		bl	chSemSignalI
 410              	.LVL32:
 411              		.loc 1 140 0
 412 0014 FFF7FEFF 		bl	chSchRescheduleS
 413              	.LVL33:
 414              	.LBB6:
 415              		.loc 1 141 0
 416 0018 0023     		movs	r3, #0
 417              	@ 141 "../../test/testsem.c" 1
 418 001a 83F31188 		msr     BASEPRI, r3
 419              	@ 0 "" 2
 420              		.thumb
 421              	.LBE6:
 422              		.loc 1 143 0
 423 001e 0020     		movs	r0, #0
 424 0020 08BD     		pop	{r3, pc}
 425              	.L24:
 426 0022 00BF     		.align	2
 427              	.L23:
 428 0024 00000000 		.word	.LANCHOR0
 429              		.cfi_endproc
 430              	.LFE11:
 431              		.size	thread2, .-thread2
 432 0028 AFF30080 		.section	.text.thread4,"ax",%progbits
 432      AFF30080 
 433              		.align	2
 434              		.p2align 4,,15
 435              		.thumb
 436              		.thumb_func
 437              		.type	thread4, %function
 438              	thread4:
 439              	.LFB16:
 440              		.loc 1 246 0
 441              		.cfi_startproc
 442              		@ args = 0, pretend = 0, frame = 0
 443              		@ frame_needed = 0, uses_anonymous_args = 0
 444              	.LVL34:
 445 0000 08B5     		push	{r3, lr}
 446              		.cfi_def_cfa_offset 8
 447              		.cfi_offset 3, -8
 448              		.cfi_offset 14, -4
 449              	.LBB7:
 450              		.loc 1 248 0
 451 0002 2023     		movs	r3, #32
 452              	@ 248 "../../test/testsem.c" 1
ARM GAS  /tmp/ccxK3mY9.s 			page 9


 453 0004 83F31188 		msr     BASEPRI, r3
 454              	@ 0 "" 2
 455              		.thumb
 456              	.LBE7:
 457 0008 8368     		ldr	r3, [r0, #8]
 458 000a 002B     		cmp	r3, #0
 459 000c 06DD     		ble	.L27
 460              	.LVL35:
 461              	.L26:
 462              		.loc 1 248 0 is_stmt 0 discriminator 2
 463 000e FFF7FEFF 		bl	chSchRescheduleS
 464              	.LVL36:
 465              	.LBB8:
 466 0012 0023     		movs	r3, #0
 467              	@ 248 "../../test/testsem.c" 1
 468 0014 83F31188 		msr     BASEPRI, r3
 469              	@ 0 "" 2
 470              		.thumb
 471              	.LBE8:
 472              		.loc 1 250 0 is_stmt 1 discriminator 2
 473 0018 0020     		movs	r0, #0
 474 001a 08BD     		pop	{r3, pc}
 475              	.LVL37:
 476              	.L27:
 477              		.loc 1 248 0 discriminator 1
 478 001c FFF7FEFF 		bl	chSemSignalI
 479              	.LVL38:
 480 0020 F5E7     		b	.L26
 481              		.cfi_endproc
 482              	.LFE16:
 483              		.size	thread4, .-thread4
 484 0022 00BFAFF3 		.section	.text.sem4_execute,"ax",%progbits
 484      0080AFF3 
 484      0080AFF3 
 484      0080
 485              		.align	2
 486              		.p2align 4,,15
 487              		.thumb
 488              		.thumb_func
 489              		.type	sem4_execute, %function
 490              	sem4_execute:
 491              	.LFB17:
 492              		.loc 1 252 0
 493              		.cfi_startproc
 494              		@ args = 0, pretend = 0, frame = 16
 495              		@ frame_needed = 0, uses_anonymous_args = 0
 496 0000 00B5     		push	{lr}
 497              		.cfi_def_cfa_offset 4
 498              		.cfi_offset 14, -4
 499 0002 87B0     		sub	sp, sp, #28
 500              		.cfi_def_cfa_offset 32
 501              		.loc 1 256 0
 502 0004 03A8     		add	r0, sp, #12
 503 0006 0021     		movs	r1, #0
 504 0008 FFF7FEFF 		bl	chSemInit
 505              	.LVL39:
 506              		.loc 1 257 0
ARM GAS  /tmp/ccxK3mY9.s 			page 10


 507 000c 03A8     		add	r0, sp, #12
 508 000e 0021     		movs	r1, #0
 509 0010 FFF7FEFF 		bl	chSemReset
 510              	.LVL40:
 511              		.loc 1 258 0
 512 0014 0599     		ldr	r1, [sp, #20]
 513 0016 0029     		cmp	r1, #0
 514 0018 CCBF     		ite	gt
 515 001a 0021     		movgt	r1, #0
 516 001c 0121     		movle	r1, #1
 517 001e 0120     		movs	r0, #1
 518 0020 FFF7FEFF 		bl	_test_assert
 519              	.LVL41:
 520 0024 10B1     		cbz	r0, .L33
 521              	.L28:
 522              		.loc 1 280 0
 523 0026 07B0     		add	sp, sp, #28
 524              		@ sp needed
 525 0028 5DF804FB 		ldr	pc, [sp], #4
 526              	.L33:
 527              		.loc 1 262 0
 528 002c 2F4B     		ldr	r3, .L36
 529              		.loc 1 261 0
 530 002e 304A     		ldr	r2, .L36+4
 531              		.loc 1 262 0
 532 0030 9B69     		ldr	r3, [r3, #24]
 533              		.loc 1 261 0
 534 0032 1068     		ldr	r0, [r2]
 535 0034 9A68     		ldr	r2, [r3, #8]
 536 0036 2F4B     		ldr	r3, .L36+8
 537 0038 03A9     		add	r1, sp, #12
 538 003a 0091     		str	r1, [sp]
 539 003c 013A     		subs	r2, r2, #1
 540 003e 4FF49871 		mov	r1, #304
 541 0042 FFF7FEFF 		bl	chThdCreateStatic
 542              	.LVL42:
 543 0046 2C4B     		ldr	r3, .L36+12
 544 0048 1860     		str	r0, [r3]
 545              		.loc 1 265 0
 546 004a 03A8     		add	r0, sp, #12
 547 004c FFF7FEFF 		bl	chSemWait
 548              	.LVL43:
 549              		.loc 1 268 0
 550 0050 0599     		ldr	r1, [sp, #20]
 551 0052 0029     		cmp	r1, #0
 552 0054 CCBF     		ite	gt
 553 0056 0021     		movgt	r1, #0
 554 0058 0121     		movle	r1, #1
 555 005a 0220     		movs	r0, #2
 556 005c FFF7FEFF 		bl	_test_assert
 557              	.LVL44:
 558 0060 0028     		cmp	r0, #0
 559 0062 E0D1     		bne	.L28
 560              	.LBB9:
 561              		.loc 1 272 0
 562 0064 2023     		movs	r3, #32
 563              	@ 272 "../../test/testsem.c" 1
ARM GAS  /tmp/ccxK3mY9.s 			page 11


 564 0066 83F31188 		msr     BASEPRI, r3
 565              	@ 0 "" 2
 566              		.thumb
 567              	.LBE9:
 568 006a 059B     		ldr	r3, [sp, #20]
 569 006c 002B     		cmp	r3, #0
 570 006e 34DD     		ble	.L34
 571              	.L30:
 572              		.loc 1 272 0 is_stmt 0 discriminator 2
 573 0070 FFF7FEFF 		bl	chSchRescheduleS
 574              	.LVL45:
 575              	.LBB10:
 576 0074 0023     		movs	r3, #0
 577              	@ 272 "../../test/testsem.c" 1
 578 0076 83F31188 		msr     BASEPRI, r3
 579              	@ 0 "" 2
 580              		.thumb
 581              	.LBE10:
 582              		.loc 1 273 0 is_stmt 1 discriminator 2
 583 007a 0599     		ldr	r1, [sp, #20]
 584 007c 0029     		cmp	r1, #0
 585 007e D4BF     		ite	le
 586 0080 0021     		movle	r1, #0
 587 0082 0121     		movgt	r1, #1
 588 0084 0320     		movs	r0, #3
 589 0086 FFF7FEFF 		bl	_test_assert
 590              	.LVL46:
 591 008a 0028     		cmp	r0, #0
 592 008c CBD1     		bne	.L28
 593              		.loc 1 274 0
 594 008e 0599     		ldr	r1, [sp, #20]
 595 0090 4A1E     		subs	r2, r1, #1
 596 0092 5142     		rsbs	r1, r2, #0
 597 0094 5141     		adcs	r1, r1, r2
 598 0096 0420     		movs	r0, #4
 599 0098 FFF7FEFF 		bl	_test_assert
 600              	.LVL47:
 601 009c 0028     		cmp	r0, #0
 602 009e C2D1     		bne	.L28
 603              	.LBB11:
 604              		.loc 1 277 0
 605 00a0 2023     		movs	r3, #32
 606              	@ 277 "../../test/testsem.c" 1
 607 00a2 83F31188 		msr     BASEPRI, r3
 608              	@ 0 "" 2
 609              		.thumb
 610              	.LBE11:
 611 00a6 059B     		ldr	r3, [sp, #20]
 612 00a8 002B     		cmp	r3, #0
 613 00aa 1ADD     		ble	.L35
 614              	.L31:
 615              		.loc 1 277 0 is_stmt 0 discriminator 2
 616 00ac FFF7FEFF 		bl	chSchRescheduleS
 617              	.LVL48:
 618              	.LBB12:
 619 00b0 0023     		movs	r3, #0
 620              	@ 277 "../../test/testsem.c" 1
ARM GAS  /tmp/ccxK3mY9.s 			page 12


 621 00b2 83F31188 		msr     BASEPRI, r3
 622              	@ 0 "" 2
 623              		.thumb
 624              	.LBE12:
 625              		.loc 1 278 0 is_stmt 1 discriminator 2
 626 00b6 0599     		ldr	r1, [sp, #20]
 627 00b8 0029     		cmp	r1, #0
 628 00ba D4BF     		ite	le
 629 00bc 0021     		movle	r1, #0
 630 00be 0121     		movgt	r1, #1
 631 00c0 0320     		movs	r0, #3
 632 00c2 FFF7FEFF 		bl	_test_assert
 633              	.LVL49:
 634 00c6 0028     		cmp	r0, #0
 635 00c8 ADD1     		bne	.L28
 636              		.loc 1 279 0
 637 00ca 0599     		ldr	r1, [sp, #20]
 638 00cc 4B1E     		subs	r3, r1, #1
 639 00ce 5942     		rsbs	r1, r3, #0
 640 00d0 5941     		adcs	r1, r1, r3
 641 00d2 0520     		movs	r0, #5
 642 00d4 FFF7FEFF 		bl	_test_assert
 643              	.LVL50:
 644 00d8 A5E7     		b	.L28
 645              	.L34:
 646              		.loc 1 272 0 discriminator 1
 647 00da 03A8     		add	r0, sp, #12
 648 00dc FFF7FEFF 		bl	chSemSignalI
 649              	.LVL51:
 650 00e0 C6E7     		b	.L30
 651              	.L35:
 652              		.loc 1 277 0 discriminator 1
 653 00e2 03A8     		add	r0, sp, #12
 654 00e4 FFF7FEFF 		bl	chSemSignalI
 655              	.LVL52:
 656 00e8 E0E7     		b	.L31
 657              	.L37:
 658 00ea 00BF     		.align	2
 659              	.L36:
 660 00ec 00000000 		.word	rlist
 661 00f0 00000000 		.word	wa
 662 00f4 00000000 		.word	thread4
 663 00f8 00000000 		.word	threads
 664              		.cfi_endproc
 665              	.LFE17:
 666              		.size	sem4_execute, .-sem4_execute
 667 00fc AFF30080 		.section	.text.sem2_execute,"ax",%progbits
 668              		.align	2
 669              		.p2align 4,,15
 670              		.thumb
 671              		.thumb_func
 672              		.type	sem2_execute, %function
 673              	sem2_execute:
 674              	.LFB12:
 675              		.loc 1 145 0
 676              		.cfi_startproc
 677              		@ args = 0, pretend = 0, frame = 0
ARM GAS  /tmp/ccxK3mY9.s 			page 13


 678              		@ frame_needed = 0, uses_anonymous_args = 0
 679 0000 70B5     		push	{r4, r5, r6, lr}
 680              		.cfi_def_cfa_offset 16
 681              		.cfi_offset 4, -16
 682              		.cfi_offset 5, -12
 683              		.cfi_offset 6, -8
 684              		.cfi_offset 14, -4
 685              		.loc 1 153 0
 686 0002 4B4C     		ldr	r4, .L45
 687              		.loc 1 145 0
 688 0004 82B0     		sub	sp, sp, #8
 689              		.cfi_def_cfa_offset 24
 690              		.loc 1 153 0
 691 0006 0021     		movs	r1, #0
 692 0008 2046     		mov	r0, r4
 693 000a FFF7FEFF 		bl	chSemWaitTimeout
 694              	.LVL53:
 695              		.loc 1 154 0
 696 000e B0F1FF3E 		subs	lr, r0, #-1
 697 0012 DEF10001 		rsbs	r1, lr, #0
 698 0016 51EB0E01 		adcs	r1, r1, lr
 699 001a 0120     		movs	r0, #1
 700              	.LVL54:
 701 001c FFF7FEFF 		bl	_test_assert
 702              	.LVL55:
 703 0020 08B1     		cbz	r0, .L44
 704              	.L38:
 705              		.loc 1 183 0
 706 0022 02B0     		add	sp, sp, #8
 707              		@ sp needed
 708 0024 70BD     		pop	{r4, r5, r6, pc}
 709              	.L44:
 710              		.loc 1 155 0
 711 0026 2168     		ldr	r1, [r4]
 712 0028 0E1B     		subs	r6, r1, r4
 713 002a 7142     		rsbs	r1, r6, #0
 714 002c 7141     		adcs	r1, r1, r6
 715 002e 0220     		movs	r0, #2
 716 0030 FFF7FEFF 		bl	_test_assert
 717              	.LVL56:
 718 0034 0028     		cmp	r0, #0
 719 0036 F4D1     		bne	.L38
 720              		.loc 1 156 0
 721 0038 A168     		ldr	r1, [r4, #8]
 722 003a D1F10101 		rsbs	r1, r1, #1
 723 003e 38BF     		it	cc
 724 0040 0021     		movcc	r1, #0
 725 0042 0320     		movs	r0, #3
 726 0044 FFF7FEFF 		bl	_test_assert
 727              	.LVL57:
 728 0048 0028     		cmp	r0, #0
 729 004a EAD1     		bne	.L38
 730              	.LBB15:
 731              	.LBB16:
 732              		.loc 1 161 0
 733 004c 394B     		ldr	r3, .L45+4
 734 004e 3A4A     		ldr	r2, .L45+8
ARM GAS  /tmp/ccxK3mY9.s 			page 14


 735 0050 9B69     		ldr	r3, [r3, #24]
 736 0052 1168     		ldr	r1, [r2]
 737 0054 9A68     		ldr	r2, [r3, #8]
 738 0056 394B     		ldr	r3, .L45+12
 739 0058 0090     		str	r0, [sp]
 740 005a 013A     		subs	r2, r2, #1
 741 005c 0846     		mov	r0, r1
 742 005e 4FF49871 		mov	r1, #304
 743 0062 FFF7FEFF 		bl	chThdCreateStatic
 744              	.LVL58:
 745 0066 364B     		ldr	r3, .L45+16
 746              		.loc 1 163 0
 747 0068 4FF4FA71 		mov	r1, #500
 748              		.loc 1 161 0
 749 006c 1860     		str	r0, [r3]
 750              		.loc 1 163 0
 751 006e 2046     		mov	r0, r4
 752 0070 FFF7FEFF 		bl	chSemWaitTimeout
 753              	.LVL59:
 754 0074 0546     		mov	r5, r0
 755              	.LVL60:
 756              		.loc 1 164 0
 757 0076 FFF7FEFF 		bl	test_wait_threads
 758              	.LVL61:
 759              		.loc 1 165 0
 760 007a D5F10101 		rsbs	r1, r5, #1
 761 007e 38BF     		it	cc
 762 0080 0021     		movcc	r1, #0
 763 0082 0420     		movs	r0, #4
 764 0084 FFF7FEFF 		bl	_test_assert
 765              	.LVL62:
 766 0088 0028     		cmp	r0, #0
 767 008a CAD1     		bne	.L38
 768              		.loc 1 166 0
 769 008c 2168     		ldr	r1, [r4]
 770 008e 0D1B     		subs	r5, r1, r4
 771              	.LVL63:
 772 0090 6942     		rsbs	r1, r5, #0
 773 0092 6941     		adcs	r1, r1, r5
 774 0094 0520     		movs	r0, #5
 775 0096 FFF7FEFF 		bl	_test_assert
 776              	.LVL64:
 777 009a 0028     		cmp	r0, #0
 778 009c C1D1     		bne	.L38
 779              		.loc 1 167 0
 780 009e A168     		ldr	r1, [r4, #8]
 781 00a0 D1F10101 		rsbs	r1, r1, #1
 782 00a4 38BF     		it	cc
 783 00a6 0021     		movcc	r1, #0
 784 00a8 0620     		movs	r0, #6
 785 00aa FFF7FEFF 		bl	_test_assert
 786              	.LVL65:
 787 00ae 0028     		cmp	r0, #0
 788 00b0 B7D1     		bne	.L38
 789              		.loc 1 172 0
 790 00b2 FFF7FEFF 		bl	test_wait_tick
 791              	.LVL66:
ARM GAS  /tmp/ccxK3mY9.s 			page 15


 792              		.loc 1 173 0
 793 00b6 234B     		ldr	r3, .L45+20
 794 00b8 DE68     		ldr	r6, [r3, #12]
 795              	.LVL67:
 796 00ba 4125     		movs	r5, #65
 797              	.LVL68:
 798              	.L43:
 799              		.loc 1 175 0
 800 00bc 2846     		mov	r0, r5
 801 00be FFF7FEFF 		bl	test_emit_token
 802              	.LVL69:
 803              		.loc 1 176 0
 804 00c2 4FF4FA71 		mov	r1, #500
 805 00c6 1A48     		ldr	r0, .L45
 806 00c8 FFF7FEFF 		bl	chSemWaitTimeout
 807              	.LVL70:
 808              		.loc 1 177 0
 809 00cc B0F1FF32 		subs	r2, r0, #-1
 810 00d0 5142     		rsbs	r1, r2, #0
 811 00d2 5141     		adcs	r1, r1, r2
 812 00d4 0720     		movs	r0, #7
 813              	.LVL71:
 814 00d6 FFF7FEFF 		bl	_test_assert
 815              	.LVL72:
 816 00da 0028     		cmp	r0, #0
 817 00dc A1D1     		bne	.L38
 818              		.loc 1 178 0
 819 00de 2168     		ldr	r1, [r4]
 820 00e0 0B1B     		subs	r3, r1, r4
 821 00e2 5942     		rsbs	r1, r3, #0
 822 00e4 5941     		adcs	r1, r1, r3
 823 00e6 0820     		movs	r0, #8
 824 00e8 FFF7FEFF 		bl	_test_assert
 825              	.LVL73:
 826 00ec 0028     		cmp	r0, #0
 827 00ee 98D1     		bne	.L38
 828              		.loc 1 179 0
 829 00f0 A168     		ldr	r1, [r4, #8]
 830 00f2 D1F10101 		rsbs	r1, r1, #1
 831 00f6 4FF00900 		mov	r0, #9
 832 00fa 38BF     		it	cc
 833 00fc 0021     		movcc	r1, #0
 834 00fe FFF7FEFF 		bl	_test_assert
 835              	.LVL74:
 836 0102 0135     		adds	r5, r5, #1
 837 0104 EDB2     		uxtb	r5, r5
 838 0106 0028     		cmp	r0, #0
 839 0108 8BD1     		bne	.L38
 840              		.loc 1 174 0
 841 010a 462D     		cmp	r5, #70
 842 010c D6D1     		bne	.L43
 843              		.loc 1 181 0
 844 010e 0A20     		movs	r0, #10
 845 0110 0D49     		ldr	r1, .L45+24
 846 0112 FFF7FEFF 		bl	_test_assert_sequence
 847              	.LVL75:
 848 0116 0028     		cmp	r0, #0
ARM GAS  /tmp/ccxK3mY9.s 			page 16


 849 0118 83D1     		bne	.L38
 850              		.loc 1 182 0
 851 011a 0B20     		movs	r0, #11
 852 011c 06F6C411 		addw	r1, r6, #2500
 853 0120 06F6C912 		addw	r2, r6, #2505
 854              	.LBE16:
 855              	.LBE15:
 856              		.loc 1 183 0
 857 0124 02B0     		add	sp, sp, #8
 858              		@ sp needed
 859 0126 BDE87040 		pop	{r4, r5, r6, lr}
 860              	.LVL76:
 861              	.LBB18:
 862              	.LBB17:
 863              		.loc 1 182 0
 864 012a FFF7FEBF 		b	_test_assert_time_window
 865              	.LVL77:
 866              	.L46:
 867 012e 00BF     		.align	2
 868              	.L45:
 869 0130 00000000 		.word	.LANCHOR0
 870 0134 00000000 		.word	rlist
 871 0138 00000000 		.word	wa
 872 013c 00000000 		.word	thread2
 873 0140 00000000 		.word	threads
 874 0144 00000000 		.word	vtlist
 875 0148 14000000 		.word	.LC5
 876              	.LBE17:
 877              	.LBE18:
 878              		.cfi_endproc
 879              	.LFE12:
 880              		.size	sem2_execute, .-sem2_execute
 881 014c AFF30080 		.section	.text.sem3_execute,"ax",%progbits
 882              		.align	2
 883              		.p2align 4,,15
 884              		.thumb
 885              		.thumb_func
 886              		.type	sem3_execute, %function
 887              	sem3_execute:
 888              	.LFB15:
 889              		.loc 1 218 0
 890              		.cfi_startproc
 891              		@ args = 0, pretend = 0, frame = 0
 892              		@ frame_needed = 0, uses_anonymous_args = 0
 893 0000 10B5     		push	{r4, lr}
 894              		.cfi_def_cfa_offset 8
 895              		.cfi_offset 4, -8
 896              		.cfi_offset 14, -4
 897              		.loc 1 220 0
 898 0002 214B     		ldr	r3, .L52
 899 0004 214A     		ldr	r2, .L52+4
 900 0006 9B69     		ldr	r3, [r3, #24]
 901 0008 1068     		ldr	r0, [r2]
 902 000a 9A68     		ldr	r2, [r3, #8]
 903 000c 204B     		ldr	r3, .L52+8
 904              		.loc 1 221 0
 905 000e 214C     		ldr	r4, .L52+12
ARM GAS  /tmp/ccxK3mY9.s 			page 17


 906              		.loc 1 218 0
 907 0010 82B0     		sub	sp, sp, #8
 908              		.cfi_def_cfa_offset 16
 909              		.loc 1 220 0
 910 0012 0021     		movs	r1, #0
 911 0014 0132     		adds	r2, r2, #1
 912 0016 0091     		str	r1, [sp]
 913 0018 4FF49871 		mov	r1, #304
 914 001c FFF7FEFF 		bl	chThdCreateStatic
 915              	.LVL78:
 916 0020 1D4B     		ldr	r3, .L52+16
 917              		.loc 1 221 0
 918 0022 2146     		mov	r1, r4
 919              		.loc 1 220 0
 920 0024 1860     		str	r0, [r3]
 921              		.loc 1 221 0
 922 0026 2046     		mov	r0, r4
 923 0028 FFF7FEFF 		bl	chSemSignalWait
 924              	.LVL79:
 925              		.loc 1 222 0
 926 002c 2168     		ldr	r1, [r4]
 927 002e 0A1B     		subs	r2, r1, r4
 928 0030 5142     		rsbs	r1, r2, #0
 929 0032 5141     		adcs	r1, r1, r2
 930 0034 0120     		movs	r0, #1
 931 0036 FFF7FEFF 		bl	_test_assert
 932              	.LVL80:
 933 003a 08B1     		cbz	r0, .L51
 934              	.L47:
 935              		.loc 1 228 0
 936 003c 02B0     		add	sp, sp, #8
 937              		@ sp needed
 938 003e 10BD     		pop	{r4, pc}
 939              	.L51:
 940              		.loc 1 223 0
 941 0040 A168     		ldr	r1, [r4, #8]
 942 0042 D1F10101 		rsbs	r1, r1, #1
 943 0046 38BF     		it	cc
 944 0048 0021     		movcc	r1, #0
 945 004a 0220     		movs	r0, #2
 946 004c FFF7FEFF 		bl	_test_assert
 947              	.LVL81:
 948 0050 0028     		cmp	r0, #0
 949 0052 F3D1     		bne	.L47
 950              	.LBB21:
 951              	.LBB22:
 952              		.loc 1 225 0
 953 0054 2146     		mov	r1, r4
 954 0056 2046     		mov	r0, r4
 955 0058 FFF7FEFF 		bl	chSemSignalWait
 956              	.LVL82:
 957              		.loc 1 226 0
 958 005c 2168     		ldr	r1, [r4]
 959 005e 0B1B     		subs	r3, r1, r4
 960 0060 5942     		rsbs	r1, r3, #0
 961 0062 5941     		adcs	r1, r1, r3
 962 0064 0320     		movs	r0, #3
ARM GAS  /tmp/ccxK3mY9.s 			page 18


 963 0066 FFF7FEFF 		bl	_test_assert
 964              	.LVL83:
 965 006a 0028     		cmp	r0, #0
 966 006c E6D1     		bne	.L47
 967              		.loc 1 227 0
 968 006e A168     		ldr	r1, [r4, #8]
 969 0070 D1F10101 		rsbs	r1, r1, #1
 970 0074 4FF00400 		mov	r0, #4
 971 0078 38BF     		it	cc
 972 007a 0021     		movcc	r1, #0
 973              	.LBE22:
 974              	.LBE21:
 975              		.loc 1 228 0
 976 007c 02B0     		add	sp, sp, #8
 977              		@ sp needed
 978 007e BDE81040 		pop	{r4, lr}
 979              	.LBB24:
 980              	.LBB23:
 981              		.loc 1 227 0
 982 0082 FFF7FEBF 		b	_test_assert
 983              	.LVL84:
 984              	.L53:
 985 0086 00BF     		.align	2
 986              	.L52:
 987 0088 00000000 		.word	rlist
 988 008c 00000000 		.word	wa
 989 0090 00000000 		.word	thread3
 990 0094 00000000 		.word	.LANCHOR0
 991 0098 00000000 		.word	threads
 992              	.LBE23:
 993              	.LBE24:
 994              		.cfi_endproc
 995              	.LFE15:
 996              		.size	sem3_execute, .-sem3_execute
 997              		.global	patternsem
 998              		.global	testsem4
 999              		.global	testsem3
 1000              		.global	testsem2
 1001              		.global	testsem1
 1002 009c AFF30080 		.section	.rodata.testsem1,"a",%progbits
 1003              		.align	2
 1004              		.type	testsem1, %object
 1005              		.size	testsem1, 16
 1006              	testsem1:
 1007 0000 74000000 		.word	.LC9
 1008 0004 00000000 		.word	sem1_setup
 1009 0008 00000000 		.word	0
 1010 000c 00000000 		.word	sem1_execute
 1011              		.section	.rodata.testsem2,"a",%progbits
 1012              		.align	2
 1013              		.type	testsem2, %object
 1014              		.size	testsem2, 16
 1015              	testsem2:
 1016 0000 60000000 		.word	.LC8
 1017 0004 00000000 		.word	sem2_setup
 1018 0008 00000000 		.word	0
 1019 000c 00000000 		.word	sem2_execute
ARM GAS  /tmp/ccxK3mY9.s 			page 19


 1020              		.section	.rodata.testsem3,"a",%progbits
 1021              		.align	2
 1022              		.type	testsem3, %object
 1023              		.size	testsem3, 16
 1024              	testsem3:
 1025 0000 40000000 		.word	.LC7
 1026 0004 00000000 		.word	sem3_setup
 1027 0008 00000000 		.word	0
 1028 000c 00000000 		.word	sem3_execute
 1029              		.section	.rodata.testsem4,"a",%progbits
 1030              		.align	2
 1031              		.type	testsem4, %object
 1032              		.size	testsem4, 16
 1033              	testsem4:
 1034 0000 1C000000 		.word	.LC6
 1035 0004 00000000 		.word	0
 1036 0008 00000000 		.word	0
 1037 000c 00000000 		.word	sem4_execute
 1038              		.section	.data.sem1,"aw",%progbits
 1039              		.align	2
 1040              		.set	.LANCHOR0,. + 0
 1041              		.type	sem1, %object
 1042              		.size	sem1, 12
 1043              	sem1:
 1044 0000 00000000 		.word	sem1
 1045 0004 00000000 		.word	sem1
 1046 0008 00000000 		.word	0
 1047              		.section	.rodata.patternsem,"a",%progbits
 1048              		.align	2
 1049              		.type	patternsem, %object
 1050              		.size	patternsem, 20
 1051              	patternsem:
 1052 0000 00000000 		.word	testsem1
 1053 0004 00000000 		.word	testsem2
 1054 0008 00000000 		.word	testsem3
 1055 000c 00000000 		.word	testsem4
 1056 0010 00000000 		.word	0
 1057              		.section	.rodata.str1.4,"aMS",%progbits,1
 1058              		.align	2
 1059              	.LC0:
 1060 0000 4100     		.ascii	"A\000"
 1061 0002 0000     		.space	2
 1062              	.LC1:
 1063 0004 4200     		.ascii	"B\000"
 1064 0006 0000     		.space	2
 1065              	.LC2:
 1066 0008 4300     		.ascii	"C\000"
 1067 000a 0000     		.space	2
 1068              	.LC3:
 1069 000c 4400     		.ascii	"D\000"
 1070 000e 0000     		.space	2
 1071              	.LC4:
 1072 0010 4500     		.ascii	"E\000"
 1073 0012 0000     		.space	2
 1074              	.LC5:
 1075 0014 41424344 		.ascii	"ABCDE\000"
 1075      4500
ARM GAS  /tmp/ccxK3mY9.s 			page 20


 1076 001a 0000     		.space	2
 1077              	.LC6:
 1078 001c 42696E61 		.ascii	"Binary Semaphores, functionality\000"
 1078      72792053 
 1078      656D6170 
 1078      686F7265 
 1078      732C2066 
 1079 003d 000000   		.space	3
 1080              	.LC7:
 1081 0040 53656D61 		.ascii	"Semaphores, atomic signal-wait\000"
 1081      70686F72 
 1081      65732C20 
 1081      61746F6D 
 1081      69632073 
 1082 005f 00       		.space	1
 1083              	.LC8:
 1084 0060 53656D61 		.ascii	"Semaphores, timeout\000"
 1084      70686F72 
 1084      65732C20 
 1084      74696D65 
 1084      6F757400 
 1085              	.LC9:
 1086 0074 53656D61 		.ascii	"Semaphores, enqueuing\000"
 1086      70686F72 
 1086      65732C20 
 1086      656E7175 
 1086      6575696E 
 1087 008a 0000     		.text
 1088              	.Letext0:
 1089              		.file 2 "/usr/lib/gcc/arm-none-eabi/4.8.3/include/stddef.h"
 1090              		.file 3 "/usr/arm-none-eabi/include/stdint.h"
 1091              		.file 4 "../../os/ports/GCC/ARMCMx/chtypes.h"
 1092              		.file 5 "../../os/kernel/include/chlists.h"
 1093              		.file 6 "../../os/kernel/include/chthreads.h"
 1094              		.file 7 "../../os/ports/GCC/ARMCMx/chcore_v7m.h"
 1095              		.file 8 "../../os/kernel/include/chvt.h"
 1096              		.file 9 "../../os/kernel/include/chschd.h"
 1097              		.file 10 "../../os/kernel/include/chsem.h"
 1098              		.file 11 "../../os/kernel/include/chbsem.h"
 1099              		.file 12 "../../os/kernel/include/chmtx.h"
 1100              		.file 13 "../../test/test.h"