ARM GAS  /tmp/ccBjwK0y.s 			page 1


   1              		.syntax unified
   2              		.cpu cortex-m4
   3              		.fpu softvfp
   4              		.eabi_attribute 20, 1
   5              		.eabi_attribute 21, 1
   6              		.eabi_attribute 23, 3
   7              		.eabi_attribute 24, 1
   8              		.eabi_attribute 25, 1
   9              		.eabi_attribute 26, 1
  10              		.eabi_attribute 30, 2
  11              		.eabi_attribute 34, 1
  12              		.eabi_attribute 18, 4
  13              		.thumb
  14              		.file	"hal.c"
  15              		.text
  16              	.Ltext0:
  17              		.cfi_sections	.debug_frame
  18              		.section	.text.halInit,"ax",%progbits
  19              		.align	2
  20              		.p2align 4,,15
  21              		.global	halInit
  22              		.thumb
  23              		.thumb_func
  24              		.type	halInit, %function
  25              	halInit:
  26              	.LFB118:
  27              		.file 1 "../../../os/hal/src/hal.c"
  28              		.loc 1 61 0
  29              		.cfi_startproc
  30              		@ args = 0, pretend = 0, frame = 0
  31              		@ frame_needed = 0, uses_anonymous_args = 0
  32 0000 08B5     		push	{r3, lr}
  33              		.cfi_def_cfa_offset 8
  34              		.cfi_offset 3, -8
  35              		.cfi_offset 14, -4
  36              		.loc 1 63 0
  37 0002 FFF7FEFF 		bl	hal_lld_init
  38              	.LVL0:
  39              		.loc 1 66 0
  40 0006 FFF7FEFF 		bl	tmInit
  41              	.LVL1:
  42              		.loc 1 69 0
  43 000a 0448     		ldr	r0, .L2
  44 000c FFF7FEFF 		bl	_pal_lld_init
  45              	.LVL2:
  46              		.loc 1 72 0
  47 0010 FFF7FEFF 		bl	adcInit
  48              	.LVL3:
  49              		.loc 1 124 0
  50 0014 BDE80840 		pop	{r3, lr}
  51              		.loc 1 123 0
  52 0018 FFF7FEBF 		b	boardInit
  53              	.LVL4:
  54              	.L3:
  55              		.align	2
  56              	.L2:
  57 001c 00000000 		.word	pal_default_config
ARM GAS  /tmp/ccBjwK0y.s 			page 2


  58              		.cfi_endproc
  59              	.LFE118:
  60              		.size	halInit, .-halInit
  61              		.section	.text.halIsCounterWithin,"ax",%progbits
  62              		.align	2
  63              		.p2align 4,,15
  64              		.global	halIsCounterWithin
  65              		.thumb
  66              		.thumb_func
  67              		.type	halIsCounterWithin, %function
  68              	halIsCounterWithin:
  69              	.LFB119:
  70              		.loc 1 170 0
  71              		.cfi_startproc
  72              		@ args = 0, pretend = 0, frame = 0
  73              		@ frame_needed = 0, uses_anonymous_args = 0
  74              		@ link register save eliminated.
  75              	.LVL5:
  76              		.loc 1 171 0
  77 0000 084B     		ldr	r3, .L13
  78              		.loc 1 173 0
  79 0002 8142     		cmp	r1, r0
  80              		.loc 1 171 0
  81 0004 5B68     		ldr	r3, [r3, #4]
  82              	.LVL6:
  83              		.loc 1 173 0
  84 0006 06D9     		bls	.L5
  85              		.loc 1 173 0 is_stmt 0 discriminator 1
  86 0008 8342     		cmp	r3, r0
  87 000a 08D3     		bcc	.L9
  88              	.L11:
  89 000c 8B42     		cmp	r3, r1
  90 000e 2CBF     		ite	cs
  91 0010 0020     		movcs	r0, #0
  92              	.LVL7:
  93 0012 0120     		movcc	r0, #1
  94 0014 7047     		bx	lr
  95              	.LVL8:
  96              	.L5:
  97              		.loc 1 174 0 is_stmt 1
  98 0016 8342     		cmp	r3, r0
  99 0018 F8D3     		bcc	.L11
 100 001a 0120     		movs	r0, #1
 101              	.LVL9:
 102              		.loc 1 175 0
 103 001c 7047     		bx	lr
 104              	.LVL10:
 105              	.L9:
 106 001e 0020     		movs	r0, #0
 107              	.LVL11:
 108 0020 7047     		bx	lr
 109              	.L14:
 110 0022 00BF     		.align	2
 111              	.L13:
 112 0024 001000E0 		.word	-536866816
 113              		.cfi_endproc
 114              	.LFE119:
ARM GAS  /tmp/ccBjwK0y.s 			page 3


 115              		.size	halIsCounterWithin, .-halIsCounterWithin
 116 0028 AFF30080 		.section	.text.halPolledDelay,"ax",%progbits
 116      AFF30080 
 117              		.align	2
 118              		.p2align 4,,15
 119              		.global	halPolledDelay
 120              		.thumb
 121              		.thumb_func
 122              		.type	halPolledDelay, %function
 123              	halPolledDelay:
 124              	.LFB120:
 125              		.loc 1 189 0
 126              		.cfi_startproc
 127              		@ args = 0, pretend = 0, frame = 0
 128              		@ frame_needed = 0, uses_anonymous_args = 0
 129              		@ link register save eliminated.
 130              	.LVL12:
 131              		.loc 1 190 0
 132 0000 0C49     		ldr	r1, .L26
 133 0002 4A68     		ldr	r2, [r1, #4]
 134              	.LVL13:
 135              		.loc 1 191 0
 136 0004 1044     		add	r0, r0, r2
 137              	.LVL14:
 138              	.L21:
 139              	.LBB4:
 140              	.LBB5:
 141              		.loc 1 173 0 discriminator 1
 142 0006 8242     		cmp	r2, r0
 143              		.loc 1 171 0 discriminator 1
 144 0008 4B68     		ldr	r3, [r1, #4]
 145              	.LVL15:
 146              		.loc 1 173 0 discriminator 1
 147 000a 0CD2     		bcs	.L16
 148              		.loc 1 173 0 is_stmt 0
 149 000c 9A42     		cmp	r2, r3
 150 000e 03D9     		bls	.L24
 151 0010 0023     		movs	r3, #0
 152              	.LVL16:
 153              	.LBE5:
 154              	.LBE4:
 155              		.loc 1 192 0 is_stmt 1
 156 0012 002B     		cmp	r3, #0
 157 0014 F7D1     		bne	.L21
 158              	.L25:
 159              		.loc 1 194 0
 160 0016 7047     		bx	lr
 161              	.LVL17:
 162              	.L24:
 163 0018 9842     		cmp	r0, r3
 164 001a 94BF     		ite	ls
 165 001c 0023     		movls	r3, #0
 166              	.LVL18:
 167 001e 0123     		movhi	r3, #1
 168              		.loc 1 192 0
 169 0020 002B     		cmp	r3, #0
 170 0022 F0D1     		bne	.L21
ARM GAS  /tmp/ccBjwK0y.s 			page 4


 171 0024 F7E7     		b	.L25
 172              	.LVL19:
 173              	.L16:
 174              	.LBB7:
 175              	.LBB6:
 176              		.loc 1 174 0
 177 0026 9A42     		cmp	r2, r3
 178 0028 F6D8     		bhi	.L24
 179 002a 0123     		movs	r3, #1
 180              	.LVL20:
 181              	.LBE6:
 182              	.LBE7:
 183              		.loc 1 192 0
 184 002c 002B     		cmp	r3, #0
 185 002e EAD1     		bne	.L21
 186 0030 F1E7     		b	.L25
 187              	.L27:
 188 0032 00BF     		.align	2
 189              	.L26:
 190 0034 001000E0 		.word	-536866816
 191              		.cfi_endproc
 192              	.LFE120:
 193              		.size	halPolledDelay, .-halPolledDelay
 194 0038 AFF30080 		.text
 194      AFF30080 
 195              	.Letext0:
 196              		.file 2 "/usr/arm-none-eabi/include/stdint.h"
 197              		.file 3 "../../../os/ports/GCC/ARMCMx/chtypes.h"
 198              		.file 4 "../../../os/ports/common/ARMCMx/nvic.h"
 199              		.file 5 "../../../os/hal/platforms/STM32F30x/hal_lld.h"
 200              		.file 6 "../../../os/hal/platforms/STM32/GPIOv2/pal_lld.h"
 201              		.file 7 "../../../os/ports/common/ARMCMx/CMSIS/include/core_cm4.h"
 202              		.file 8 "../../../os/hal/include/tm.h"
 203              		.file 9 "../../../os/hal/include/adc.h"
 204              		.file 10 "../../../boards/ST_STM32F3_DISCOVERY/board.h"