ARM GAS  /tmp/cc0sQJ5H.s 			page 1


   1              		.syntax unified
   2              		.cpu cortex-m4
   3              		.fpu softvfp
   4              		.eabi_attribute 20, 1
   5              		.eabi_attribute 21, 1
   6              		.eabi_attribute 23, 3
   7              		.eabi_attribute 24, 1
   8              		.eabi_attribute 25, 1
   9              		.eabi_attribute 26, 1
  10              		.eabi_attribute 30, 2
  11              		.eabi_attribute 34, 1
  12              		.eabi_attribute 18, 4
  13              		.thumb
  14              		.file	"main.c"
  15              		.text
  16              	.Ltext0:
  17              		.cfi_sections	.debug_frame
  18              		.section	.text.adccallback,"ax",%progbits
  19              		.align	2
  20              		.p2align 4,,15
  21              		.thumb
  22              		.thumb_func
  23              		.type	adccallback, %function
  24              	adccallback:
  25              	.LFB118:
  26              		.file 1 "main.c"
  27              		.loc 1 33 0
  28              		.cfi_startproc
  29              		@ args = 0, pretend = 0, frame = 0
  30              		@ frame_needed = 0, uses_anonymous_args = 0
  31              		@ link register save eliminated.
  32              	.LVL0:
  33              		.loc 1 36 0
  34 0000 044B     		ldr	r3, .L4
  35 0002 8B42     		cmp	r3, r1
  36              		.loc 1 37 0
  37 0004 0CBF     		ite	eq
  38 0006 044B     		ldreq	r3, .L4+4
  39              		.loc 1 40 0
  40 0008 044B     		ldrne	r3, .L4+8
  41 000a 1968     		ldr	r1, [r3]
  42              	.LVL1:
  43 000c 0A44     		add	r2, r2, r1
  44              	.LVL2:
  45 000e 1A60     		str	r2, [r3]
  46 0010 7047     		bx	lr
  47              	.L5:
  48 0012 00BF     		.align	2
  49              	.L4:
  50 0014 00000000 		.word	.LANCHOR0
  51 0018 00000000 		.word	.LANCHOR1
  52 001c 00000000 		.word	.LANCHOR2
  53              		.cfi_endproc
  54              	.LFE118:
  55              		.size	adccallback, .-adccallback
  56              		.section	.text.adcerrorcallback,"ax",%progbits
  57              		.align	2
ARM GAS  /tmp/cc0sQJ5H.s 			page 2


  58              		.p2align 4,,15
  59              		.thumb
  60              		.thumb_func
  61              		.type	adcerrorcallback, %function
  62              	adcerrorcallback:
  63              	.LFB119:
  64              		.loc 1 44 0
  65              		.cfi_startproc
  66              		@ args = 0, pretend = 0, frame = 0
  67              		@ frame_needed = 0, uses_anonymous_args = 0
  68              		@ link register save eliminated.
  69              	.LVL3:
  70 0000 7047     		bx	lr
  71              		.cfi_endproc
  72              	.LFE119:
  73              		.size	adcerrorcallback, .-adcerrorcallback
  74 0002 00BFAFF3 		.section	.text.Thread1,"ax",%progbits
  74      0080AFF3 
  74      0080AFF3 
  74      0080
  75              		.align	2
  76              		.p2align 4,,15
  77              		.thumb
  78              		.thumb_func
  79              		.type	Thread1, %function
  80              	Thread1:
  81              	.LFB120:
  82              		.loc 1 108 0
  83              		.cfi_startproc
  84              		@ Volatile: function does not return.
  85              		@ args = 0, pretend = 0, frame = 0
  86              		@ frame_needed = 0, uses_anonymous_args = 0
  87              	.LVL4:
  88              		.loc 1 108 0
  89 0000 08B5     		push	{r3, lr}
  90              		.cfi_def_cfa_offset 8
  91              		.cfi_offset 3, -8
  92              		.cfi_offset 14, -4
  93              		.loc 1 111 0
  94 0002 094B     		ldr	r3, .L10
  95 0004 094A     		ldr	r2, .L10+4
  96 0006 9B69     		ldr	r3, [r3, #24]
  97              		.loc 1 113 0
  98 0008 094C     		ldr	r4, .L10+8
  99              		.loc 1 111 0
 100 000a 9A61     		str	r2, [r3, #24]
 101              		.loc 1 113 0
 102 000c 4FF40055 		mov	r5, #8192
 103 0010 2E46     		mov	r6, r5	@ movhi
 104              	.LVL5:
 105              	.L8:
 106              		.loc 1 113 0 is_stmt 0 discriminator 1
 107 0012 2683     		strh	r6, [r4, #24]	@ movhi
 108              		.loc 1 114 0 is_stmt 1 discriminator 1
 109 0014 4FF4FA70 		mov	r0, #500
 110 0018 FFF7FEFF 		bl	chThdSleep
 111              	.LVL6:
ARM GAS  /tmp/cc0sQJ5H.s 			page 3


 112              		.loc 1 115 0 discriminator 1
 113 001c 6583     		strh	r5, [r4, #26]	@ movhi
 114              		.loc 1 116 0 discriminator 1
 115 001e 4FF4FA70 		mov	r0, #500
 116 0022 FFF7FEFF 		bl	chThdSleep
 117              	.LVL7:
 118 0026 F4E7     		b	.L8
 119              	.L11:
 120              		.align	2
 121              	.L10:
 122 0028 00000000 		.word	rlist
 123 002c 00000000 		.word	.LC0
 124 0030 00100048 		.word	1207963648
 125              		.cfi_endproc
 126              	.LFE120:
 127              		.size	Thread1, .-Thread1
 128 0034 AFF30080 		.section	.text.startup.main,"ax",%progbits
 128      AFF30080 
 128      AFF30080 
 129              		.align	2
 130              		.p2align 4,,15
 131              		.global	main
 132              		.thumb
 133              		.thumb_func
 134              		.type	main, %function
 135              	main:
 136              	.LFB121:
 137              		.loc 1 124 0
 138              		.cfi_startproc
 139              		@ Volatile: function does not return.
 140              		@ args = 0, pretend = 0, frame = 0
 141              		@ frame_needed = 0, uses_anonymous_args = 0
 142 0000 00B5     		push	{lr}
 143              		.cfi_def_cfa_offset 4
 144              		.cfi_offset 14, -4
 145 0002 83B0     		sub	sp, sp, #12
 146              		.cfi_def_cfa_offset 16
 147              		.loc 1 133 0
 148 0004 FFF7FEFF 		bl	halInit
 149              	.LVL8:
 150              		.loc 1 145 0
 151 0008 0024     		movs	r4, #0
 152              		.loc 1 134 0
 153 000a FFF7FEFF 		bl	chSysInit
 154              	.LVL9:
 155              		.loc 1 139 0
 156 000e 1748     		ldr	r0, .L18
 157 0010 0621     		movs	r1, #6
 158 0012 0322     		movs	r2, #3
 159 0014 FFF7FEFF 		bl	_pal_lld_setgroupmode
 160              	.LVL10:
 161              		.loc 1 145 0
 162 0018 154B     		ldr	r3, .L18+4
 163 001a 0094     		str	r4, [sp]
 164 001c 4022     		movs	r2, #64
 165 001e 4FF49871 		mov	r1, #304
 166 0022 1448     		ldr	r0, .L18+8
ARM GAS  /tmp/cc0sQJ5H.s 			page 4


 167 0024 FFF7FEFF 		bl	chThdCreateStatic
 168              	.LVL11:
 169              		.loc 1 150 0
 170 0028 2146     		mov	r1, r4
 171 002a 1348     		ldr	r0, .L18+12
 172 002c FFF7FEFF 		bl	adcStart
 173              	.LVL12:
 174              		.loc 1 155 0
 175 0030 1249     		ldr	r1, .L18+16
 176 0032 134A     		ldr	r2, .L18+20
 177 0034 1048     		ldr	r0, .L18+12
 178 0036 0823     		movs	r3, #8
 179 0038 FFF7FEFF 		bl	adcConvert
 180              	.LVL13:
 181              		.loc 1 156 0
 182 003c 4FF47A70 		mov	r0, #1000
 183 0040 FFF7FEFF 		bl	chThdSleep
 184              	.LVL14:
 185              		.loc 1 161 0
 186 0044 0C48     		ldr	r0, .L18+12
 187 0046 0F49     		ldr	r1, .L18+24
 188 0048 0F4A     		ldr	r2, .L18+28
 189 004a 1023     		movs	r3, #16
 190 004c FFF7FEFF 		bl	adcStartConversion
 191              	.LVL15:
 192              		.loc 1 167 0
 193 0050 4FF09044 		mov	r4, #1207959552
 194 0054 03E0     		b	.L14
 195              	.L13:
 196              		.loc 1 170 0
 197 0056 4FF4FA70 		mov	r0, #500
 198 005a FFF7FEFF 		bl	chThdSleep
 199              	.LVL16:
 200              	.L14:
 201              		.loc 1 167 0
 202 005e 2369     		ldr	r3, [r4, #16]
 203 0060 DB07     		lsls	r3, r3, #31
 204 0062 F8D5     		bpl	.L13
 205              		.loc 1 168 0
 206 0064 0448     		ldr	r0, .L18+12
 207 0066 FFF7FEFF 		bl	adcStopConversion
 208              	.LVL17:
 209 006a F4E7     		b	.L13
 210              	.L19:
 211              		.align	2
 212              	.L18:
 213 006c 00080048 		.word	1207961600
 214 0070 00000000 		.word	Thread1
 215 0074 00000000 		.word	.LANCHOR3
 216 0078 00000000 		.word	ADCD1
 217 007c 00000000 		.word	.LANCHOR4
 218 0080 00000000 		.word	.LANCHOR5
 219 0084 00000000 		.word	.LANCHOR6
 220 0088 00000000 		.word	.LANCHOR0
 221              		.cfi_endproc
 222              	.LFE121:
 223              		.size	main, .-main
ARM GAS  /tmp/cc0sQJ5H.s 			page 5


 224              		.global	ny
 225              		.global	nx
 226 008c AFF30080 		.section	.bss.waThread1,"aw",%nobits
 227              		.align	3
 228              		.set	.LANCHOR3,. + 0
 229              		.type	waThread1, %object
 230              		.size	waThread1, 304
 231              	waThread1:
 232 0000 00000000 		.space	304
 232      00000000 
 232      00000000 
 232      00000000 
 232      00000000 
 233              		.section	.bss.nx,"aw",%nobits
 234              		.align	2
 235              		.set	.LANCHOR1,. + 0
 236              		.type	nx, %object
 237              		.size	nx, 4
 238              	nx:
 239 0000 00000000 		.space	4
 240              		.section	.bss.ny,"aw",%nobits
 241              		.align	2
 242              		.set	.LANCHOR2,. + 0
 243              		.type	ny, %object
 244              		.size	ny, 4
 245              	ny:
 246 0000 00000000 		.space	4
 247              		.section	.rodata.adcgrpcfg1,"a",%progbits
 248              		.align	2
 249              		.set	.LANCHOR4,. + 0
 250              		.type	adcgrpcfg1, %object
 251              		.size	adcgrpcfg1, 48
 252              	adcgrpcfg1:
 253 0000 00       		.byte	0
 254 0001 00       		.space	1
 255 0002 0200     		.short	2
 256 0004 00000000 		.word	0
 257 0008 00000000 		.word	adcerrorcallback
 258 000c 00000000 		.word	0
 259 0010 0000FF0F 		.word	268369920
 260 0014 00000000 		.word	0
 261 0018 00000000 		.word	0
 262 001c 00000000 		.word	0
 263 0020 C0810000 		.word	33216
 264 0024 00000000 		.word	0
 265 0028 00000000 		.word	0
 266 002c 00000000 		.word	0
 267              		.section	.rodata.adcgrpcfg2,"a",%progbits
 268              		.align	2
 269              		.set	.LANCHOR6,. + 0
 270              		.type	adcgrpcfg2, %object
 271              		.size	adcgrpcfg2, 48
 272              	adcgrpcfg2:
 273 0000 01       		.byte	1
 274 0001 00       		.space	1
 275 0002 0800     		.short	8
 276 0004 00000000 		.word	adccallback
ARM GAS  /tmp/cc0sQJ5H.s 			page 6


 277 0008 00000000 		.word	adcerrorcallback
 278 000c 00000000 		.word	0
 279 0010 0000FF0F 		.word	268369920
 280 0014 00008001 		.word	25165824
 281 0018 00008004 		.word	75497472
 282 001c 0000B400 		.word	11796480
 283 0020 C0811C08 		.word	136085952
 284 0024 07024500 		.word	4522503
 285 0028 00000000 		.word	0
 286 002c 00000000 		.word	0
 287              		.section	.rodata.str1.4,"aMS",%progbits,1
 288              		.align	2
 289              	.LC0:
 290 0000 626C696E 		.ascii	"blinker\000"
 290      6B657200 
 291              		.section	.bss.samples1,"aw",%nobits
 292              		.align	2
 293              		.set	.LANCHOR5,. + 0
 294              		.type	samples1, %object
 295              		.size	samples1, 32
 296              	samples1:
 297 0000 00000000 		.space	32
 297      00000000 
 297      00000000 
 297      00000000 
 297      00000000 
 298              		.section	.bss.samples2,"aw",%nobits
 299              		.align	2
 300              		.set	.LANCHOR0,. + 0
 301              		.type	samples2, %object
 302              		.size	samples2, 256
 303              	samples2:
 304 0000 00000000 		.space	256
 304      00000000 
 304      00000000 
 304      00000000 
 304      00000000 
 305              		.text
 306              	.Letext0:
 307              		.file 2 "/usr/lib/gcc/arm-none-eabi/4.8.3/include/stddef.h"
 308              		.file 3 "/usr/arm-none-eabi/include/stdint.h"
 309              		.file 4 "../../../os/ports/GCC/ARMCMx/chtypes.h"
 310              		.file 5 "../../../os/kernel/include/chlists.h"
 311              		.file 6 "../../../os/kernel/include/chthreads.h"
 312              		.file 7 "../../../os/ports/GCC/ARMCMx/chcore_v7m.h"
 313              		.file 8 "../../../os/kernel/include/chschd.h"
 314              		.file 9 "../../../os/kernel/include/chmtx.h"
 315              		.file 10 "../../../os/hal/platforms/STM32F30x/stm32f30x.h"
 316              		.file 11 "../../../os/hal/platforms/STM32F30x/stm32_dma.h"
 317              		.file 12 "../../../os/hal/platforms/STM32/GPIOv2/pal_lld.h"
 318              		.file 13 "../../../os/hal/include/adc.h"
 319              		.file 14 "../../../os/hal/platforms/STM32F30x/adc_lld.h"
 320              		.file 15 "../../../os/ports/common/ARMCMx/CMSIS/include/core_cm4.h"
 321              		.file 16 "../../../os/hal/include/hal.h"
 322              		.file 17 "../../../os/kernel/include/chsys.h"