ARM GAS  /tmp/cchcyYhd.s 			page 1


   1              		.syntax unified
   2              		.cpu cortex-m4
   3              		.fpu softvfp
   4              		.eabi_attribute 20, 1
   5              		.eabi_attribute 21, 1
   6              		.eabi_attribute 23, 3
   7              		.eabi_attribute 24, 1
   8              		.eabi_attribute 25, 1
   9              		.eabi_attribute 26, 1
  10              		.eabi_attribute 30, 2
  11              		.eabi_attribute 34, 1
  12              		.eabi_attribute 18, 4
  13              		.thumb
  14              		.file	"pal.c"
  15              		.text
  16              	.Ltext0:
  17              		.cfi_sections	.debug_frame
  18              		.section	.text.palReadBus,"ax",%progbits
  19              		.align	2
  20              		.p2align 4,,15
  21              		.global	palReadBus
  22              		.thumb
  23              		.thumb_func
  24              		.type	palReadBus, %function
  25              	palReadBus:
  26              	.LFB118:
  27              		.file 1 "../../../os/hal/src/pal.c"
  28              		.loc 1 70 0
  29              		.cfi_startproc
  30              		@ args = 0, pretend = 0, frame = 0
  31              		@ frame_needed = 0, uses_anonymous_args = 0
  32              	.LVL0:
  33 0000 10B5     		push	{r4, lr}
  34              		.cfi_def_cfa_offset 8
  35              		.cfi_offset 4, -8
  36              		.cfi_offset 14, -4
  37              		.loc 1 72 0
  38 0002 0446     		mov	r4, r0
  39 0004 10B1     		cbz	r0, .L2
  40              		.loc 1 72 0 is_stmt 0 discriminator 2
  41 0006 8368     		ldr	r3, [r0, #8]
  42 0008 0F2B     		cmp	r3, #15
  43 000a 03D9     		bls	.L3
  44              	.L2:
  45              		.loc 1 72 0 discriminator 1
  46 000c 0548     		ldr	r0, .L8
  47              	.LVL1:
  48 000e FFF7FEFF 		bl	chDbgPanic
  49              	.LVL2:
  50 0012 A368     		ldr	r3, [r4, #8]
  51              	.L3:
  52              		.loc 1 75 0 is_stmt 1
  53 0014 2168     		ldr	r1, [r4]
  54 0016 6068     		ldr	r0, [r4, #4]
  55 0018 0969     		ldr	r1, [r1, #16]
  56 001a 21FA03F3 		lsr	r3, r1, r3
  57              		.loc 1 76 0
ARM GAS  /tmp/cchcyYhd.s 			page 2


  58 001e 1840     		ands	r0, r0, r3
  59 0020 10BD     		pop	{r4, pc}
  60              	.LVL3:
  61              	.L9:
  62 0022 00BF     		.align	2
  63              	.L8:
  64 0024 00000000 		.word	.LC0
  65              		.cfi_endproc
  66              	.LFE118:
  67              		.size	palReadBus, .-palReadBus
  68 0028 AFF30080 		.section	.text.palWriteBus,"ax",%progbits
  68      AFF30080 
  69              		.align	2
  70              		.p2align 4,,15
  71              		.global	palWriteBus
  72              		.thumb
  73              		.thumb_func
  74              		.type	palWriteBus, %function
  75              	palWriteBus:
  76              	.LFB119:
  77              		.loc 1 96 0
  78              		.cfi_startproc
  79              		@ args = 0, pretend = 0, frame = 0
  80              		@ frame_needed = 0, uses_anonymous_args = 0
  81              	.LVL4:
  82 0000 38B5     		push	{r3, r4, r5, lr}
  83              		.cfi_def_cfa_offset 16
  84              		.cfi_offset 3, -16
  85              		.cfi_offset 4, -12
  86              		.cfi_offset 5, -8
  87              		.cfi_offset 14, -4
  88              		.loc 1 98 0
  89 0002 0446     		mov	r4, r0
  90              		.loc 1 96 0
  91 0004 0D46     		mov	r5, r1
  92              		.loc 1 98 0
  93 0006 10B1     		cbz	r0, .L11
  94              		.loc 1 98 0 is_stmt 0 discriminator 2
  95 0008 8368     		ldr	r3, [r0, #8]
  96 000a 0F2B     		cmp	r3, #15
  97 000c 03D9     		bls	.L12
  98              	.L11:
  99              		.loc 1 98 0 discriminator 1
 100 000e 0948     		ldr	r0, .L16
 101              	.LVL5:
 102 0010 FFF7FEFF 		bl	chDbgPanic
 103              	.LVL6:
 104 0014 A368     		ldr	r3, [r4, #8]
 105              	.L12:
 106              		.loc 1 101 0 is_stmt 1
 107 0016 94E80600 		ldmia	r4, {r1, r2}
 108 001a 03F11000 		add	r0, r3, #16
 109 001e 22EA0504 		bic	r4, r2, r5
 110              	.LVL7:
 111 0022 1540     		ands	r5, r5, r2
 112              	.LVL8:
 113 0024 05FA03F3 		lsl	r3, r5, r3
ARM GAS  /tmp/cchcyYhd.s 			page 3


 114 0028 04FA00F2 		lsl	r2, r4, r0
 115 002c 1343     		orrs	r3, r3, r2
 116 002e 8B61     		str	r3, [r1, #24]
 117 0030 38BD     		pop	{r3, r4, r5, pc}
 118              	.L17:
 119 0032 00BF     		.align	2
 120              	.L16:
 121 0034 10000000 		.word	.LC1
 122              		.cfi_endproc
 123              	.LFE119:
 124              		.size	palWriteBus, .-palWriteBus
 125 0038 AFF30080 		.section	.text.palSetBusMode,"ax",%progbits
 125      AFF30080 
 126              		.align	2
 127              		.p2align 4,,15
 128              		.global	palSetBusMode
 129              		.thumb
 130              		.thumb_func
 131              		.type	palSetBusMode, %function
 132              	palSetBusMode:
 133              	.LFB120:
 134              		.loc 1 120 0
 135              		.cfi_startproc
 136              		@ args = 0, pretend = 0, frame = 0
 137              		@ frame_needed = 0, uses_anonymous_args = 0
 138              	.LVL9:
 139 0000 70B5     		push	{r4, r5, r6, lr}
 140              		.cfi_def_cfa_offset 16
 141              		.cfi_offset 4, -16
 142              		.cfi_offset 5, -12
 143              		.cfi_offset 6, -8
 144              		.cfi_offset 14, -4
 145              		.loc 1 122 0
 146 0002 0446     		mov	r4, r0
 147              		.loc 1 120 0
 148 0004 0E46     		mov	r6, r1
 149              		.loc 1 122 0
 150 0006 10B1     		cbz	r0, .L19
 151              		.loc 1 122 0 is_stmt 0 discriminator 2
 152 0008 8168     		ldr	r1, [r0, #8]
 153              	.LVL10:
 154 000a 0F29     		cmp	r1, #15
 155 000c 03D9     		bls	.L20
 156              	.L19:
 157              		.loc 1 122 0 discriminator 1
 158 000e 0648     		ldr	r0, .L24
 159              	.LVL11:
 160 0010 FFF7FEFF 		bl	chDbgPanic
 161              	.LVL12:
 162 0014 A168     		ldr	r1, [r4, #8]
 163              	.L20:
 164              		.loc 1 125 0 is_stmt 1
 165 0016 94E82100 		ldmia	r4, {r0, r5}
 166 001a 3246     		mov	r2, r6
 167 001c 05FA01F1 		lsl	r1, r5, r1
 168              		.loc 1 126 0
 169 0020 BDE87040 		pop	{r4, r5, r6, lr}
ARM GAS  /tmp/cchcyYhd.s 			page 4


 170              	.LVL13:
 171              		.loc 1 125 0
 172 0024 FFF7FEBF 		b	_pal_lld_setgroupmode
 173              	.LVL14:
 174              	.L25:
 175              		.align	2
 176              	.L24:
 177 0028 20000000 		.word	.LC2
 178              		.cfi_endproc
 179              	.LFE120:
 180              		.size	palSetBusMode, .-palSetBusMode
 181 002c AFF30080 		.section	.rodata.str1.4,"aMS",%progbits,1
 182              		.align	2
 183              	.LC0:
 184 0000 2270616C 		.ascii	"\"palReadBus\"()\000"
 184      52656164 
 184      42757322 
 184      282900
 185 000f 00       		.space	1
 186              	.LC1:
 187 0010 2270616C 		.ascii	"\"palWriteBus\"()\000"
 187      57726974 
 187      65427573 
 187      22282900 
 188              	.LC2:
 189 0020 2270616C 		.ascii	"\"palSetBusMode\"()\000"
 189      53657442 
 189      75734D6F 
 189      64652228 
 189      2900
 190 0032 0000     		.text
 191              	.Letext0:
 192              		.file 2 "/usr/arm-none-eabi/include/stdint.h"
 193              		.file 3 "../../../os/hal/platforms/STM32/GPIOv2/pal_lld.h"
 194              		.file 4 "../../../os/hal/include/pal.h"
 195              		.file 5 "../../../os/ports/common/ARMCMx/CMSIS/include/core_cm4.h"
 196              		.file 6 "../../../os/kernel/include/chdebug.h"