ARM GAS  /tmp/cchcyYhd.s 			page 1


   1              		.syntax unified
   2              		.cpu cortex-m4
   3              		.fpu softvfp
   4              		.eabi_attribute 20, 1
   5              		.eabi_attribute 21, 1
   6              		.eabi_attribute 23, 3
   7              		.eabi_attribute 24, 1
   8              		.eabi_attribute 25, 1
   9              		.eabi_attribute 26, 1
  10              		.eabi_attribute 30, 2
  11              		.eabi_attribute 34, 1
  12              		.eabi_attribute 18, 4
  13              		.thumb
  14              		.file	"pal.c"
  15              		.text
  16              	.Ltext0:
  17              		.cfi_sections	.debug_frame
  18              		.section	.text.palReadBus,"ax",%progbits
  19              		.align	2
  20              		.p2align 4,,15
  21              		.global	palReadBus
  22              		.thumb
  23              		.thumb_func
  24              		.type	palReadBus, %function
  25              	palReadBus:
  26              	.LFB118:
  27              		.file 1 "../../../os/hal/src/pal.c"
  28              		.loc 1 70 0
  29              		.cfi_startproc
  30              		@ args = 0, pretend = 0, frame = 0
  31              		@ frame_needed = 0, uses_anonymous_args = 0
  32              	.LVL0:
  33 0000 10B5     		push	{r4, lr}
  34              		.cfi_def_cfa_offset 8
  35              		.cfi_offset 4, -8
  36              		.cfi_offset 14, -4
  37              		.loc 1 72 0
  38 0002 0446     		mov	r4, r0
  39 0004 10B1     		cbz	r0, .L2
  40              		.loc 1 72 0 is_stmt 0 discriminator 2
  41 0006 8368     		ldr	r3, [r0, #8]
  42 0008 0F2B     		cmp	r3, #15
  43 000a 03D9     		bls	.L3
  44              	.L2:
  45              		.loc 1 72 0 discriminator 1
  46 000c 0548     		ldr	r0, .L8
  47              	.LVL1:
  48 000e FFF7FEFF 		bl	chDbgPanic
  49              	.LVL2:
  50 0012 A368     		ldr	r3, [r4, #8]
  51              	.L3:
  52              		.loc 1 75 0 is_stmt 1
  53 0014 2168     		ldr	r1, [r4]
  54 0016 6068     		ldr	r0, [r4, #4]
  55 0018 0969     		ldr	r1, [r1, #16]
  56 001a 21FA03F3 		lsr	r3, r1, r3
  57              		.loc 1 76 0
ARM GAS  /tmp/cchcyYhd.s 			page 2


  58 001e 1840     		ands	r0, r0, r3
  59 0020 10BD     		pop	{r4, pc}
  60              	.LVL3:
  61              	.L9:
  62 0022 00BF     		.align	2
  63              	.L8:
  64 0024 00000000 		.word	.LC0
  65              		.cfi_endproc
  66              	.LFE118:
  67              		.size	palReadBus, .-palReadBus
  68 0028 AFF30080 		.section	.text.palWriteBus,"ax",%progbits
  68      AFF30080 
  69              		.align	2
  70              		.p2align 4,,15
  71              		.global	palWriteBus
  72              		.thumb
  73              		.thumb_func
  74              		.type	palWriteBus, %function
  75              	palWriteBus:
  76              	.LFB119:
  77              		.loc 1 96 0
  78              		.cfi_startproc
  79              		@ args = 0, pretend = 0, frame = 0
  80              		@ frame_needed = 0, uses_anonymous_args = 0
  81              	.LVL4:
  82 0000 38B5     		push	{r3, r4, r5, lr}
  83              		.cfi_def_cfa_offset 16
  84              		.cfi_offset 3, -16
  85              		.cfi_offset 4, -12
  86              		.cfi_offset 5, -8
  87              		.cfi_offset 14, -4
  88              		.loc 1 98 0
  89 0002 0446     		mov	r4, r0
  90              		.loc 1 96 0
  91 0004 0D46     		mov	r5, r1
  92              		.loc 1 98 0
  93 0006 10B1     		cbz	r0, .L11
  94              		.loc 1 98 0 is_stmt 0 discriminator 2
  95 0008 8368     		ldr	r3, [r0, #8]
  96 000a 0F2B     		cmp	r3, #15
  97 000c 03D9     		bls	.L12
  98              	.L11:
  99              		.loc 1 98 0 discriminator 1
 100 000e 0948     		ldr	r0, .L16
 101              	.LVL5:
 102 0010 FFF7FEFF 		bl	chDbgPanic
 103              	.LVL6:
 104 0014 A368     		ldr	r3, [r4, #8]
 105              	.L12:
 106              		.loc 1 101 0 is_stmt 1
 107 0016 94E80600 		ldmia	r4, {r1, r2}
 108 001a 03F11000 		add	r0, r3, #16
 109 001e 22EA0504 		bic	r4, r2, r5
 110              	.LVL7:
 111 0022 1540     		ands	r5, r5, r2
 112              	.LVL8:
 113 0024 05FA03F3 		lsl	r3, r5, r3
ARM GAS  /tmp/cchcyYhd.s 			page 3


 114 0028 04FA00F2 		lsl	r2, r4, r0
 115 002c 1343     		orrs	r3, r3, r2
 116 002e 8B61     		str	r3, [r1, #24]
 117 0030 38BD     		pop	{r3, r4, r5, pc}
 118              	.L17:
 119 0032 00BF     		.align	2
 120              	.L16:
 121 0034 10000000 		.word	.LC1
 122              		.cfi_endproc
 123              	.LFE119:
 124              		.size	palWriteBus, .-palWriteBus
 125 0038 AFF30080 		.section	.text.palSetBusMode,"ax",%progbits
 125      AFF30080 
 126              		.align	2
 127              		.p2align 4,,15
 128              		.global	palSetBusMode
 129              		.thumb
 130              		.thumb_func
 131              		.type	palSetBusMode, %function
 132              	palSetBusMode:
 133              	.LFB120:
 134              		.loc 1 120 0
 135              		.cfi_startproc
 136              		@ args = 0, pretend = 0, frame = 0
 137              		@ frame_needed = 0, uses_anonymous_args = 0
 138              	.LVL9:
 139 0000 70B5     		push	{r4, r5, r6, lr}
 140              		.cfi_def_cfa_offset 16
 141              		.cfi_offset 4, -16
 142              		.cfi_offset 5, -12
 143              		.cfi_offset 6, -8
 144              		.cfi_offset 14, -4
 145              		.loc 1 122 0
 146 0002 0446     		mov	r4, r0
 147              		.loc 1 120 0
 148 0004 0E46     		mov	r6, r1
 149              		.loc 1 122 0
 150 0006 10B1     		cbz	r0, .L19
 151              		.loc 1 122 0 is_stmt 0 discriminator 2
 152 0008 8168     		ldr	r1, [r0, #8]
 153              	.LVL10:
 154 000a 0F29     		cmp	r1, #15
 155 000c 03D9     		bls	.L20
 156              	.L19:
 157              		.loc 1 122 0 discriminator 1
 158 000e 0648     		ldr	r0, .L24
 159              	.LVL11:
 160 0010 FFF7FEFF 		bl	chDbgPanic
 161              	.LVL12:
 162 0014 A168     		ldr	r1, [r4, #8]
 163              	.L20:
 164              		.loc 1 125 0 is_stmt 1
 165 0016 94E82100 		ldmia	r4, {r0, r5}
 166 001a 3246     		mov	r2, r6
 167 001c 05FA01F1 		lsl	r1, r5, r1
 168              		.loc 1 126 0
 169 0020 BDE87040 		pop	{r4, r5, r6, lr}
ARM GAS  /tmp/cchcyYhd.s 			page 4


 170              	.LVL13:
 171              		.loc 1 125 0
 172 0024 FFF7FEBF 		b	_pal_lld_setgroupmode
 173              	.LVL14:
 174              	.L25:
 175              		.align	2
 176              	.L24:
 177 0028 20000000 		.word	.LC2
 178              		.cfi_endproc
 179              	.LFE120:
 180              		.size	palSetBusMode, .-palSetBusMode
 181 002c AFF30080 		.section	.rodata.str1.4,"aMS",%progbits,1
 182              		.align	2
 183              	.LC0:
 184 0000 2270616C 		.ascii	"\"palReadBus\"()\000"
 184      52656164 
 184      42757322 
 184      282900
 185 000f 00       		.space	1
 186              	.LC1:
 187 0010 2270616C 		.ascii	"\"palWriteBus\"()\000"
 187      57726974 
 187      65427573 
 187      22282900 
 188              	.LC2:
 189 0020 2270616C 		.ascii	"\"palSetBusMode\"()\000"
 189      53657442 
 189      75734D6F 
 189      64652228 
 189      2900
 190 0032 0000     		.text
 191              	.Letext0:
 192              		.file 2 "/usr/arm-none-eabi/include/stdint.h"
 193              		.file 3 "../../../os/hal/platforms/STM32/GPIOv2/pal_lld.h"
 194              		.file 4 "../../../os/hal/include/pal.h"
 195              		.file 5 "../../../os/ports/common/ARMCMx/CMSIS/include/core_cm4.h"
 196              		.file 6 "../../../os/kernel/include/chdebug.h"
 197              		.section	.debug_info,"",%progbits
 198              	.Ldebug_info0:
 199 0000 04030000 		.4byte	0x304
 200 0004 0400     		.2byte	0x4
 201 0006 00000000 		.4byte	.Ldebug_abbrev0
 202 000a 04       		.byte	0x4
 203 000b 01       		.uleb128 0x1
 204 000c 69000000 		.4byte	.LASF37
 205 0010 01       		.byte	0x1
 206 0011 00000000 		.4byte	.LASF38
 207 0015 9D010000 		.4byte	.LASF39
 208 0019 00000000 		.4byte	.Ldebug_ranges0+0
 209 001d 00000000 		.4byte	0
 210 0021 00000000 		.4byte	.Ldebug_line0
 211 0025 02       		.uleb128 0x2
 212 0026 04       		.byte	0x4
 213 0027 05       		.byte	0x5
 214 0028 696E7400 		.ascii	"int\000"
 215 002c 03       		.uleb128 0x3
 216 002d 04       		.byte	0x4
ARM GAS  /tmp/cchcyYhd.s 			page 5


 217 002e 07       		.byte	0x7
 218 002f F5010000 		.4byte	.LASF0
 219 0033 03       		.uleb128 0x3
 220 0034 01       		.byte	0x1
 221 0035 06       		.byte	0x6
 222 0036 8D020000 		.4byte	.LASF1
 223 003a 03       		.uleb128 0x3
 224 003b 01       		.byte	0x1
 225 003c 08       		.byte	0x8
 226 003d 53010000 		.4byte	.LASF2
 227 0041 03       		.uleb128 0x3
 228 0042 02       		.byte	0x2
 229 0043 05       		.byte	0x5
 230 0044 CD010000 		.4byte	.LASF3
 231 0048 04       		.uleb128 0x4
 232 0049 6D020000 		.4byte	.LASF5
 233 004d 02       		.byte	0x2
 234 004e 36       		.byte	0x36
 235 004f 53000000 		.4byte	0x53
 236 0053 03       		.uleb128 0x3
 237 0054 02       		.byte	0x2
 238 0055 07       		.byte	0x7
 239 0056 78010000 		.4byte	.LASF4
 240 005a 04       		.uleb128 0x4
 241 005b 19020000 		.4byte	.LASF6
 242 005f 02       		.byte	0x2
 243 0060 4F       		.byte	0x4f
 244 0061 65000000 		.4byte	0x65
 245 0065 03       		.uleb128 0x3
 246 0066 04       		.byte	0x4
 247 0067 05       		.byte	0x5
 248 0068 7F020000 		.4byte	.LASF7
 249 006c 04       		.uleb128 0x4
 250 006d 76020000 		.4byte	.LASF8
 251 0071 02       		.byte	0x2
 252 0072 50       		.byte	0x50
 253 0073 77000000 		.4byte	0x77
 254 0077 03       		.uleb128 0x3
 255 0078 04       		.byte	0x4
 256 0079 07       		.byte	0x7
 257 007a 66010000 		.4byte	.LASF9
 258 007e 03       		.uleb128 0x3
 259 007f 08       		.byte	0x8
 260 0080 05       		.byte	0x5
 261 0081 30020000 		.4byte	.LASF10
 262 0085 03       		.uleb128 0x3
 263 0086 08       		.byte	0x8
 264 0087 07       		.byte	0x7
 265 0088 9F020000 		.4byte	.LASF11
 266 008c 04       		.uleb128 0x4
 267 008d 36000000 		.4byte	.LASF12
 268 0091 02       		.byte	0x2
 269 0092 A0       		.byte	0xa0
 270 0093 2C000000 		.4byte	0x2c
 271 0097 03       		.uleb128 0x3
 272 0098 01       		.byte	0x1
 273 0099 02       		.byte	0x2
ARM GAS  /tmp/cchcyYhd.s 			page 6


 274 009a 99020000 		.4byte	.LASF13
 275 009e 05       		.uleb128 0x5
 276 009f 6C000000 		.4byte	0x6c
 277 00a3 03       		.uleb128 0x3
 278 00a4 04       		.byte	0x4
 279 00a5 07       		.byte	0x7
 280 00a6 21020000 		.4byte	.LASF14
 281 00aa 06       		.uleb128 0x6
 282 00ab 04       		.byte	0x4
 283 00ac B0000000 		.4byte	0xb0
 284 00b0 07       		.uleb128 0x7
 285 00b1 B5000000 		.4byte	0xb5
 286 00b5 03       		.uleb128 0x3
 287 00b6 01       		.byte	0x1
 288 00b7 08       		.byte	0x8
 289 00b8 0F020000 		.4byte	.LASF15
 290 00bc 05       		.uleb128 0x5
 291 00bd 5A000000 		.4byte	0x5a
 292 00c1 08       		.uleb128 0x8
 293 00c2 04       		.byte	0x4
 294 00c3 03       		.byte	0x3
 295 00c4 96       		.byte	0x96
 296 00c5 E2000000 		.4byte	0xe2
 297 00c9 09       		.uleb128 0x9
 298 00ca 73657400 		.ascii	"set\000"
 299 00ce 03       		.byte	0x3
 300 00cf 97       		.byte	0x97
 301 00d0 48000000 		.4byte	0x48
 302 00d4 00       		.byte	0
 303 00d5 0A       		.uleb128 0xa
 304 00d6 1F000000 		.4byte	.LASF16
 305 00da 03       		.byte	0x3
 306 00db 98       		.byte	0x98
 307 00dc 48000000 		.4byte	0x48
 308 00e0 02       		.byte	0x2
 309 00e1 00       		.byte	0
 310 00e2 0B       		.uleb128 0xb
 311 00e3 04       		.byte	0x4
 312 00e4 03       		.byte	0x3
 313 00e5 94       		.byte	0x94
 314 00e6 FD000000 		.4byte	0xfd
 315 00ea 0C       		.uleb128 0xc
 316 00eb 5700     		.ascii	"W\000"
 317 00ed 03       		.byte	0x3
 318 00ee 95       		.byte	0x95
 319 00ef 6C000000 		.4byte	0x6c
 320 00f3 0C       		.uleb128 0xc
 321 00f4 4800     		.ascii	"H\000"
 322 00f6 03       		.byte	0x3
 323 00f7 99       		.byte	0x99
 324 00f8 C1000000 		.4byte	0xc1
 325 00fc 00       		.byte	0
 326 00fd 08       		.uleb128 0x8
 327 00fe 28       		.byte	0x28
 328 00ff 03       		.byte	0x3
 329 0100 8C       		.byte	0x8c
 330 0101 7E010000 		.4byte	0x17e
ARM GAS  /tmp/cchcyYhd.s 			page 7


 331 0105 0A       		.uleb128 0xa
 332 0106 25000000 		.4byte	.LASF17
 333 010a 03       		.byte	0x3
 334 010b 8E       		.byte	0x8e
 335 010c 9E000000 		.4byte	0x9e
 336 0110 00       		.byte	0
 337 0111 0A       		.uleb128 0xa
 338 0112 43010000 		.4byte	.LASF18
 339 0116 03       		.byte	0x3
 340 0117 8F       		.byte	0x8f
 341 0118 9E000000 		.4byte	0x9e
 342 011c 04       		.byte	0x4
 343 011d 0A       		.uleb128 0xa
 344 011e D7010000 		.4byte	.LASF19
 345 0122 03       		.byte	0x3
 346 0123 90       		.byte	0x90
 347 0124 9E000000 		.4byte	0x9e
 348 0128 08       		.byte	0x8
 349 0129 0A       		.uleb128 0xa
 350 012a 2A020000 		.4byte	.LASF20
 351 012e 03       		.byte	0x3
 352 012f 91       		.byte	0x91
 353 0130 9E000000 		.4byte	0x9e
 354 0134 0C       		.byte	0xc
 355 0135 09       		.uleb128 0x9
 356 0136 49445200 		.ascii	"IDR\000"
 357 013a 03       		.byte	0x3
 358 013b 92       		.byte	0x92
 359 013c 9E000000 		.4byte	0x9e
 360 0140 10       		.byte	0x10
 361 0141 09       		.uleb128 0x9
 362 0142 4F445200 		.ascii	"ODR\000"
 363 0146 03       		.byte	0x3
 364 0147 93       		.byte	0x93
 365 0148 9E000000 		.4byte	0x9e
 366 014c 14       		.byte	0x14
 367 014d 0A       		.uleb128 0xa
 368 014e 43000000 		.4byte	.LASF21
 369 0152 03       		.byte	0x3
 370 0153 9A       		.byte	0x9a
 371 0154 7E010000 		.4byte	0x17e
 372 0158 18       		.byte	0x18
 373 0159 0A       		.uleb128 0xa
 374 015a 1A000000 		.4byte	.LASF22
 375 015e 03       		.byte	0x3
 376 015f 9B       		.byte	0x9b
 377 0160 9E000000 		.4byte	0x9e
 378 0164 1C       		.byte	0x1c
 379 0165 0A       		.uleb128 0xa
 380 0166 8B010000 		.4byte	.LASF23
 381 016a 03       		.byte	0x3
 382 016b 9C       		.byte	0x9c
 383 016c 9E000000 		.4byte	0x9e
 384 0170 20       		.byte	0x20
 385 0171 0A       		.uleb128 0xa
 386 0172 61010000 		.4byte	.LASF24
 387 0176 03       		.byte	0x3
ARM GAS  /tmp/cchcyYhd.s 			page 8


 388 0177 9D       		.byte	0x9d
 389 0178 9E000000 		.4byte	0x9e
 390 017c 24       		.byte	0x24
 391 017d 00       		.byte	0
 392 017e 05       		.uleb128 0x5
 393 017f E2000000 		.4byte	0xe2
 394 0183 04       		.uleb128 0x4
 395 0184 02020000 		.4byte	.LASF25
 396 0188 03       		.byte	0x3
 397 0189 9E       		.byte	0x9e
 398 018a FD000000 		.4byte	0xfd
 399 018e 04       		.uleb128 0x4
 400 018f 55020000 		.4byte	.LASF26
 401 0193 03       		.byte	0x3
 402 0194 F0       		.byte	0xf0
 403 0195 6C000000 		.4byte	0x6c
 404 0199 04       		.uleb128 0x4
 405 019a 4A010000 		.4byte	.LASF27
 406 019e 03       		.byte	0x3
 407 019f F5       		.byte	0xf5
 408 01a0 6C000000 		.4byte	0x6c
 409 01a4 04       		.uleb128 0x4
 410 01a5 62020000 		.4byte	.LASF28
 411 01a9 03       		.byte	0x3
 412 01aa FD       		.byte	0xfd
 413 01ab AF010000 		.4byte	0x1af
 414 01af 06       		.uleb128 0x6
 415 01b0 04       		.byte	0x4
 416 01b1 83010000 		.4byte	0x183
 417 01b5 08       		.uleb128 0x8
 418 01b6 0C       		.byte	0xc
 419 01b7 04       		.byte	0x4
 420 01b8 7E       		.byte	0x7e
 421 01b9 E2010000 		.4byte	0x1e2
 422 01bd 0A       		.uleb128 0xa
 423 01be 62000000 		.4byte	.LASF29
 424 01c2 04       		.byte	0x4
 425 01c3 82       		.byte	0x82
 426 01c4 A4010000 		.4byte	0x1a4
 427 01c8 00       		.byte	0
 428 01c9 0A       		.uleb128 0xa
 429 01ca 3E020000 		.4byte	.LASF30
 430 01ce 04       		.byte	0x4
 431 01cf 88       		.byte	0x88
 432 01d0 8E010000 		.4byte	0x18e
 433 01d4 04       		.byte	0x4
 434 01d5 0A       		.uleb128 0xa
 435 01d6 4E020000 		.4byte	.LASF31
 436 01da 04       		.byte	0x4
 437 01db 8C       		.byte	0x8c
 438 01dc 8C000000 		.4byte	0x8c
 439 01e0 08       		.byte	0x8
 440 01e1 00       		.byte	0
 441 01e2 04       		.uleb128 0x4
 442 01e3 B6020000 		.4byte	.LASF32
 443 01e7 04       		.byte	0x4
 444 01e8 8D       		.byte	0x8d
ARM GAS  /tmp/cchcyYhd.s 			page 9


 445 01e9 B5010000 		.4byte	0x1b5
 446 01ed 0D       		.uleb128 0xd
 447 01ee 2B000000 		.4byte	.LASF40
 448 01f2 01       		.byte	0x1
 449 01f3 46       		.byte	0x46
 450 01f4 8E010000 		.4byte	0x18e
 451 01f8 00000000 		.4byte	.LFB118
 452 01fc 28000000 		.4byte	.LFE118-.LFB118
 453 0200 01       		.uleb128 0x1
 454 0201 9C       		.byte	0x9c
 455 0202 29020000 		.4byte	0x229
 456 0206 0E       		.uleb128 0xe
 457 0207 62757300 		.ascii	"bus\000"
 458 020b 01       		.byte	0x1
 459 020c 46       		.byte	0x46
 460 020d 29020000 		.4byte	0x229
 461 0211 00000000 		.4byte	.LLST0
 462 0215 0F       		.uleb128 0xf
 463 0216 12000000 		.4byte	.LVL2
 464 021a DE020000 		.4byte	0x2de
 465 021e 10       		.uleb128 0x10
 466 021f 01       		.uleb128 0x1
 467 0220 50       		.byte	0x50
 468 0221 05       		.uleb128 0x5
 469 0222 03       		.byte	0x3
 470 0223 00000000 		.4byte	.LC0
 471 0227 00       		.byte	0
 472 0228 00       		.byte	0
 473 0229 06       		.uleb128 0x6
 474 022a 04       		.byte	0x4
 475 022b E2010000 		.4byte	0x1e2
 476 022f 11       		.uleb128 0x11
 477 0230 48000000 		.4byte	.LASF34
 478 0234 01       		.byte	0x1
 479 0235 60       		.byte	0x60
 480 0236 00000000 		.4byte	.LFB119
 481 023a 38000000 		.4byte	.LFE119-.LFB119
 482 023e 01       		.uleb128 0x1
 483 023f 9C       		.byte	0x9c
 484 0240 76020000 		.4byte	0x276
 485 0244 0E       		.uleb128 0xe
 486 0245 62757300 		.ascii	"bus\000"
 487 0249 01       		.byte	0x1
 488 024a 60       		.byte	0x60
 489 024b 29020000 		.4byte	0x229
 490 024f 2C000000 		.4byte	.LLST1
 491 0253 12       		.uleb128 0x12
 492 0254 88020000 		.4byte	.LASF33
 493 0258 01       		.byte	0x1
 494 0259 60       		.byte	0x60
 495 025a 8E010000 		.4byte	0x18e
 496 025e 58000000 		.4byte	.LLST2
 497 0262 0F       		.uleb128 0xf
 498 0263 14000000 		.4byte	.LVL6
 499 0267 DE020000 		.4byte	0x2de
 500 026b 10       		.uleb128 0x10
 501 026c 01       		.uleb128 0x1
ARM GAS  /tmp/cchcyYhd.s 			page 10


 502 026d 50       		.byte	0x50
 503 026e 05       		.uleb128 0x5
 504 026f 03       		.byte	0x3
 505 0270 10000000 		.4byte	.LC1
 506 0274 00       		.byte	0
 507 0275 00       		.byte	0
 508 0276 11       		.uleb128 0x11
 509 0277 54000000 		.4byte	.LASF35
 510 027b 01       		.byte	0x1
 511 027c 78       		.byte	0x78
 512 027d 00000000 		.4byte	.LFB120
 513 0281 2C000000 		.4byte	.LFE120-.LFB120
 514 0285 01       		.uleb128 0x1
 515 0286 9C       		.byte	0x9c
 516 0287 D2020000 		.4byte	0x2d2
 517 028b 0E       		.uleb128 0xe
 518 028c 62757300 		.ascii	"bus\000"
 519 0290 01       		.byte	0x1
 520 0291 78       		.byte	0x78
 521 0292 29020000 		.4byte	0x229
 522 0296 84000000 		.4byte	.LLST3
 523 029a 12       		.uleb128 0x12
 524 029b 14020000 		.4byte	.LASF36
 525 029f 01       		.byte	0x1
 526 02a0 78       		.byte	0x78
 527 02a1 99010000 		.4byte	0x199
 528 02a5 B0000000 		.4byte	.LLST4
 529 02a9 13       		.uleb128 0x13
 530 02aa 14000000 		.4byte	.LVL12
 531 02ae DE020000 		.4byte	0x2de
 532 02b2 C0020000 		.4byte	0x2c0
 533 02b6 10       		.uleb128 0x10
 534 02b7 01       		.uleb128 0x1
 535 02b8 50       		.byte	0x50
 536 02b9 05       		.uleb128 0x5
 537 02ba 03       		.byte	0x3
 538 02bb 20000000 		.4byte	.LC2
 539 02bf 00       		.byte	0
 540 02c0 14       		.uleb128 0x14
 541 02c1 28000000 		.4byte	.LVL14
 542 02c5 EF020000 		.4byte	0x2ef
 543 02c9 10       		.uleb128 0x10
 544 02ca 01       		.uleb128 0x1
 545 02cb 52       		.byte	0x52
 546 02cc 03       		.uleb128 0x3
 547 02cd F3       		.byte	0xf3
 548 02ce 01       		.uleb128 0x1
 549 02cf 51       		.byte	0x51
 550 02d0 00       		.byte	0
 551 02d1 00       		.byte	0
 552 02d2 15       		.uleb128 0x15
 553 02d3 90010000 		.4byte	.LASF41
 554 02d7 05       		.byte	0x5
 555 02d8 9806     		.2byte	0x698
 556 02da BC000000 		.4byte	0xbc
 557 02de 16       		.uleb128 0x16
 558 02df 43020000 		.4byte	.LASF42
ARM GAS  /tmp/cchcyYhd.s 			page 11


 559 02e3 06       		.byte	0x6
 560 02e4 EF       		.byte	0xef
 561 02e5 EF020000 		.4byte	0x2ef
 562 02e9 17       		.uleb128 0x17
 563 02ea AA000000 		.4byte	0xaa
 564 02ee 00       		.byte	0
 565 02ef 18       		.uleb128 0x18
 566 02f0 DF010000 		.4byte	.LASF43
 567 02f4 03       		.byte	0x3
 568 02f5 C201     		.2byte	0x1c2
 569 02f7 17       		.uleb128 0x17
 570 02f8 A4010000 		.4byte	0x1a4
 571 02fc 17       		.uleb128 0x17
 572 02fd 8E010000 		.4byte	0x18e
 573 0301 17       		.uleb128 0x17
 574 0302 99010000 		.4byte	0x199
 575 0306 00       		.byte	0
 576 0307 00       		.byte	0
 577              		.section	.debug_abbrev,"",%progbits
 578              	.Ldebug_abbrev0:
 579 0000 01       		.uleb128 0x1
 580 0001 11       		.uleb128 0x11
 581 0002 01       		.byte	0x1
 582 0003 25       		.uleb128 0x25
 583 0004 0E       		.uleb128 0xe
 584 0005 13       		.uleb128 0x13
 585 0006 0B       		.uleb128 0xb
 586 0007 03       		.uleb128 0x3
 587 0008 0E       		.uleb128 0xe
 588 0009 1B       		.uleb128 0x1b
 589 000a 0E       		.uleb128 0xe
 590 000b 55       		.uleb128 0x55
 591 000c 17       		.uleb128 0x17
 592 000d 11       		.uleb128 0x11
 593 000e 01       		.uleb128 0x1
 594 000f 10       		.uleb128 0x10
 595 0010 17       		.uleb128 0x17
 596 0011 00       		.byte	0
 597 0012 00       		.byte	0
 598 0013 02       		.uleb128 0x2
 599 0014 24       		.uleb128 0x24
 600 0015 00       		.byte	0
 601 0016 0B       		.uleb128 0xb
 602 0017 0B       		.uleb128 0xb
 603 0018 3E       		.uleb128 0x3e
 604 0019 0B       		.uleb128 0xb
 605 001a 03       		.uleb128 0x3
 606 001b 08       		.uleb128 0x8
 607 001c 00       		.byte	0
 608 001d 00       		.byte	0
 609 001e 03       		.uleb128 0x3
 610 001f 24       		.uleb128 0x24
 611 0020 00       		.byte	0
 612 0021 0B       		.uleb128 0xb
 613 0022 0B       		.uleb128 0xb
 614 0023 3E       		.uleb128 0x3e
 615 0024 0B       		.uleb128 0xb
ARM GAS  /tmp/cchcyYhd.s 			page 12


 616 0025 03       		.uleb128 0x3
 617 0026 0E       		.uleb128 0xe
 618 0027 00       		.byte	0
 619 0028 00       		.byte	0
 620 0029 04       		.uleb128 0x4
 621 002a 16       		.uleb128 0x16
 622 002b 00       		.byte	0
 623 002c 03       		.uleb128 0x3
 624 002d 0E       		.uleb128 0xe
 625 002e 3A       		.uleb128 0x3a
 626 002f 0B       		.uleb128 0xb
 627 0030 3B       		.uleb128 0x3b
 628 0031 0B       		.uleb128 0xb
 629 0032 49       		.uleb128 0x49
 630 0033 13       		.uleb128 0x13
 631 0034 00       		.byte	0
 632 0035 00       		.byte	0
 633 0036 05       		.uleb128 0x5
 634 0037 35       		.uleb128 0x35
 635 0038 00       		.byte	0
 636 0039 49       		.uleb128 0x49
 637 003a 13       		.uleb128 0x13
 638 003b 00       		.byte	0
 639 003c 00       		.byte	0
 640 003d 06       		.uleb128 0x6
 641 003e 0F       		.uleb128 0xf
 642 003f 00       		.byte	0
 643 0040 0B       		.uleb128 0xb
 644 0041 0B       		.uleb128 0xb
 645 0042 49       		.uleb128 0x49
 646 0043 13       		.uleb128 0x13
 647 0044 00       		.byte	0
 648 0045 00       		.byte	0
 649 0046 07       		.uleb128 0x7
 650 0047 26       		.uleb128 0x26
 651 0048 00       		.byte	0
 652 0049 49       		.uleb128 0x49
 653 004a 13       		.uleb128 0x13
 654 004b 00       		.byte	0
 655 004c 00       		.byte	0
 656 004d 08       		.uleb128 0x8
 657 004e 13       		.uleb128 0x13
 658 004f 01       		.byte	0x1
 659 0050 0B       		.uleb128 0xb
 660 0051 0B       		.uleb128 0xb
 661 0052 3A       		.uleb128 0x3a
 662 0053 0B       		.uleb128 0xb
 663 0054 3B       		.uleb128 0x3b
 664 0055 0B       		.uleb128 0xb
 665 0056 01       		.uleb128 0x1
 666 0057 13       		.uleb128 0x13
 667 0058 00       		.byte	0
 668 0059 00       		.byte	0
 669 005a 09       		.uleb128 0x9
 670 005b 0D       		.uleb128 0xd
 671 005c 00       		.byte	0
 672 005d 03       		.uleb128 0x3
ARM GAS  /tmp/cchcyYhd.s 			page 13


 673 005e 08       		.uleb128 0x8
 674 005f 3A       		.uleb128 0x3a
 675 0060 0B       		.uleb128 0xb
 676 0061 3B       		.uleb128 0x3b
 677 0062 0B       		.uleb128 0xb
 678 0063 49       		.uleb128 0x49
 679 0064 13       		.uleb128 0x13
 680 0065 38       		.uleb128 0x38
 681 0066 0B       		.uleb128 0xb
 682 0067 00       		.byte	0
 683 0068 00       		.byte	0
 684 0069 0A       		.uleb128 0xa
 685 006a 0D       		.uleb128 0xd
 686 006b 00       		.byte	0
 687 006c 03       		.uleb128 0x3
 688 006d 0E       		.uleb128 0xe
 689 006e 3A       		.uleb128 0x3a
 690 006f 0B       		.uleb128 0xb
 691 0070 3B       		.uleb128 0x3b
 692 0071 0B       		.uleb128 0xb
 693 0072 49       		.uleb128 0x49
 694 0073 13       		.uleb128 0x13
 695 0074 38       		.uleb128 0x38
 696 0075 0B       		.uleb128 0xb
 697 0076 00       		.byte	0
 698 0077 00       		.byte	0
 699 0078 0B       		.uleb128 0xb
 700 0079 17       		.uleb128 0x17
 701 007a 01       		.byte	0x1
 702 007b 0B       		.uleb128 0xb
 703 007c 0B       		.uleb128 0xb
 704 007d 3A       		.uleb128 0x3a
 705 007e 0B       		.uleb128 0xb
 706 007f 3B       		.uleb128 0x3b
 707 0080 0B       		.uleb128 0xb
 708 0081 01       		.uleb128 0x1
 709 0082 13       		.uleb128 0x13
 710 0083 00       		.byte	0
 711 0084 00       		.byte	0
 712 0085 0C       		.uleb128 0xc
 713 0086 0D       		.uleb128 0xd
 714 0087 00       		.byte	0
 715 0088 03       		.uleb128 0x3
 716 0089 08       		.uleb128 0x8
 717 008a 3A       		.uleb128 0x3a
 718 008b 0B       		.uleb128 0xb
 719 008c 3B       		.uleb128 0x3b
 720 008d 0B       		.uleb128 0xb
 721 008e 49       		.uleb128 0x49
 722 008f 13       		.uleb128 0x13
 723 0090 00       		.byte	0
 724 0091 00       		.byte	0
 725 0092 0D       		.uleb128 0xd
 726 0093 2E       		.uleb128 0x2e
 727 0094 01       		.byte	0x1
 728 0095 3F       		.uleb128 0x3f
 729 0096 19       		.uleb128 0x19
ARM GAS  /tmp/cchcyYhd.s 			page 14


 730 0097 03       		.uleb128 0x3
 731 0098 0E       		.uleb128 0xe
 732 0099 3A       		.uleb128 0x3a
 733 009a 0B       		.uleb128 0xb
 734 009b 3B       		.uleb128 0x3b
 735 009c 0B       		.uleb128 0xb
 736 009d 27       		.uleb128 0x27
 737 009e 19       		.uleb128 0x19
 738 009f 49       		.uleb128 0x49
 739 00a0 13       		.uleb128 0x13
 740 00a1 11       		.uleb128 0x11
 741 00a2 01       		.uleb128 0x1
 742 00a3 12       		.uleb128 0x12
 743 00a4 06       		.uleb128 0x6
 744 00a5 40       		.uleb128 0x40
 745 00a6 18       		.uleb128 0x18
 746 00a7 9742     		.uleb128 0x2117
 747 00a9 19       		.uleb128 0x19
 748 00aa 01       		.uleb128 0x1
 749 00ab 13       		.uleb128 0x13
 750 00ac 00       		.byte	0
 751 00ad 00       		.byte	0
 752 00ae 0E       		.uleb128 0xe
 753 00af 05       		.uleb128 0x5
 754 00b0 00       		.byte	0
 755 00b1 03       		.uleb128 0x3
 756 00b2 08       		.uleb128 0x8
 757 00b3 3A       		.uleb128 0x3a
 758 00b4 0B       		.uleb128 0xb
 759 00b5 3B       		.uleb128 0x3b
 760 00b6 0B       		.uleb128 0xb
 761 00b7 49       		.uleb128 0x49
 762 00b8 13       		.uleb128 0x13
 763 00b9 02       		.uleb128 0x2
 764 00ba 17       		.uleb128 0x17
 765 00bb 00       		.byte	0
 766 00bc 00       		.byte	0
 767 00bd 0F       		.uleb128 0xf
 768 00be 898201   		.uleb128 0x4109
 769 00c1 01       		.byte	0x1
 770 00c2 11       		.uleb128 0x11
 771 00c3 01       		.uleb128 0x1
 772 00c4 31       		.uleb128 0x31
 773 00c5 13       		.uleb128 0x13
 774 00c6 00       		.byte	0
 775 00c7 00       		.byte	0
 776 00c8 10       		.uleb128 0x10
 777 00c9 8A8201   		.uleb128 0x410a
 778 00cc 00       		.byte	0
 779 00cd 02       		.uleb128 0x2
 780 00ce 18       		.uleb128 0x18
 781 00cf 9142     		.uleb128 0x2111
 782 00d1 18       		.uleb128 0x18
 783 00d2 00       		.byte	0
 784 00d3 00       		.byte	0
 785 00d4 11       		.uleb128 0x11
 786 00d5 2E       		.uleb128 0x2e
ARM GAS  /tmp/cchcyYhd.s 			page 15


 787 00d6 01       		.byte	0x1
 788 00d7 3F       		.uleb128 0x3f
 789 00d8 19       		.uleb128 0x19
 790 00d9 03       		.uleb128 0x3
 791 00da 0E       		.uleb128 0xe
 792 00db 3A       		.uleb128 0x3a
 793 00dc 0B       		.uleb128 0xb
 794 00dd 3B       		.uleb128 0x3b
 795 00de 0B       		.uleb128 0xb
 796 00df 27       		.uleb128 0x27
 797 00e0 19       		.uleb128 0x19
 798 00e1 11       		.uleb128 0x11
 799 00e2 01       		.uleb128 0x1
 800 00e3 12       		.uleb128 0x12
 801 00e4 06       		.uleb128 0x6
 802 00e5 40       		.uleb128 0x40
 803 00e6 18       		.uleb128 0x18
 804 00e7 9742     		.uleb128 0x2117
 805 00e9 19       		.uleb128 0x19
 806 00ea 01       		.uleb128 0x1
 807 00eb 13       		.uleb128 0x13
 808 00ec 00       		.byte	0
 809 00ed 00       		.byte	0
 810 00ee 12       		.uleb128 0x12
 811 00ef 05       		.uleb128 0x5
 812 00f0 00       		.byte	0
 813 00f1 03       		.uleb128 0x3
 814 00f2 0E       		.uleb128 0xe
 815 00f3 3A       		.uleb128 0x3a
 816 00f4 0B       		.uleb128 0xb
 817 00f5 3B       		.uleb128 0x3b
 818 00f6 0B       		.uleb128 0xb
 819 00f7 49       		.uleb128 0x49
 820 00f8 13       		.uleb128 0x13
 821 00f9 02       		.uleb128 0x2
 822 00fa 17       		.uleb128 0x17
 823 00fb 00       		.byte	0
 824 00fc 00       		.byte	0
 825 00fd 13       		.uleb128 0x13
 826 00fe 898201   		.uleb128 0x4109
 827 0101 01       		.byte	0x1
 828 0102 11       		.uleb128 0x11
 829 0103 01       		.uleb128 0x1
 830 0104 31       		.uleb128 0x31
 831 0105 13       		.uleb128 0x13
 832 0106 01       		.uleb128 0x1
 833 0107 13       		.uleb128 0x13
 834 0108 00       		.byte	0
 835 0109 00       		.byte	0
 836 010a 14       		.uleb128 0x14
 837 010b 898201   		.uleb128 0x4109
 838 010e 01       		.byte	0x1
 839 010f 11       		.uleb128 0x11
 840 0110 01       		.uleb128 0x1
 841 0111 9542     		.uleb128 0x2115
 842 0113 19       		.uleb128 0x19
 843 0114 31       		.uleb128 0x31
ARM GAS  /tmp/cchcyYhd.s 			page 16


 844 0115 13       		.uleb128 0x13
 845 0116 00       		.byte	0
 846 0117 00       		.byte	0
 847 0118 15       		.uleb128 0x15
 848 0119 34       		.uleb128 0x34
 849 011a 00       		.byte	0
 850 011b 03       		.uleb128 0x3
 851 011c 0E       		.uleb128 0xe
 852 011d 3A       		.uleb128 0x3a
 853 011e 0B       		.uleb128 0xb
 854 011f 3B       		.uleb128 0x3b
 855 0120 05       		.uleb128 0x5
 856 0121 49       		.uleb128 0x49
 857 0122 13       		.uleb128 0x13
 858 0123 3F       		.uleb128 0x3f
 859 0124 19       		.uleb128 0x19
 860 0125 3C       		.uleb128 0x3c
 861 0126 19       		.uleb128 0x19
 862 0127 00       		.byte	0
 863 0128 00       		.byte	0
 864 0129 16       		.uleb128 0x16
 865 012a 2E       		.uleb128 0x2e
 866 012b 01       		.byte	0x1
 867 012c 3F       		.uleb128 0x3f
 868 012d 19       		.uleb128 0x19
 869 012e 03       		.uleb128 0x3
 870 012f 0E       		.uleb128 0xe
 871 0130 3A       		.uleb128 0x3a
 872 0131 0B       		.uleb128 0xb
 873 0132 3B       		.uleb128 0x3b
 874 0133 0B       		.uleb128 0xb
 875 0134 27       		.uleb128 0x27
 876 0135 19       		.uleb128 0x19
 877 0136 3C       		.uleb128 0x3c
 878 0137 19       		.uleb128 0x19
 879 0138 01       		.uleb128 0x1
 880 0139 13       		.uleb128 0x13
 881 013a 00       		.byte	0
 882 013b 00       		.byte	0
 883 013c 17       		.uleb128 0x17
 884 013d 05       		.uleb128 0x5
 885 013e 00       		.byte	0
 886 013f 49       		.uleb128 0x49
 887 0140 13       		.uleb128 0x13
 888 0141 00       		.byte	0
 889 0142 00       		.byte	0
 890 0143 18       		.uleb128 0x18
 891 0144 2E       		.uleb128 0x2e
 892 0145 01       		.byte	0x1
 893 0146 3F       		.uleb128 0x3f
 894 0147 19       		.uleb128 0x19
 895 0148 03       		.uleb128 0x3
 896 0149 0E       		.uleb128 0xe
 897 014a 3A       		.uleb128 0x3a
 898 014b 0B       		.uleb128 0xb
 899 014c 3B       		.uleb128 0x3b
 900 014d 05       		.uleb128 0x5
ARM GAS  /tmp/cchcyYhd.s 			page 17


 901 014e 27       		.uleb128 0x27
 902 014f 19       		.uleb128 0x19
 903 0150 3C       		.uleb128 0x3c
 904 0151 19       		.uleb128 0x19
 905 0152 00       		.byte	0
 906 0153 00       		.byte	0
 907 0154 00       		.byte	0
 908              		.section	.debug_loc,"",%progbits
 909              	.Ldebug_loc0:
 910              	.LLST0:
 911 0000 00000000 		.4byte	.LVL0
 912 0004 0E000000 		.4byte	.LVL1
 913 0008 0100     		.2byte	0x1
 914 000a 50       		.byte	0x50
 915 000b 0E000000 		.4byte	.LVL1
 916 000f 22000000 		.4byte	.LVL3
 917 0013 0100     		.2byte	0x1
 918 0015 54       		.byte	0x54
 919 0016 22000000 		.4byte	.LVL3
 920 001a 28000000 		.4byte	.LFE118
 921 001e 0400     		.2byte	0x4
 922 0020 F3       		.byte	0xf3
 923 0021 01       		.uleb128 0x1
 924 0022 50       		.byte	0x50
 925 0023 9F       		.byte	0x9f
 926 0024 00000000 		.4byte	0
 927 0028 00000000 		.4byte	0
 928              	.LLST1:
 929 002c 00000000 		.4byte	.LVL4
 930 0030 10000000 		.4byte	.LVL5
 931 0034 0100     		.2byte	0x1
 932 0036 50       		.byte	0x50
 933 0037 10000000 		.4byte	.LVL5
 934 003b 22000000 		.4byte	.LVL7
 935 003f 0100     		.2byte	0x1
 936 0041 54       		.byte	0x54
 937 0042 22000000 		.4byte	.LVL7
 938 0046 38000000 		.4byte	.LFE119
 939 004a 0400     		.2byte	0x4
 940 004c F3       		.byte	0xf3
 941 004d 01       		.uleb128 0x1
 942 004e 50       		.byte	0x50
 943 004f 9F       		.byte	0x9f
 944 0050 00000000 		.4byte	0
 945 0054 00000000 		.4byte	0
 946              	.LLST2:
 947 0058 00000000 		.4byte	.LVL4
 948 005c 13000000 		.4byte	.LVL6-1
 949 0060 0100     		.2byte	0x1
 950 0062 51       		.byte	0x51
 951 0063 13000000 		.4byte	.LVL6-1
 952 0067 24000000 		.4byte	.LVL8
 953 006b 0100     		.2byte	0x1
 954 006d 55       		.byte	0x55
 955 006e 24000000 		.4byte	.LVL8
 956 0072 38000000 		.4byte	.LFE119
 957 0076 0400     		.2byte	0x4
ARM GAS  /tmp/cchcyYhd.s 			page 18


 958 0078 F3       		.byte	0xf3
 959 0079 01       		.uleb128 0x1
 960 007a 51       		.byte	0x51
 961 007b 9F       		.byte	0x9f
 962 007c 00000000 		.4byte	0
 963 0080 00000000 		.4byte	0
 964              	.LLST3:
 965 0084 00000000 		.4byte	.LVL9
 966 0088 10000000 		.4byte	.LVL11
 967 008c 0100     		.2byte	0x1
 968 008e 50       		.byte	0x50
 969 008f 10000000 		.4byte	.LVL11
 970 0093 24000000 		.4byte	.LVL13
 971 0097 0100     		.2byte	0x1
 972 0099 54       		.byte	0x54
 973 009a 24000000 		.4byte	.LVL13
 974 009e 2C000000 		.4byte	.LFE120
 975 00a2 0400     		.2byte	0x4
 976 00a4 F3       		.byte	0xf3
 977 00a5 01       		.uleb128 0x1
 978 00a6 50       		.byte	0x50
 979 00a7 9F       		.byte	0x9f
 980 00a8 00000000 		.4byte	0
 981 00ac 00000000 		.4byte	0
 982              	.LLST4:
 983 00b0 00000000 		.4byte	.LVL9
 984 00b4 0A000000 		.4byte	.LVL10
 985 00b8 0100     		.2byte	0x1
 986 00ba 51       		.byte	0x51
 987 00bb 0A000000 		.4byte	.LVL10
 988 00bf 24000000 		.4byte	.LVL13
 989 00c3 0100     		.2byte	0x1
 990 00c5 56       		.byte	0x56
 991 00c6 24000000 		.4byte	.LVL13
 992 00ca 27000000 		.4byte	.LVL14-1
 993 00ce 0100     		.2byte	0x1
 994 00d0 52       		.byte	0x52
 995 00d1 27000000 		.4byte	.LVL14-1
 996 00d5 2C000000 		.4byte	.LFE120
 997 00d9 0400     		.2byte	0x4
 998 00db F3       		.byte	0xf3
 999 00dc 01       		.uleb128 0x1
 1000 00dd 51       		.byte	0x51
 1001 00de 9F       		.byte	0x9f
 1002 00df 00000000 		.4byte	0
 1003 00e3 00000000 		.4byte	0
 1004              		.section	.debug_aranges,"",%progbits
 1005 0000 2C000000 		.4byte	0x2c
 1006 0004 0200     		.2byte	0x2
 1007 0006 00000000 		.4byte	.Ldebug_info0
 1008 000a 04       		.byte	0x4
 1009 000b 00       		.byte	0
 1010 000c 0000     		.2byte	0
 1011 000e 0000     		.2byte	0
 1012 0010 00000000 		.4byte	.LFB118
 1013 0014 28000000 		.4byte	.LFE118-.LFB118
 1014 0018 00000000 		.4byte	.LFB119
ARM GAS  /tmp/cchcyYhd.s 			page 19


 1015 001c 38000000 		.4byte	.LFE119-.LFB119
 1016 0020 00000000 		.4byte	.LFB120
 1017 0024 2C000000 		.4byte	.LFE120-.LFB120
 1018 0028 00000000 		.4byte	0
 1019 002c 00000000 		.4byte	0
 1020              		.section	.debug_ranges,"",%progbits
 1021              	.Ldebug_ranges0:
 1022 0000 00000000 		.4byte	.LFB118
 1023 0004 28000000 		.4byte	.LFE118
 1024 0008 00000000 		.4byte	.LFB119
 1025 000c 38000000 		.4byte	.LFE119
 1026 0010 00000000 		.4byte	.LFB120
 1027 0014 2C000000 		.4byte	.LFE120
 1028 0018 00000000 		.4byte	0
 1029 001c 00000000 		.4byte	0
 1030              		.section	.debug_line,"",%progbits
 1031              	.Ldebug_line0:
 1032 0000 76010000 		.section	.debug_str,"MS",%progbits,1
 1032      02001001 
 1032      00000201 
 1032      FB0E0D00 
 1032      01010101 
 1033              	.LASF38:
 1034 0000 2E2E2F2E 		.ascii	"../../../os/hal/src/pal.c\000"
 1034      2E2F2E2E 
 1034      2F6F732F 
 1034      68616C2F 
 1034      7372632F 
 1035              	.LASF22:
 1036 001a 4C434B52 		.ascii	"LCKR\000"
 1036      00
 1037              	.LASF16:
 1038 001f 636C6561 		.ascii	"clear\000"
 1038      7200
 1039              	.LASF17:
 1040 0025 4D4F4445 		.ascii	"MODER\000"
 1040      5200
 1041              	.LASF40:
 1042 002b 70616C52 		.ascii	"palReadBus\000"
 1042      65616442 
 1042      757300
 1043              	.LASF12:
 1044 0036 75696E74 		.ascii	"uint_fast8_t\000"
 1044      5F666173 
 1044      74385F74 
 1044      00
 1045              	.LASF21:
 1046 0043 42535252 		.ascii	"BSRR\000"
 1046      00
 1047              	.LASF34:
 1048 0048 70616C57 		.ascii	"palWriteBus\000"
 1048      72697465 
 1048      42757300 
 1049              	.LASF35:
 1050 0054 70616C53 		.ascii	"palSetBusMode\000"
 1050      65744275 
 1050      734D6F64 
ARM GAS  /tmp/cchcyYhd.s 			page 20


 1050      6500
 1051              	.LASF29:
 1052 0062 706F7274 		.ascii	"portid\000"
 1052      696400
 1053              	.LASF37:
 1054 0069 474E5520 		.ascii	"GNU C 4.8.3 20131129 (release) [ARM/embedded-4_8-br"
 1054      4320342E 
 1054      382E3320 
 1054      32303133 
 1054      31313239 
 1055 009c 616E6368 		.ascii	"anch revision 205641] -mcpu=cortex-m4 -mno-thumb-in"
 1055      20726576 
 1055      6973696F 
 1055      6E203230 
 1055      35363431 
 1056 00cf 74657277 		.ascii	"terwork -mthumb -ggdb -O2 -fomit-frame-pointer -fal"
 1056      6F726B20 
 1056      2D6D7468 
 1056      756D6220 
 1056      2D676764 
 1057 0102 69676E2D 		.ascii	"ign-functions=16 -ffunction-sections -fdata-section"
 1057      66756E63 
 1057      74696F6E 
 1057      733D3136 
 1057      202D6666 
 1058 0135 73202D66 		.ascii	"s -fno-common\000"
 1058      6E6F2D63 
 1058      6F6D6D6F 
 1058      6E00
 1059              	.LASF18:
 1060 0143 4F545950 		.ascii	"OTYPER\000"
 1060      455200
 1061              	.LASF27:
 1062 014a 696F6D6F 		.ascii	"iomode_t\000"
 1062      64655F74 
 1062      00
 1063              	.LASF2:
 1064 0153 756E7369 		.ascii	"unsigned char\000"
 1064      676E6564 
 1064      20636861 
 1064      7200
 1065              	.LASF24:
 1066 0161 41465248 		.ascii	"AFRH\000"
 1066      00
 1067              	.LASF9:
 1068 0166 6C6F6E67 		.ascii	"long unsigned int\000"
 1068      20756E73 
 1068      69676E65 
 1068      6420696E 
 1068      7400
 1069              	.LASF4:
 1070 0178 73686F72 		.ascii	"short unsigned int\000"
 1070      7420756E 
 1070      7369676E 
 1070      65642069 
 1070      6E7400
 1071              	.LASF23:
ARM GAS  /tmp/cchcyYhd.s 			page 21


 1072 018b 4146524C 		.ascii	"AFRL\000"
 1072      00
 1073              	.LASF41:
 1074 0190 49544D5F 		.ascii	"ITM_RxBuffer\000"
 1074      52784275 
 1074      66666572 
 1074      00
 1075              	.LASF39:
 1076 019d 2F686F6D 		.ascii	"/home/john/git/ChibiOS-RT/testhal/STM32F30x/ADC\000"
 1076      652F6A6F 
 1076      686E2F67 
 1076      69742F43 
 1076      68696269 
 1077              	.LASF3:
 1078 01cd 73686F72 		.ascii	"short int\000"
 1078      7420696E 
 1078      7400
 1079              	.LASF19:
 1080 01d7 4F535045 		.ascii	"OSPEEDR\000"
 1080      45445200 
 1081              	.LASF43:
 1082 01df 5F70616C 		.ascii	"_pal_lld_setgroupmode\000"
 1082      5F6C6C64 
 1082      5F736574 
 1082      67726F75 
 1082      706D6F64 
 1083              	.LASF0:
 1084 01f5 756E7369 		.ascii	"unsigned int\000"
 1084      676E6564 
 1084      20696E74 
 1084      00
 1085              	.LASF25:
 1086 0202 4750494F 		.ascii	"GPIO_TypeDef\000"
 1086      5F547970 
 1086      65446566 
 1086      00
 1087              	.LASF15:
 1088 020f 63686172 		.ascii	"char\000"
 1088      00
 1089              	.LASF36:
 1090 0214 6D6F6465 		.ascii	"mode\000"
 1090      00
 1091              	.LASF6:
 1092 0219 696E7433 		.ascii	"int32_t\000"
 1092      325F7400 
 1093              	.LASF14:
 1094 0221 73697A65 		.ascii	"sizetype\000"
 1094      74797065 
 1094      00
 1095              	.LASF20:
 1096 022a 50555044 		.ascii	"PUPDR\000"
 1096      5200
 1097              	.LASF10:
 1098 0230 6C6F6E67 		.ascii	"long long int\000"
 1098      206C6F6E 
 1098      6720696E 
 1098      7400
ARM GAS  /tmp/cchcyYhd.s 			page 22


 1099              	.LASF30:
 1100 023e 6D61736B 		.ascii	"mask\000"
 1100      00
 1101              	.LASF42:
 1102 0243 63684462 		.ascii	"chDbgPanic\000"
 1102      6750616E 
 1102      696300
 1103              	.LASF31:
 1104 024e 6F666673 		.ascii	"offset\000"
 1104      657400
 1105              	.LASF26:
 1106 0255 696F706F 		.ascii	"ioportmask_t\000"
 1106      72746D61 
 1106      736B5F74 
 1106      00
 1107              	.LASF28:
 1108 0262 696F706F 		.ascii	"ioportid_t\000"
 1108      72746964 
 1108      5F7400
 1109              	.LASF5:
 1110 026d 75696E74 		.ascii	"uint16_t\000"
 1110      31365F74 
 1110      00
 1111              	.LASF8:
 1112 0276 75696E74 		.ascii	"uint32_t\000"
 1112      33325F74 
 1112      00
 1113              	.LASF7:
 1114 027f 6C6F6E67 		.ascii	"long int\000"
 1114      20696E74 
 1114      00
 1115              	.LASF33:
 1116 0288 62697473 		.ascii	"bits\000"
 1116      00
 1117              	.LASF1:
 1118 028d 7369676E 		.ascii	"signed char\000"
 1118      65642063 
 1118      68617200 
 1119              	.LASF13:
 1120 0299 5F426F6F 		.ascii	"_Bool\000"
 1120      6C00
 1121              	.LASF11:
 1122 029f 6C6F6E67 		.ascii	"long long unsigned int\000"
 1122      206C6F6E 
 1122      6720756E 
 1122      7369676E 
 1122      65642069 
 1123              	.LASF32:
 1124 02b6 494F4275 		.ascii	"IOBus\000"
 1124      7300
 1125              		.ident	"GCC: (GNU Tools for ARM Embedded Processors) 4.8.3 20131129 (release) [ARM/embedded-4_8-br
ARM GAS  /tmp/cchcyYhd.s 			page 23


DEFINED SYMBOLS
                            *ABS*:0000000000000000 pal.c
     /tmp/cchcyYhd.s:19     .text.palReadBus:0000000000000000 $t
     /tmp/cchcyYhd.s:25     .text.palReadBus:0000000000000000 palReadBus
     /tmp/cchcyYhd.s:64     .text.palReadBus:0000000000000024 $d
     /tmp/cchcyYhd.s:69     .text.palWriteBus:0000000000000000 $t
     /tmp/cchcyYhd.s:75     .text.palWriteBus:0000000000000000 palWriteBus
     /tmp/cchcyYhd.s:121    .text.palWriteBus:0000000000000034 $d
     /tmp/cchcyYhd.s:126    .text.palSetBusMode:0000000000000000 $t
     /tmp/cchcyYhd.s:132    .text.palSetBusMode:0000000000000000 palSetBusMode
     /tmp/cchcyYhd.s:177    .text.palSetBusMode:0000000000000028 $d
     /tmp/cchcyYhd.s:182    .rodata.str1.4:0000000000000000 $d
                     .debug_frame:0000000000000010 $d
     /tmp/cchcyYhd.s:68     .text.palReadBus:0000000000000028 $t
     /tmp/cchcyYhd.s:125    .text.palWriteBus:0000000000000038 $t
     /tmp/cchcyYhd.s:181    .text.palSetBusMode:000000000000002c $t

UNDEFINED SYMBOLS
chDbgPanic
_pal_lld_setgroupmode
