ARM GAS  /tmp/ccRTw1jZ.s 			page 1


   1              		.syntax unified
   2              		.cpu cortex-m4
   3              		.fpu softvfp
   4              		.eabi_attribute 20, 1
   5              		.eabi_attribute 21, 1
   6              		.eabi_attribute 23, 3
   7              		.eabi_attribute 24, 1
   8              		.eabi_attribute 25, 1
   9              		.eabi_attribute 26, 1
  10              		.eabi_attribute 30, 2
  11              		.eabi_attribute 34, 1
  12              		.eabi_attribute 18, 4
  13              		.thumb
  14              		.file	"testqueues.c"
  15              		.text
  16              	.Ltext0:
  17              		.cfi_sections	.debug_frame
  18              		.section	.text.notify,"ax",%progbits
  19              		.align	2
  20              		.p2align 4,,15
  21              		.thumb
  22              		.thumb_func
  23              		.type	notify, %function
  24              	notify:
  25              	.LFB7:
  26              		.file 1 "../../../test/testqueues.c"
  27              		.loc 1 57 0
  28              		.cfi_startproc
  29              		@ args = 0, pretend = 0, frame = 0
  30              		@ frame_needed = 0, uses_anonymous_args = 0
  31              		@ link register save eliminated.
  32              	.LVL0:
  33 0000 7047     		bx	lr
  34              		.cfi_endproc
  35              	.LFE7:
  36              		.size	notify, .-notify
  37 0002 00BFAFF3 		.section	.text.thread1,"ax",%progbits
  37      0080AFF3 
  37      0080AFF3 
  37      0080
  38              		.align	2
  39              		.p2align 4,,15
  40              		.thumb
  41              		.thumb_func
  42              		.type	thread1, %function
  43              	thread1:
  44              	.LFB9:
  45              		.loc 1 83 0
  46              		.cfi_startproc
  47              		@ args = 0, pretend = 0, frame = 0
  48              		@ frame_needed = 0, uses_anonymous_args = 0
  49              	.LVL1:
  50              		.loc 1 83 0
  51 0000 08B5     		push	{r3, lr}
  52              		.cfi_def_cfa_offset 8
  53              		.cfi_offset 3, -8
  54              		.cfi_offset 14, -4
ARM GAS  /tmp/ccRTw1jZ.s 			page 2


  55              		.loc 1 86 0
  56 0002 C821     		movs	r1, #200
  57 0004 0248     		ldr	r0, .L3
  58              	.LVL2:
  59 0006 FFF7FEFF 		bl	chIQGetTimeout
  60              	.LVL3:
  61              		.loc 1 88 0
  62 000a 0020     		movs	r0, #0
  63 000c 08BD     		pop	{r3, pc}
  64              	.L4:
  65 000e 00BF     		.align	2
  66              	.L3:
  67 0010 00000000 		.word	.LANCHOR0
  68              		.cfi_endproc
  69              	.LFE9:
  70              		.size	thread1, .-thread1
  71 0014 AFF30080 		.section	.text.queues1_setup,"ax",%progbits
  71      AFF30080 
  71      AFF30080 
  72              		.align	2
  73              		.p2align 4,,15
  74              		.thumb
  75              		.thumb_func
  76              		.type	queues1_setup, %function
  77              	queues1_setup:
  78              	.LFB8:
  79              		.loc 1 78 0
  80              		.cfi_startproc
  81              		@ args = 0, pretend = 0, frame = 0
  82              		@ frame_needed = 0, uses_anonymous_args = 0
  83 0000 00B5     		push	{lr}
  84              		.cfi_def_cfa_offset 4
  85              		.cfi_offset 14, -4
  86              		.loc 1 80 0
  87 0002 064B     		ldr	r3, .L6
  88 0004 0648     		ldr	r0, .L6+4
  89 0006 1968     		ldr	r1, [r3]
  90 0008 064B     		ldr	r3, .L6+8
  91              		.loc 1 78 0
  92 000a 83B0     		sub	sp, sp, #12
  93              		.cfi_def_cfa_offset 16
  94              		.loc 1 80 0
  95 000c 0022     		movs	r2, #0
  96 000e 0092     		str	r2, [sp]
  97 0010 0422     		movs	r2, #4
  98 0012 FFF7FEFF 		bl	chIQInit
  99              	.LVL4:
 100              		.loc 1 81 0
 101 0016 03B0     		add	sp, sp, #12
 102              		@ sp needed
 103 0018 5DF804FB 		ldr	pc, [sp], #4
 104              	.L7:
 105              		.align	2
 106              	.L6:
 107 001c 00000000 		.word	wa
 108 0020 00000000 		.word	.LANCHOR0
 109 0024 00000000 		.word	notify
ARM GAS  /tmp/ccRTw1jZ.s 			page 3


 110              		.cfi_endproc
 111              	.LFE8:
 112              		.size	queues1_setup, .-queues1_setup
 113 0028 AFF30080 		.section	.text.thread2,"ax",%progbits
 113      AFF30080 
 114              		.align	2
 115              		.p2align 4,,15
 116              		.thumb
 117              		.thumb_func
 118              		.type	thread2, %function
 119              	thread2:
 120              	.LFB12:
 121              		.loc 1 170 0
 122              		.cfi_startproc
 123              		@ args = 0, pretend = 0, frame = 0
 124              		@ frame_needed = 0, uses_anonymous_args = 0
 125              	.LVL5:
 126 0000 08B5     		push	{r3, lr}
 127              		.cfi_def_cfa_offset 8
 128              		.cfi_offset 3, -8
 129              		.cfi_offset 14, -4
 130              		.loc 1 173 0
 131 0002 0021     		movs	r1, #0
 132 0004 C822     		movs	r2, #200
 133 0006 0248     		ldr	r0, .L9
 134              	.LVL6:
 135 0008 FFF7FEFF 		bl	chOQPutTimeout
 136              	.LVL7:
 137              		.loc 1 175 0
 138 000c 0020     		movs	r0, #0
 139 000e 08BD     		pop	{r3, pc}
 140              	.L10:
 141              		.align	2
 142              	.L9:
 143 0010 00000000 		.word	.LANCHOR1
 144              		.cfi_endproc
 145              	.LFE12:
 146              		.size	thread2, .-thread2
 147 0014 AFF30080 		.section	.text.queues2_setup,"ax",%progbits
 147      AFF30080 
 147      AFF30080 
 148              		.align	2
 149              		.p2align 4,,15
 150              		.thumb
 151              		.thumb_func
 152              		.type	queues2_setup, %function
 153              	queues2_setup:
 154              	.LFB11:
 155              		.loc 1 165 0
 156              		.cfi_startproc
 157              		@ args = 0, pretend = 0, frame = 0
 158              		@ frame_needed = 0, uses_anonymous_args = 0
 159 0000 00B5     		push	{lr}
 160              		.cfi_def_cfa_offset 4
 161              		.cfi_offset 14, -4
 162              		.loc 1 167 0
 163 0002 064B     		ldr	r3, .L12
ARM GAS  /tmp/ccRTw1jZ.s 			page 4


 164 0004 0648     		ldr	r0, .L12+4
 165 0006 1968     		ldr	r1, [r3]
 166 0008 064B     		ldr	r3, .L12+8
 167              		.loc 1 165 0
 168 000a 83B0     		sub	sp, sp, #12
 169              		.cfi_def_cfa_offset 16
 170              		.loc 1 167 0
 171 000c 0022     		movs	r2, #0
 172 000e 0092     		str	r2, [sp]
 173 0010 0422     		movs	r2, #4
 174 0012 FFF7FEFF 		bl	chOQInit
 175              	.LVL8:
 176              		.loc 1 168 0
 177 0016 03B0     		add	sp, sp, #12
 178              		@ sp needed
 179 0018 5DF804FB 		ldr	pc, [sp], #4
 180              	.L13:
 181              		.align	2
 182              	.L12:
 183 001c 00000000 		.word	wa
 184 0020 00000000 		.word	.LANCHOR1
 185 0024 00000000 		.word	notify
 186              		.cfi_endproc
 187              	.LFE11:
 188              		.size	queues2_setup, .-queues2_setup
 189 0028 AFF30080 		.section	.text.queues1_execute,"ax",%progbits
 189      AFF30080 
 190              		.align	2
 191              		.p2align 4,,15
 192              		.thumb
 193              		.thumb_func
 194              		.type	queues1_execute, %function
 195              	queues1_execute:
 196              	.LFB10:
 197              		.loc 1 90 0
 198              		.cfi_startproc
 199              		@ args = 0, pretend = 0, frame = 0
 200              		@ frame_needed = 0, uses_anonymous_args = 0
 201 0000 70B5     		push	{r4, r5, r6, lr}
 202              		.cfi_def_cfa_offset 16
 203              		.cfi_offset 4, -16
 204              		.cfi_offset 5, -12
 205              		.cfi_offset 6, -8
 206              		.cfi_offset 14, -4
 207              	.LBB99:
 208              		.loc 1 95 0
 209 0002 2023     		movs	r3, #32
 210              	.LBE99:
 211              		.loc 1 90 0
 212 0004 82B0     		sub	sp, sp, #8
 213              		.cfi_def_cfa_offset 24
 214              	.LBB100:
 215              		.loc 1 95 0
 216              	@ 95 "../../../test/testqueues.c" 1
 217 0006 83F31188 		msr     BASEPRI, r3
 218              	@ 0 "" 2
 219              		.thumb
ARM GAS  /tmp/ccRTw1jZ.s 			page 5


 220              	.LBE100:
 221 000a B34D     		ldr	r5, .L38
 222 000c FFF7FEFF 		bl	dbg_check_lock
 223              	.LVL9:
 224 0010 A968     		ldr	r1, [r5, #8]
 225 0012 D1F10101 		rsbs	r1, r1, #1
 226 0016 4FF00100 		mov	r0, #1
 227 001a 38BF     		it	cc
 228 001c 0021     		movcc	r1, #0
 229 001e FFF7FEFF 		bl	_test_assert
 230              	.LVL10:
 231 0022 0646     		mov	r6, r0
 232 0024 0028     		cmp	r0, #0
 233 0026 40F04B81 		bne	.L35
 234              	.LBB101:
 235              	.LBB102:
 236 002a FFF7FEFF 		bl	dbg_check_unlock
 237              	.LVL11:
 238              	.LBB103:
 239 002e 3346     		mov	r3, r6
 240              	@ 95 "../../../test/testqueues.c" 1
 241 0030 83F31188 		msr     BASEPRI, r3
 242              	@ 0 "" 2
 243              		.thumb
 244              	.LBE103:
 245              	.LBB104:
 246              		.loc 1 98 0
 247 0034 2023     		movs	r3, #32
 248              	@ 98 "../../../test/testqueues.c" 1
 249 0036 83F31188 		msr     BASEPRI, r3
 250              	@ 0 "" 2
 251              		.thumb
 252              	.LBE104:
 253 003a FFF7FEFF 		bl	dbg_check_lock
 254              	.LVL12:
 255 003e 4124     		movs	r4, #65
 256              	.LVL13:
 257              	.L18:
 258              		.loc 1 100 0
 259 0040 2146     		mov	r1, r4
 260 0042 0134     		adds	r4, r4, #1
 261 0044 A448     		ldr	r0, .L38
 262 0046 E4B2     		uxtb	r4, r4
 263 0048 FFF7FEFF 		bl	chIQPutI
 264              	.LVL14:
 265              		.loc 1 99 0
 266 004c 452C     		cmp	r4, #69
 267 004e F7D1     		bne	.L18
 268              		.loc 1 101 0
 269 0050 FFF7FEFF 		bl	dbg_check_unlock
 270              	.LVL15:
 271              	.LBB105:
 272 0054 0023     		movs	r3, #0
 273              	@ 101 "../../../test/testqueues.c" 1
 274 0056 83F31188 		msr     BASEPRI, r3
 275              	@ 0 "" 2
 276              		.thumb
ARM GAS  /tmp/ccRTw1jZ.s 			page 6


 277              	.LBE105:
 278              	.LBB106:
 279              		.loc 1 102 0
 280 005a 2023     		movs	r3, #32
 281              	@ 102 "../../../test/testqueues.c" 1
 282 005c 83F31188 		msr     BASEPRI, r3
 283              	@ 0 "" 2
 284              		.thumb
 285              	.LBE106:
 286 0060 FFF7FEFF 		bl	dbg_check_lock
 287              	.LVL16:
 288 0064 6A69     		ldr	r2, [r5, #20]
 289 0066 AB69     		ldr	r3, [r5, #24]
 290 0068 9B49     		ldr	r1, .L38
 291 006a 9A42     		cmp	r2, r3
 292 006c 00F02F81 		beq	.L37
 293              	.L19:
 294 0070 3146     		mov	r1, r6
 295 0072 0220     		movs	r0, #2
 296 0074 FFF7FEFF 		bl	_test_assert
 297              	.LVL17:
 298 0078 0446     		mov	r4, r0
 299 007a 0028     		cmp	r0, #0
 300 007c 40F02081 		bne	.L35
 301 0080 FFF7FEFF 		bl	dbg_check_unlock
 302              	.LVL18:
 303              	.LBB107:
 304 0084 2346     		mov	r3, r4
 305              	@ 102 "../../../test/testqueues.c" 1
 306 0086 83F31188 		msr     BASEPRI, r3
 307              	@ 0 "" 2
 308              		.thumb
 309              	.LBE107:
 310              	.LBB108:
 311              		.loc 1 103 0
 312 008a 2023     		movs	r3, #32
 313              	@ 103 "../../../test/testqueues.c" 1
 314 008c 83F31188 		msr     BASEPRI, r3
 315              	@ 0 "" 2
 316              		.thumb
 317              	.LBE108:
 318 0090 FFF7FEFF 		bl	dbg_check_lock
 319              	.LVL19:
 320 0094 0021     		movs	r1, #0
 321 0096 9048     		ldr	r0, .L38
 322 0098 FFF7FEFF 		bl	chIQPutI
 323              	.LVL20:
 324 009c 0430     		adds	r0, r0, #4
 325 009e 14BF     		ite	ne
 326 00a0 0021     		movne	r1, #0
 327 00a2 0121     		moveq	r1, #1
 328 00a4 0320     		movs	r0, #3
 329 00a6 FFF7FEFF 		bl	_test_assert
 330              	.LVL21:
 331 00aa 0446     		mov	r4, r0
 332 00ac 0028     		cmp	r0, #0
 333 00ae 40F00781 		bne	.L35
ARM GAS  /tmp/ccRTw1jZ.s 			page 7


 334 00b2 FFF7FEFF 		bl	dbg_check_unlock
 335              	.LVL22:
 336              	.LBB109:
 337 00b6 2346     		mov	r3, r4
 338              	@ 103 "../../../test/testqueues.c" 1
 339 00b8 83F31188 		msr     BASEPRI, r3
 340              	@ 0 "" 2
 341              	.LVL23:
 342              		.thumb
 343 00bc 0424     		movs	r4, #4
 344              	.LVL24:
 345              	.L23:
 346              	.LBE109:
 347              		.loc 1 107 0
 348 00be 4FF0FF31 		mov	r1, #-1
 349 00c2 8548     		ldr	r0, .L38
 350 00c4 FFF7FEFF 		bl	chIQGetTimeout
 351              	.LVL25:
 352 00c8 C0B2     		uxtb	r0, r0
 353 00ca FFF7FEFF 		bl	test_emit_token
 354              	.LVL26:
 355              		.loc 1 106 0
 356 00ce 013C     		subs	r4, r4, #1
 357              	.LVL27:
 358 00d0 F5D1     		bne	.L23
 359              	.LBB110:
 360              		.loc 1 108 0
 361 00d2 2023     		movs	r3, #32
 362              	@ 108 "../../../test/testqueues.c" 1
 363 00d4 83F31188 		msr     BASEPRI, r3
 364              	@ 0 "" 2
 365              		.thumb
 366              	.LBE110:
 367 00d8 FFF7FEFF 		bl	dbg_check_lock
 368              	.LVL28:
 369 00dc A968     		ldr	r1, [r5, #8]
 370 00de D1F10101 		rsbs	r1, r1, #1
 371 00e2 4FF00400 		mov	r0, #4
 372 00e6 38BF     		it	cc
 373 00e8 0021     		movcc	r1, #0
 374 00ea FFF7FEFF 		bl	_test_assert
 375              	.LVL29:
 376 00ee 0446     		mov	r4, r0
 377              	.LVL30:
 378 00f0 0028     		cmp	r0, #0
 379 00f2 40F0E580 		bne	.L35
 380 00f6 FFF7FEFF 		bl	dbg_check_unlock
 381              	.LVL31:
 382              	.LBB111:
 383 00fa 2346     		mov	r3, r4
 384              	@ 108 "../../../test/testqueues.c" 1
 385 00fc 83F31188 		msr     BASEPRI, r3
 386              	@ 0 "" 2
 387              		.thumb
 388              	.LBE111:
 389              		.loc 1 109 0
 390 0100 0520     		movs	r0, #5
ARM GAS  /tmp/ccRTw1jZ.s 			page 8


 391 0102 7649     		ldr	r1, .L38+4
 392 0104 FFF7FEFF 		bl	_test_assert_sequence
 393              	.LVL32:
 394 0108 0028     		cmp	r0, #0
 395 010a 40F0DE80 		bne	.L14
 396              	.LBB112:
 397              		.loc 1 112 0
 398 010e 2023     		movs	r3, #32
 399              	@ 112 "../../../test/testqueues.c" 1
 400 0110 83F31188 		msr     BASEPRI, r3
 401              	@ 0 "" 2
 402              		.thumb
 403              	.LBE112:
 404 0114 FFF7FEFF 		bl	dbg_check_lock
 405              	.LVL33:
 406 0118 4124     		movs	r4, #65
 407              	.LVL34:
 408              	.L27:
 409              		.loc 1 114 0
 410 011a 2146     		mov	r1, r4
 411 011c 0134     		adds	r4, r4, #1
 412 011e 6E48     		ldr	r0, .L38
 413 0120 E4B2     		uxtb	r4, r4
 414 0122 FFF7FEFF 		bl	chIQPutI
 415              	.LVL35:
 416              		.loc 1 113 0
 417 0126 452C     		cmp	r4, #69
 418 0128 F7D1     		bne	.L27
 419              		.loc 1 115 0
 420 012a FFF7FEFF 		bl	dbg_check_unlock
 421              	.LVL36:
 422              	.LBB113:
 423 012e 0023     		movs	r3, #0
 424              	@ 115 "../../../test/testqueues.c" 1
 425 0130 83F31188 		msr     BASEPRI, r3
 426              	@ 0 "" 2
 427              		.thumb
 428              	.LBE113:
 429              		.loc 1 118 0
 430 0134 6A4E     		ldr	r6, .L38+8
 431 0136 6848     		ldr	r0, .L38
 432 0138 7168     		ldr	r1, [r6, #4]
 433 013a 0822     		movs	r2, #8
 434 013c FFF7FEFF 		bl	chIQReadTimeout
 435              	.LVL37:
 436              		.loc 1 119 0
 437 0140 041F     		subs	r4, r0, #4
 438 0142 6142     		rsbs	r1, r4, #0
 439 0144 6141     		adcs	r1, r1, r4
 440 0146 0620     		movs	r0, #6
 441              	.LVL38:
 442 0148 FFF7FEFF 		bl	_test_assert
 443              	.LVL39:
 444 014c 0028     		cmp	r0, #0
 445 014e 40F0BC80 		bne	.L14
 446              	.LBB114:
 447              		.loc 1 120 0
ARM GAS  /tmp/ccRTw1jZ.s 			page 9


 448 0152 2023     		movs	r3, #32
 449              	@ 120 "../../../test/testqueues.c" 1
 450 0154 83F31188 		msr     BASEPRI, r3
 451              	@ 0 "" 2
 452              		.thumb
 453              	.LBE114:
 454 0158 FFF7FEFF 		bl	dbg_check_lock
 455              	.LVL40:
 456 015c A968     		ldr	r1, [r5, #8]
 457 015e D1F10101 		rsbs	r1, r1, #1
 458 0162 4FF00700 		mov	r0, #7
 459 0166 38BF     		it	cc
 460 0168 0021     		movcc	r1, #0
 461 016a FFF7FEFF 		bl	_test_assert
 462              	.LVL41:
 463 016e 0446     		mov	r4, r0
 464              	.LVL42:
 465 0170 0028     		cmp	r0, #0
 466 0172 40F0A580 		bne	.L35
 467 0176 FFF7FEFF 		bl	dbg_check_unlock
 468              	.LVL43:
 469              	.LBB115:
 470 017a 2346     		mov	r3, r4
 471              	@ 120 "../../../test/testqueues.c" 1
 472 017c 83F31188 		msr     BASEPRI, r3
 473              	@ 0 "" 2
 474              		.thumb
 475              	.LBE115:
 476              	.LBB116:
 477              		.loc 1 123 0
 478 0180 2023     		movs	r3, #32
 479              	@ 123 "../../../test/testqueues.c" 1
 480 0182 83F31188 		msr     BASEPRI, r3
 481              	@ 0 "" 2
 482              		.thumb
 483              	.LBE116:
 484 0186 FFF7FEFF 		bl	dbg_check_lock
 485              	.LVL44:
 486 018a 4124     		movs	r4, #65
 487              	.LVL45:
 488              	.L31:
 489              		.loc 1 125 0
 490 018c 2146     		mov	r1, r4
 491 018e 0134     		adds	r4, r4, #1
 492 0190 5148     		ldr	r0, .L38
 493 0192 E4B2     		uxtb	r4, r4
 494 0194 FFF7FEFF 		bl	chIQPutI
 495              	.LVL46:
 496              		.loc 1 124 0
 497 0198 452C     		cmp	r4, #69
 498 019a F7D1     		bne	.L31
 499              		.loc 1 126 0
 500 019c FFF7FEFF 		bl	dbg_check_unlock
 501              	.LVL47:
 502              	.LBB117:
 503 01a0 0023     		movs	r3, #0
 504              	@ 126 "../../../test/testqueues.c" 1
ARM GAS  /tmp/ccRTw1jZ.s 			page 10


 505 01a2 83F31188 		msr     BASEPRI, r3
 506              	@ 0 "" 2
 507              		.thumb
 508              	.LBE117:
 509              		.loc 1 129 0
 510 01a6 7468     		ldr	r4, [r6, #4]
 511 01a8 4B48     		ldr	r0, .L38
 512 01aa 2146     		mov	r1, r4
 513 01ac 0222     		movs	r2, #2
 514 01ae FFF7FEFF 		bl	chIQReadTimeout
 515              	.LVL48:
 516              		.loc 1 130 0
 517 01b2 0238     		subs	r0, r0, #2
 518              	.LVL49:
 519 01b4 4142     		rsbs	r1, r0, #0
 520 01b6 4141     		adcs	r1, r1, r0
 521 01b8 0820     		movs	r0, #8
 522              	.LVL50:
 523 01ba FFF7FEFF 		bl	_test_assert
 524              	.LVL51:
 525 01be 0028     		cmp	r0, #0
 526 01c0 40F08380 		bne	.L14
 527              		.loc 1 131 0
 528 01c4 2146     		mov	r1, r4
 529 01c6 0346     		mov	r3, r0
 530 01c8 0222     		movs	r2, #2
 531 01ca 4348     		ldr	r0, .L38
 532 01cc FFF7FEFF 		bl	chIQReadTimeout
 533              	.LVL52:
 534              		.loc 1 132 0
 535 01d0 821E     		subs	r2, r0, #2
 536 01d2 5142     		rsbs	r1, r2, #0
 537 01d4 5141     		adcs	r1, r1, r2
 538 01d6 0920     		movs	r0, #9
 539              	.LVL53:
 540 01d8 FFF7FEFF 		bl	_test_assert
 541              	.LVL54:
 542 01dc 0028     		cmp	r0, #0
 543 01de 74D1     		bne	.L14
 544              	.LBB118:
 545              		.loc 1 133 0
 546 01e0 2023     		movs	r3, #32
 547              	@ 133 "../../../test/testqueues.c" 1
 548 01e2 83F31188 		msr     BASEPRI, r3
 549              	@ 0 "" 2
 550              		.thumb
 551              	.LBE118:
 552 01e6 FFF7FEFF 		bl	dbg_check_lock
 553              	.LVL55:
 554 01ea A968     		ldr	r1, [r5, #8]
 555 01ec D1F10101 		rsbs	r1, r1, #1
 556 01f0 4FF00A00 		mov	r0, #10
 557 01f4 38BF     		it	cc
 558 01f6 0021     		movcc	r1, #0
 559 01f8 FFF7FEFF 		bl	_test_assert
 560              	.LVL56:
 561 01fc 0446     		mov	r4, r0
ARM GAS  /tmp/ccRTw1jZ.s 			page 11


 562 01fe 0028     		cmp	r0, #0
 563 0200 5ED1     		bne	.L35
 564 0202 FFF7FEFF 		bl	dbg_check_unlock
 565              	.LVL57:
 566              	.LBB119:
 567 0206 2346     		mov	r3, r4
 568              	@ 133 "../../../test/testqueues.c" 1
 569 0208 83F31188 		msr     BASEPRI, r3
 570              	@ 0 "" 2
 571              		.thumb
 572              	.LBE119:
 573              	.LBB120:
 574              		.loc 1 136 0
 575 020c 2023     		movs	r3, #32
 576              	@ 136 "../../../test/testqueues.c" 1
 577 020e 83F31188 		msr     BASEPRI, r3
 578              	@ 0 "" 2
 579              		.thumb
 580              	.LBE120:
 581 0212 FFF7FEFF 		bl	dbg_check_lock
 582              	.LVL58:
 583              		.loc 1 137 0
 584 0216 0021     		movs	r1, #0
 585 0218 2F48     		ldr	r0, .L38
 586 021a FFF7FEFF 		bl	chIQPutI
 587              	.LVL59:
 588              		.loc 1 138 0
 589 021e 2E48     		ldr	r0, .L38
 590 0220 FFF7FEFF 		bl	chIQResetI
 591              	.LVL60:
 592              		.loc 1 139 0
 593 0224 FFF7FEFF 		bl	dbg_check_unlock
 594              	.LVL61:
 595              	.LBB121:
 596 0228 0023     		movs	r3, #0
 597              	@ 139 "../../../test/testqueues.c" 1
 598 022a 83F31188 		msr     BASEPRI, r3
 599              	@ 0 "" 2
 600              		.thumb
 601              	.LBE121:
 602              	.LBB122:
 603              		.loc 1 140 0
 604 022e 2023     		movs	r3, #32
 605              	@ 140 "../../../test/testqueues.c" 1
 606 0230 83F31188 		msr     BASEPRI, r3
 607              	@ 0 "" 2
 608              		.thumb
 609              	.LBE122:
 610 0234 FFF7FEFF 		bl	dbg_check_lock
 611              	.LVL62:
 612 0238 A968     		ldr	r1, [r5, #8]
 613 023a D1F10101 		rsbs	r1, r1, #1
 614 023e 4FF00B00 		mov	r0, #11
 615 0242 38BF     		it	cc
 616 0244 0021     		movcc	r1, #0
 617 0246 FFF7FEFF 		bl	_test_assert
 618              	.LVL63:
ARM GAS  /tmp/ccRTw1jZ.s 			page 12


 619 024a 0446     		mov	r4, r0
 620 024c 0028     		cmp	r0, #0
 621 024e 37D1     		bne	.L35
 622 0250 FFF7FEFF 		bl	dbg_check_unlock
 623              	.LVL64:
 624              	.LBB123:
 625 0254 2346     		mov	r3, r4
 626              	@ 140 "../../../test/testqueues.c" 1
 627 0256 83F31188 		msr     BASEPRI, r3
 628              	@ 0 "" 2
 629              		.thumb
 630              	.LBE123:
 631              		.loc 1 141 0
 632 025a 224B     		ldr	r3, .L38+12
 633 025c 3068     		ldr	r0, [r6]
 634 025e 9A69     		ldr	r2, [r3, #24]
 635 0260 214B     		ldr	r3, .L38+16
 636 0262 9268     		ldr	r2, [r2, #8]
 637 0264 0021     		movs	r1, #0
 638 0266 0091     		str	r1, [sp]
 639 0268 0132     		adds	r2, r2, #1
 640 026a 4FF49871 		mov	r1, #304
 641 026e FFF7FEFF 		bl	chThdCreateStatic
 642              	.LVL65:
 643 0272 1E4A     		ldr	r2, .L38+20
 644              	.LBB124:
 645              		.loc 1 142 0
 646 0274 2023     		movs	r3, #32
 647              	.LBE124:
 648              		.loc 1 141 0
 649 0276 1060     		str	r0, [r2]
 650              	.LBB125:
 651              		.loc 1 142 0
 652              	@ 142 "../../../test/testqueues.c" 1
 653 0278 83F31188 		msr     BASEPRI, r3
 654              	@ 0 "" 2
 655              		.thumb
 656              	.LBE125:
 657 027c FFF7FEFF 		bl	dbg_check_lock
 658              	.LVL66:
 659 0280 A968     		ldr	r1, [r5, #8]
 660 0282 D1F10101 		rsbs	r1, r1, #1
 661 0286 4FF00C00 		mov	r0, #12
 662 028a 38BF     		it	cc
 663 028c 0021     		movcc	r1, #0
 664 028e FFF7FEFF 		bl	_test_assert
 665              	.LVL67:
 666 0292 0446     		mov	r4, r0
 667 0294 A0B9     		cbnz	r0, .L35
 668 0296 FFF7FEFF 		bl	dbg_check_unlock
 669              	.LVL68:
 670              	.LBB126:
 671 029a 2346     		mov	r3, r4
 672              	@ 142 "../../../test/testqueues.c" 1
 673 029c 83F31188 		msr     BASEPRI, r3
 674              	@ 0 "" 2
 675              		.thumb
ARM GAS  /tmp/ccRTw1jZ.s 			page 13


 676              	.LBE126:
 677              		.loc 1 143 0
 678 02a0 FFF7FEFF 		bl	test_wait_threads
 679              	.LVL69:
 680              		.loc 1 146 0
 681 02a4 0A21     		movs	r1, #10
 682 02a6 0C48     		ldr	r0, .L38
 683 02a8 FFF7FEFF 		bl	chIQGetTimeout
 684              	.LVL70:
 685 02ac B0F1FF33 		subs	r3, r0, #-1
 686 02b0 5942     		rsbs	r1, r3, #0
 687 02b2 5941     		adcs	r1, r1, r3
 688 02b4 0D20     		movs	r0, #13
 689              	.LBE102:
 690              	.LBE101:
 691              		.loc 1 147 0
 692 02b6 02B0     		add	sp, sp, #8
 693              		@ sp needed
 694 02b8 BDE87040 		pop	{r4, r5, r6, lr}
 695              	.LBB130:
 696              	.LBB128:
 697              		.loc 1 146 0
 698 02bc FFF7FEBF 		b	_test_assert
 699              	.LVL71:
 700              	.L35:
 701              		.loc 1 142 0
 702 02c0 FFF7FEFF 		bl	dbg_check_unlock
 703              	.LVL72:
 704              	.LBB127:
 705 02c4 0023     		movs	r3, #0
 706              	@ 142 "../../../test/testqueues.c" 1
 707 02c6 83F31188 		msr     BASEPRI, r3
 708              	@ 0 "" 2
 709              		.thumb
 710              	.L14:
 711              	.LBE127:
 712              	.LBE128:
 713              	.LBE130:
 714              		.loc 1 147 0
 715 02ca 02B0     		add	sp, sp, #8
 716              		@ sp needed
 717 02cc 70BD     		pop	{r4, r5, r6, pc}
 718              	.L37:
 719              	.LBB131:
 720              	.LBB129:
 721              		.loc 1 102 0
 722 02ce 8E68     		ldr	r6, [r1, #8]
 723 02d0 0036     		adds	r6, r6, #0
 724 02d2 18BF     		it	ne
 725 02d4 0126     		movne	r6, #1
 726 02d6 CBE6     		b	.L19
 727              	.L39:
 728              		.align	2
 729              	.L38:
 730 02d8 00000000 		.word	.LANCHOR0
 731 02dc 00000000 		.word	.LC0
 732 02e0 00000000 		.word	wa
ARM GAS  /tmp/ccRTw1jZ.s 			page 14


 733 02e4 00000000 		.word	rlist
 734 02e8 00000000 		.word	thread1
 735 02ec 00000000 		.word	threads
 736              	.LBE129:
 737              	.LBE131:
 738              		.cfi_endproc
 739              	.LFE10:
 740              		.size	queues1_execute, .-queues1_execute
 741              		.section	.text.queues2_execute,"ax",%progbits
 742              		.align	2
 743              		.p2align 4,,15
 744              		.thumb
 745              		.thumb_func
 746              		.type	queues2_execute, %function
 747              	queues2_execute:
 748              	.LFB13:
 749              		.loc 1 177 0
 750              		.cfi_startproc
 751              		@ args = 0, pretend = 0, frame = 0
 752              		@ frame_needed = 0, uses_anonymous_args = 0
 753 0000 F0B5     		push	{r4, r5, r6, r7, lr}
 754              		.cfi_def_cfa_offset 20
 755              		.cfi_offset 4, -20
 756              		.cfi_offset 5, -16
 757              		.cfi_offset 6, -12
 758              		.cfi_offset 7, -8
 759              		.cfi_offset 14, -4
 760              	.LBB165:
 761              		.loc 1 182 0
 762 0002 2023     		movs	r3, #32
 763              	.LBE165:
 764              		.loc 1 177 0
 765 0004 83B0     		sub	sp, sp, #12
 766              		.cfi_def_cfa_offset 32
 767              	.LBB166:
 768              		.loc 1 182 0
 769              	@ 182 "../../../test/testqueues.c" 1
 770 0006 83F31188 		msr     BASEPRI, r3
 771              	@ 0 "" 2
 772              		.thumb
 773              	.LBE166:
 774 000a A34D     		ldr	r5, .L62
 775 000c FFF7FEFF 		bl	dbg_check_lock
 776              	.LVL73:
 777 0010 6A69     		ldr	r2, [r5, #20]
 778 0012 AB69     		ldr	r3, [r5, #24]
 779 0014 9A42     		cmp	r2, r3
 780 0016 00F03481 		beq	.L60
 781 001a 0021     		movs	r1, #0
 782              	.L41:
 783              		.loc 1 182 0 is_stmt 0 discriminator 4
 784 001c 0120     		movs	r0, #1
 785 001e FFF7FEFF 		bl	_test_assert
 786              	.LVL74:
 787 0022 0446     		mov	r4, r0
 788 0024 0028     		cmp	r0, #0
 789 0026 40F02581 		bne	.L59
ARM GAS  /tmp/ccRTw1jZ.s 			page 15


 790              	.LBB167:
 791              	.LBB168:
 792              		.loc 1 182 0
 793 002a FFF7FEFF 		bl	dbg_check_unlock
 794              	.LVL75:
 795              	.LBB169:
 796 002e 2346     		mov	r3, r4
 797              	@ 182 "../../../test/testqueues.c" 1
 798 0030 83F31188 		msr     BASEPRI, r3
 799              	@ 0 "" 2
 800              	.LVL76:
 801              		.thumb
 802 0034 4124     		movs	r4, #65
 803              	.LVL77:
 804              	.L45:
 805              	.LBE169:
 806              		.loc 1 186 0 is_stmt 1
 807 0036 2146     		mov	r1, r4
 808 0038 0134     		adds	r4, r4, #1
 809 003a 9748     		ldr	r0, .L62
 810 003c 4FF0FF32 		mov	r2, #-1
 811 0040 E4B2     		uxtb	r4, r4
 812 0042 FFF7FEFF 		bl	chOQPutTimeout
 813              	.LVL78:
 814              		.loc 1 185 0
 815 0046 452C     		cmp	r4, #69
 816 0048 F5D1     		bne	.L45
 817              	.LBB170:
 818              		.loc 1 187 0
 819 004a 2023     		movs	r3, #32
 820              	@ 187 "../../../test/testqueues.c" 1
 821 004c 83F31188 		msr     BASEPRI, r3
 822              	@ 0 "" 2
 823              		.thumb
 824              	.LBE170:
 825 0050 FFF7FEFF 		bl	dbg_check_lock
 826              	.LVL79:
 827 0054 A968     		ldr	r1, [r5, #8]
 828 0056 D1F10101 		rsbs	r1, r1, #1
 829 005a 4FF00200 		mov	r0, #2
 830 005e 38BF     		it	cc
 831 0060 0021     		movcc	r1, #0
 832 0062 FFF7FEFF 		bl	_test_assert
 833              	.LVL80:
 834 0066 0746     		mov	r7, r0
 835 0068 0028     		cmp	r0, #0
 836 006a 40F00381 		bne	.L59
 837 006e FFF7FEFF 		bl	dbg_check_unlock
 838              	.LVL81:
 839              	.LBB171:
 840 0072 3B46     		mov	r3, r7
 841              	@ 187 "../../../test/testqueues.c" 1
 842 0074 83F31188 		msr     BASEPRI, r3
 843              	@ 0 "" 2
 844              	.LVL82:
 845              		.thumb
 846 0078 0424     		movs	r4, #4
ARM GAS  /tmp/ccRTw1jZ.s 			page 16


 847              	.LVL83:
 848              	.L48:
 849              	.LBE171:
 850              	.LBB172:
 851              	.LBB173:
 852              		.loc 1 193 0
 853 007a 2023     		movs	r3, #32
 854              	@ 193 "../../../test/testqueues.c" 1
 855 007c 83F31188 		msr     BASEPRI, r3
 856              	@ 0 "" 2
 857              		.thumb
 858              	.LBE173:
 859 0080 FFF7FEFF 		bl	dbg_check_lock
 860              	.LVL84:
 861              		.loc 1 194 0
 862 0084 8448     		ldr	r0, .L62
 863 0086 FFF7FEFF 		bl	chOQGetI
 864              	.LVL85:
 865 008a 0646     		mov	r6, r0
 866              	.LVL86:
 867              		.loc 1 195 0
 868 008c FFF7FEFF 		bl	dbg_check_unlock
 869              	.LVL87:
 870              	.LBB174:
 871 0090 0023     		movs	r3, #0
 872              	@ 195 "../../../test/testqueues.c" 1
 873 0092 83F31188 		msr     BASEPRI, r3
 874              	@ 0 "" 2
 875              		.thumb
 876              	.LBE174:
 877              		.loc 1 196 0
 878 0096 F0B2     		uxtb	r0, r6
 879 0098 FFF7FEFF 		bl	test_emit_token
 880              	.LVL88:
 881              	.LBE172:
 882              		.loc 1 190 0
 883 009c 013C     		subs	r4, r4, #1
 884              	.LVL89:
 885 009e ECD1     		bne	.L48
 886              	.LBB175:
 887              		.loc 1 198 0
 888 00a0 2023     		movs	r3, #32
 889              	@ 198 "../../../test/testqueues.c" 1
 890 00a2 83F31188 		msr     BASEPRI, r3
 891              	@ 0 "" 2
 892              		.thumb
 893              	.LBE175:
 894 00a6 FFF7FEFF 		bl	dbg_check_lock
 895              	.LVL90:
 896 00aa 6A69     		ldr	r2, [r5, #20]
 897 00ac AB69     		ldr	r3, [r5, #24]
 898 00ae 7A49     		ldr	r1, .L62
 899 00b0 9A42     		cmp	r2, r3
 900 00b2 00F0EB80 		beq	.L61
 901              	.L49:
 902 00b6 3946     		mov	r1, r7
 903 00b8 0320     		movs	r0, #3
ARM GAS  /tmp/ccRTw1jZ.s 			page 17


 904 00ba FFF7FEFF 		bl	_test_assert
 905              	.LVL91:
 906 00be 0446     		mov	r4, r0
 907              	.LVL92:
 908 00c0 0028     		cmp	r0, #0
 909 00c2 40F0D780 		bne	.L59
 910 00c6 FFF7FEFF 		bl	dbg_check_unlock
 911              	.LVL93:
 912              	.LBB176:
 913 00ca 2346     		mov	r3, r4
 914              	@ 198 "../../../test/testqueues.c" 1
 915 00cc 83F31188 		msr     BASEPRI, r3
 916              	@ 0 "" 2
 917              		.thumb
 918              	.LBE176:
 919              		.loc 1 199 0
 920 00d0 0420     		movs	r0, #4
 921 00d2 7249     		ldr	r1, .L62+4
 922 00d4 FFF7FEFF 		bl	_test_assert_sequence
 923              	.LVL94:
 924 00d8 0028     		cmp	r0, #0
 925 00da 40F0D080 		bne	.L40
 926              	.LBB177:
 927              		.loc 1 200 0
 928 00de 2023     		movs	r3, #32
 929              	@ 200 "../../../test/testqueues.c" 1
 930 00e0 83F31188 		msr     BASEPRI, r3
 931              	@ 0 "" 2
 932              		.thumb
 933              	.LBE177:
 934 00e4 FFF7FEFF 		bl	dbg_check_lock
 935              	.LVL95:
 936 00e8 6B48     		ldr	r0, .L62
 937 00ea FFF7FEFF 		bl	chOQGetI
 938              	.LVL96:
 939 00ee 0330     		adds	r0, r0, #3
 940 00f0 14BF     		ite	ne
 941 00f2 0021     		movne	r1, #0
 942 00f4 0121     		moveq	r1, #1
 943 00f6 0520     		movs	r0, #5
 944 00f8 FFF7FEFF 		bl	_test_assert
 945              	.LVL97:
 946 00fc 0446     		mov	r4, r0
 947 00fe 0028     		cmp	r0, #0
 948 0100 40F0B880 		bne	.L59
 949 0104 FFF7FEFF 		bl	dbg_check_unlock
 950              	.LVL98:
 951              	.LBB178:
 952 0108 2346     		mov	r3, r4
 953              	@ 200 "../../../test/testqueues.c" 1
 954 010a 83F31188 		msr     BASEPRI, r3
 955              	@ 0 "" 2
 956              		.thumb
 957              	.LBE178:
 958              		.loc 1 203 0
 959 010e 644C     		ldr	r4, .L62+8
 960 0110 6148     		ldr	r0, .L62
ARM GAS  /tmp/ccRTw1jZ.s 			page 18


 961 0112 6168     		ldr	r1, [r4, #4]
 962 0114 0822     		movs	r2, #8
 963 0116 0023     		movs	r3, #0
 964 0118 FFF7FEFF 		bl	chOQWriteTimeout
 965              	.LVL99:
 966              		.loc 1 204 0
 967 011c B0F1040E 		subs	lr, r0, #4
 968 0120 DEF10001 		rsbs	r1, lr, #0
 969 0124 51EB0E01 		adcs	r1, r1, lr
 970 0128 0620     		movs	r0, #6
 971              	.LVL100:
 972 012a FFF7FEFF 		bl	_test_assert
 973              	.LVL101:
 974 012e 0028     		cmp	r0, #0
 975 0130 40F0A580 		bne	.L40
 976              	.LBB179:
 977              		.loc 1 205 0
 978 0134 2023     		movs	r3, #32
 979              	@ 205 "../../../test/testqueues.c" 1
 980 0136 83F31188 		msr     BASEPRI, r3
 981              	@ 0 "" 2
 982              		.thumb
 983              	.LBE179:
 984 013a FFF7FEFF 		bl	dbg_check_lock
 985              	.LVL102:
 986 013e A968     		ldr	r1, [r5, #8]
 987 0140 D1F10101 		rsbs	r1, r1, #1
 988 0144 4FF00700 		mov	r0, #7
 989 0148 38BF     		it	cc
 990 014a 0021     		movcc	r1, #0
 991 014c FFF7FEFF 		bl	_test_assert
 992              	.LVL103:
 993 0150 0646     		mov	r6, r0
 994              	.LVL104:
 995 0152 0028     		cmp	r0, #0
 996 0154 40F08E80 		bne	.L59
 997 0158 FFF7FEFF 		bl	dbg_check_unlock
 998              	.LVL105:
 999              	.LBB180:
 1000 015c 3346     		mov	r3, r6
 1001              	@ 205 "../../../test/testqueues.c" 1
 1002 015e 83F31188 		msr     BASEPRI, r3
 1003              	@ 0 "" 2
 1004              		.thumb
 1005              	.LBE180:
 1006              		.loc 1 206 0
 1007 0162 504B     		ldr	r3, .L62+12
 1008 0164 2068     		ldr	r0, [r4]
 1009 0166 9A69     		ldr	r2, [r3, #24]
 1010 0168 4F4B     		ldr	r3, .L62+16
 1011 016a 9268     		ldr	r2, [r2, #8]
 1012 016c 0021     		movs	r1, #0
 1013 016e 0091     		str	r1, [sp]
 1014 0170 0132     		adds	r2, r2, #1
 1015 0172 4FF49871 		mov	r1, #304
 1016 0176 FFF7FEFF 		bl	chThdCreateStatic
 1017              	.LVL106:
ARM GAS  /tmp/ccRTw1jZ.s 			page 19


 1018 017a 4C4A     		ldr	r2, .L62+20
 1019              	.LBB181:
 1020              		.loc 1 207 0
 1021 017c 2023     		movs	r3, #32
 1022              	.LBE181:
 1023              		.loc 1 206 0
 1024 017e 1060     		str	r0, [r2]
 1025              	.LBB182:
 1026              		.loc 1 207 0
 1027              	@ 207 "../../../test/testqueues.c" 1
 1028 0180 83F31188 		msr     BASEPRI, r3
 1029              	@ 0 "" 2
 1030              		.thumb
 1031              	.LBE182:
 1032 0184 FFF7FEFF 		bl	dbg_check_lock
 1033              	.LVL107:
 1034 0188 2969     		ldr	r1, [r5, #16]
 1035 018a EA68     		ldr	r2, [r5, #12]
 1036 018c AB68     		ldr	r3, [r5, #8]
 1037 018e 8A1A     		subs	r2, r1, r2
 1038 0190 D11A     		subs	r1, r2, r3
 1039 0192 0F1F     		subs	r7, r1, #4
 1040 0194 7942     		rsbs	r1, r7, #0
 1041 0196 7941     		adcs	r1, r1, r7
 1042 0198 0820     		movs	r0, #8
 1043 019a FFF7FEFF 		bl	_test_assert
 1044              	.LVL108:
 1045 019e 0646     		mov	r6, r0
 1046 01a0 0028     		cmp	r0, #0
 1047 01a2 67D1     		bne	.L59
 1048 01a4 FFF7FEFF 		bl	dbg_check_unlock
 1049              	.LVL109:
 1050              	.LBB183:
 1051 01a8 3346     		mov	r3, r6
 1052              	@ 207 "../../../test/testqueues.c" 1
 1053 01aa 83F31188 		msr     BASEPRI, r3
 1054              	@ 0 "" 2
 1055              		.thumb
 1056              	.LBE183:
 1057              		.loc 1 208 0
 1058 01ae FFF7FEFF 		bl	test_wait_threads
 1059              	.LVL110:
 1060              	.LBB184:
 1061              		.loc 1 211 0
 1062 01b2 2023     		movs	r3, #32
 1063              	@ 211 "../../../test/testqueues.c" 1
 1064 01b4 83F31188 		msr     BASEPRI, r3
 1065              	@ 0 "" 2
 1066              		.thumb
 1067              	.LBE184:
 1068 01b8 FFF7FEFF 		bl	dbg_check_lock
 1069              	.LVL111:
 1070              		.loc 1 212 0
 1071 01bc 3648     		ldr	r0, .L62
 1072 01be FFF7FEFF 		bl	chOQResetI
 1073              	.LVL112:
 1074              		.loc 1 213 0
ARM GAS  /tmp/ccRTw1jZ.s 			page 20


 1075 01c2 FFF7FEFF 		bl	dbg_check_unlock
 1076              	.LVL113:
 1077              	.LBB185:
 1078 01c6 0023     		movs	r3, #0
 1079              	@ 213 "../../../test/testqueues.c" 1
 1080 01c8 83F31188 		msr     BASEPRI, r3
 1081              	@ 0 "" 2
 1082              		.thumb
 1083              	.LBE185:
 1084              	.LBB186:
 1085              		.loc 1 214 0
 1086 01cc 2023     		movs	r3, #32
 1087              	@ 214 "../../../test/testqueues.c" 1
 1088 01ce 83F31188 		msr     BASEPRI, r3
 1089              	@ 0 "" 2
 1090              		.thumb
 1091              	.LBE186:
 1092 01d2 FFF7FEFF 		bl	dbg_check_lock
 1093              	.LVL114:
 1094 01d6 2969     		ldr	r1, [r5, #16]
 1095 01d8 EA68     		ldr	r2, [r5, #12]
 1096 01da AB68     		ldr	r3, [r5, #8]
 1097 01dc 891A     		subs	r1, r1, r2
 1098 01de CE1A     		subs	r6, r1, r3
 1099 01e0 7142     		rsbs	r1, r6, #0
 1100 01e2 7141     		adcs	r1, r1, r6
 1101 01e4 0920     		movs	r0, #9
 1102 01e6 FFF7FEFF 		bl	_test_assert
 1103              	.LVL115:
 1104 01ea 0646     		mov	r6, r0
 1105 01ec 0028     		cmp	r0, #0
 1106 01ee 41D1     		bne	.L59
 1107 01f0 FFF7FEFF 		bl	dbg_check_unlock
 1108              	.LVL116:
 1109              	.LBB187:
 1110 01f4 3346     		mov	r3, r6
 1111              	@ 214 "../../../test/testqueues.c" 1
 1112 01f6 83F31188 		msr     BASEPRI, r3
 1113              	@ 0 "" 2
 1114              		.thumb
 1115              	.LBE187:
 1116              		.loc 1 217 0
 1117 01fa 6468     		ldr	r4, [r4, #4]
 1118 01fc 2648     		ldr	r0, .L62
 1119 01fe 0023     		movs	r3, #0
 1120 0200 2146     		mov	r1, r4
 1121 0202 0222     		movs	r2, #2
 1122 0204 FFF7FEFF 		bl	chOQWriteTimeout
 1123              	.LVL117:
 1124              		.loc 1 218 0
 1125 0208 0238     		subs	r0, r0, #2
 1126              	.LVL118:
 1127 020a 4142     		rsbs	r1, r0, #0
 1128 020c 4141     		adcs	r1, r1, r0
 1129 020e 0A20     		movs	r0, #10
 1130              	.LVL119:
 1131 0210 FFF7FEFF 		bl	_test_assert
ARM GAS  /tmp/ccRTw1jZ.s 			page 21


 1132              	.LVL120:
 1133 0214 0346     		mov	r3, r0
 1134 0216 90BB     		cbnz	r0, .L40
 1135              		.loc 1 219 0
 1136 0218 2146     		mov	r1, r4
 1137 021a 0222     		movs	r2, #2
 1138 021c 1E48     		ldr	r0, .L62
 1139 021e FFF7FEFF 		bl	chOQWriteTimeout
 1140              	.LVL121:
 1141              		.loc 1 220 0
 1142 0222 821E     		subs	r2, r0, #2
 1143 0224 5142     		rsbs	r1, r2, #0
 1144 0226 5141     		adcs	r1, r1, r2
 1145 0228 0B20     		movs	r0, #11
 1146              	.LVL122:
 1147 022a FFF7FEFF 		bl	_test_assert
 1148              	.LVL123:
 1149 022e 30BB     		cbnz	r0, .L40
 1150              	.LBB188:
 1151              		.loc 1 221 0
 1152 0230 2023     		movs	r3, #32
 1153              	@ 221 "../../../test/testqueues.c" 1
 1154 0232 83F31188 		msr     BASEPRI, r3
 1155              	@ 0 "" 2
 1156              		.thumb
 1157              	.LBE188:
 1158 0236 FFF7FEFF 		bl	dbg_check_lock
 1159              	.LVL124:
 1160 023a A968     		ldr	r1, [r5, #8]
 1161 023c D1F10101 		rsbs	r1, r1, #1
 1162 0240 38BF     		it	cc
 1163 0242 0021     		movcc	r1, #0
 1164 0244 0C20     		movs	r0, #12
 1165 0246 FFF7FEFF 		bl	_test_assert
 1166              	.LVL125:
 1167 024a 98B9     		cbnz	r0, .L59
 1168 024c FFF7FEFF 		bl	dbg_check_unlock
 1169              	.LVL126:
 1170              	.LBB189:
 1171 0250 0023     		movs	r3, #0
 1172              	@ 221 "../../../test/testqueues.c" 1
 1173 0252 83F31188 		msr     BASEPRI, r3
 1174              	@ 0 "" 2
 1175              		.thumb
 1176              	.LBE189:
 1177              		.loc 1 224 0
 1178 0256 0021     		movs	r1, #0
 1179 0258 0A22     		movs	r2, #10
 1180 025a 0F48     		ldr	r0, .L62
 1181 025c FFF7FEFF 		bl	chOQPutTimeout
 1182              	.LVL127:
 1183 0260 B0F1FF33 		subs	r3, r0, #-1
 1184 0264 5942     		rsbs	r1, r3, #0
 1185 0266 5941     		adcs	r1, r1, r3
 1186 0268 0D20     		movs	r0, #13
 1187              	.LBE168:
 1188              	.LBE167:
ARM GAS  /tmp/ccRTw1jZ.s 			page 22


 1189              		.loc 1 225 0
 1190 026a 03B0     		add	sp, sp, #12
 1191              		@ sp needed
 1192 026c BDE8F040 		pop	{r4, r5, r6, r7, lr}
 1193              	.LBB193:
 1194              	.LBB191:
 1195              		.loc 1 224 0
 1196 0270 FFF7FEBF 		b	_test_assert
 1197              	.LVL128:
 1198              	.L59:
 1199              		.loc 1 221 0
 1200 0274 FFF7FEFF 		bl	dbg_check_unlock
 1201              	.LVL129:
 1202              	.LBB190:
 1203 0278 0023     		movs	r3, #0
 1204              	@ 221 "../../../test/testqueues.c" 1
 1205 027a 83F31188 		msr     BASEPRI, r3
 1206              	@ 0 "" 2
 1207              		.thumb
 1208              	.L40:
 1209              	.LBE190:
 1210              	.LBE191:
 1211              	.LBE193:
 1212              		.loc 1 225 0
 1213 027e 03B0     		add	sp, sp, #12
 1214              		@ sp needed
 1215 0280 F0BD     		pop	{r4, r5, r6, r7, pc}
 1216              	.L60:
 1217              		.loc 1 182 0 discriminator 1
 1218 0282 A968     		ldr	r1, [r5, #8]
 1219 0284 0031     		adds	r1, r1, #0
 1220 0286 18BF     		it	ne
 1221 0288 0121     		movne	r1, #1
 1222 028a C7E6     		b	.L41
 1223              	.LVL130:
 1224              	.L61:
 1225              	.LBB194:
 1226              	.LBB192:
 1227              		.loc 1 198 0
 1228 028c 8F68     		ldr	r7, [r1, #8]
 1229 028e 0037     		adds	r7, r7, #0
 1230 0290 18BF     		it	ne
 1231 0292 0127     		movne	r7, #1
 1232 0294 0FE7     		b	.L49
 1233              	.L63:
 1234 0296 00BF     		.align	2
 1235              	.L62:
 1236 0298 00000000 		.word	.LANCHOR1
 1237 029c 00000000 		.word	.LC0
 1238 02a0 00000000 		.word	wa
 1239 02a4 00000000 		.word	rlist
 1240 02a8 00000000 		.word	thread2
 1241 02ac 00000000 		.word	threads
 1242              	.LBE192:
 1243              	.LBE194:
 1244              		.cfi_endproc
 1245              	.LFE13:
ARM GAS  /tmp/ccRTw1jZ.s 			page 23


 1246              		.size	queues2_execute, .-queues2_execute
 1247              		.global	patternqueues
 1248              		.global	testqueues2
 1249              		.global	testqueues1
 1250              		.section	.rodata.testqueues1,"a",%progbits
 1251              		.align	2
 1252              		.type	testqueues1, %object
 1253              		.size	testqueues1, 16
 1254              	testqueues1:
 1255 0000 20000000 		.word	.LC2
 1256 0004 00000000 		.word	queues1_setup
 1257 0008 00000000 		.word	0
 1258 000c 00000000 		.word	queues1_execute
 1259              		.section	.rodata.testqueues2,"a",%progbits
 1260              		.align	2
 1261              		.type	testqueues2, %object
 1262              		.size	testqueues2, 16
 1263              	testqueues2:
 1264 0000 08000000 		.word	.LC1
 1265 0004 00000000 		.word	queues2_setup
 1266 0008 00000000 		.word	0
 1267 000c 00000000 		.word	queues2_execute
 1268              		.section	.rodata.str1.4,"aMS",%progbits,1
 1269              		.align	2
 1270              	.LC0:
 1271 0000 41424344 		.ascii	"ABCD\000"
 1271      00
 1272 0005 000000   		.space	3
 1273              	.LC1:
 1274 0008 51756575 		.ascii	"Queues, output queues\000"
 1274      65732C20 
 1274      6F757470 
 1274      75742071 
 1274      75657565 
 1275 001e 0000     		.space	2
 1276              	.LC2:
 1277 0020 51756575 		.ascii	"Queues, input queues\000"
 1277      65732C20 
 1277      696E7075 
 1277      74207175 
 1277      65756573 
 1278 0035 000000   		.section	.rodata.patternqueues,"a",%progbits
 1279              		.align	2
 1280              		.type	patternqueues, %object
 1281              		.size	patternqueues, 12
 1282              	patternqueues:
 1283 0000 00000000 		.word	testqueues1
 1284 0004 00000000 		.word	testqueues2
 1285 0008 00000000 		.word	0
 1286              		.section	.data.oq,"aw",%progbits
 1287              		.align	2
 1288              		.set	.LANCHOR1,. + 0
 1289              		.type	oq, %object
 1290              		.size	oq, 36
 1291              	oq:
 1292 0000 00000000 		.word	oq
 1293 0004 00000000 		.word	oq
ARM GAS  /tmp/ccRTw1jZ.s 			page 24


 1294 0008 04000000 		.word	4
 1295 000c 30010000 		.word	test+304
 1296 0010 34010000 		.word	test+308
 1297 0014 30010000 		.word	test+304
 1298 0018 30010000 		.word	test+304
 1299 001c 00000000 		.word	notify
 1300 0020 00000000 		.word	0
 1301              		.section	.data.iq,"aw",%progbits
 1302              		.align	2
 1303              		.set	.LANCHOR0,. + 0
 1304              		.type	iq, %object
 1305              		.size	iq, 36
 1306              	iq:
 1307 0000 00000000 		.word	iq
 1308 0004 00000000 		.word	iq
 1309 0008 00000000 		.word	0
 1310 000c 00000000 		.word	test
 1311 0010 04000000 		.word	test+4
 1312 0014 00000000 		.word	test
 1313 0018 00000000 		.word	test
 1314 001c 00000000 		.word	notify
 1315 0020 00000000 		.word	0
 1316              		.text
 1317              	.Letext0:
 1318              		.file 2 "/usr/lib/gcc/arm-none-eabi/4.8.3/include/stddef.h"
 1319              		.file 3 "/usr/arm-none-eabi/include/stdint.h"
 1320              		.file 4 "../../../os/ports/GCC/ARMCMx/chtypes.h"
 1321              		.file 5 "../../../os/kernel/include/chlists.h"
 1322              		.file 6 "../../../os/kernel/include/chthreads.h"
 1323              		.file 7 "../../../os/ports/GCC/ARMCMx/chcore_v7m.h"
 1324              		.file 8 "../../../os/kernel/include/chschd.h"
 1325              		.file 9 "../../../os/kernel/include/chmtx.h"
 1326              		.file 10 "../../../os/kernel/include/chqueues.h"
 1327              		.file 11 "../../../test/test.h"
 1328              		.file 12 "../../../os/kernel/include/chdebug.h"