ARM GAS  /tmp/ccFub3FT.s 			page 1


   1              		.syntax unified
   2              		.cpu cortex-m4
   3              		.fpu softvfp
   4              		.eabi_attribute 20, 1
   5              		.eabi_attribute 21, 1
   6              		.eabi_attribute 23, 3
   7              		.eabi_attribute 24, 1
   8              		.eabi_attribute 25, 1
   9              		.eabi_attribute 26, 1
  10              		.eabi_attribute 30, 2
  11              		.eabi_attribute 34, 1
  12              		.eabi_attribute 18, 4
  13              		.thumb
  14              		.file	"testdyn.c"
  15              		.text
  16              	.Ltext0:
  17              		.cfi_sections	.debug_frame
  18              		.section	.text.dyn1_execute,"ax",%progbits
  19              		.align	2
  20              		.p2align 4,,15
  21              		.thumb
  22              		.thumb_func
  23              		.type	dyn1_execute, %function
  24              	dyn1_execute:
  25              	.LFB9:
  26              		.file 1 "../../../test/testdyn.c"
  27              		.loc 1 83 0
  28              		.cfi_startproc
  29              		@ args = 0, pretend = 0, frame = 8
  30              		@ frame_needed = 0, uses_anonymous_args = 0
  31 0000 70B5     		push	{r4, r5, r6, lr}
  32              		.cfi_def_cfa_offset 16
  33              		.cfi_offset 4, -16
  34              		.cfi_offset 5, -12
  35              		.cfi_offset 6, -8
  36              		.cfi_offset 14, -4
  37              		.loc 1 86 0
  38 0002 334B     		ldr	r3, .L12
  39              		.loc 1 88 0
  40 0004 3348     		ldr	r0, .L12+4
  41              		.loc 1 86 0
  42 0006 9B69     		ldr	r3, [r3, #24]
  43              		.loc 1 90 0
  44 0008 334C     		ldr	r4, .L12+8
  45              		.loc 1 86 0
  46 000a 9D68     		ldr	r5, [r3, #8]
  47              	.LVL0:
  48              		.loc 1 83 0
  49 000c 84B0     		sub	sp, sp, #16
  50              		.cfi_def_cfa_offset 32
  51              		.loc 1 88 0
  52 000e 03A9     		add	r1, sp, #12
  53 0010 FFF7FEFF 		bl	chHeapStatus
  54              	.LVL1:
  55              		.loc 1 90 0
  56 0014 314B     		ldr	r3, .L12+12
  57 0016 0093     		str	r3, [sp]
ARM GAS  /tmp/ccFub3FT.s 			page 2


  58 0018 6A1E     		subs	r2, r5, #1
  59 001a 314B     		ldr	r3, .L12+16
  60 001c 2D48     		ldr	r0, .L12+4
  61 001e 4FF49871 		mov	r1, #304
  62 0022 FFF7FEFF 		bl	chThdCreateFromHeap
  63              	.LVL2:
  64              		.loc 1 92 0
  65 0026 2F4B     		ldr	r3, .L12+20
  66              		.loc 1 90 0
  67 0028 2060     		str	r0, [r4]
  68              		.loc 1 92 0
  69 002a AA1E     		subs	r2, r5, #2
  70 002c 0093     		str	r3, [sp]
  71 002e 4FF49871 		mov	r1, #304
  72 0032 2B4B     		ldr	r3, .L12+16
  73 0034 2748     		ldr	r0, .L12+4
  74 0036 FFF7FEFF 		bl	chThdCreateFromHeap
  75              	.LVL3:
  76              		.loc 1 95 0
  77 003a 02A9     		add	r1, sp, #8
  78              		.loc 1 92 0
  79 003c 6060     		str	r0, [r4, #4]
  80              		.loc 1 95 0
  81 003e 2548     		ldr	r0, .L12+4
  82 0040 FFF7FEFF 		bl	chHeapStatus
  83              	.LVL4:
  84              		.loc 1 96 0
  85 0044 0299     		ldr	r1, [sp, #8]
  86 0046 2348     		ldr	r0, .L12+4
  87 0048 FFF7FEFF 		bl	chHeapAlloc
  88              	.LVL5:
  89              		.loc 1 97 0
  90 004c 264B     		ldr	r3, .L12+24
  91 004e 0093     		str	r3, [sp]
  92 0050 4FF49871 		mov	r1, #304
  93              		.loc 1 96 0
  94 0054 0646     		mov	r6, r0
  95              	.LVL6:
  96              		.loc 1 97 0
  97 0056 EA1E     		subs	r2, r5, #3
  98 0058 214B     		ldr	r3, .L12+16
  99 005a 1E48     		ldr	r0, .L12+4
 100              	.LVL7:
 101 005c FFF7FEFF 		bl	chThdCreateFromHeap
 102              	.LVL8:
 103 0060 A060     		str	r0, [r4, #8]
 104              		.loc 1 99 0
 105 0062 3046     		mov	r0, r6
 106 0064 FFF7FEFF 		bl	chHeapFree
 107              	.LVL9:
 108              		.loc 1 101 0
 109 0068 2168     		ldr	r1, [r4]
 110 006a 21B1     		cbz	r1, .L2
 111              		.loc 1 101 0 is_stmt 0 discriminator 1
 112 006c 6168     		ldr	r1, [r4, #4]
 113 006e 11B1     		cbz	r1, .L2
 114 0070 A168     		ldr	r1, [r4, #8]
ARM GAS  /tmp/ccFub3FT.s 			page 3


 115 0072 19B3     		cbz	r1, .L10
 116 0074 0021     		movs	r1, #0
 117              	.L2:
 118              		.loc 1 101 0 discriminator 4
 119 0076 0120     		movs	r0, #1
 120 0078 FFF7FEFF 		bl	_test_assert
 121              	.LVL10:
 122 007c 08B1     		cbz	r0, .L11
 123              	.L1:
 124              		.loc 1 115 0 is_stmt 1
 125 007e 04B0     		add	sp, sp, #16
 126              		@ sp needed
 127 0080 70BD     		pop	{r4, r5, r6, pc}
 128              	.LVL11:
 129              	.L11:
 130              		.loc 1 109 0
 131 0082 FFF7FEFF 		bl	test_wait_threads
 132              	.LVL12:
 133              		.loc 1 110 0
 134 0086 0220     		movs	r0, #2
 135 0088 1849     		ldr	r1, .L12+28
 136 008a FFF7FEFF 		bl	_test_assert_sequence
 137              	.LVL13:
 138 008e 0028     		cmp	r0, #0
 139 0090 F5D1     		bne	.L1
 140              		.loc 1 113 0
 141 0092 02A9     		add	r1, sp, #8
 142 0094 0F48     		ldr	r0, .L12+4
 143 0096 FFF7FEFF 		bl	chHeapStatus
 144              	.LVL14:
 145 009a 421E     		subs	r2, r0, #1
 146 009c 5142     		rsbs	r1, r2, #0
 147 009e 5141     		adcs	r1, r1, r2
 148 00a0 0320     		movs	r0, #3
 149 00a2 FFF7FEFF 		bl	_test_assert
 150              	.LVL15:
 151 00a6 0028     		cmp	r0, #0
 152 00a8 E9D1     		bne	.L1
 153              		.loc 1 114 0
 154 00aa 0299     		ldr	r1, [sp, #8]
 155 00ac 039B     		ldr	r3, [sp, #12]
 156 00ae CB1A     		subs	r3, r1, r3
 157 00b0 5942     		rsbs	r1, r3, #0
 158 00b2 5941     		adcs	r1, r1, r3
 159 00b4 0420     		movs	r0, #4
 160 00b6 FFF7FEFF 		bl	_test_assert
 161              	.LVL16:
 162 00ba E0E7     		b	.L1
 163              	.L10:
 164              		.loc 1 101 0 discriminator 1
 165 00bc E368     		ldr	r3, [r4, #12]
 166 00be 002B     		cmp	r3, #0
 167 00c0 D9D1     		bne	.L2
 168 00c2 2169     		ldr	r1, [r4, #16]
 169 00c4 D1F10101 		rsbs	r1, r1, #1
 170 00c8 38BF     		it	cc
 171 00ca 0021     		movcc	r1, #0
ARM GAS  /tmp/ccFub3FT.s 			page 4


 172 00cc D3E7     		b	.L2
 173              	.L13:
 174 00ce 00BF     		.align	2
 175              	.L12:
 176 00d0 00000000 		.word	rlist
 177 00d4 00000000 		.word	.LANCHOR0
 178 00d8 00000000 		.word	threads
 179 00dc 00000000 		.word	.LC0
 180 00e0 00000000 		.word	thread
 181 00e4 04000000 		.word	.LC1
 182 00e8 08000000 		.word	.LC2
 183 00ec 0C000000 		.word	.LC3
 184              		.cfi_endproc
 185              	.LFE9:
 186              		.size	dyn1_execute, .-dyn1_execute
 187              		.section	.text.thread,"ax",%progbits
 188              		.align	2
 189              		.p2align 4,,15
 190              		.thumb
 191              		.thumb_func
 192              		.type	thread, %function
 193              	thread:
 194              	.LFB7:
 195              		.loc 1 71 0
 196              		.cfi_startproc
 197              		@ args = 0, pretend = 0, frame = 0
 198              		@ frame_needed = 0, uses_anonymous_args = 0
 199              	.LVL17:
 200 0000 08B5     		push	{r3, lr}
 201              		.cfi_def_cfa_offset 8
 202              		.cfi_offset 3, -8
 203              		.cfi_offset 14, -4
 204              		.loc 1 73 0
 205 0002 0078     		ldrb	r0, [r0]	@ zero_extendqisi2
 206              	.LVL18:
 207 0004 FFF7FEFF 		bl	test_emit_token
 208              	.LVL19:
 209              		.loc 1 75 0
 210 0008 0020     		movs	r0, #0
 211 000a 08BD     		pop	{r3, pc}
 212              		.cfi_endproc
 213              	.LFE7:
 214              		.size	thread, .-thread
 215 000c AFF30080 		.section	.text.dyn1_setup,"ax",%progbits
 216              		.align	2
 217              		.p2align 4,,15
 218              		.thumb
 219              		.thumb_func
 220              		.type	dyn1_setup, %function
 221              	dyn1_setup:
 222              	.LFB8:
 223              		.loc 1 78 0
 224              		.cfi_startproc
 225              		@ args = 0, pretend = 0, frame = 0
 226              		@ frame_needed = 0, uses_anonymous_args = 0
 227              		@ link register save eliminated.
 228              		.loc 1 80 0
ARM GAS  /tmp/ccFub3FT.s 			page 5


 229 0000 0248     		ldr	r0, .L16
 230 0002 0349     		ldr	r1, .L16+4
 231 0004 4FF4BE62 		mov	r2, #1520
 232 0008 FFF7FEBF 		b	chHeapInit
 233              	.LVL20:
 234              	.L17:
 235              		.align	2
 236              	.L16:
 237 000c 00000000 		.word	.LANCHOR0
 238 0010 00000000 		.word	test
 239              		.cfi_endproc
 240              	.LFE8:
 241              		.size	dyn1_setup, .-dyn1_setup
 242 0014 AFF30080 		.section	.text.dyn3_setup,"ax",%progbits
 242      AFF30080 
 242      AFF30080 
 243              		.align	2
 244              		.p2align 4,,15
 245              		.thumb
 246              		.thumb_func
 247              		.type	dyn3_setup, %function
 248              	dyn3_setup:
 249              	.LFB13:
 250              		.loc 1 203 0
 251              		.cfi_startproc
 252              		@ args = 0, pretend = 0, frame = 0
 253              		@ frame_needed = 0, uses_anonymous_args = 0
 254              		@ link register save eliminated.
 255              		.loc 1 205 0
 256 0000 0248     		ldr	r0, .L19
 257 0002 0349     		ldr	r1, .L19+4
 258 0004 4FF4BE62 		mov	r2, #1520
 259 0008 FFF7FEBF 		b	chHeapInit
 260              	.LVL21:
 261              	.L20:
 262              		.align	2
 263              	.L19:
 264 000c 00000000 		.word	.LANCHOR0
 265 0010 00000000 		.word	test
 266              		.cfi_endproc
 267              	.LFE13:
 268              		.size	dyn3_setup, .-dyn3_setup
 269 0014 AFF30080 		.section	.text.dyn2_execute,"ax",%progbits
 269      AFF30080 
 269      AFF30080 
 270              		.align	2
 271              		.p2align 4,,15
 272              		.thumb
 273              		.thumb_func
 274              		.type	dyn2_execute, %function
 275              	dyn2_execute:
 276              	.LFB11:
 277              		.loc 1 141 0
 278              		.cfi_startproc
 279              		@ args = 0, pretend = 0, frame = 0
 280              		@ frame_needed = 0, uses_anonymous_args = 0
 281              		.loc 1 143 0
ARM GAS  /tmp/ccFub3FT.s 			page 6


 282 0000 324B     		ldr	r3, .L35
 283 0002 9B69     		ldr	r3, [r3, #24]
 284              		.loc 1 141 0
 285 0004 70B5     		push	{r4, r5, r6, lr}
 286              		.cfi_def_cfa_offset 16
 287              		.cfi_offset 4, -16
 288              		.cfi_offset 5, -12
 289              		.cfi_offset 6, -8
 290              		.cfi_offset 14, -4
 291 0006 324C     		ldr	r4, .L35+4
 292              		.loc 1 143 0
 293 0008 9D68     		ldr	r5, [r3, #8]
 294              	.LVL22:
 295 000a 04F11006 		add	r6, r4, #16
 296              	.LVL23:
 297              	.L23:
 298              		.loc 1 147 0 discriminator 2
 299 000e 54F8041F 		ldr	r1, [r4, #4]!
 300 0012 3048     		ldr	r0, .L35+8
 301 0014 FFF7FEFF 		bl	chPoolFree
 302              	.LVL24:
 303              		.loc 1 146 0 discriminator 2
 304 0018 B442     		cmp	r4, r6
 305 001a F8D1     		bne	.L23
 306              		.loc 1 150 0
 307 001c 2E4A     		ldr	r2, .L35+12
 308 001e 2F4B     		ldr	r3, .L35+16
 309 0020 2C48     		ldr	r0, .L35+8
 310 0022 2F4C     		ldr	r4, .L35+20
 311 0024 691E     		subs	r1, r5, #1
 312 0026 FFF7FEFF 		bl	chThdCreateFromMemoryPool
 313              	.LVL25:
 314              		.loc 1 151 0
 315 002a A91E     		subs	r1, r5, #2
 316              		.loc 1 150 0
 317 002c 2060     		str	r0, [r4]
 318              		.loc 1 151 0
 319 002e 2A4A     		ldr	r2, .L35+12
 320 0030 2C4B     		ldr	r3, .L35+24
 321 0032 2848     		ldr	r0, .L35+8
 322 0034 FFF7FEFF 		bl	chThdCreateFromMemoryPool
 323              	.LVL26:
 324              		.loc 1 152 0
 325 0038 E91E     		subs	r1, r5, #3
 326              		.loc 1 151 0
 327 003a 6060     		str	r0, [r4, #4]
 328              		.loc 1 152 0
 329 003c 264A     		ldr	r2, .L35+12
 330 003e 2A4B     		ldr	r3, .L35+28
 331 0040 2448     		ldr	r0, .L35+8
 332 0042 FFF7FEFF 		bl	chThdCreateFromMemoryPool
 333              	.LVL27:
 334              		.loc 1 153 0
 335 0046 291F     		subs	r1, r5, #4
 336              		.loc 1 152 0
 337 0048 A060     		str	r0, [r4, #8]
 338              		.loc 1 153 0
ARM GAS  /tmp/ccFub3FT.s 			page 7


 339 004a 234A     		ldr	r2, .L35+12
 340 004c 274B     		ldr	r3, .L35+32
 341 004e 2148     		ldr	r0, .L35+8
 342 0050 FFF7FEFF 		bl	chThdCreateFromMemoryPool
 343              	.LVL28:
 344              		.loc 1 154 0
 345 0054 691F     		subs	r1, r5, #5
 346              		.loc 1 153 0
 347 0056 E060     		str	r0, [r4, #12]
 348              		.loc 1 154 0
 349 0058 1F4A     		ldr	r2, .L35+12
 350 005a 1E48     		ldr	r0, .L35+8
 351 005c 244B     		ldr	r3, .L35+36
 352 005e FFF7FEFF 		bl	chThdCreateFromMemoryPool
 353              	.LVL29:
 354              		.loc 1 156 0
 355 0062 2168     		ldr	r1, [r4]
 356              		.loc 1 154 0
 357 0064 2061     		str	r0, [r4, #16]
 358              		.loc 1 156 0
 359 0066 49B1     		cbz	r1, .L24
 360              		.loc 1 156 0 is_stmt 0 discriminator 1
 361 0068 6168     		ldr	r1, [r4, #4]
 362 006a 39B1     		cbz	r1, .L24
 363 006c A168     		ldr	r1, [r4, #8]
 364 006e 29B1     		cbz	r1, .L24
 365 0070 E168     		ldr	r1, [r4, #12]
 366 0072 19B1     		cbz	r1, .L24
 367 0074 D0F10101 		rsbs	r1, r0, #1
 368 0078 38BF     		it	cc
 369 007a 0021     		movcc	r1, #0
 370              	.L24:
 371              		.loc 1 156 0 discriminator 4
 372 007c 0120     		movs	r0, #1
 373 007e FFF7FEFF 		bl	_test_assert
 374              	.LVL30:
 375 0082 00B1     		cbz	r0, .L34
 376              	.L21:
 377 0084 70BD     		pop	{r4, r5, r6, pc}
 378              	.LVL31:
 379              	.L34:
 380              		.loc 1 164 0 is_stmt 1
 381 0086 FFF7FEFF 		bl	test_wait_threads
 382              	.LVL32:
 383              		.loc 1 165 0
 384 008a 0220     		movs	r0, #2
 385 008c 1949     		ldr	r1, .L35+40
 386 008e FFF7FEFF 		bl	_test_assert_sequence
 387              	.LVL33:
 388 0092 0028     		cmp	r0, #0
 389 0094 F6D1     		bne	.L21
 390 0096 0424     		movs	r4, #4
 391              	.L29:
 392              	.LVL34:
 393              		.loc 1 169 0
 394 0098 0E48     		ldr	r0, .L35+8
 395 009a FFF7FEFF 		bl	chPoolAlloc
ARM GAS  /tmp/ccFub3FT.s 			page 8


 396              	.LVL35:
 397 009e 011C     		adds	r1, r0, #0
 398 00a0 18BF     		it	ne
 399 00a2 0121     		movne	r1, #1
 400 00a4 0320     		movs	r0, #3
 401 00a6 FFF7FEFF 		bl	_test_assert
 402              	.LVL36:
 403 00aa 0028     		cmp	r0, #0
 404 00ac EAD1     		bne	.L21
 405              		.loc 1 168 0
 406 00ae 013C     		subs	r4, r4, #1
 407              	.LVL37:
 408 00b0 F2D1     		bne	.L29
 409              		.loc 1 170 0
 410 00b2 0848     		ldr	r0, .L35+8
 411 00b4 FFF7FEFF 		bl	chPoolAlloc
 412              	.LVL38:
 413 00b8 D0F10101 		rsbs	r1, r0, #1
 414 00bc 38BF     		it	cc
 415 00be 0021     		movcc	r1, #0
 416 00c0 0420     		movs	r0, #4
 417              		.loc 1 171 0
 418 00c2 BDE87040 		pop	{r4, r5, r6, lr}
 419              	.LVL39:
 420              		.loc 1 170 0
 421 00c6 FFF7FEBF 		b	_test_assert
 422              	.LVL40:
 423              	.L36:
 424 00ca 00BF     		.align	2
 425              	.L35:
 426 00cc 00000000 		.word	rlist
 427 00d0 FCFFFFFF 		.word	wa-4
 428 00d4 00000000 		.word	.LANCHOR1
 429 00d8 00000000 		.word	thread
 430 00dc 00000000 		.word	.LC0
 431 00e0 00000000 		.word	threads
 432 00e4 04000000 		.word	.LC1
 433 00e8 08000000 		.word	.LC2
 434 00ec 10000000 		.word	.LC4
 435 00f0 14000000 		.word	.LC5
 436 00f4 18000000 		.word	.LC6
 437              		.cfi_endproc
 438              	.LFE11:
 439              		.size	dyn2_execute, .-dyn2_execute
 440 00f8 AFF30080 		.section	.text.dyn2_setup,"ax",%progbits
 440      AFF30080 
 441              		.align	2
 442              		.p2align 4,,15
 443              		.thumb
 444              		.thumb_func
 445              		.type	dyn2_setup, %function
 446              	dyn2_setup:
 447              	.LFB10:
 448              		.loc 1 136 0
 449              		.cfi_startproc
 450              		@ args = 0, pretend = 0, frame = 0
 451              		@ frame_needed = 0, uses_anonymous_args = 0
ARM GAS  /tmp/ccFub3FT.s 			page 9


 452              		@ link register save eliminated.
 453              		.loc 1 138 0
 454 0000 0248     		ldr	r0, .L38
 455 0002 4FF49871 		mov	r1, #304
 456 0006 0022     		movs	r2, #0
 457 0008 FFF7FEBF 		b	chPoolInit
 458              	.LVL41:
 459              	.L39:
 460              		.align	2
 461              	.L38:
 462 000c 00000000 		.word	.LANCHOR1
 463              		.cfi_endproc
 464              	.LFE10:
 465              		.size	dyn2_setup, .-dyn2_setup
 466              		.section	.text.regfind,"ax",%progbits
 467              		.align	2
 468              		.p2align 4,,15
 469              		.thumb
 470              		.thumb_func
 471              		.type	regfind, %function
 472              	regfind:
 473              	.LFB12:
 474              		.loc 1 191 0
 475              		.cfi_startproc
 476              		@ args = 0, pretend = 0, frame = 0
 477              		@ frame_needed = 0, uses_anonymous_args = 0
 478              	.LVL42:
 479 0000 38B5     		push	{r3, r4, r5, lr}
 480              		.cfi_def_cfa_offset 16
 481              		.cfi_offset 3, -16
 482              		.cfi_offset 4, -12
 483              		.cfi_offset 5, -8
 484              		.cfi_offset 14, -4
 485              		.loc 1 191 0
 486 0002 0546     		mov	r5, r0
 487              		.loc 1 195 0
 488 0004 FFF7FEFF 		bl	chRegFirstThread
 489              	.LVL43:
 490              		.loc 1 193 0
 491 0008 0024     		movs	r4, #0
 492              		.loc 1 195 0
 493 000a 0346     		mov	r3, r0
 494              	.LVL44:
 495              	.L42:
 496              		.loc 1 198 0 discriminator 1
 497 000c 1846     		mov	r0, r3
 498              		.loc 1 197 0 discriminator 1
 499 000e AB42     		cmp	r3, r5
 500 0010 08BF     		it	eq
 501 0012 44F00104 		orreq	r4, r4, #1
 502              	.LVL45:
 503              		.loc 1 198 0 discriminator 1
 504 0016 FFF7FEFF 		bl	chRegNextThread
 505              	.LVL46:
 506              		.loc 1 199 0 discriminator 1
 507 001a 0346     		mov	r3, r0
 508 001c 0028     		cmp	r0, #0
ARM GAS  /tmp/ccFub3FT.s 			page 10


 509 001e F5D1     		bne	.L42
 510              		.loc 1 201 0
 511 0020 2046     		mov	r0, r4
 512              	.LVL47:
 513 0022 38BD     		pop	{r3, r4, r5, pc}
 514              		.cfi_endproc
 515              	.LFE12:
 516              		.size	regfind, .-regfind
 517 0024 AFF30080 		.section	.text.dyn3_execute,"ax",%progbits
 517      AFF30080 
 517      AFF30080 
 518              		.align	2
 519              		.p2align 4,,15
 520              		.thumb
 521              		.thumb_func
 522              		.type	dyn3_execute, %function
 523              	dyn3_execute:
 524              	.LFB14:
 525              		.loc 1 208 0
 526              		.cfi_startproc
 527              		@ args = 0, pretend = 0, frame = 0
 528              		@ frame_needed = 0, uses_anonymous_args = 0
 529              	.LVL48:
 530 0000 10B5     		push	{r4, lr}
 531              		.cfi_def_cfa_offset 8
 532              		.cfi_offset 4, -8
 533              		.cfi_offset 14, -4
 534              		.loc 1 210 0
 535 0002 4C4B     		ldr	r3, .L48
 536              		.loc 1 213 0
 537 0004 4C49     		ldr	r1, .L48+4
 538              		.loc 1 210 0
 539 0006 9B69     		ldr	r3, [r3, #24]
 540              		.loc 1 213 0
 541 0008 4C48     		ldr	r0, .L48+8
 542 000a 9A68     		ldr	r2, [r3, #8]
 543 000c 4C4B     		ldr	r3, .L48+12
 544              		.loc 1 208 0
 545 000e 82B0     		sub	sp, sp, #8
 546              		.cfi_def_cfa_offset 16
 547              		.loc 1 213 0
 548 0010 013A     		subs	r2, r2, #1
 549 0012 0091     		str	r1, [sp]
 550              	.LVL49:
 551 0014 4FF49871 		mov	r1, #304
 552 0018 FFF7FEFF 		bl	chThdCreateFromHeap
 553              	.LVL50:
 554 001c 0446     		mov	r4, r0
 555              	.LVL51:
 556              		.loc 1 214 0
 557 001e 0120     		movs	r0, #1
 558              	.LVL52:
 559 0020 94F82210 		ldrb	r1, [r4, #34]	@ zero_extendqisi2
 560 0024 B1EB000C 		subs	ip, r1, r0
 561 0028 DCF10001 		rsbs	r1, ip, #0
 562 002c 51EB0C01 		adcs	r1, r1, ip
 563 0030 FFF7FEFF 		bl	_test_assert
ARM GAS  /tmp/ccFub3FT.s 			page 11


 564              	.LVL53:
 565 0034 08B1     		cbz	r0, .L47
 566              	.L43:
 567              		.loc 1 236 0
 568 0036 02B0     		add	sp, sp, #8
 569              		@ sp needed
 570 0038 10BD     		pop	{r4, pc}
 571              	.LVL54:
 572              	.L47:
 573              		.loc 1 215 0
 574 003a 2046     		mov	r0, r4
 575 003c FFF7FEFF 		bl	chThdAddRef
 576              	.LVL55:
 577              		.loc 1 216 0
 578 0040 94F82210 		ldrb	r1, [r4, #34]	@ zero_extendqisi2
 579 0044 0220     		movs	r0, #2
 580 0046 B1EB000E 		subs	lr, r1, r0
 581 004a DEF10001 		rsbs	r1, lr, #0
 582 004e 51EB0E01 		adcs	r1, r1, lr
 583 0052 FFF7FEFF 		bl	_test_assert
 584              	.LVL56:
 585 0056 0028     		cmp	r0, #0
 586 0058 EDD1     		bne	.L43
 587              		.loc 1 217 0
 588 005a 2046     		mov	r0, r4
 589 005c FFF7FEFF 		bl	chThdRelease
 590              	.LVL57:
 591              		.loc 1 218 0
 592 0060 94F82210 		ldrb	r1, [r4, #34]	@ zero_extendqisi2
 593 0064 4A1E     		subs	r2, r1, #1
 594 0066 5142     		rsbs	r1, r2, #0
 595 0068 5141     		adcs	r1, r1, r2
 596 006a 0320     		movs	r0, #3
 597 006c FFF7FEFF 		bl	_test_assert
 598              	.LVL58:
 599 0070 0028     		cmp	r0, #0
 600 0072 E0D1     		bne	.L43
 601              		.loc 1 221 0
 602 0074 2046     		mov	r0, r4
 603 0076 FFF7FEFF 		bl	regfind
 604              	.LVL59:
 605 007a 0146     		mov	r1, r0
 606 007c 0420     		movs	r0, #4
 607 007e FFF7FEFF 		bl	_test_assert
 608              	.LVL60:
 609 0082 0028     		cmp	r0, #0
 610 0084 D7D1     		bne	.L43
 611              		.loc 1 222 0
 612 0086 2046     		mov	r0, r4
 613 0088 FFF7FEFF 		bl	regfind
 614              	.LVL61:
 615 008c 0146     		mov	r1, r0
 616 008e 0520     		movs	r0, #5
 617 0090 FFF7FEFF 		bl	_test_assert
 618              	.LVL62:
 619 0094 0028     		cmp	r0, #0
 620 0096 CED1     		bne	.L43
ARM GAS  /tmp/ccFub3FT.s 			page 12


 621              		.loc 1 225 0
 622 0098 2046     		mov	r0, r4
 623 009a FFF7FEFF 		bl	chThdRelease
 624              	.LVL63:
 625              		.loc 1 226 0
 626 009e 94F82210 		ldrb	r1, [r4, #34]	@ zero_extendqisi2
 627 00a2 D1F10101 		rsbs	r1, r1, #1
 628 00a6 38BF     		it	cc
 629 00a8 0021     		movcc	r1, #0
 630 00aa 0620     		movs	r0, #6
 631 00ac FFF7FEFF 		bl	_test_assert
 632              	.LVL64:
 633 00b0 0028     		cmp	r0, #0
 634 00b2 C0D1     		bne	.L43
 635              		.loc 1 227 0
 636 00b4 94F82010 		ldrb	r1, [r4, #32]	@ zero_extendqisi2
 637 00b8 D1F10101 		rsbs	r1, r1, #1
 638 00bc 38BF     		it	cc
 639 00be 0021     		movcc	r1, #0
 640 00c0 0720     		movs	r0, #7
 641 00c2 FFF7FEFF 		bl	_test_assert
 642              	.LVL65:
 643 00c6 0028     		cmp	r0, #0
 644 00c8 B5D1     		bne	.L43
 645              		.loc 1 228 0
 646 00ca 2046     		mov	r0, r4
 647 00cc FFF7FEFF 		bl	regfind
 648              	.LVL66:
 649 00d0 0146     		mov	r1, r0
 650 00d2 0820     		movs	r0, #8
 651 00d4 FFF7FEFF 		bl	_test_assert
 652              	.LVL67:
 653 00d8 0028     		cmp	r0, #0
 654 00da ACD1     		bne	.L43
 655              		.loc 1 229 0
 656 00dc 2046     		mov	r0, r4
 657 00de FFF7FEFF 		bl	regfind
 658              	.LVL68:
 659 00e2 0146     		mov	r1, r0
 660 00e4 0920     		movs	r0, #9
 661 00e6 FFF7FEFF 		bl	_test_assert
 662              	.LVL69:
 663 00ea 0028     		cmp	r0, #0
 664 00ec A3D1     		bne	.L43
 665              		.loc 1 230 0
 666 00ee 3220     		movs	r0, #50
 667 00f0 FFF7FEFF 		bl	chThdSleep
 668              	.LVL70:
 669              		.loc 1 231 0
 670 00f4 94F82010 		ldrb	r1, [r4, #32]	@ zero_extendqisi2
 671 00f8 B1F10E03 		subs	r3, r1, #14
 672 00fc 5942     		rsbs	r1, r3, #0
 673 00fe 5941     		adcs	r1, r1, r3
 674 0100 0A20     		movs	r0, #10
 675 0102 FFF7FEFF 		bl	_test_assert
 676              	.LVL71:
 677 0106 0028     		cmp	r0, #0
ARM GAS  /tmp/ccFub3FT.s 			page 13


 678 0108 95D1     		bne	.L43
 679              		.loc 1 234 0
 680 010a 2046     		mov	r0, r4
 681 010c FFF7FEFF 		bl	regfind
 682              	.LVL72:
 683 0110 0146     		mov	r1, r0
 684 0112 0B20     		movs	r0, #11
 685 0114 FFF7FEFF 		bl	_test_assert
 686              	.LVL73:
 687 0118 0028     		cmp	r0, #0
 688 011a 8CD1     		bne	.L43
 689              		.loc 1 235 0
 690 011c 2046     		mov	r0, r4
 691 011e FFF7FEFF 		bl	regfind
 692              	.LVL74:
 693 0122 80F00101 		eor	r1, r0, #1
 694 0126 C9B2     		uxtb	r1, r1
 695 0128 0C20     		movs	r0, #12
 696              		.loc 1 236 0
 697 012a 02B0     		add	sp, sp, #8
 698              		@ sp needed
 699 012c BDE81040 		pop	{r4, lr}
 700              	.LVL75:
 701              		.loc 1 235 0
 702 0130 FFF7FEBF 		b	_test_assert
 703              	.LVL76:
 704              	.L49:
 705              		.align	2
 706              	.L48:
 707 0134 00000000 		.word	rlist
 708 0138 00000000 		.word	.LC0
 709 013c 00000000 		.word	.LANCHOR0
 710 0140 00000000 		.word	thread
 711              		.cfi_endproc
 712              	.LFE14:
 713              		.size	dyn3_execute, .-dyn3_execute
 714              		.global	patterndyn
 715              		.global	testdyn3
 716              		.global	testdyn2
 717              		.global	testdyn1
 718 0144 AFF30080 		.section	.rodata.testdyn1,"a",%progbits
 718      AFF30080 
 718      AFF30080 
 719              		.align	2
 720              		.type	testdyn1, %object
 721              		.size	testdyn1, 16
 722              	testdyn1:
 723 0000 78000000 		.word	.LC9
 724 0004 00000000 		.word	dyn1_setup
 725 0008 00000000 		.word	0
 726 000c 00000000 		.word	dyn1_execute
 727              		.section	.rodata.testdyn2,"a",%progbits
 728              		.align	2
 729              		.type	testdyn2, %object
 730              		.size	testdyn2, 16
 731              	testdyn2:
 732 0000 48000000 		.word	.LC8
ARM GAS  /tmp/ccFub3FT.s 			page 14


 733 0004 00000000 		.word	dyn2_setup
 734 0008 00000000 		.word	0
 735 000c 00000000 		.word	dyn2_execute
 736              		.section	.rodata.testdyn3,"a",%progbits
 737              		.align	2
 738              		.type	testdyn3, %object
 739              		.size	testdyn3, 16
 740              	testdyn3:
 741 0000 20000000 		.word	.LC7
 742 0004 00000000 		.word	dyn3_setup
 743 0008 00000000 		.word	0
 744 000c 00000000 		.word	dyn3_execute
 745              		.section	.bss.mp1,"aw",%nobits
 746              		.align	2
 747              		.set	.LANCHOR1,. + 0
 748              		.type	mp1, %object
 749              		.size	mp1, 12
 750              	mp1:
 751 0000 00000000 		.space	12
 751      00000000 
 751      00000000 
 752              		.section	.rodata.str1.4,"aMS",%progbits,1
 753              		.align	2
 754              	.LC0:
 755 0000 4100     		.ascii	"A\000"
 756 0002 0000     		.space	2
 757              	.LC1:
 758 0004 4200     		.ascii	"B\000"
 759 0006 0000     		.space	2
 760              	.LC2:
 761 0008 4300     		.ascii	"C\000"
 762 000a 0000     		.space	2
 763              	.LC3:
 764 000c 414200   		.ascii	"AB\000"
 765 000f 00       		.space	1
 766              	.LC4:
 767 0010 4400     		.ascii	"D\000"
 768 0012 0000     		.space	2
 769              	.LC5:
 770 0014 4500     		.ascii	"E\000"
 771 0016 0000     		.space	2
 772              	.LC6:
 773 0018 41424344 		.ascii	"ABCD\000"
 773      00
 774 001d 000000   		.space	3
 775              	.LC7:
 776 0020 44796E61 		.ascii	"Dynamic APIs, registry and references\000"
 776      6D696320 
 776      41504973 
 776      2C207265 
 776      67697374 
 777 0046 0000     		.space	2
 778              	.LC8:
 779 0048 44796E61 		.ascii	"Dynamic APIs, threads creation from memory pool\000"
 779      6D696320 
 779      41504973 
 779      2C207468 
ARM GAS  /tmp/ccFub3FT.s 			page 15


 779      72656164 
 780              	.LC9:
 781 0078 44796E61 		.ascii	"Dynamic APIs, threads creation from heap\000"
 781      6D696320 
 781      41504973 
 781      2C207468 
 781      72656164 
 782 00a1 000000   		.section	.rodata.patterndyn,"a",%progbits
 783              		.align	2
 784              		.type	patterndyn, %object
 785              		.size	patterndyn, 16
 786              	patterndyn:
 787 0000 00000000 		.word	testdyn1
 788 0004 00000000 		.word	testdyn2
 789 0008 00000000 		.word	testdyn3
 790 000c 00000000 		.word	0
 791              		.section	.bss.heap1,"aw",%nobits
 792              		.align	3
 793              		.set	.LANCHOR0,. + 0
 794              		.type	heap1, %object
 795              		.size	heap1, 32
 796              	heap1:
 797 0000 00000000 		.space	32
 797      00000000 
 797      00000000 
 797      00000000 
 797      00000000 
 798              		.text
 799              	.Letext0:
 800              		.file 2 "/usr/lib/gcc/arm-none-eabi/4.8.3/include/stddef.h"
 801              		.file 3 "/usr/arm-none-eabi/include/stdint.h"
 802              		.file 4 "../../../os/ports/GCC/ARMCMx/chtypes.h"
 803              		.file 5 "../../../os/kernel/include/chlists.h"
 804              		.file 6 "../../../os/kernel/include/chthreads.h"
 805              		.file 7 "../../../os/ports/GCC/ARMCMx/chcore_v7m.h"
 806              		.file 8 "../../../os/kernel/include/chschd.h"
 807              		.file 9 "../../../os/kernel/include/chmtx.h"
 808              		.file 10 "../../../os/kernel/include/chmemcore.h"
 809              		.file 11 "../../../os/kernel/include/chheap.h"
 810              		.file 12 "../../../os/kernel/include/chmempools.h"
 811              		.file 13 "../../../test/test.h"
 812              		.file 14 "../../../os/kernel/include/chdynamic.h"
 813              		.file 15 "../../../os/kernel/include/chregistry.h"
 814              		.section	.debug_info,"",%progbits
 815              	.Ldebug_info0:
 816 0000 4E0F0000 		.4byte	0xf4e
 817 0004 0400     		.2byte	0x4
 818 0006 00000000 		.4byte	.Ldebug_abbrev0
 819 000a 04       		.byte	0x4
 820 000b 01       		.uleb128 0x1
 821 000c 27030000 		.4byte	.LASF126
 822 0010 01       		.byte	0x1
 823 0011 02060000 		.4byte	.LASF127
 824 0015 07020000 		.4byte	.LASF128
 825 0019 00000000 		.4byte	.Ldebug_ranges0+0
 826 001d 00000000 		.4byte	0
 827 0021 00000000 		.4byte	.Ldebug_line0
ARM GAS  /tmp/ccFub3FT.s 			page 16


 828 0025 02       		.uleb128 0x2
 829 0026 04       		.byte	0x4
 830 0027 05       		.byte	0x5
 831 0028 696E7400 		.ascii	"int\000"
 832 002c 03       		.uleb128 0x3
 833 002d 0E000000 		.4byte	.LASF2
 834 0031 02       		.byte	0x2
 835 0032 D4       		.byte	0xd4
 836 0033 37000000 		.4byte	0x37
 837 0037 04       		.uleb128 0x4
 838 0038 04       		.byte	0x4
 839 0039 07       		.byte	0x7
 840 003a 88010000 		.4byte	.LASF0
 841 003e 04       		.uleb128 0x4
 842 003f 01       		.byte	0x1
 843 0040 06       		.byte	0x6
 844 0041 AF000000 		.4byte	.LASF1
 845 0045 03       		.uleb128 0x3
 846 0046 AA050000 		.4byte	.LASF3
 847 004a 03       		.byte	0x3
 848 004b 2A       		.byte	0x2a
 849 004c 50000000 		.4byte	0x50
 850 0050 04       		.uleb128 0x4
 851 0051 01       		.byte	0x1
 852 0052 08       		.byte	0x8
 853 0053 16040000 		.4byte	.LASF4
 854 0057 04       		.uleb128 0x4
 855 0058 02       		.byte	0x2
 856 0059 05       		.byte	0x5
 857 005a 39040000 		.4byte	.LASF5
 858 005e 04       		.uleb128 0x4
 859 005f 02       		.byte	0x2
 860 0060 07       		.byte	0x7
 861 0061 CD010000 		.4byte	.LASF6
 862 0065 03       		.uleb128 0x3
 863 0066 0E040000 		.4byte	.LASF7
 864 006a 03       		.byte	0x3
 865 006b 4F       		.byte	0x4f
 866 006c 70000000 		.4byte	0x70
 867 0070 04       		.uleb128 0x4
 868 0071 04       		.byte	0x4
 869 0072 05       		.byte	0x5
 870 0073 FD000000 		.4byte	.LASF8
 871 0077 03       		.uleb128 0x3
 872 0078 C5040000 		.4byte	.LASF9
 873 007c 03       		.byte	0x3
 874 007d 50       		.byte	0x50
 875 007e 82000000 		.4byte	0x82
 876 0082 04       		.uleb128 0x4
 877 0083 04       		.byte	0x4
 878 0084 07       		.byte	0x7
 879 0085 95010000 		.4byte	.LASF10
 880 0089 04       		.uleb128 0x4
 881 008a 08       		.byte	0x8
 882 008b 05       		.byte	0x5
 883 008c A1000000 		.4byte	.LASF11
 884 0090 03       		.uleb128 0x3
ARM GAS  /tmp/ccFub3FT.s 			page 17


 885 0091 21000000 		.4byte	.LASF12
 886 0095 03       		.byte	0x3
 887 0096 78       		.byte	0x78
 888 0097 9B000000 		.4byte	0x9b
 889 009b 04       		.uleb128 0x4
 890 009c 08       		.byte	0x8
 891 009d 07       		.byte	0x7
 892 009e 42000000 		.4byte	.LASF13
 893 00a2 03       		.uleb128 0x3
 894 00a3 C9000000 		.4byte	.LASF14
 895 00a7 04       		.byte	0x4
 896 00a8 24       		.byte	0x24
 897 00a9 AD000000 		.4byte	0xad
 898 00ad 04       		.uleb128 0x4
 899 00ae 01       		.byte	0x1
 900 00af 02       		.byte	0x2
 901 00b0 08040000 		.4byte	.LASF15
 902 00b4 03       		.uleb128 0x3
 903 00b5 F3010000 		.4byte	.LASF16
 904 00b9 04       		.byte	0x4
 905 00ba 25       		.byte	0x25
 906 00bb 45000000 		.4byte	0x45
 907 00bf 03       		.uleb128 0x3
 908 00c0 1A010000 		.4byte	.LASF17
 909 00c4 04       		.byte	0x4
 910 00c5 26       		.byte	0x26
 911 00c6 45000000 		.4byte	0x45
 912 00ca 03       		.uleb128 0x3
 913 00cb 08030000 		.4byte	.LASF18
 914 00cf 04       		.byte	0x4
 915 00d0 27       		.byte	0x27
 916 00d1 45000000 		.4byte	0x45
 917 00d5 03       		.uleb128 0x3
 918 00d6 F3000000 		.4byte	.LASF19
 919 00da 04       		.byte	0x4
 920 00db 28       		.byte	0x28
 921 00dc 45000000 		.4byte	0x45
 922 00e0 03       		.uleb128 0x3
 923 00e1 1F030000 		.4byte	.LASF20
 924 00e5 04       		.byte	0x4
 925 00e6 29       		.byte	0x29
 926 00e7 77000000 		.4byte	0x77
 927 00eb 03       		.uleb128 0x3
 928 00ec ED010000 		.4byte	.LASF21
 929 00f0 04       		.byte	0x4
 930 00f1 2A       		.byte	0x2a
 931 00f2 65000000 		.4byte	0x65
 932 00f6 03       		.uleb128 0x3
 933 00f7 37020000 		.4byte	.LASF22
 934 00fb 04       		.byte	0x4
 935 00fc 2C       		.byte	0x2c
 936 00fd 77000000 		.4byte	0x77
 937 0101 03       		.uleb128 0x3
 938 0102 21050000 		.4byte	.LASF23
 939 0106 04       		.byte	0x4
 940 0107 2E       		.byte	0x2e
 941 0108 77000000 		.4byte	0x77
ARM GAS  /tmp/ccFub3FT.s 			page 18


 942 010c 03       		.uleb128 0x3
 943 010d 93040000 		.4byte	.LASF24
 944 0111 05       		.byte	0x5
 945 0112 23       		.byte	0x23
 946 0113 17010000 		.4byte	0x117
 947 0117 05       		.uleb128 0x5
 948 0118 93040000 		.4byte	.LASF24
 949 011c 4C       		.byte	0x4c
 950 011d 06       		.byte	0x6
 951 011e 57       		.byte	0x57
 952 011f 20020000 		.4byte	0x220
 953 0123 06       		.uleb128 0x6
 954 0124 77040000 		.4byte	.LASF25
 955 0128 06       		.byte	0x6
 956 0129 58       		.byte	0x58
 957 012a 41020000 		.4byte	0x241
 958 012e 00       		.byte	0
 959 012f 06       		.uleb128 0x6
 960 0130 10030000 		.4byte	.LASF26
 961 0134 06       		.byte	0x6
 962 0135 5A       		.byte	0x5a
 963 0136 41020000 		.4byte	0x241
 964 013a 04       		.byte	0x4
 965 013b 06       		.uleb128 0x6
 966 013c 8F000000 		.4byte	.LASF27
 967 0140 06       		.byte	0x6
 968 0141 5C       		.byte	0x5c
 969 0142 E0000000 		.4byte	0xe0
 970 0146 08       		.byte	0x8
 971 0147 06       		.uleb128 0x6
 972 0148 EC050000 		.4byte	.LASF28
 973 014c 06       		.byte	0x6
 974 014d 5D       		.byte	0x5d
 975 014e 06030000 		.4byte	0x306
 976 0152 0C       		.byte	0xc
 977 0153 06       		.uleb128 0x6
 978 0154 38010000 		.4byte	.LASF29
 979 0158 06       		.byte	0x6
 980 0159 5F       		.byte	0x5f
 981 015a 41020000 		.4byte	0x241
 982 015e 10       		.byte	0x10
 983 015f 06       		.uleb128 0x6
 984 0160 9D020000 		.4byte	.LASF30
 985 0164 06       		.byte	0x6
 986 0165 60       		.byte	0x60
 987 0166 41020000 		.4byte	0x241
 988 016a 14       		.byte	0x14
 989 016b 06       		.uleb128 0x6
 990 016c D0050000 		.4byte	.LASF31
 991 0170 06       		.byte	0x6
 992 0171 67       		.byte	0x67
 993 0172 24050000 		.4byte	0x524
 994 0176 18       		.byte	0x18
 995 0177 06       		.uleb128 0x6
 996 0178 7D010000 		.4byte	.LASF32
 997 017c 06       		.byte	0x6
 998 017d 6D       		.byte	0x6d
ARM GAS  /tmp/ccFub3FT.s 			page 19


 999 017e 36050000 		.4byte	0x536
 1000 0182 1C       		.byte	0x1c
 1001 0183 06       		.uleb128 0x6
 1002 0184 43040000 		.4byte	.LASF33
 1003 0188 06       		.byte	0x6
 1004 0189 72       		.byte	0x72
 1005 018a BF000000 		.4byte	0xbf
 1006 018e 20       		.byte	0x20
 1007 018f 06       		.uleb128 0x6
 1008 0190 7E040000 		.4byte	.LASF34
 1009 0194 06       		.byte	0x6
 1010 0195 76       		.byte	0x76
 1011 0196 B4000000 		.4byte	0xb4
 1012 019a 21       		.byte	0x21
 1013 019b 06       		.uleb128 0x6
 1014 019c 8B050000 		.4byte	.LASF35
 1015 01a0 06       		.byte	0x6
 1016 01a1 7B       		.byte	0x7b
 1017 01a2 CA000000 		.4byte	0xca
 1018 01a6 22       		.byte	0x22
 1019 01a7 06       		.uleb128 0x6
 1020 01a8 4B040000 		.4byte	.LASF36
 1021 01ac 06       		.byte	0x6
 1022 01ad 81       		.byte	0x81
 1023 01ae D5000000 		.4byte	0xd5
 1024 01b2 23       		.byte	0x23
 1025 01b3 06       		.uleb128 0x6
 1026 01b4 48050000 		.4byte	.LASF37
 1027 01b8 06       		.byte	0x6
 1028 01b9 88       		.byte	0x88
 1029 01ba 2E030000 		.4byte	0x32e
 1030 01be 24       		.byte	0x24
 1031 01bf 07       		.uleb128 0x7
 1032 01c0 705F7500 		.ascii	"p_u\000"
 1033 01c4 06       		.byte	0x6
 1034 01c5 AD       		.byte	0xad
 1035 01c6 EF040000 		.4byte	0x4ef
 1036 01ca 28       		.byte	0x28
 1037 01cb 06       		.uleb128 0x6
 1038 01cc F2050000 		.4byte	.LASF38
 1039 01d0 06       		.byte	0x6
 1040 01d1 B2       		.byte	0xb2
 1041 01d2 67020000 		.4byte	0x267
 1042 01d6 2C       		.byte	0x2c
 1043 01d7 06       		.uleb128 0x6
 1044 01d8 56050000 		.4byte	.LASF39
 1045 01dc 06       		.byte	0x6
 1046 01dd B8       		.byte	0xb8
 1047 01de 47020000 		.4byte	0x247
 1048 01e2 30       		.byte	0x30
 1049 01e3 06       		.uleb128 0x6
 1050 01e4 08000000 		.4byte	.LASF40
 1051 01e8 06       		.byte	0x6
 1052 01e9 BC       		.byte	0xbc
 1053 01ea EB000000 		.4byte	0xeb
 1054 01ee 38       		.byte	0x38
 1055 01ef 06       		.uleb128 0x6
ARM GAS  /tmp/ccFub3FT.s 			page 20


 1056 01f0 AF040000 		.4byte	.LASF41
 1057 01f4 06       		.byte	0x6
 1058 01f5 C2       		.byte	0xc2
 1059 01f6 F6000000 		.4byte	0xf6
 1060 01fa 3C       		.byte	0x3c
 1061 01fb 06       		.uleb128 0x6
 1062 01fc 2F040000 		.4byte	.LASF42
 1063 0200 06       		.byte	0x6
 1064 0201 C9       		.byte	0xc9
 1065 0202 3C050000 		.4byte	0x53c
 1066 0206 40       		.byte	0x40
 1067 0207 06       		.uleb128 0x6
 1068 0208 2B050000 		.4byte	.LASF43
 1069 020c 06       		.byte	0x6
 1070 020d CD       		.byte	0xcd
 1071 020e E0000000 		.4byte	0xe0
 1072 0212 44       		.byte	0x44
 1073 0213 06       		.uleb128 0x6
 1074 0214 C1000000 		.4byte	.LASF44
 1075 0218 06       		.byte	0x6
 1076 0219 D3       		.byte	0xd3
 1077 021a 7D020000 		.4byte	0x27d
 1078 021e 48       		.byte	0x48
 1079 021f 00       		.byte	0
 1080 0220 08       		.uleb128 0x8
 1081 0221 08       		.byte	0x8
 1082 0222 05       		.byte	0x5
 1083 0223 5A       		.byte	0x5a
 1084 0224 41020000 		.4byte	0x241
 1085 0228 06       		.uleb128 0x6
 1086 0229 77040000 		.4byte	.LASF25
 1087 022d 05       		.byte	0x5
 1088 022e 5B       		.byte	0x5b
 1089 022f 41020000 		.4byte	0x241
 1090 0233 00       		.byte	0
 1091 0234 06       		.uleb128 0x6
 1092 0235 10030000 		.4byte	.LASF26
 1093 0239 05       		.byte	0x5
 1094 023a 5D       		.byte	0x5d
 1095 023b 41020000 		.4byte	0x241
 1096 023f 04       		.byte	0x4
 1097 0240 00       		.byte	0
 1098 0241 09       		.uleb128 0x9
 1099 0242 04       		.byte	0x4
 1100 0243 0C010000 		.4byte	0x10c
 1101 0247 03       		.uleb128 0x3
 1102 0248 AB020000 		.4byte	.LASF45
 1103 024c 05       		.byte	0x5
 1104 024d 5F       		.byte	0x5f
 1105 024e 20020000 		.4byte	0x220
 1106 0252 08       		.uleb128 0x8
 1107 0253 04       		.byte	0x4
 1108 0254 05       		.byte	0x5
 1109 0255 64       		.byte	0x64
 1110 0256 67020000 		.4byte	0x267
 1111 025a 06       		.uleb128 0x6
 1112 025b 77040000 		.4byte	.LASF25
ARM GAS  /tmp/ccFub3FT.s 			page 21


 1113 025f 05       		.byte	0x5
 1114 0260 66       		.byte	0x66
 1115 0261 41020000 		.4byte	0x241
 1116 0265 00       		.byte	0
 1117 0266 00       		.byte	0
 1118 0267 03       		.uleb128 0x3
 1119 0268 FB010000 		.4byte	.LASF46
 1120 026c 05       		.byte	0x5
 1121 026d 69       		.byte	0x69
 1122 026e 52020000 		.4byte	0x252
 1123 0272 03       		.uleb128 0x3
 1124 0273 6E010000 		.4byte	.LASF47
 1125 0277 07       		.byte	0x7
 1126 0278 DE       		.byte	0xde
 1127 0279 7D020000 		.4byte	0x27d
 1128 027d 0A       		.uleb128 0xa
 1129 027e 04       		.byte	0x4
 1130 027f 03       		.uleb128 0x3
 1131 0280 55020000 		.4byte	.LASF48
 1132 0284 07       		.byte	0x7
 1133 0285 E4       		.byte	0xe4
 1134 0286 90000000 		.4byte	0x90
 1135 028a 0B       		.uleb128 0xb
 1136 028b 4F050000 		.4byte	.LASF49
 1137 028f 24       		.byte	0x24
 1138 0290 07       		.byte	0x7
 1139 0291 0501     		.2byte	0x105
 1140 0293 06030000 		.4byte	0x306
 1141 0297 0C       		.uleb128 0xc
 1142 0298 723400   		.ascii	"r4\000"
 1143 029b 07       		.byte	0x7
 1144 029c 1801     		.2byte	0x118
 1145 029e 72020000 		.4byte	0x272
 1146 02a2 00       		.byte	0
 1147 02a3 0C       		.uleb128 0xc
 1148 02a4 723500   		.ascii	"r5\000"
 1149 02a7 07       		.byte	0x7
 1150 02a8 1901     		.2byte	0x119
 1151 02aa 72020000 		.4byte	0x272
 1152 02ae 04       		.byte	0x4
 1153 02af 0C       		.uleb128 0xc
 1154 02b0 723600   		.ascii	"r6\000"
 1155 02b3 07       		.byte	0x7
 1156 02b4 1A01     		.2byte	0x11a
 1157 02b6 72020000 		.4byte	0x272
 1158 02ba 08       		.byte	0x8
 1159 02bb 0C       		.uleb128 0xc
 1160 02bc 723700   		.ascii	"r7\000"
 1161 02bf 07       		.byte	0x7
 1162 02c0 1B01     		.2byte	0x11b
 1163 02c2 72020000 		.4byte	0x272
 1164 02c6 0C       		.byte	0xc
 1165 02c7 0C       		.uleb128 0xc
 1166 02c8 723800   		.ascii	"r8\000"
 1167 02cb 07       		.byte	0x7
 1168 02cc 1C01     		.2byte	0x11c
 1169 02ce 72020000 		.4byte	0x272
ARM GAS  /tmp/ccFub3FT.s 			page 22


 1170 02d2 10       		.byte	0x10
 1171 02d3 0C       		.uleb128 0xc
 1172 02d4 723900   		.ascii	"r9\000"
 1173 02d7 07       		.byte	0x7
 1174 02d8 1D01     		.2byte	0x11d
 1175 02da 72020000 		.4byte	0x272
 1176 02de 14       		.byte	0x14
 1177 02df 0C       		.uleb128 0xc
 1178 02e0 72313000 		.ascii	"r10\000"
 1179 02e4 07       		.byte	0x7
 1180 02e5 1E01     		.2byte	0x11e
 1181 02e7 72020000 		.4byte	0x272
 1182 02eb 18       		.byte	0x18
 1183 02ec 0C       		.uleb128 0xc
 1184 02ed 72313100 		.ascii	"r11\000"
 1185 02f1 07       		.byte	0x7
 1186 02f2 1F01     		.2byte	0x11f
 1187 02f4 72020000 		.4byte	0x272
 1188 02f8 1C       		.byte	0x1c
 1189 02f9 0C       		.uleb128 0xc
 1190 02fa 6C7200   		.ascii	"lr\000"
 1191 02fd 07       		.byte	0x7
 1192 02fe 2001     		.2byte	0x120
 1193 0300 72020000 		.4byte	0x272
 1194 0304 20       		.byte	0x20
 1195 0305 00       		.byte	0
 1196 0306 0B       		.uleb128 0xb
 1197 0307 C0010000 		.4byte	.LASF50
 1198 030b 04       		.byte	0x4
 1199 030c 07       		.byte	0x7
 1200 030d 2A01     		.2byte	0x12a
 1201 030f 21030000 		.4byte	0x321
 1202 0313 0C       		.uleb128 0xc
 1203 0314 72313300 		.ascii	"r13\000"
 1204 0318 07       		.byte	0x7
 1205 0319 2B01     		.2byte	0x12b
 1206 031b 21030000 		.4byte	0x321
 1207 031f 00       		.byte	0
 1208 0320 00       		.byte	0
 1209 0321 09       		.uleb128 0x9
 1210 0322 04       		.byte	0x4
 1211 0323 8A020000 		.4byte	0x28a
 1212 0327 04       		.uleb128 0x4
 1213 0328 04       		.byte	0x4
 1214 0329 07       		.byte	0x7
 1215 032a 60020000 		.4byte	.LASF51
 1216 032e 0D       		.uleb128 0xd
 1217 032f 01010000 		.4byte	0x101
 1218 0333 08       		.uleb128 0x8
 1219 0334 1C       		.byte	0x1c
 1220 0335 08       		.byte	0x8
 1221 0336 57       		.byte	0x57
 1222 0337 84030000 		.4byte	0x384
 1223 033b 06       		.uleb128 0x6
 1224 033c CE040000 		.4byte	.LASF52
 1225 0340 08       		.byte	0x8
 1226 0341 58       		.byte	0x58
ARM GAS  /tmp/ccFub3FT.s 			page 23


 1227 0342 47020000 		.4byte	0x247
 1228 0346 00       		.byte	0
 1229 0347 06       		.uleb128 0x6
 1230 0348 5D040000 		.4byte	.LASF53
 1231 034c 08       		.byte	0x8
 1232 034d 59       		.byte	0x59
 1233 034e E0000000 		.4byte	0xe0
 1234 0352 08       		.byte	0x8
 1235 0353 06       		.uleb128 0x6
 1236 0354 A5020000 		.4byte	.LASF54
 1237 0358 08       		.byte	0x8
 1238 0359 5B       		.byte	0x5b
 1239 035a 06030000 		.4byte	0x306
 1240 035e 0C       		.byte	0xc
 1241 035f 06       		.uleb128 0x6
 1242 0360 5A010000 		.4byte	.LASF55
 1243 0364 08       		.byte	0x8
 1244 0365 5E       		.byte	0x5e
 1245 0366 41020000 		.4byte	0x241
 1246 036a 10       		.byte	0x10
 1247 036b 06       		.uleb128 0x6
 1248 036c ED020000 		.4byte	.LASF56
 1249 0370 08       		.byte	0x8
 1250 0371 5F       		.byte	0x5f
 1251 0372 41020000 		.4byte	0x241
 1252 0376 14       		.byte	0x14
 1253 0377 06       		.uleb128 0x6
 1254 0378 E3020000 		.4byte	.LASF57
 1255 037c 08       		.byte	0x8
 1256 037d 62       		.byte	0x62
 1257 037e 41020000 		.4byte	0x241
 1258 0382 18       		.byte	0x18
 1259 0383 00       		.byte	0
 1260 0384 03       		.uleb128 0x3
 1261 0385 92050000 		.4byte	.LASF58
 1262 0389 08       		.byte	0x8
 1263 038a 64       		.byte	0x64
 1264 038b 33030000 		.4byte	0x333
 1265 038f 05       		.uleb128 0x5
 1266 0390 43020000 		.4byte	.LASF59
 1267 0394 10       		.byte	0x10
 1268 0395 09       		.byte	0x9
 1269 0396 25       		.byte	0x25
 1270 0397 C0030000 		.4byte	0x3c0
 1271 039b 06       		.uleb128 0x6
 1272 039c D0000000 		.4byte	.LASF60
 1273 03a0 09       		.byte	0x9
 1274 03a1 26       		.byte	0x26
 1275 03a2 47020000 		.4byte	0x247
 1276 03a6 00       		.byte	0
 1277 03a7 06       		.uleb128 0x6
 1278 03a8 E4050000 		.4byte	.LASF61
 1279 03ac 09       		.byte	0x9
 1280 03ad 28       		.byte	0x28
 1281 03ae 41020000 		.4byte	0x241
 1282 03b2 08       		.byte	0x8
 1283 03b3 06       		.uleb128 0x6
ARM GAS  /tmp/ccFub3FT.s 			page 24


 1284 03b4 1A050000 		.4byte	.LASF62
 1285 03b8 09       		.byte	0x9
 1286 03b9 2A       		.byte	0x2a
 1287 03ba C0030000 		.4byte	0x3c0
 1288 03be 0C       		.byte	0xc
 1289 03bf 00       		.byte	0
 1290 03c0 09       		.uleb128 0x9
 1291 03c1 04       		.byte	0x4
 1292 03c2 8F030000 		.4byte	0x38f
 1293 03c6 03       		.uleb128 0x3
 1294 03c7 43020000 		.4byte	.LASF59
 1295 03cb 09       		.byte	0x9
 1296 03cc 2C       		.byte	0x2c
 1297 03cd 8F030000 		.4byte	0x38f
 1298 03d1 03       		.uleb128 0x3
 1299 03d2 35000000 		.4byte	.LASF63
 1300 03d6 0A       		.byte	0xa
 1301 03d7 25       		.byte	0x25
 1302 03d8 DC030000 		.4byte	0x3dc
 1303 03dc 09       		.uleb128 0x9
 1304 03dd 04       		.byte	0x4
 1305 03de E2030000 		.4byte	0x3e2
 1306 03e2 0E       		.uleb128 0xe
 1307 03e3 7D020000 		.4byte	0x27d
 1308 03e7 F1030000 		.4byte	0x3f1
 1309 03eb 0F       		.uleb128 0xf
 1310 03ec 2C000000 		.4byte	0x2c
 1311 03f0 00       		.byte	0
 1312 03f1 03       		.uleb128 0x3
 1313 03f2 F5020000 		.4byte	.LASF64
 1314 03f6 0B       		.byte	0xb
 1315 03f7 2D       		.byte	0x2d
 1316 03f8 FC030000 		.4byte	0x3fc
 1317 03fc 05       		.uleb128 0x5
 1318 03fd 69020000 		.4byte	.LASF65
 1319 0401 20       		.byte	0x20
 1320 0402 0B       		.byte	0xb
 1321 0403 40       		.byte	0x40
 1322 0404 2D040000 		.4byte	0x42d
 1323 0408 06       		.uleb128 0x6
 1324 0409 24040000 		.4byte	.LASF66
 1325 040d 0B       		.byte	0xb
 1326 040e 41       		.byte	0x41
 1327 040f D1030000 		.4byte	0x3d1
 1328 0413 00       		.byte	0
 1329 0414 06       		.uleb128 0x6
 1330 0415 62000000 		.4byte	.LASF67
 1331 0419 0B       		.byte	0xb
 1332 041a 43       		.byte	0x43
 1333 041b 4C040000 		.4byte	0x44c
 1334 041f 08       		.byte	0x8
 1335 0420 06       		.uleb128 0x6
 1336 0421 BB000000 		.4byte	.LASF68
 1337 0425 0B       		.byte	0xb
 1338 0426 45       		.byte	0x45
 1339 0427 C6030000 		.4byte	0x3c6
 1340 042b 10       		.byte	0x10
ARM GAS  /tmp/ccFub3FT.s 			page 25


 1341 042c 00       		.byte	0
 1342 042d 10       		.uleb128 0x10
 1343 042e 04       		.byte	0x4
 1344 042f 0B       		.byte	0xb
 1345 0430 35       		.byte	0x35
 1346 0431 4C040000 		.4byte	0x44c
 1347 0435 11       		.uleb128 0x11
 1348 0436 8A000000 		.4byte	.LASF69
 1349 043a 0B       		.byte	0xb
 1350 043b 36       		.byte	0x36
 1351 043c 6D040000 		.4byte	0x46d
 1352 0440 11       		.uleb128 0x11
 1353 0441 D6040000 		.4byte	.LASF70
 1354 0445 0B       		.byte	0xb
 1355 0446 37       		.byte	0x37
 1356 0447 73040000 		.4byte	0x473
 1357 044b 00       		.byte	0
 1358 044c 12       		.uleb128 0x12
 1359 044d 64040000 		.4byte	.LASF90
 1360 0451 08       		.byte	0x8
 1361 0452 0B       		.byte	0xb
 1362 0453 32       		.byte	0x32
 1363 0454 6D040000 		.4byte	0x46d
 1364 0458 11       		.uleb128 0x11
 1365 0459 77010000 		.4byte	.LASF71
 1366 045d 0B       		.byte	0xb
 1367 045e 33       		.byte	0x33
 1368 045f 7F020000 		.4byte	0x27f
 1369 0463 13       		.uleb128 0x13
 1370 0464 6800     		.ascii	"h\000"
 1371 0466 0B       		.byte	0xb
 1372 0467 3A       		.byte	0x3a
 1373 0468 79040000 		.4byte	0x479
 1374 046c 00       		.byte	0
 1375 046d 09       		.uleb128 0x9
 1376 046e 04       		.byte	0x4
 1377 046f 4C040000 		.4byte	0x44c
 1378 0473 09       		.uleb128 0x9
 1379 0474 04       		.byte	0x4
 1380 0475 F1030000 		.4byte	0x3f1
 1381 0479 08       		.uleb128 0x8
 1382 047a 08       		.byte	0x8
 1383 047b 0B       		.byte	0xb
 1384 047c 34       		.byte	0x34
 1385 047d 98040000 		.4byte	0x498
 1386 0481 07       		.uleb128 0x7
 1387 0482 7500     		.ascii	"u\000"
 1388 0484 0B       		.byte	0xb
 1389 0485 38       		.byte	0x38
 1390 0486 2D040000 		.4byte	0x42d
 1391 048a 00       		.byte	0
 1392 048b 06       		.uleb128 0x6
 1393 048c C8010000 		.4byte	.LASF72
 1394 0490 0B       		.byte	0xb
 1395 0491 39       		.byte	0x39
 1396 0492 2C000000 		.4byte	0x2c
 1397 0496 04       		.byte	0x4
ARM GAS  /tmp/ccFub3FT.s 			page 26


 1398 0497 00       		.byte	0
 1399 0498 05       		.uleb128 0x5
 1400 0499 7F050000 		.4byte	.LASF73
 1401 049d 04       		.byte	0x4
 1402 049e 0C       		.byte	0xc
 1403 049f 25       		.byte	0x25
 1404 04a0 B1040000 		.4byte	0x4b1
 1405 04a4 06       		.uleb128 0x6
 1406 04a5 00030000 		.4byte	.LASF74
 1407 04a9 0C       		.byte	0xc
 1408 04aa 26       		.byte	0x26
 1409 04ab B1040000 		.4byte	0x4b1
 1410 04af 00       		.byte	0
 1411 04b0 00       		.byte	0
 1412 04b1 09       		.uleb128 0x9
 1413 04b2 04       		.byte	0x4
 1414 04b3 98040000 		.4byte	0x498
 1415 04b7 08       		.uleb128 0x8
 1416 04b8 0C       		.byte	0xc
 1417 04b9 0C       		.byte	0xc
 1418 04ba 2D       		.byte	0x2d
 1419 04bb E4040000 		.4byte	0x4e4
 1420 04bf 06       		.uleb128 0x6
 1421 04c0 23010000 		.4byte	.LASF75
 1422 04c4 0C       		.byte	0xc
 1423 04c5 2E       		.byte	0x2e
 1424 04c6 B1040000 		.4byte	0x4b1
 1425 04ca 00       		.byte	0
 1426 04cb 06       		.uleb128 0x6
 1427 04cc B8020000 		.4byte	.LASF76
 1428 04d0 0C       		.byte	0xc
 1429 04d1 2F       		.byte	0x2f
 1430 04d2 2C000000 		.4byte	0x2c
 1431 04d6 04       		.byte	0x4
 1432 04d7 06       		.uleb128 0x6
 1433 04d8 62010000 		.4byte	.LASF77
 1434 04dc 0C       		.byte	0xc
 1435 04dd 31       		.byte	0x31
 1436 04de D1030000 		.4byte	0x3d1
 1437 04e2 08       		.byte	0x8
 1438 04e3 00       		.byte	0
 1439 04e4 03       		.uleb128 0x3
 1440 04e5 2A000000 		.4byte	.LASF78
 1441 04e9 0C       		.byte	0xc
 1442 04ea 33       		.byte	0x33
 1443 04eb B7040000 		.4byte	0x4b7
 1444 04ef 10       		.uleb128 0x10
 1445 04f0 04       		.byte	0x4
 1446 04f1 06       		.byte	0x6
 1447 04f2 8F       		.byte	0x8f
 1448 04f3 24050000 		.4byte	0x524
 1449 04f7 11       		.uleb128 0x11
 1450 04f8 1A000000 		.4byte	.LASF79
 1451 04fc 06       		.byte	0x6
 1452 04fd 96       		.byte	0x96
 1453 04fe EB000000 		.4byte	0xeb
 1454 0502 11       		.uleb128 0x11
ARM GAS  /tmp/ccFub3FT.s 			page 27


 1455 0503 59000000 		.4byte	.LASF80
 1456 0507 06       		.byte	0x6
 1457 0508 9D       		.byte	0x9d
 1458 0509 EB000000 		.4byte	0xeb
 1459 050d 11       		.uleb128 0x11
 1460 050e C9050000 		.4byte	.LASF81
 1461 0512 06       		.byte	0x6
 1462 0513 A4       		.byte	0xa4
 1463 0514 7D020000 		.4byte	0x27d
 1464 0518 11       		.uleb128 0x11
 1465 0519 70040000 		.4byte	.LASF82
 1466 051d 06       		.byte	0x6
 1467 051e AB       		.byte	0xab
 1468 051f F6000000 		.4byte	0xf6
 1469 0523 00       		.byte	0
 1470 0524 09       		.uleb128 0x9
 1471 0525 04       		.byte	0x4
 1472 0526 2A050000 		.4byte	0x52a
 1473 052a 14       		.uleb128 0x14
 1474 052b 2F050000 		.4byte	0x52f
 1475 052f 04       		.uleb128 0x4
 1476 0530 01       		.byte	0x1
 1477 0531 08       		.byte	0x8
 1478 0532 DB040000 		.4byte	.LASF83
 1479 0536 09       		.uleb128 0x9
 1480 0537 04       		.byte	0x4
 1481 0538 7F020000 		.4byte	0x27f
 1482 053c 09       		.uleb128 0x9
 1483 053d 04       		.byte	0x4
 1484 053e C6030000 		.4byte	0x3c6
 1485 0542 03       		.uleb128 0x3
 1486 0543 00000000 		.4byte	.LASF84
 1487 0547 06       		.byte	0x6
 1488 0548 DE       		.byte	0xde
 1489 0549 4D050000 		.4byte	0x54d
 1490 054d 09       		.uleb128 0x9
 1491 054e 04       		.byte	0x4
 1492 054f 53050000 		.4byte	0x553
 1493 0553 0E       		.uleb128 0xe
 1494 0554 EB000000 		.4byte	0xeb
 1495 0558 62050000 		.4byte	0x562
 1496 055c 0F       		.uleb128 0xf
 1497 055d 7D020000 		.4byte	0x27d
 1498 0561 00       		.byte	0
 1499 0562 05       		.uleb128 0x5
 1500 0563 A6040000 		.4byte	.LASF85
 1501 0567 10       		.byte	0x10
 1502 0568 0D       		.byte	0xd
 1503 0569 3B       		.byte	0x3b
 1504 056a 9F050000 		.4byte	0x59f
 1505 056e 06       		.uleb128 0x6
 1506 056f BB010000 		.4byte	.LASF86
 1507 0573 0D       		.byte	0xd
 1508 0574 3C       		.byte	0x3c
 1509 0575 24050000 		.4byte	0x524
 1510 0579 00       		.byte	0
 1511 057a 06       		.uleb128 0x6
ARM GAS  /tmp/ccFub3FT.s 			page 28


 1512 057b C7020000 		.4byte	.LASF87
 1513 057f 0D       		.byte	0xd
 1514 0580 3D       		.byte	0x3d
 1515 0581 A0050000 		.4byte	0x5a0
 1516 0585 04       		.byte	0x4
 1517 0586 06       		.uleb128 0x6
 1518 0587 A7010000 		.4byte	.LASF88
 1519 058b 0D       		.byte	0xd
 1520 058c 3E       		.byte	0x3e
 1521 058d A0050000 		.4byte	0x5a0
 1522 0591 08       		.byte	0x8
 1523 0592 06       		.uleb128 0x6
 1524 0593 17030000 		.4byte	.LASF89
 1525 0597 0D       		.byte	0xd
 1526 0598 3F       		.byte	0x3f
 1527 0599 A0050000 		.4byte	0x5a0
 1528 059d 0C       		.byte	0xc
 1529 059e 00       		.byte	0
 1530 059f 15       		.uleb128 0x15
 1531 05a0 09       		.uleb128 0x9
 1532 05a1 04       		.byte	0x4
 1533 05a2 9F050000 		.4byte	0x59f
 1534 05a6 16       		.uleb128 0x16
 1535 05a7 F005     		.2byte	0x5f0
 1536 05a9 0D       		.byte	0xd
 1537 05aa 44       		.byte	0x44
 1538 05ab EB050000 		.4byte	0x5eb
 1539 05af 07       		.uleb128 0x7
 1540 05b0 543000   		.ascii	"T0\000"
 1541 05b3 0D       		.byte	0xd
 1542 05b4 45       		.byte	0x45
 1543 05b5 EB050000 		.4byte	0x5eb
 1544 05b9 00       		.byte	0
 1545 05ba 17       		.uleb128 0x17
 1546 05bb 543100   		.ascii	"T1\000"
 1547 05be 0D       		.byte	0xd
 1548 05bf 46       		.byte	0x46
 1549 05c0 EB050000 		.4byte	0x5eb
 1550 05c4 3001     		.2byte	0x130
 1551 05c6 17       		.uleb128 0x17
 1552 05c7 543200   		.ascii	"T2\000"
 1553 05ca 0D       		.byte	0xd
 1554 05cb 47       		.byte	0x47
 1555 05cc EB050000 		.4byte	0x5eb
 1556 05d0 6002     		.2byte	0x260
 1557 05d2 17       		.uleb128 0x17
 1558 05d3 543300   		.ascii	"T3\000"
 1559 05d6 0D       		.byte	0xd
 1560 05d7 48       		.byte	0x48
 1561 05d8 EB050000 		.4byte	0x5eb
 1562 05dc 9003     		.2byte	0x390
 1563 05de 17       		.uleb128 0x17
 1564 05df 543400   		.ascii	"T4\000"
 1565 05e2 0D       		.byte	0xd
 1566 05e3 49       		.byte	0x49
 1567 05e4 EB050000 		.4byte	0x5eb
 1568 05e8 C004     		.2byte	0x4c0
ARM GAS  /tmp/ccFub3FT.s 			page 29


 1569 05ea 00       		.byte	0
 1570 05eb 18       		.uleb128 0x18
 1571 05ec 7F020000 		.4byte	0x27f
 1572 05f0 FB050000 		.4byte	0x5fb
 1573 05f4 19       		.uleb128 0x19
 1574 05f5 27030000 		.4byte	0x327
 1575 05f9 25       		.byte	0x25
 1576 05fa 00       		.byte	0
 1577 05fb 1A       		.uleb128 0x1a
 1578 05fc 72050000 		.4byte	.LASF91
 1579 0600 F005     		.2byte	0x5f0
 1580 0602 0D       		.byte	0xd
 1581 0603 43       		.byte	0x43
 1582 0604 1E060000 		.4byte	0x61e
 1583 0608 13       		.uleb128 0x13
 1584 0609 776100   		.ascii	"wa\000"
 1585 060c 0D       		.byte	0xd
 1586 060d 4A       		.byte	0x4a
 1587 060e A6050000 		.4byte	0x5a6
 1588 0612 11       		.uleb128 0x11
 1589 0613 36050000 		.4byte	.LASF92
 1590 0617 0D       		.byte	0xd
 1591 0618 4B       		.byte	0x4b
 1592 0619 1E060000 		.4byte	0x61e
 1593 061d 00       		.byte	0
 1594 061e 18       		.uleb128 0x18
 1595 061f 45000000 		.4byte	0x45
 1596 0623 2F060000 		.4byte	0x62f
 1597 0627 1B       		.uleb128 0x1b
 1598 0628 27030000 		.4byte	0x327
 1599 062c EF05     		.2byte	0x5ef
 1600 062e 00       		.byte	0
 1601 062f 1C       		.uleb128 0x1c
 1602 0630 2B010000 		.4byte	.LASF94
 1603 0634 01       		.byte	0x1
 1604 0635 53       		.byte	0x53
 1605 0636 00000000 		.4byte	.LFB9
 1606 063a F0000000 		.4byte	.LFE9-.LFB9
 1607 063e 01       		.uleb128 0x1
 1608 063f 9C       		.byte	0x9c
 1609 0640 FA070000 		.4byte	0x7fa
 1610 0644 1D       		.uleb128 0x1d
 1611 0645 6E00     		.ascii	"n\000"
 1612 0647 01       		.byte	0x1
 1613 0648 54       		.byte	0x54
 1614 0649 2C000000 		.4byte	0x2c
 1615 064d 02       		.uleb128 0x2
 1616 064e 91       		.byte	0x91
 1617 064f 68       		.sleb128 -24
 1618 0650 1D       		.uleb128 0x1d
 1619 0651 737A00   		.ascii	"sz\000"
 1620 0654 01       		.byte	0x1
 1621 0655 54       		.byte	0x54
 1622 0656 2C000000 		.4byte	0x2c
 1623 065a 02       		.uleb128 0x2
 1624 065b 91       		.byte	0x91
 1625 065c 6C       		.sleb128 -20
ARM GAS  /tmp/ccFub3FT.s 			page 30


 1626 065d 1E       		.uleb128 0x1e
 1627 065e 703100   		.ascii	"p1\000"
 1628 0661 01       		.byte	0x1
 1629 0662 55       		.byte	0x55
 1630 0663 7D020000 		.4byte	0x27d
 1631 0667 00000000 		.4byte	.LLST0
 1632 066b 1F       		.uleb128 0x1f
 1633 066c 15000000 		.4byte	.LASF93
 1634 0670 01       		.byte	0x1
 1635 0671 56       		.byte	0x56
 1636 0672 E0000000 		.4byte	0xe0
 1637 0676 01       		.uleb128 0x1
 1638 0677 55       		.byte	0x55
 1639 0678 20       		.uleb128 0x20
 1640 0679 14000000 		.4byte	.LVL1
 1641 067d AC0D0000 		.4byte	0xdac
 1642 0681 95060000 		.4byte	0x695
 1643 0685 21       		.uleb128 0x21
 1644 0686 01       		.uleb128 0x1
 1645 0687 51       		.byte	0x51
 1646 0688 02       		.uleb128 0x2
 1647 0689 91       		.byte	0x91
 1648 068a 6C       		.sleb128 -20
 1649 068b 21       		.uleb128 0x21
 1650 068c 01       		.uleb128 0x1
 1651 068d 50       		.byte	0x50
 1652 068e 05       		.uleb128 0x5
 1653 068f 03       		.byte	0x3
 1654 0690 00000000 		.4byte	.LANCHOR0
 1655 0694 00       		.byte	0
 1656 0695 20       		.uleb128 0x20
 1657 0696 26000000 		.4byte	.LVL2
 1658 069a CC0D0000 		.4byte	0xdcc
 1659 069e CC060000 		.4byte	0x6cc
 1660 06a2 21       		.uleb128 0x21
 1661 06a3 01       		.uleb128 0x1
 1662 06a4 53       		.byte	0x53
 1663 06a5 05       		.uleb128 0x5
 1664 06a6 03       		.byte	0x3
 1665 06a7 00000000 		.4byte	thread
 1666 06ab 21       		.uleb128 0x21
 1667 06ac 01       		.uleb128 0x1
 1668 06ad 52       		.byte	0x52
 1669 06ae 02       		.uleb128 0x2
 1670 06af 75       		.byte	0x75
 1671 06b0 7F       		.sleb128 -1
 1672 06b1 21       		.uleb128 0x21
 1673 06b2 01       		.uleb128 0x1
 1674 06b3 51       		.byte	0x51
 1675 06b4 03       		.uleb128 0x3
 1676 06b5 0A       		.byte	0xa
 1677 06b6 3001     		.2byte	0x130
 1678 06b8 21       		.uleb128 0x21
 1679 06b9 01       		.uleb128 0x1
 1680 06ba 50       		.byte	0x50
 1681 06bb 05       		.uleb128 0x5
 1682 06bc 03       		.byte	0x3
ARM GAS  /tmp/ccFub3FT.s 			page 31


 1683 06bd 00000000 		.4byte	.LANCHOR0
 1684 06c1 21       		.uleb128 0x21
 1685 06c2 02       		.uleb128 0x2
 1686 06c3 7D       		.byte	0x7d
 1687 06c4 00       		.sleb128 0
 1688 06c5 05       		.uleb128 0x5
 1689 06c6 03       		.byte	0x3
 1690 06c7 00000000 		.4byte	.LC0
 1691 06cb 00       		.byte	0
 1692 06cc 20       		.uleb128 0x20
 1693 06cd 3A000000 		.4byte	.LVL3
 1694 06d1 CC0D0000 		.4byte	0xdcc
 1695 06d5 03070000 		.4byte	0x703
 1696 06d9 21       		.uleb128 0x21
 1697 06da 01       		.uleb128 0x1
 1698 06db 53       		.byte	0x53
 1699 06dc 05       		.uleb128 0x5
 1700 06dd 03       		.byte	0x3
 1701 06de 00000000 		.4byte	thread
 1702 06e2 21       		.uleb128 0x21
 1703 06e3 01       		.uleb128 0x1
 1704 06e4 52       		.byte	0x52
 1705 06e5 02       		.uleb128 0x2
 1706 06e6 75       		.byte	0x75
 1707 06e7 7E       		.sleb128 -2
 1708 06e8 21       		.uleb128 0x21
 1709 06e9 01       		.uleb128 0x1
 1710 06ea 51       		.byte	0x51
 1711 06eb 03       		.uleb128 0x3
 1712 06ec 0A       		.byte	0xa
 1713 06ed 3001     		.2byte	0x130
 1714 06ef 21       		.uleb128 0x21
 1715 06f0 01       		.uleb128 0x1
 1716 06f1 50       		.byte	0x50
 1717 06f2 05       		.uleb128 0x5
 1718 06f3 03       		.byte	0x3
 1719 06f4 00000000 		.4byte	.LANCHOR0
 1720 06f8 21       		.uleb128 0x21
 1721 06f9 02       		.uleb128 0x2
 1722 06fa 7D       		.byte	0x7d
 1723 06fb 00       		.sleb128 0
 1724 06fc 05       		.uleb128 0x5
 1725 06fd 03       		.byte	0x3
 1726 06fe 04000000 		.4byte	.LC1
 1727 0702 00       		.byte	0
 1728 0703 20       		.uleb128 0x20
 1729 0704 44000000 		.4byte	.LVL4
 1730 0708 AC0D0000 		.4byte	0xdac
 1731 070c 20070000 		.4byte	0x720
 1732 0710 21       		.uleb128 0x21
 1733 0711 01       		.uleb128 0x1
 1734 0712 51       		.byte	0x51
 1735 0713 02       		.uleb128 0x2
 1736 0714 91       		.byte	0x91
 1737 0715 68       		.sleb128 -24
 1738 0716 21       		.uleb128 0x21
 1739 0717 01       		.uleb128 0x1
ARM GAS  /tmp/ccFub3FT.s 			page 32


 1740 0718 50       		.byte	0x50
 1741 0719 05       		.uleb128 0x5
 1742 071a 03       		.byte	0x3
 1743 071b 00000000 		.4byte	.LANCHOR0
 1744 071f 00       		.byte	0
 1745 0720 20       		.uleb128 0x20
 1746 0721 4C000000 		.4byte	.LVL5
 1747 0725 F50D0000 		.4byte	0xdf5
 1748 0729 37070000 		.4byte	0x737
 1749 072d 21       		.uleb128 0x21
 1750 072e 01       		.uleb128 0x1
 1751 072f 50       		.byte	0x50
 1752 0730 05       		.uleb128 0x5
 1753 0731 03       		.byte	0x3
 1754 0732 00000000 		.4byte	.LANCHOR0
 1755 0736 00       		.byte	0
 1756 0737 20       		.uleb128 0x20
 1757 0738 60000000 		.4byte	.LVL8
 1758 073c CC0D0000 		.4byte	0xdcc
 1759 0740 6E070000 		.4byte	0x76e
 1760 0744 21       		.uleb128 0x21
 1761 0745 01       		.uleb128 0x1
 1762 0746 53       		.byte	0x53
 1763 0747 05       		.uleb128 0x5
 1764 0748 03       		.byte	0x3
 1765 0749 00000000 		.4byte	thread
 1766 074d 21       		.uleb128 0x21
 1767 074e 01       		.uleb128 0x1
 1768 074f 52       		.byte	0x52
 1769 0750 02       		.uleb128 0x2
 1770 0751 75       		.byte	0x75
 1771 0752 7D       		.sleb128 -3
 1772 0753 21       		.uleb128 0x21
 1773 0754 01       		.uleb128 0x1
 1774 0755 51       		.byte	0x51
 1775 0756 03       		.uleb128 0x3
 1776 0757 0A       		.byte	0xa
 1777 0758 3001     		.2byte	0x130
 1778 075a 21       		.uleb128 0x21
 1779 075b 01       		.uleb128 0x1
 1780 075c 50       		.byte	0x50
 1781 075d 05       		.uleb128 0x5
 1782 075e 03       		.byte	0x3
 1783 075f 00000000 		.4byte	.LANCHOR0
 1784 0763 21       		.uleb128 0x21
 1785 0764 02       		.uleb128 0x2
 1786 0765 7D       		.byte	0x7d
 1787 0766 00       		.sleb128 0
 1788 0767 05       		.uleb128 0x5
 1789 0768 03       		.byte	0x3
 1790 0769 08000000 		.4byte	.LC2
 1791 076d 00       		.byte	0
 1792 076e 20       		.uleb128 0x20
 1793 076f 68000000 		.4byte	.LVL9
 1794 0773 0F0E0000 		.4byte	0xe0f
 1795 0777 82070000 		.4byte	0x782
 1796 077b 21       		.uleb128 0x21
ARM GAS  /tmp/ccFub3FT.s 			page 33


 1797 077c 01       		.uleb128 0x1
 1798 077d 50       		.byte	0x50
 1799 077e 02       		.uleb128 0x2
 1800 077f 76       		.byte	0x76
 1801 0780 00       		.sleb128 0
 1802 0781 00       		.byte	0
 1803 0782 20       		.uleb128 0x20
 1804 0783 7C000000 		.4byte	.LVL10
 1805 0787 200E0000 		.4byte	0xe20
 1806 078b 95070000 		.4byte	0x795
 1807 078f 21       		.uleb128 0x21
 1808 0790 01       		.uleb128 0x1
 1809 0791 50       		.byte	0x50
 1810 0792 01       		.uleb128 0x1
 1811 0793 31       		.byte	0x31
 1812 0794 00       		.byte	0
 1813 0795 22       		.uleb128 0x22
 1814 0796 86000000 		.4byte	.LVL12
 1815 079a 3A0E0000 		.4byte	0xe3a
 1816 079e 20       		.uleb128 0x20
 1817 079f 8E000000 		.4byte	.LVL13
 1818 07a3 410E0000 		.4byte	0xe41
 1819 07a7 BA070000 		.4byte	0x7ba
 1820 07ab 21       		.uleb128 0x21
 1821 07ac 01       		.uleb128 0x1
 1822 07ad 51       		.byte	0x51
 1823 07ae 05       		.uleb128 0x5
 1824 07af 03       		.byte	0x3
 1825 07b0 0C000000 		.4byte	.LC3
 1826 07b4 21       		.uleb128 0x21
 1827 07b5 01       		.uleb128 0x1
 1828 07b6 50       		.byte	0x50
 1829 07b7 01       		.uleb128 0x1
 1830 07b8 32       		.byte	0x32
 1831 07b9 00       		.byte	0
 1832 07ba 20       		.uleb128 0x20
 1833 07bb 9A000000 		.4byte	.LVL14
 1834 07bf AC0D0000 		.4byte	0xdac
 1835 07c3 D7070000 		.4byte	0x7d7
 1836 07c7 21       		.uleb128 0x21
 1837 07c8 01       		.uleb128 0x1
 1838 07c9 51       		.byte	0x51
 1839 07ca 02       		.uleb128 0x2
 1840 07cb 91       		.byte	0x91
 1841 07cc 68       		.sleb128 -24
 1842 07cd 21       		.uleb128 0x21
 1843 07ce 01       		.uleb128 0x1
 1844 07cf 50       		.byte	0x50
 1845 07d0 05       		.uleb128 0x5
 1846 07d1 03       		.byte	0x3
 1847 07d2 00000000 		.4byte	.LANCHOR0
 1848 07d6 00       		.byte	0
 1849 07d7 20       		.uleb128 0x20
 1850 07d8 A6000000 		.4byte	.LVL15
 1851 07dc 200E0000 		.4byte	0xe20
 1852 07e0 EA070000 		.4byte	0x7ea
 1853 07e4 21       		.uleb128 0x21
ARM GAS  /tmp/ccFub3FT.s 			page 34


 1854 07e5 01       		.uleb128 0x1
 1855 07e6 50       		.byte	0x50
 1856 07e7 01       		.uleb128 0x1
 1857 07e8 33       		.byte	0x33
 1858 07e9 00       		.byte	0
 1859 07ea 23       		.uleb128 0x23
 1860 07eb BA000000 		.4byte	.LVL16
 1861 07ef 200E0000 		.4byte	0xe20
 1862 07f3 21       		.uleb128 0x21
 1863 07f4 01       		.uleb128 0x1
 1864 07f5 50       		.byte	0x50
 1865 07f6 01       		.uleb128 0x1
 1866 07f7 34       		.byte	0x34
 1867 07f8 00       		.byte	0
 1868 07f9 00       		.byte	0
 1869 07fa 24       		.uleb128 0x24
 1870 07fb 01040000 		.4byte	.LASF99
 1871 07ff 01       		.byte	0x1
 1872 0800 47       		.byte	0x47
 1873 0801 EB000000 		.4byte	0xeb
 1874 0805 00000000 		.4byte	.LFB7
 1875 0809 0C000000 		.4byte	.LFE7-.LFB7
 1876 080d 01       		.uleb128 0x1
 1877 080e 9C       		.byte	0x9c
 1878 080f 2A080000 		.4byte	0x82a
 1879 0813 25       		.uleb128 0x25
 1880 0814 7000     		.ascii	"p\000"
 1881 0816 01       		.byte	0x1
 1882 0817 47       		.byte	0x47
 1883 0818 7D020000 		.4byte	0x27d
 1884 081c 1E000000 		.4byte	.LLST1
 1885 0820 22       		.uleb128 0x22
 1886 0821 08000000 		.4byte	.LVL19
 1887 0825 610E0000 		.4byte	0xe61
 1888 0829 00       		.byte	0
 1889 082a 1C       		.uleb128 0x1c
 1890 082b B0010000 		.4byte	.LASF95
 1891 082f 01       		.byte	0x1
 1892 0830 4E       		.byte	0x4e
 1893 0831 00000000 		.4byte	.LFB8
 1894 0835 14000000 		.4byte	.LFE8-.LFB8
 1895 0839 01       		.uleb128 0x1
 1896 083a 9C       		.byte	0x9c
 1897 083b 5A080000 		.4byte	0x85a
 1898 083f 26       		.uleb128 0x26
 1899 0840 0C000000 		.4byte	.LVL20
 1900 0844 720E0000 		.4byte	0xe72
 1901 0848 21       		.uleb128 0x21
 1902 0849 01       		.uleb128 0x1
 1903 084a 52       		.byte	0x52
 1904 084b 03       		.uleb128 0x3
 1905 084c 0A       		.byte	0xa
 1906 084d F005     		.2byte	0x5f0
 1907 084f 21       		.uleb128 0x21
 1908 0850 01       		.uleb128 0x1
 1909 0851 50       		.byte	0x50
 1910 0852 05       		.uleb128 0x5
ARM GAS  /tmp/ccFub3FT.s 			page 35


 1911 0853 03       		.byte	0x3
 1912 0854 00000000 		.4byte	.LANCHOR0
 1913 0858 00       		.byte	0
 1914 0859 00       		.byte	0
 1915 085a 1C       		.uleb128 0x1c
 1916 085b F0040000 		.4byte	.LASF96
 1917 085f 01       		.byte	0x1
 1918 0860 CB       		.byte	0xcb
 1919 0861 00000000 		.4byte	.LFB13
 1920 0865 14000000 		.4byte	.LFE13-.LFB13
 1921 0869 01       		.uleb128 0x1
 1922 086a 9C       		.byte	0x9c
 1923 086b 8A080000 		.4byte	0x88a
 1924 086f 26       		.uleb128 0x26
 1925 0870 0C000000 		.4byte	.LVL21
 1926 0874 720E0000 		.4byte	0xe72
 1927 0878 21       		.uleb128 0x21
 1928 0879 01       		.uleb128 0x1
 1929 087a 52       		.byte	0x52
 1930 087b 03       		.uleb128 0x3
 1931 087c 0A       		.byte	0xa
 1932 087d F005     		.2byte	0x5f0
 1933 087f 21       		.uleb128 0x21
 1934 0880 01       		.uleb128 0x1
 1935 0881 50       		.byte	0x50
 1936 0882 05       		.uleb128 0x5
 1937 0883 03       		.byte	0x3
 1938 0884 00000000 		.4byte	.LANCHOR0
 1939 0888 00       		.byte	0
 1940 0889 00       		.byte	0
 1941 088a 1C       		.uleb128 0x1c
 1942 088b E0010000 		.4byte	.LASF97
 1943 088f 01       		.byte	0x1
 1944 0890 8D       		.byte	0x8d
 1945 0891 00000000 		.4byte	.LFB11
 1946 0895 F8000000 		.4byte	.LFE11-.LFB11
 1947 0899 01       		.uleb128 0x1
 1948 089a 9C       		.byte	0x9c
 1949 089b 460A0000 		.4byte	0xa46
 1950 089f 1E       		.uleb128 0x1e
 1951 08a0 6900     		.ascii	"i\000"
 1952 08a2 01       		.byte	0x1
 1953 08a3 8E       		.byte	0x8e
 1954 08a4 25000000 		.4byte	0x25
 1955 08a8 3F000000 		.4byte	.LLST2
 1956 08ac 27       		.uleb128 0x27
 1957 08ad 15000000 		.4byte	.LASF93
 1958 08b1 01       		.byte	0x1
 1959 08b2 8F       		.byte	0x8f
 1960 08b3 E0000000 		.4byte	0xe0
 1961 08b7 80000000 		.4byte	.LLST3
 1962 08bb 20       		.uleb128 0x20
 1963 08bc 18000000 		.4byte	.LVL24
 1964 08c0 8D0E0000 		.4byte	0xe8d
 1965 08c4 D2080000 		.4byte	0x8d2
 1966 08c8 21       		.uleb128 0x21
 1967 08c9 01       		.uleb128 0x1
ARM GAS  /tmp/ccFub3FT.s 			page 36


 1968 08ca 50       		.byte	0x50
 1969 08cb 05       		.uleb128 0x5
 1970 08cc 03       		.byte	0x3
 1971 08cd 00000000 		.4byte	.LANCHOR1
 1972 08d1 00       		.byte	0
 1973 08d2 20       		.uleb128 0x20
 1974 08d3 2A000000 		.4byte	.LVL25
 1975 08d7 A90E0000 		.4byte	0xea9
 1976 08db 01090000 		.4byte	0x901
 1977 08df 21       		.uleb128 0x21
 1978 08e0 01       		.uleb128 0x1
 1979 08e1 53       		.byte	0x53
 1980 08e2 05       		.uleb128 0x5
 1981 08e3 03       		.byte	0x3
 1982 08e4 00000000 		.4byte	.LC0
 1983 08e8 21       		.uleb128 0x21
 1984 08e9 01       		.uleb128 0x1
 1985 08ea 52       		.byte	0x52
 1986 08eb 05       		.uleb128 0x5
 1987 08ec 03       		.byte	0x3
 1988 08ed 00000000 		.4byte	thread
 1989 08f1 21       		.uleb128 0x21
 1990 08f2 01       		.uleb128 0x1
 1991 08f3 51       		.byte	0x51
 1992 08f4 02       		.uleb128 0x2
 1993 08f5 75       		.byte	0x75
 1994 08f6 7F       		.sleb128 -1
 1995 08f7 21       		.uleb128 0x21
 1996 08f8 01       		.uleb128 0x1
 1997 08f9 50       		.byte	0x50
 1998 08fa 05       		.uleb128 0x5
 1999 08fb 03       		.byte	0x3
 2000 08fc 00000000 		.4byte	.LANCHOR1
 2001 0900 00       		.byte	0
 2002 0901 20       		.uleb128 0x20
 2003 0902 38000000 		.4byte	.LVL26
 2004 0906 A90E0000 		.4byte	0xea9
 2005 090a 30090000 		.4byte	0x930
 2006 090e 21       		.uleb128 0x21
 2007 090f 01       		.uleb128 0x1
 2008 0910 53       		.byte	0x53
 2009 0911 05       		.uleb128 0x5
 2010 0912 03       		.byte	0x3
 2011 0913 04000000 		.4byte	.LC1
 2012 0917 21       		.uleb128 0x21
 2013 0918 01       		.uleb128 0x1
 2014 0919 52       		.byte	0x52
 2015 091a 05       		.uleb128 0x5
 2016 091b 03       		.byte	0x3
 2017 091c 00000000 		.4byte	thread
 2018 0920 21       		.uleb128 0x21
 2019 0921 01       		.uleb128 0x1
 2020 0922 51       		.byte	0x51
 2021 0923 02       		.uleb128 0x2
 2022 0924 75       		.byte	0x75
 2023 0925 7E       		.sleb128 -2
 2024 0926 21       		.uleb128 0x21
ARM GAS  /tmp/ccFub3FT.s 			page 37


 2025 0927 01       		.uleb128 0x1
 2026 0928 50       		.byte	0x50
 2027 0929 05       		.uleb128 0x5
 2028 092a 03       		.byte	0x3
 2029 092b 00000000 		.4byte	.LANCHOR1
 2030 092f 00       		.byte	0
 2031 0930 20       		.uleb128 0x20
 2032 0931 46000000 		.4byte	.LVL27
 2033 0935 A90E0000 		.4byte	0xea9
 2034 0939 5F090000 		.4byte	0x95f
 2035 093d 21       		.uleb128 0x21
 2036 093e 01       		.uleb128 0x1
 2037 093f 53       		.byte	0x53
 2038 0940 05       		.uleb128 0x5
 2039 0941 03       		.byte	0x3
 2040 0942 08000000 		.4byte	.LC2
 2041 0946 21       		.uleb128 0x21
 2042 0947 01       		.uleb128 0x1
 2043 0948 52       		.byte	0x52
 2044 0949 05       		.uleb128 0x5
 2045 094a 03       		.byte	0x3
 2046 094b 00000000 		.4byte	thread
 2047 094f 21       		.uleb128 0x21
 2048 0950 01       		.uleb128 0x1
 2049 0951 51       		.byte	0x51
 2050 0952 02       		.uleb128 0x2
 2051 0953 75       		.byte	0x75
 2052 0954 7D       		.sleb128 -3
 2053 0955 21       		.uleb128 0x21
 2054 0956 01       		.uleb128 0x1
 2055 0957 50       		.byte	0x50
 2056 0958 05       		.uleb128 0x5
 2057 0959 03       		.byte	0x3
 2058 095a 00000000 		.4byte	.LANCHOR1
 2059 095e 00       		.byte	0
 2060 095f 20       		.uleb128 0x20
 2061 0960 54000000 		.4byte	.LVL28
 2062 0964 A90E0000 		.4byte	0xea9
 2063 0968 8E090000 		.4byte	0x98e
 2064 096c 21       		.uleb128 0x21
 2065 096d 01       		.uleb128 0x1
 2066 096e 53       		.byte	0x53
 2067 096f 05       		.uleb128 0x5
 2068 0970 03       		.byte	0x3
 2069 0971 10000000 		.4byte	.LC4
 2070 0975 21       		.uleb128 0x21
 2071 0976 01       		.uleb128 0x1
 2072 0977 52       		.byte	0x52
 2073 0978 05       		.uleb128 0x5
 2074 0979 03       		.byte	0x3
 2075 097a 00000000 		.4byte	thread
 2076 097e 21       		.uleb128 0x21
 2077 097f 01       		.uleb128 0x1
 2078 0980 51       		.byte	0x51
 2079 0981 02       		.uleb128 0x2
 2080 0982 75       		.byte	0x75
 2081 0983 7C       		.sleb128 -4
ARM GAS  /tmp/ccFub3FT.s 			page 38


 2082 0984 21       		.uleb128 0x21
 2083 0985 01       		.uleb128 0x1
 2084 0986 50       		.byte	0x50
 2085 0987 05       		.uleb128 0x5
 2086 0988 03       		.byte	0x3
 2087 0989 00000000 		.4byte	.LANCHOR1
 2088 098d 00       		.byte	0
 2089 098e 20       		.uleb128 0x20
 2090 098f 62000000 		.4byte	.LVL29
 2091 0993 A90E0000 		.4byte	0xea9
 2092 0997 BD090000 		.4byte	0x9bd
 2093 099b 21       		.uleb128 0x21
 2094 099c 01       		.uleb128 0x1
 2095 099d 53       		.byte	0x53
 2096 099e 05       		.uleb128 0x5
 2097 099f 03       		.byte	0x3
 2098 09a0 14000000 		.4byte	.LC5
 2099 09a4 21       		.uleb128 0x21
 2100 09a5 01       		.uleb128 0x1
 2101 09a6 52       		.byte	0x52
 2102 09a7 05       		.uleb128 0x5
 2103 09a8 03       		.byte	0x3
 2104 09a9 00000000 		.4byte	thread
 2105 09ad 21       		.uleb128 0x21
 2106 09ae 01       		.uleb128 0x1
 2107 09af 51       		.byte	0x51
 2108 09b0 02       		.uleb128 0x2
 2109 09b1 75       		.byte	0x75
 2110 09b2 7B       		.sleb128 -5
 2111 09b3 21       		.uleb128 0x21
 2112 09b4 01       		.uleb128 0x1
 2113 09b5 50       		.byte	0x50
 2114 09b6 05       		.uleb128 0x5
 2115 09b7 03       		.byte	0x3
 2116 09b8 00000000 		.4byte	.LANCHOR1
 2117 09bc 00       		.byte	0
 2118 09bd 20       		.uleb128 0x20
 2119 09be 82000000 		.4byte	.LVL30
 2120 09c2 200E0000 		.4byte	0xe20
 2121 09c6 D0090000 		.4byte	0x9d0
 2122 09ca 21       		.uleb128 0x21
 2123 09cb 01       		.uleb128 0x1
 2124 09cc 50       		.byte	0x50
 2125 09cd 01       		.uleb128 0x1
 2126 09ce 31       		.byte	0x31
 2127 09cf 00       		.byte	0
 2128 09d0 22       		.uleb128 0x22
 2129 09d1 8A000000 		.4byte	.LVL32
 2130 09d5 3A0E0000 		.4byte	0xe3a
 2131 09d9 20       		.uleb128 0x20
 2132 09da 92000000 		.4byte	.LVL33
 2133 09de 410E0000 		.4byte	0xe41
 2134 09e2 F5090000 		.4byte	0x9f5
 2135 09e6 21       		.uleb128 0x21
 2136 09e7 01       		.uleb128 0x1
 2137 09e8 51       		.byte	0x51
 2138 09e9 05       		.uleb128 0x5
ARM GAS  /tmp/ccFub3FT.s 			page 39


 2139 09ea 03       		.byte	0x3
 2140 09eb 18000000 		.4byte	.LC6
 2141 09ef 21       		.uleb128 0x21
 2142 09f0 01       		.uleb128 0x1
 2143 09f1 50       		.byte	0x50
 2144 09f2 01       		.uleb128 0x1
 2145 09f3 32       		.byte	0x32
 2146 09f4 00       		.byte	0
 2147 09f5 20       		.uleb128 0x20
 2148 09f6 9E000000 		.4byte	.LVL35
 2149 09fa CD0E0000 		.4byte	0xecd
 2150 09fe 0C0A0000 		.4byte	0xa0c
 2151 0a02 21       		.uleb128 0x21
 2152 0a03 01       		.uleb128 0x1
 2153 0a04 50       		.byte	0x50
 2154 0a05 05       		.uleb128 0x5
 2155 0a06 03       		.byte	0x3
 2156 0a07 00000000 		.4byte	.LANCHOR1
 2157 0a0b 00       		.byte	0
 2158 0a0c 20       		.uleb128 0x20
 2159 0a0d AA000000 		.4byte	.LVL36
 2160 0a11 200E0000 		.4byte	0xe20
 2161 0a15 1F0A0000 		.4byte	0xa1f
 2162 0a19 21       		.uleb128 0x21
 2163 0a1a 01       		.uleb128 0x1
 2164 0a1b 50       		.byte	0x50
 2165 0a1c 01       		.uleb128 0x1
 2166 0a1d 33       		.byte	0x33
 2167 0a1e 00       		.byte	0
 2168 0a1f 20       		.uleb128 0x20
 2169 0a20 B8000000 		.4byte	.LVL38
 2170 0a24 CD0E0000 		.4byte	0xecd
 2171 0a28 360A0000 		.4byte	0xa36
 2172 0a2c 21       		.uleb128 0x21
 2173 0a2d 01       		.uleb128 0x1
 2174 0a2e 50       		.byte	0x50
 2175 0a2f 05       		.uleb128 0x5
 2176 0a30 03       		.byte	0x3
 2177 0a31 00000000 		.4byte	.LANCHOR1
 2178 0a35 00       		.byte	0
 2179 0a36 26       		.uleb128 0x26
 2180 0a37 CA000000 		.4byte	.LVL40
 2181 0a3b 200E0000 		.4byte	0xe20
 2182 0a3f 21       		.uleb128 0x21
 2183 0a40 01       		.uleb128 0x1
 2184 0a41 50       		.byte	0x50
 2185 0a42 01       		.uleb128 0x1
 2186 0a43 34       		.byte	0x34
 2187 0a44 00       		.byte	0
 2188 0a45 00       		.byte	0
 2189 0a46 1C       		.uleb128 0x1c
 2190 0a47 96000000 		.4byte	.LASF98
 2191 0a4b 01       		.byte	0x1
 2192 0a4c 88       		.byte	0x88
 2193 0a4d 00000000 		.4byte	.LFB10
 2194 0a51 10000000 		.4byte	.LFE10-.LFB10
 2195 0a55 01       		.uleb128 0x1
ARM GAS  /tmp/ccFub3FT.s 			page 40


 2196 0a56 9C       		.byte	0x9c
 2197 0a57 7B0A0000 		.4byte	0xa7b
 2198 0a5b 26       		.uleb128 0x26
 2199 0a5c 0C000000 		.4byte	.LVL41
 2200 0a60 E20E0000 		.4byte	0xee2
 2201 0a64 21       		.uleb128 0x21
 2202 0a65 01       		.uleb128 0x1
 2203 0a66 52       		.byte	0x52
 2204 0a67 01       		.uleb128 0x1
 2205 0a68 30       		.byte	0x30
 2206 0a69 21       		.uleb128 0x21
 2207 0a6a 01       		.uleb128 0x1
 2208 0a6b 51       		.byte	0x51
 2209 0a6c 03       		.uleb128 0x3
 2210 0a6d 0A       		.byte	0xa
 2211 0a6e 3001     		.2byte	0x130
 2212 0a70 21       		.uleb128 0x21
 2213 0a71 01       		.uleb128 0x1
 2214 0a72 50       		.byte	0x50
 2215 0a73 05       		.uleb128 0x5
 2216 0a74 03       		.byte	0x3
 2217 0a75 00000000 		.4byte	.LANCHOR1
 2218 0a79 00       		.byte	0
 2219 0a7a 00       		.byte	0
 2220 0a7b 24       		.uleb128 0x24
 2221 0a7c 9C050000 		.4byte	.LASF100
 2222 0a80 01       		.byte	0x1
 2223 0a81 BF       		.byte	0xbf
 2224 0a82 A2000000 		.4byte	0xa2
 2225 0a86 00000000 		.4byte	.LFB12
 2226 0a8a 24000000 		.4byte	.LFE12-.LFB12
 2227 0a8e 01       		.uleb128 0x1
 2228 0a8f 9C       		.byte	0x9c
 2229 0a90 D30A0000 		.4byte	0xad3
 2230 0a94 25       		.uleb128 0x25
 2231 0a95 747000   		.ascii	"tp\000"
 2232 0a98 01       		.byte	0x1
 2233 0a99 BF       		.byte	0xbf
 2234 0a9a 41020000 		.4byte	0x241
 2235 0a9e 93000000 		.4byte	.LLST4
 2236 0aa2 1E       		.uleb128 0x1e
 2237 0aa3 66747000 		.ascii	"ftp\000"
 2238 0aa7 01       		.byte	0x1
 2239 0aa8 C0       		.byte	0xc0
 2240 0aa9 41020000 		.4byte	0x241
 2241 0aad B1000000 		.4byte	.LLST5
 2242 0ab1 27       		.uleb128 0x27
 2243 0ab2 6C050000 		.4byte	.LASF101
 2244 0ab6 01       		.byte	0x1
 2245 0ab7 C1       		.byte	0xc1
 2246 0ab8 A2000000 		.4byte	0xa2
 2247 0abc DA000000 		.4byte	.LLST6
 2248 0ac0 22       		.uleb128 0x22
 2249 0ac1 08000000 		.4byte	.LVL43
 2250 0ac5 FD0E0000 		.4byte	0xefd
 2251 0ac9 22       		.uleb128 0x22
 2252 0aca 1A000000 		.4byte	.LVL46
ARM GAS  /tmp/ccFub3FT.s 			page 41


 2253 0ace 080F0000 		.4byte	0xf08
 2254 0ad2 00       		.byte	0
 2255 0ad3 1C       		.uleb128 0x1c
 2256 0ad4 90020000 		.4byte	.LASF102
 2257 0ad8 01       		.byte	0x1
 2258 0ad9 D0       		.byte	0xd0
 2259 0ada 00000000 		.4byte	.LFB14
 2260 0ade 44010000 		.4byte	.LFE14-.LFB14
 2261 0ae2 01       		.uleb128 0x1
 2262 0ae3 9C       		.byte	0x9c
 2263 0ae4 DB0C0000 		.4byte	0xcdb
 2264 0ae8 1E       		.uleb128 0x1e
 2265 0ae9 747000   		.ascii	"tp\000"
 2266 0aec 01       		.byte	0x1
 2267 0aed D1       		.byte	0xd1
 2268 0aee 41020000 		.4byte	0x241
 2269 0af2 F9000000 		.4byte	.LLST7
 2270 0af6 28       		.uleb128 0x28
 2271 0af7 15000000 		.4byte	.LASF93
 2272 0afb 01       		.byte	0x1
 2273 0afc D2       		.byte	0xd2
 2274 0afd E0000000 		.4byte	0xe0
 2275 0b01 20       		.uleb128 0x20
 2276 0b02 1C000000 		.4byte	.LVL50
 2277 0b06 CC0D0000 		.4byte	0xdcc
 2278 0b0a 320B0000 		.4byte	0xb32
 2279 0b0e 21       		.uleb128 0x21
 2280 0b0f 01       		.uleb128 0x1
 2281 0b10 53       		.byte	0x53
 2282 0b11 05       		.uleb128 0x5
 2283 0b12 03       		.byte	0x3
 2284 0b13 00000000 		.4byte	thread
 2285 0b17 21       		.uleb128 0x21
 2286 0b18 01       		.uleb128 0x1
 2287 0b19 51       		.byte	0x51
 2288 0b1a 03       		.uleb128 0x3
 2289 0b1b 0A       		.byte	0xa
 2290 0b1c 3001     		.2byte	0x130
 2291 0b1e 21       		.uleb128 0x21
 2292 0b1f 01       		.uleb128 0x1
 2293 0b20 50       		.byte	0x50
 2294 0b21 05       		.uleb128 0x5
 2295 0b22 03       		.byte	0x3
 2296 0b23 00000000 		.4byte	.LANCHOR0
 2297 0b27 21       		.uleb128 0x21
 2298 0b28 02       		.uleb128 0x2
 2299 0b29 7D       		.byte	0x7d
 2300 0b2a 00       		.sleb128 0
 2301 0b2b 05       		.uleb128 0x5
 2302 0b2c 03       		.byte	0x3
 2303 0b2d 00000000 		.4byte	.LC0
 2304 0b31 00       		.byte	0
 2305 0b32 20       		.uleb128 0x20
 2306 0b33 34000000 		.4byte	.LVL53
 2307 0b37 200E0000 		.4byte	0xe20
 2308 0b3b 450B0000 		.4byte	0xb45
 2309 0b3f 21       		.uleb128 0x21
ARM GAS  /tmp/ccFub3FT.s 			page 42


 2310 0b40 01       		.uleb128 0x1
 2311 0b41 50       		.byte	0x50
 2312 0b42 01       		.uleb128 0x1
 2313 0b43 31       		.byte	0x31
 2314 0b44 00       		.byte	0
 2315 0b45 20       		.uleb128 0x20
 2316 0b46 40000000 		.4byte	.LVL55
 2317 0b4a 1D0F0000 		.4byte	0xf1d
 2318 0b4e 590B0000 		.4byte	0xb59
 2319 0b52 21       		.uleb128 0x21
 2320 0b53 01       		.uleb128 0x1
 2321 0b54 50       		.byte	0x50
 2322 0b55 02       		.uleb128 0x2
 2323 0b56 74       		.byte	0x74
 2324 0b57 00       		.sleb128 0
 2325 0b58 00       		.byte	0
 2326 0b59 20       		.uleb128 0x20
 2327 0b5a 56000000 		.4byte	.LVL56
 2328 0b5e 200E0000 		.4byte	0xe20
 2329 0b62 6C0B0000 		.4byte	0xb6c
 2330 0b66 21       		.uleb128 0x21
 2331 0b67 01       		.uleb128 0x1
 2332 0b68 50       		.byte	0x50
 2333 0b69 01       		.uleb128 0x1
 2334 0b6a 32       		.byte	0x32
 2335 0b6b 00       		.byte	0
 2336 0b6c 20       		.uleb128 0x20
 2337 0b6d 60000000 		.4byte	.LVL57
 2338 0b71 320F0000 		.4byte	0xf32
 2339 0b75 800B0000 		.4byte	0xb80
 2340 0b79 21       		.uleb128 0x21
 2341 0b7a 01       		.uleb128 0x1
 2342 0b7b 50       		.byte	0x50
 2343 0b7c 02       		.uleb128 0x2
 2344 0b7d 74       		.byte	0x74
 2345 0b7e 00       		.sleb128 0
 2346 0b7f 00       		.byte	0
 2347 0b80 20       		.uleb128 0x20
 2348 0b81 70000000 		.4byte	.LVL58
 2349 0b85 200E0000 		.4byte	0xe20
 2350 0b89 930B0000 		.4byte	0xb93
 2351 0b8d 21       		.uleb128 0x21
 2352 0b8e 01       		.uleb128 0x1
 2353 0b8f 50       		.byte	0x50
 2354 0b90 01       		.uleb128 0x1
 2355 0b91 33       		.byte	0x33
 2356 0b92 00       		.byte	0
 2357 0b93 20       		.uleb128 0x20
 2358 0b94 7A000000 		.4byte	.LVL59
 2359 0b98 7B0A0000 		.4byte	0xa7b
 2360 0b9c A70B0000 		.4byte	0xba7
 2361 0ba0 21       		.uleb128 0x21
 2362 0ba1 01       		.uleb128 0x1
 2363 0ba2 50       		.byte	0x50
 2364 0ba3 02       		.uleb128 0x2
 2365 0ba4 74       		.byte	0x74
 2366 0ba5 00       		.sleb128 0
ARM GAS  /tmp/ccFub3FT.s 			page 43


 2367 0ba6 00       		.byte	0
 2368 0ba7 20       		.uleb128 0x20
 2369 0ba8 82000000 		.4byte	.LVL60
 2370 0bac 200E0000 		.4byte	0xe20
 2371 0bb0 BA0B0000 		.4byte	0xbba
 2372 0bb4 21       		.uleb128 0x21
 2373 0bb5 01       		.uleb128 0x1
 2374 0bb6 50       		.byte	0x50
 2375 0bb7 01       		.uleb128 0x1
 2376 0bb8 34       		.byte	0x34
 2377 0bb9 00       		.byte	0
 2378 0bba 20       		.uleb128 0x20
 2379 0bbb 8C000000 		.4byte	.LVL61
 2380 0bbf 7B0A0000 		.4byte	0xa7b
 2381 0bc3 CE0B0000 		.4byte	0xbce
 2382 0bc7 21       		.uleb128 0x21
 2383 0bc8 01       		.uleb128 0x1
 2384 0bc9 50       		.byte	0x50
 2385 0bca 02       		.uleb128 0x2
 2386 0bcb 74       		.byte	0x74
 2387 0bcc 00       		.sleb128 0
 2388 0bcd 00       		.byte	0
 2389 0bce 20       		.uleb128 0x20
 2390 0bcf 94000000 		.4byte	.LVL62
 2391 0bd3 200E0000 		.4byte	0xe20
 2392 0bd7 E10B0000 		.4byte	0xbe1
 2393 0bdb 21       		.uleb128 0x21
 2394 0bdc 01       		.uleb128 0x1
 2395 0bdd 50       		.byte	0x50
 2396 0bde 01       		.uleb128 0x1
 2397 0bdf 35       		.byte	0x35
 2398 0be0 00       		.byte	0
 2399 0be1 20       		.uleb128 0x20
 2400 0be2 9E000000 		.4byte	.LVL63
 2401 0be6 320F0000 		.4byte	0xf32
 2402 0bea F50B0000 		.4byte	0xbf5
 2403 0bee 21       		.uleb128 0x21
 2404 0bef 01       		.uleb128 0x1
 2405 0bf0 50       		.byte	0x50
 2406 0bf1 02       		.uleb128 0x2
 2407 0bf2 74       		.byte	0x74
 2408 0bf3 00       		.sleb128 0
 2409 0bf4 00       		.byte	0
 2410 0bf5 20       		.uleb128 0x20
 2411 0bf6 B0000000 		.4byte	.LVL64
 2412 0bfa 200E0000 		.4byte	0xe20
 2413 0bfe 080C0000 		.4byte	0xc08
 2414 0c02 21       		.uleb128 0x21
 2415 0c03 01       		.uleb128 0x1
 2416 0c04 50       		.byte	0x50
 2417 0c05 01       		.uleb128 0x1
 2418 0c06 36       		.byte	0x36
 2419 0c07 00       		.byte	0
 2420 0c08 20       		.uleb128 0x20
 2421 0c09 C6000000 		.4byte	.LVL65
 2422 0c0d 200E0000 		.4byte	0xe20
 2423 0c11 1B0C0000 		.4byte	0xc1b
ARM GAS  /tmp/ccFub3FT.s 			page 44


 2424 0c15 21       		.uleb128 0x21
 2425 0c16 01       		.uleb128 0x1
 2426 0c17 50       		.byte	0x50
 2427 0c18 01       		.uleb128 0x1
 2428 0c19 37       		.byte	0x37
 2429 0c1a 00       		.byte	0
 2430 0c1b 20       		.uleb128 0x20
 2431 0c1c D0000000 		.4byte	.LVL66
 2432 0c20 7B0A0000 		.4byte	0xa7b
 2433 0c24 2F0C0000 		.4byte	0xc2f
 2434 0c28 21       		.uleb128 0x21
 2435 0c29 01       		.uleb128 0x1
 2436 0c2a 50       		.byte	0x50
 2437 0c2b 02       		.uleb128 0x2
 2438 0c2c 74       		.byte	0x74
 2439 0c2d 00       		.sleb128 0
 2440 0c2e 00       		.byte	0
 2441 0c2f 20       		.uleb128 0x20
 2442 0c30 D8000000 		.4byte	.LVL67
 2443 0c34 200E0000 		.4byte	0xe20
 2444 0c38 420C0000 		.4byte	0xc42
 2445 0c3c 21       		.uleb128 0x21
 2446 0c3d 01       		.uleb128 0x1
 2447 0c3e 50       		.byte	0x50
 2448 0c3f 01       		.uleb128 0x1
 2449 0c40 38       		.byte	0x38
 2450 0c41 00       		.byte	0
 2451 0c42 20       		.uleb128 0x20
 2452 0c43 E2000000 		.4byte	.LVL68
 2453 0c47 7B0A0000 		.4byte	0xa7b
 2454 0c4b 560C0000 		.4byte	0xc56
 2455 0c4f 21       		.uleb128 0x21
 2456 0c50 01       		.uleb128 0x1
 2457 0c51 50       		.byte	0x50
 2458 0c52 02       		.uleb128 0x2
 2459 0c53 74       		.byte	0x74
 2460 0c54 00       		.sleb128 0
 2461 0c55 00       		.byte	0
 2462 0c56 20       		.uleb128 0x20
 2463 0c57 EA000000 		.4byte	.LVL69
 2464 0c5b 200E0000 		.4byte	0xe20
 2465 0c5f 690C0000 		.4byte	0xc69
 2466 0c63 21       		.uleb128 0x21
 2467 0c64 01       		.uleb128 0x1
 2468 0c65 50       		.byte	0x50
 2469 0c66 01       		.uleb128 0x1
 2470 0c67 39       		.byte	0x39
 2471 0c68 00       		.byte	0
 2472 0c69 20       		.uleb128 0x20
 2473 0c6a F4000000 		.4byte	.LVL70
 2474 0c6e 430F0000 		.4byte	0xf43
 2475 0c72 7D0C0000 		.4byte	0xc7d
 2476 0c76 21       		.uleb128 0x21
 2477 0c77 01       		.uleb128 0x1
 2478 0c78 50       		.byte	0x50
 2479 0c79 02       		.uleb128 0x2
 2480 0c7a 08       		.byte	0x8
ARM GAS  /tmp/ccFub3FT.s 			page 45


 2481 0c7b 32       		.byte	0x32
 2482 0c7c 00       		.byte	0
 2483 0c7d 20       		.uleb128 0x20
 2484 0c7e 06010000 		.4byte	.LVL71
 2485 0c82 200E0000 		.4byte	0xe20
 2486 0c86 900C0000 		.4byte	0xc90
 2487 0c8a 21       		.uleb128 0x21
 2488 0c8b 01       		.uleb128 0x1
 2489 0c8c 50       		.byte	0x50
 2490 0c8d 01       		.uleb128 0x1
 2491 0c8e 3A       		.byte	0x3a
 2492 0c8f 00       		.byte	0
 2493 0c90 20       		.uleb128 0x20
 2494 0c91 10010000 		.4byte	.LVL72
 2495 0c95 7B0A0000 		.4byte	0xa7b
 2496 0c99 A40C0000 		.4byte	0xca4
 2497 0c9d 21       		.uleb128 0x21
 2498 0c9e 01       		.uleb128 0x1
 2499 0c9f 50       		.byte	0x50
 2500 0ca0 02       		.uleb128 0x2
 2501 0ca1 74       		.byte	0x74
 2502 0ca2 00       		.sleb128 0
 2503 0ca3 00       		.byte	0
 2504 0ca4 20       		.uleb128 0x20
 2505 0ca5 18010000 		.4byte	.LVL73
 2506 0ca9 200E0000 		.4byte	0xe20
 2507 0cad B70C0000 		.4byte	0xcb7
 2508 0cb1 21       		.uleb128 0x21
 2509 0cb2 01       		.uleb128 0x1
 2510 0cb3 50       		.byte	0x50
 2511 0cb4 01       		.uleb128 0x1
 2512 0cb5 3B       		.byte	0x3b
 2513 0cb6 00       		.byte	0
 2514 0cb7 20       		.uleb128 0x20
 2515 0cb8 22010000 		.4byte	.LVL74
 2516 0cbc 7B0A0000 		.4byte	0xa7b
 2517 0cc0 CB0C0000 		.4byte	0xccb
 2518 0cc4 21       		.uleb128 0x21
 2519 0cc5 01       		.uleb128 0x1
 2520 0cc6 50       		.byte	0x50
 2521 0cc7 02       		.uleb128 0x2
 2522 0cc8 74       		.byte	0x74
 2523 0cc9 00       		.sleb128 0
 2524 0cca 00       		.byte	0
 2525 0ccb 26       		.uleb128 0x26
 2526 0ccc 34010000 		.4byte	.LVL76
 2527 0cd0 200E0000 		.4byte	0xe20
 2528 0cd4 21       		.uleb128 0x21
 2529 0cd5 01       		.uleb128 0x1
 2530 0cd6 50       		.byte	0x50
 2531 0cd7 01       		.uleb128 0x1
 2532 0cd8 3C       		.byte	0x3c
 2533 0cd9 00       		.byte	0
 2534 0cda 00       		.byte	0
 2535 0cdb 1F       		.uleb128 0x1f
 2536 0cdc FC050000 		.4byte	.LASF103
 2537 0ce0 01       		.byte	0x1
ARM GAS  /tmp/ccFub3FT.s 			page 46


 2538 0ce1 36       		.byte	0x36
 2539 0ce2 F1030000 		.4byte	0x3f1
 2540 0ce6 05       		.uleb128 0x5
 2541 0ce7 03       		.byte	0x3
 2542 0ce8 00000000 		.4byte	heap1
 2543 0cec 1D       		.uleb128 0x1d
 2544 0ced 6D703100 		.ascii	"mp1\000"
 2545 0cf1 01       		.byte	0x1
 2546 0cf2 39       		.byte	0x39
 2547 0cf3 E4040000 		.4byte	0x4e4
 2548 0cf7 05       		.uleb128 0x5
 2549 0cf8 03       		.byte	0x3
 2550 0cf9 00000000 		.4byte	mp1
 2551 0cfd 29       		.uleb128 0x29
 2552 0cfe A4050000 		.4byte	.LASF104
 2553 0d02 08       		.byte	0x8
 2554 0d03 68       		.byte	0x68
 2555 0d04 84030000 		.4byte	0x384
 2556 0d08 18       		.uleb128 0x18
 2557 0d09 41020000 		.4byte	0x241
 2558 0d0d 180D0000 		.4byte	0xd18
 2559 0d11 19       		.uleb128 0x19
 2560 0d12 27030000 		.4byte	0x327
 2561 0d16 04       		.byte	0x4
 2562 0d17 00       		.byte	0
 2563 0d18 29       		.uleb128 0x29
 2564 0d19 55040000 		.4byte	.LASF105
 2565 0d1d 0D       		.byte	0xd
 2566 0d1e A5       		.byte	0xa5
 2567 0d1f 080D0000 		.4byte	0xd08
 2568 0d23 29       		.uleb128 0x29
 2569 0d24 69000000 		.4byte	.LASF106
 2570 0d28 0D       		.byte	0xd
 2571 0d29 A6       		.byte	0xa6
 2572 0d2a FB050000 		.4byte	0x5fb
 2573 0d2e 18       		.uleb128 0x18
 2574 0d2f 7D020000 		.4byte	0x27d
 2575 0d33 390D0000 		.4byte	0xd39
 2576 0d37 2A       		.uleb128 0x2a
 2577 0d38 00       		.byte	0
 2578 0d39 2B       		.uleb128 0x2b
 2579 0d3a 776100   		.ascii	"wa\000"
 2580 0d3d 0D       		.byte	0xd
 2581 0d3e A7       		.byte	0xa7
 2582 0d3f 430D0000 		.4byte	0xd43
 2583 0d43 14       		.uleb128 0x14
 2584 0d44 2E0D0000 		.4byte	0xd2e
 2585 0d48 2C       		.uleb128 0x2c
 2586 0d49 75020000 		.4byte	.LASF107
 2587 0d4d 01       		.byte	0x1
 2588 0d4e 75       		.byte	0x75
 2589 0d4f 590D0000 		.4byte	0xd59
 2590 0d53 05       		.uleb128 0x5
 2591 0d54 03       		.byte	0x3
 2592 0d55 00000000 		.4byte	testdyn1
 2593 0d59 14       		.uleb128 0x14
 2594 0d5a 62050000 		.4byte	0x562
ARM GAS  /tmp/ccFub3FT.s 			page 47


 2595 0d5e 2C       		.uleb128 0x2c
 2596 0d5f 7E020000 		.4byte	.LASF108
 2597 0d63 01       		.byte	0x1
 2598 0d64 AD       		.byte	0xad
 2599 0d65 590D0000 		.4byte	0xd59
 2600 0d69 05       		.uleb128 0x5
 2601 0d6a 03       		.byte	0x3
 2602 0d6b 00000000 		.4byte	testdyn2
 2603 0d6f 2C       		.uleb128 0x2c
 2604 0d70 87020000 		.4byte	.LASF109
 2605 0d74 01       		.byte	0x1
 2606 0d75 EE       		.byte	0xee
 2607 0d76 590D0000 		.4byte	0xd59
 2608 0d7a 05       		.uleb128 0x5
 2609 0d7b 03       		.byte	0x3
 2610 0d7c 00000000 		.4byte	testdyn3
 2611 0d80 18       		.uleb128 0x18
 2612 0d81 900D0000 		.4byte	0xd90
 2613 0d85 900D0000 		.4byte	0xd90
 2614 0d89 19       		.uleb128 0x19
 2615 0d8a 27030000 		.4byte	0x327
 2616 0d8e 03       		.byte	0x3
 2617 0d8f 00       		.byte	0
 2618 0d90 09       		.uleb128 0x9
 2619 0d91 04       		.byte	0x4
 2620 0d92 590D0000 		.4byte	0xd59
 2621 0d96 2C       		.uleb128 0x2c
 2622 0d97 3D050000 		.4byte	.LASF110
 2623 0d9b 01       		.byte	0x1
 2624 0d9c FA       		.byte	0xfa
 2625 0d9d A70D0000 		.4byte	0xda7
 2626 0da1 05       		.uleb128 0x5
 2627 0da2 03       		.byte	0x3
 2628 0da3 00000000 		.4byte	patterndyn
 2629 0da7 14       		.uleb128 0x14
 2630 0da8 800D0000 		.4byte	0xd80
 2631 0dac 2D       		.uleb128 0x2d
 2632 0dad FB040000 		.4byte	.LASF111
 2633 0db1 0B       		.byte	0xb
 2634 0db2 54       		.byte	0x54
 2635 0db3 2C000000 		.4byte	0x2c
 2636 0db7 C60D0000 		.4byte	0xdc6
 2637 0dbb 0F       		.uleb128 0xf
 2638 0dbc 73040000 		.4byte	0x473
 2639 0dc0 0F       		.uleb128 0xf
 2640 0dc1 C60D0000 		.4byte	0xdc6
 2641 0dc5 00       		.byte	0
 2642 0dc6 09       		.uleb128 0x9
 2643 0dc7 04       		.byte	0x4
 2644 0dc8 2C000000 		.4byte	0x2c
 2645 0dcc 2D       		.uleb128 0x2d
 2646 0dcd 06010000 		.4byte	.LASF112
 2647 0dd1 0E       		.byte	0xe
 2648 0dd2 35       		.byte	0x35
 2649 0dd3 41020000 		.4byte	0x241
 2650 0dd7 F50D0000 		.4byte	0xdf5
 2651 0ddb 0F       		.uleb128 0xf
ARM GAS  /tmp/ccFub3FT.s 			page 48


 2652 0ddc 73040000 		.4byte	0x473
 2653 0de0 0F       		.uleb128 0xf
 2654 0de1 2C000000 		.4byte	0x2c
 2655 0de5 0F       		.uleb128 0xf
 2656 0de6 E0000000 		.4byte	0xe0
 2657 0dea 0F       		.uleb128 0xf
 2658 0deb 42050000 		.4byte	0x542
 2659 0def 0F       		.uleb128 0xf
 2660 0df0 7D020000 		.4byte	0x27d
 2661 0df4 00       		.byte	0
 2662 0df5 2D       		.uleb128 0x2d
 2663 0df6 9A040000 		.4byte	.LASF113
 2664 0dfa 0B       		.byte	0xb
 2665 0dfb 52       		.byte	0x52
 2666 0dfc 7D020000 		.4byte	0x27d
 2667 0e00 0F0E0000 		.4byte	0xe0f
 2668 0e04 0F       		.uleb128 0xf
 2669 0e05 73040000 		.4byte	0x473
 2670 0e09 0F       		.uleb128 0xf
 2671 0e0a 2C000000 		.4byte	0x2c
 2672 0e0e 00       		.byte	0
 2673 0e0f 2E       		.uleb128 0x2e
 2674 0e10 E8000000 		.4byte	.LASF116
 2675 0e14 0B       		.byte	0xb
 2676 0e15 53       		.byte	0x53
 2677 0e16 200E0000 		.4byte	0xe20
 2678 0e1a 0F       		.uleb128 0xf
 2679 0e1b 7D020000 		.4byte	0x27d
 2680 0e1f 00       		.byte	0
 2681 0e20 2D       		.uleb128 0x2d
 2682 0e21 D7050000 		.4byte	.LASF114
 2683 0e25 0D       		.byte	0xd
 2684 0e26 58       		.byte	0x58
 2685 0e27 A2000000 		.4byte	0xa2
 2686 0e2b 3A0E0000 		.4byte	0xe3a
 2687 0e2f 0F       		.uleb128 0xf
 2688 0e30 37000000 		.4byte	0x37
 2689 0e34 0F       		.uleb128 0xf
 2690 0e35 A2000000 		.4byte	0xa2
 2691 0e39 00       		.byte	0
 2692 0e3a 2F       		.uleb128 0x2f
 2693 0e3b 08050000 		.4byte	.LASF129
 2694 0e3f 0D       		.byte	0xd
 2695 0e40 5C       		.byte	0x5c
 2696 0e41 2D       		.uleb128 0x2d
 2697 0e42 CD020000 		.4byte	.LASF115
 2698 0e46 0D       		.byte	0xd
 2699 0e47 59       		.byte	0x59
 2700 0e48 A2000000 		.4byte	0xa2
 2701 0e4c 5B0E0000 		.4byte	0xe5b
 2702 0e50 0F       		.uleb128 0xf
 2703 0e51 37000000 		.4byte	0x37
 2704 0e55 0F       		.uleb128 0xf
 2705 0e56 5B0E0000 		.4byte	0xe5b
 2706 0e5a 00       		.byte	0
 2707 0e5b 09       		.uleb128 0x9
 2708 0e5c 04       		.byte	0x4
ARM GAS  /tmp/ccFub3FT.s 			page 49


 2709 0e5d 2F050000 		.4byte	0x52f
 2710 0e61 2E       		.uleb128 0x2e
 2711 0e62 D8000000 		.4byte	.LASF117
 2712 0e66 0D       		.byte	0xd
 2713 0e67 56       		.byte	0x56
 2714 0e68 720E0000 		.4byte	0xe72
 2715 0e6c 0F       		.uleb128 0xf
 2716 0e6d 2F050000 		.4byte	0x52f
 2717 0e71 00       		.byte	0
 2718 0e72 2E       		.uleb128 0x2e
 2719 0e73 7F000000 		.4byte	.LASF118
 2720 0e77 0B       		.byte	0xb
 2721 0e78 50       		.byte	0x50
 2722 0e79 8D0E0000 		.4byte	0xe8d
 2723 0e7d 0F       		.uleb128 0xf
 2724 0e7e 73040000 		.4byte	0x473
 2725 0e82 0F       		.uleb128 0xf
 2726 0e83 7D020000 		.4byte	0x27d
 2727 0e87 0F       		.uleb128 0xf
 2728 0e88 2C000000 		.4byte	0x2c
 2729 0e8c 00       		.byte	0
 2730 0e8d 2E       		.uleb128 0x2e
 2731 0e8e BE050000 		.4byte	.LASF119
 2732 0e92 0C       		.byte	0xc
 2733 0e93 7D       		.byte	0x7d
 2734 0e94 A30E0000 		.4byte	0xea3
 2735 0e98 0F       		.uleb128 0xf
 2736 0e99 A30E0000 		.4byte	0xea3
 2737 0e9d 0F       		.uleb128 0xf
 2738 0e9e 7D020000 		.4byte	0x27d
 2739 0ea2 00       		.byte	0
 2740 0ea3 09       		.uleb128 0x9
 2741 0ea4 04       		.byte	0x4
 2742 0ea5 E4040000 		.4byte	0x4e4
 2743 0ea9 2D       		.uleb128 0x2d
 2744 0eaa 40010000 		.4byte	.LASF120
 2745 0eae 0E       		.byte	0xe
 2746 0eaf 39       		.byte	0x39
 2747 0eb0 41020000 		.4byte	0x241
 2748 0eb4 CD0E0000 		.4byte	0xecd
 2749 0eb8 0F       		.uleb128 0xf
 2750 0eb9 A30E0000 		.4byte	0xea3
 2751 0ebd 0F       		.uleb128 0xf
 2752 0ebe E0000000 		.4byte	0xe0
 2753 0ec2 0F       		.uleb128 0xf
 2754 0ec3 42050000 		.4byte	0x542
 2755 0ec7 0F       		.uleb128 0xf
 2756 0ec8 7D020000 		.4byte	0x27d
 2757 0ecc 00       		.byte	0
 2758 0ecd 2D       		.uleb128 0x2d
 2759 0ece B2050000 		.4byte	.LASF121
 2760 0ed2 0C       		.byte	0xc
 2761 0ed3 7B       		.byte	0x7b
 2762 0ed4 7D020000 		.4byte	0x27d
 2763 0ed8 E20E0000 		.4byte	0xee2
 2764 0edc 0F       		.uleb128 0xf
 2765 0edd A30E0000 		.4byte	0xea3
ARM GAS  /tmp/ccFub3FT.s 			page 50


 2766 0ee1 00       		.byte	0
 2767 0ee2 2E       		.uleb128 0x2e
 2768 0ee3 61050000 		.4byte	.LASF122
 2769 0ee7 0C       		.byte	0xc
 2770 0ee8 78       		.byte	0x78
 2771 0ee9 FD0E0000 		.4byte	0xefd
 2772 0eed 0F       		.uleb128 0xf
 2773 0eee A30E0000 		.4byte	0xea3
 2774 0ef2 0F       		.uleb128 0xf
 2775 0ef3 2C000000 		.4byte	0x2c
 2776 0ef7 0F       		.uleb128 0xf
 2777 0ef8 D1030000 		.4byte	0x3d1
 2778 0efc 00       		.byte	0
 2779 0efd 30       		.uleb128 0x30
 2780 0efe 6E000000 		.4byte	.LASF130
 2781 0f02 0F       		.byte	0xf
 2782 0f03 78       		.byte	0x78
 2783 0f04 41020000 		.4byte	0x241
 2784 0f08 2D       		.uleb128 0x2d
 2785 0f09 E0040000 		.4byte	.LASF123
 2786 0f0d 0F       		.byte	0xf
 2787 0f0e 79       		.byte	0x79
 2788 0f0f 41020000 		.4byte	0x241
 2789 0f13 1D0F0000 		.4byte	0xf1d
 2790 0f17 0F       		.uleb128 0xf
 2791 0f18 41020000 		.4byte	0x241
 2792 0f1c 00       		.byte	0
 2793 0f1d 2D       		.uleb128 0x2d
 2794 0f1e 49020000 		.4byte	.LASF124
 2795 0f22 0E       		.byte	0xe
 2796 0f23 32       		.byte	0x32
 2797 0f24 41020000 		.4byte	0x241
 2798 0f28 320F0000 		.4byte	0xf32
 2799 0f2c 0F       		.uleb128 0xf
 2800 0f2d 41020000 		.4byte	0x241
 2801 0f31 00       		.byte	0
 2802 0f32 2E       		.uleb128 0x2e
 2803 0f33 86040000 		.4byte	.LASF125
 2804 0f37 0E       		.byte	0xe
 2805 0f38 33       		.byte	0x33
 2806 0f39 430F0000 		.4byte	0xf43
 2807 0f3d 0F       		.uleb128 0xf
 2808 0f3e 41020000 		.4byte	0x241
 2809 0f42 00       		.byte	0
 2810 0f43 31       		.uleb128 0x31
 2811 0f44 BA040000 		.4byte	.LASF131
 2812 0f48 06       		.byte	0x6
 2813 0f49 6E01     		.2byte	0x16e
 2814 0f4b 0F       		.uleb128 0xf
 2815 0f4c 01010000 		.4byte	0x101
 2816 0f50 00       		.byte	0
 2817 0f51 00       		.byte	0
 2818              		.section	.debug_abbrev,"",%progbits
 2819              	.Ldebug_abbrev0:
 2820 0000 01       		.uleb128 0x1
 2821 0001 11       		.uleb128 0x11
 2822 0002 01       		.byte	0x1
ARM GAS  /tmp/ccFub3FT.s 			page 51


 2823 0003 25       		.uleb128 0x25
 2824 0004 0E       		.uleb128 0xe
 2825 0005 13       		.uleb128 0x13
 2826 0006 0B       		.uleb128 0xb
 2827 0007 03       		.uleb128 0x3
 2828 0008 0E       		.uleb128 0xe
 2829 0009 1B       		.uleb128 0x1b
 2830 000a 0E       		.uleb128 0xe
 2831 000b 55       		.uleb128 0x55
 2832 000c 17       		.uleb128 0x17
 2833 000d 11       		.uleb128 0x11
 2834 000e 01       		.uleb128 0x1
 2835 000f 10       		.uleb128 0x10
 2836 0010 17       		.uleb128 0x17
 2837 0011 00       		.byte	0
 2838 0012 00       		.byte	0
 2839 0013 02       		.uleb128 0x2
 2840 0014 24       		.uleb128 0x24
 2841 0015 00       		.byte	0
 2842 0016 0B       		.uleb128 0xb
 2843 0017 0B       		.uleb128 0xb
 2844 0018 3E       		.uleb128 0x3e
 2845 0019 0B       		.uleb128 0xb
 2846 001a 03       		.uleb128 0x3
 2847 001b 08       		.uleb128 0x8
 2848 001c 00       		.byte	0
 2849 001d 00       		.byte	0
 2850 001e 03       		.uleb128 0x3
 2851 001f 16       		.uleb128 0x16
 2852 0020 00       		.byte	0
 2853 0021 03       		.uleb128 0x3
 2854 0022 0E       		.uleb128 0xe
 2855 0023 3A       		.uleb128 0x3a
 2856 0024 0B       		.uleb128 0xb
 2857 0025 3B       		.uleb128 0x3b
 2858 0026 0B       		.uleb128 0xb
 2859 0027 49       		.uleb128 0x49
 2860 0028 13       		.uleb128 0x13
 2861 0029 00       		.byte	0
 2862 002a 00       		.byte	0
 2863 002b 04       		.uleb128 0x4
 2864 002c 24       		.uleb128 0x24
 2865 002d 00       		.byte	0
 2866 002e 0B       		.uleb128 0xb
 2867 002f 0B       		.uleb128 0xb
 2868 0030 3E       		.uleb128 0x3e
 2869 0031 0B       		.uleb128 0xb
 2870 0032 03       		.uleb128 0x3
 2871 0033 0E       		.uleb128 0xe
 2872 0034 00       		.byte	0
 2873 0035 00       		.byte	0
 2874 0036 05       		.uleb128 0x5
 2875 0037 13       		.uleb128 0x13
 2876 0038 01       		.byte	0x1
 2877 0039 03       		.uleb128 0x3
 2878 003a 0E       		.uleb128 0xe
 2879 003b 0B       		.uleb128 0xb
ARM GAS  /tmp/ccFub3FT.s 			page 52


 2880 003c 0B       		.uleb128 0xb
 2881 003d 3A       		.uleb128 0x3a
 2882 003e 0B       		.uleb128 0xb
 2883 003f 3B       		.uleb128 0x3b
 2884 0040 0B       		.uleb128 0xb
 2885 0041 01       		.uleb128 0x1
 2886 0042 13       		.uleb128 0x13
 2887 0043 00       		.byte	0
 2888 0044 00       		.byte	0
 2889 0045 06       		.uleb128 0x6
 2890 0046 0D       		.uleb128 0xd
 2891 0047 00       		.byte	0
 2892 0048 03       		.uleb128 0x3
 2893 0049 0E       		.uleb128 0xe
 2894 004a 3A       		.uleb128 0x3a
 2895 004b 0B       		.uleb128 0xb
 2896 004c 3B       		.uleb128 0x3b
 2897 004d 0B       		.uleb128 0xb
 2898 004e 49       		.uleb128 0x49
 2899 004f 13       		.uleb128 0x13
 2900 0050 38       		.uleb128 0x38
 2901 0051 0B       		.uleb128 0xb
 2902 0052 00       		.byte	0
 2903 0053 00       		.byte	0
 2904 0054 07       		.uleb128 0x7
 2905 0055 0D       		.uleb128 0xd
 2906 0056 00       		.byte	0
 2907 0057 03       		.uleb128 0x3
 2908 0058 08       		.uleb128 0x8
 2909 0059 3A       		.uleb128 0x3a
 2910 005a 0B       		.uleb128 0xb
 2911 005b 3B       		.uleb128 0x3b
 2912 005c 0B       		.uleb128 0xb
 2913 005d 49       		.uleb128 0x49
 2914 005e 13       		.uleb128 0x13
 2915 005f 38       		.uleb128 0x38
 2916 0060 0B       		.uleb128 0xb
 2917 0061 00       		.byte	0
 2918 0062 00       		.byte	0
 2919 0063 08       		.uleb128 0x8
 2920 0064 13       		.uleb128 0x13
 2921 0065 01       		.byte	0x1
 2922 0066 0B       		.uleb128 0xb
 2923 0067 0B       		.uleb128 0xb
 2924 0068 3A       		.uleb128 0x3a
 2925 0069 0B       		.uleb128 0xb
 2926 006a 3B       		.uleb128 0x3b
 2927 006b 0B       		.uleb128 0xb
 2928 006c 01       		.uleb128 0x1
 2929 006d 13       		.uleb128 0x13
 2930 006e 00       		.byte	0
 2931 006f 00       		.byte	0
 2932 0070 09       		.uleb128 0x9
 2933 0071 0F       		.uleb128 0xf
 2934 0072 00       		.byte	0
 2935 0073 0B       		.uleb128 0xb
 2936 0074 0B       		.uleb128 0xb
ARM GAS  /tmp/ccFub3FT.s 			page 53


 2937 0075 49       		.uleb128 0x49
 2938 0076 13       		.uleb128 0x13
 2939 0077 00       		.byte	0
 2940 0078 00       		.byte	0
 2941 0079 0A       		.uleb128 0xa
 2942 007a 0F       		.uleb128 0xf
 2943 007b 00       		.byte	0
 2944 007c 0B       		.uleb128 0xb
 2945 007d 0B       		.uleb128 0xb
 2946 007e 00       		.byte	0
 2947 007f 00       		.byte	0
 2948 0080 0B       		.uleb128 0xb
 2949 0081 13       		.uleb128 0x13
 2950 0082 01       		.byte	0x1
 2951 0083 03       		.uleb128 0x3
 2952 0084 0E       		.uleb128 0xe
 2953 0085 0B       		.uleb128 0xb
 2954 0086 0B       		.uleb128 0xb
 2955 0087 3A       		.uleb128 0x3a
 2956 0088 0B       		.uleb128 0xb
 2957 0089 3B       		.uleb128 0x3b
 2958 008a 05       		.uleb128 0x5
 2959 008b 01       		.uleb128 0x1
 2960 008c 13       		.uleb128 0x13
 2961 008d 00       		.byte	0
 2962 008e 00       		.byte	0
 2963 008f 0C       		.uleb128 0xc
 2964 0090 0D       		.uleb128 0xd
 2965 0091 00       		.byte	0
 2966 0092 03       		.uleb128 0x3
 2967 0093 08       		.uleb128 0x8
 2968 0094 3A       		.uleb128 0x3a
 2969 0095 0B       		.uleb128 0xb
 2970 0096 3B       		.uleb128 0x3b
 2971 0097 05       		.uleb128 0x5
 2972 0098 49       		.uleb128 0x49
 2973 0099 13       		.uleb128 0x13
 2974 009a 38       		.uleb128 0x38
 2975 009b 0B       		.uleb128 0xb
 2976 009c 00       		.byte	0
 2977 009d 00       		.byte	0
 2978 009e 0D       		.uleb128 0xd
 2979 009f 35       		.uleb128 0x35
 2980 00a0 00       		.byte	0
 2981 00a1 49       		.uleb128 0x49
 2982 00a2 13       		.uleb128 0x13
 2983 00a3 00       		.byte	0
 2984 00a4 00       		.byte	0
 2985 00a5 0E       		.uleb128 0xe
 2986 00a6 15       		.uleb128 0x15
 2987 00a7 01       		.byte	0x1
 2988 00a8 27       		.uleb128 0x27
 2989 00a9 19       		.uleb128 0x19
 2990 00aa 49       		.uleb128 0x49
 2991 00ab 13       		.uleb128 0x13
 2992 00ac 01       		.uleb128 0x1
 2993 00ad 13       		.uleb128 0x13
ARM GAS  /tmp/ccFub3FT.s 			page 54


 2994 00ae 00       		.byte	0
 2995 00af 00       		.byte	0
 2996 00b0 0F       		.uleb128 0xf
 2997 00b1 05       		.uleb128 0x5
 2998 00b2 00       		.byte	0
 2999 00b3 49       		.uleb128 0x49
 3000 00b4 13       		.uleb128 0x13
 3001 00b5 00       		.byte	0
 3002 00b6 00       		.byte	0
 3003 00b7 10       		.uleb128 0x10
 3004 00b8 17       		.uleb128 0x17
 3005 00b9 01       		.byte	0x1
 3006 00ba 0B       		.uleb128 0xb
 3007 00bb 0B       		.uleb128 0xb
 3008 00bc 3A       		.uleb128 0x3a
 3009 00bd 0B       		.uleb128 0xb
 3010 00be 3B       		.uleb128 0x3b
 3011 00bf 0B       		.uleb128 0xb
 3012 00c0 01       		.uleb128 0x1
 3013 00c1 13       		.uleb128 0x13
 3014 00c2 00       		.byte	0
 3015 00c3 00       		.byte	0
 3016 00c4 11       		.uleb128 0x11
 3017 00c5 0D       		.uleb128 0xd
 3018 00c6 00       		.byte	0
 3019 00c7 03       		.uleb128 0x3
 3020 00c8 0E       		.uleb128 0xe
 3021 00c9 3A       		.uleb128 0x3a
 3022 00ca 0B       		.uleb128 0xb
 3023 00cb 3B       		.uleb128 0x3b
 3024 00cc 0B       		.uleb128 0xb
 3025 00cd 49       		.uleb128 0x49
 3026 00ce 13       		.uleb128 0x13
 3027 00cf 00       		.byte	0
 3028 00d0 00       		.byte	0
 3029 00d1 12       		.uleb128 0x12
 3030 00d2 17       		.uleb128 0x17
 3031 00d3 01       		.byte	0x1
 3032 00d4 03       		.uleb128 0x3
 3033 00d5 0E       		.uleb128 0xe
 3034 00d6 0B       		.uleb128 0xb
 3035 00d7 0B       		.uleb128 0xb
 3036 00d8 3A       		.uleb128 0x3a
 3037 00d9 0B       		.uleb128 0xb
 3038 00da 3B       		.uleb128 0x3b
 3039 00db 0B       		.uleb128 0xb
 3040 00dc 01       		.uleb128 0x1
 3041 00dd 13       		.uleb128 0x13
 3042 00de 00       		.byte	0
 3043 00df 00       		.byte	0
 3044 00e0 13       		.uleb128 0x13
 3045 00e1 0D       		.uleb128 0xd
 3046 00e2 00       		.byte	0
 3047 00e3 03       		.uleb128 0x3
 3048 00e4 08       		.uleb128 0x8
 3049 00e5 3A       		.uleb128 0x3a
 3050 00e6 0B       		.uleb128 0xb
ARM GAS  /tmp/ccFub3FT.s 			page 55


 3051 00e7 3B       		.uleb128 0x3b
 3052 00e8 0B       		.uleb128 0xb
 3053 00e9 49       		.uleb128 0x49
 3054 00ea 13       		.uleb128 0x13
 3055 00eb 00       		.byte	0
 3056 00ec 00       		.byte	0
 3057 00ed 14       		.uleb128 0x14
 3058 00ee 26       		.uleb128 0x26
 3059 00ef 00       		.byte	0
 3060 00f0 49       		.uleb128 0x49
 3061 00f1 13       		.uleb128 0x13
 3062 00f2 00       		.byte	0
 3063 00f3 00       		.byte	0
 3064 00f4 15       		.uleb128 0x15
 3065 00f5 15       		.uleb128 0x15
 3066 00f6 00       		.byte	0
 3067 00f7 27       		.uleb128 0x27
 3068 00f8 19       		.uleb128 0x19
 3069 00f9 00       		.byte	0
 3070 00fa 00       		.byte	0
 3071 00fb 16       		.uleb128 0x16
 3072 00fc 13       		.uleb128 0x13
 3073 00fd 01       		.byte	0x1
 3074 00fe 0B       		.uleb128 0xb
 3075 00ff 05       		.uleb128 0x5
 3076 0100 3A       		.uleb128 0x3a
 3077 0101 0B       		.uleb128 0xb
 3078 0102 3B       		.uleb128 0x3b
 3079 0103 0B       		.uleb128 0xb
 3080 0104 01       		.uleb128 0x1
 3081 0105 13       		.uleb128 0x13
 3082 0106 00       		.byte	0
 3083 0107 00       		.byte	0
 3084 0108 17       		.uleb128 0x17
 3085 0109 0D       		.uleb128 0xd
 3086 010a 00       		.byte	0
 3087 010b 03       		.uleb128 0x3
 3088 010c 08       		.uleb128 0x8
 3089 010d 3A       		.uleb128 0x3a
 3090 010e 0B       		.uleb128 0xb
 3091 010f 3B       		.uleb128 0x3b
 3092 0110 0B       		.uleb128 0xb
 3093 0111 49       		.uleb128 0x49
 3094 0112 13       		.uleb128 0x13
 3095 0113 38       		.uleb128 0x38
 3096 0114 05       		.uleb128 0x5
 3097 0115 00       		.byte	0
 3098 0116 00       		.byte	0
 3099 0117 18       		.uleb128 0x18
 3100 0118 01       		.uleb128 0x1
 3101 0119 01       		.byte	0x1
 3102 011a 49       		.uleb128 0x49
 3103 011b 13       		.uleb128 0x13
 3104 011c 01       		.uleb128 0x1
 3105 011d 13       		.uleb128 0x13
 3106 011e 00       		.byte	0
 3107 011f 00       		.byte	0
ARM GAS  /tmp/ccFub3FT.s 			page 56


 3108 0120 19       		.uleb128 0x19
 3109 0121 21       		.uleb128 0x21
 3110 0122 00       		.byte	0
 3111 0123 49       		.uleb128 0x49
 3112 0124 13       		.uleb128 0x13
 3113 0125 2F       		.uleb128 0x2f
 3114 0126 0B       		.uleb128 0xb
 3115 0127 00       		.byte	0
 3116 0128 00       		.byte	0
 3117 0129 1A       		.uleb128 0x1a
 3118 012a 17       		.uleb128 0x17
 3119 012b 01       		.byte	0x1
 3120 012c 03       		.uleb128 0x3
 3121 012d 0E       		.uleb128 0xe
 3122 012e 0B       		.uleb128 0xb
 3123 012f 05       		.uleb128 0x5
 3124 0130 3A       		.uleb128 0x3a
 3125 0131 0B       		.uleb128 0xb
 3126 0132 3B       		.uleb128 0x3b
 3127 0133 0B       		.uleb128 0xb
 3128 0134 01       		.uleb128 0x1
 3129 0135 13       		.uleb128 0x13
 3130 0136 00       		.byte	0
 3131 0137 00       		.byte	0
 3132 0138 1B       		.uleb128 0x1b
 3133 0139 21       		.uleb128 0x21
 3134 013a 00       		.byte	0
 3135 013b 49       		.uleb128 0x49
 3136 013c 13       		.uleb128 0x13
 3137 013d 2F       		.uleb128 0x2f
 3138 013e 05       		.uleb128 0x5
 3139 013f 00       		.byte	0
 3140 0140 00       		.byte	0
 3141 0141 1C       		.uleb128 0x1c
 3142 0142 2E       		.uleb128 0x2e
 3143 0143 01       		.byte	0x1
 3144 0144 03       		.uleb128 0x3
 3145 0145 0E       		.uleb128 0xe
 3146 0146 3A       		.uleb128 0x3a
 3147 0147 0B       		.uleb128 0xb
 3148 0148 3B       		.uleb128 0x3b
 3149 0149 0B       		.uleb128 0xb
 3150 014a 27       		.uleb128 0x27
 3151 014b 19       		.uleb128 0x19
 3152 014c 11       		.uleb128 0x11
 3153 014d 01       		.uleb128 0x1
 3154 014e 12       		.uleb128 0x12
 3155 014f 06       		.uleb128 0x6
 3156 0150 40       		.uleb128 0x40
 3157 0151 18       		.uleb128 0x18
 3158 0152 9742     		.uleb128 0x2117
 3159 0154 19       		.uleb128 0x19
 3160 0155 01       		.uleb128 0x1
 3161 0156 13       		.uleb128 0x13
 3162 0157 00       		.byte	0
 3163 0158 00       		.byte	0
 3164 0159 1D       		.uleb128 0x1d
ARM GAS  /tmp/ccFub3FT.s 			page 57


 3165 015a 34       		.uleb128 0x34
 3166 015b 00       		.byte	0
 3167 015c 03       		.uleb128 0x3
 3168 015d 08       		.uleb128 0x8
 3169 015e 3A       		.uleb128 0x3a
 3170 015f 0B       		.uleb128 0xb
 3171 0160 3B       		.uleb128 0x3b
 3172 0161 0B       		.uleb128 0xb
 3173 0162 49       		.uleb128 0x49
 3174 0163 13       		.uleb128 0x13
 3175 0164 02       		.uleb128 0x2
 3176 0165 18       		.uleb128 0x18
 3177 0166 00       		.byte	0
 3178 0167 00       		.byte	0
 3179 0168 1E       		.uleb128 0x1e
 3180 0169 34       		.uleb128 0x34
 3181 016a 00       		.byte	0
 3182 016b 03       		.uleb128 0x3
 3183 016c 08       		.uleb128 0x8
 3184 016d 3A       		.uleb128 0x3a
 3185 016e 0B       		.uleb128 0xb
 3186 016f 3B       		.uleb128 0x3b
 3187 0170 0B       		.uleb128 0xb
 3188 0171 49       		.uleb128 0x49
 3189 0172 13       		.uleb128 0x13
 3190 0173 02       		.uleb128 0x2
 3191 0174 17       		.uleb128 0x17
 3192 0175 00       		.byte	0
 3193 0176 00       		.byte	0
 3194 0177 1F       		.uleb128 0x1f
 3195 0178 34       		.uleb128 0x34
 3196 0179 00       		.byte	0
 3197 017a 03       		.uleb128 0x3
 3198 017b 0E       		.uleb128 0xe
 3199 017c 3A       		.uleb128 0x3a
 3200 017d 0B       		.uleb128 0xb
 3201 017e 3B       		.uleb128 0x3b
 3202 017f 0B       		.uleb128 0xb
 3203 0180 49       		.uleb128 0x49
 3204 0181 13       		.uleb128 0x13
 3205 0182 02       		.uleb128 0x2
 3206 0183 18       		.uleb128 0x18
 3207 0184 00       		.byte	0
 3208 0185 00       		.byte	0
 3209 0186 20       		.uleb128 0x20
 3210 0187 898201   		.uleb128 0x4109
 3211 018a 01       		.byte	0x1
 3212 018b 11       		.uleb128 0x11
 3213 018c 01       		.uleb128 0x1
 3214 018d 31       		.uleb128 0x31
 3215 018e 13       		.uleb128 0x13
 3216 018f 01       		.uleb128 0x1
 3217 0190 13       		.uleb128 0x13
 3218 0191 00       		.byte	0
 3219 0192 00       		.byte	0
 3220 0193 21       		.uleb128 0x21
 3221 0194 8A8201   		.uleb128 0x410a
ARM GAS  /tmp/ccFub3FT.s 			page 58


 3222 0197 00       		.byte	0
 3223 0198 02       		.uleb128 0x2
 3224 0199 18       		.uleb128 0x18
 3225 019a 9142     		.uleb128 0x2111
 3226 019c 18       		.uleb128 0x18
 3227 019d 00       		.byte	0
 3228 019e 00       		.byte	0
 3229 019f 22       		.uleb128 0x22
 3230 01a0 898201   		.uleb128 0x4109
 3231 01a3 00       		.byte	0
 3232 01a4 11       		.uleb128 0x11
 3233 01a5 01       		.uleb128 0x1
 3234 01a6 31       		.uleb128 0x31
 3235 01a7 13       		.uleb128 0x13
 3236 01a8 00       		.byte	0
 3237 01a9 00       		.byte	0
 3238 01aa 23       		.uleb128 0x23
 3239 01ab 898201   		.uleb128 0x4109
 3240 01ae 01       		.byte	0x1
 3241 01af 11       		.uleb128 0x11
 3242 01b0 01       		.uleb128 0x1
 3243 01b1 31       		.uleb128 0x31
 3244 01b2 13       		.uleb128 0x13
 3245 01b3 00       		.byte	0
 3246 01b4 00       		.byte	0
 3247 01b5 24       		.uleb128 0x24
 3248 01b6 2E       		.uleb128 0x2e
 3249 01b7 01       		.byte	0x1
 3250 01b8 03       		.uleb128 0x3
 3251 01b9 0E       		.uleb128 0xe
 3252 01ba 3A       		.uleb128 0x3a
 3253 01bb 0B       		.uleb128 0xb
 3254 01bc 3B       		.uleb128 0x3b
 3255 01bd 0B       		.uleb128 0xb
 3256 01be 27       		.uleb128 0x27
 3257 01bf 19       		.uleb128 0x19
 3258 01c0 49       		.uleb128 0x49
 3259 01c1 13       		.uleb128 0x13
 3260 01c2 11       		.uleb128 0x11
 3261 01c3 01       		.uleb128 0x1
 3262 01c4 12       		.uleb128 0x12
 3263 01c5 06       		.uleb128 0x6
 3264 01c6 40       		.uleb128 0x40
 3265 01c7 18       		.uleb128 0x18
 3266 01c8 9742     		.uleb128 0x2117
 3267 01ca 19       		.uleb128 0x19
 3268 01cb 01       		.uleb128 0x1
 3269 01cc 13       		.uleb128 0x13
 3270 01cd 00       		.byte	0
 3271 01ce 00       		.byte	0
 3272 01cf 25       		.uleb128 0x25
 3273 01d0 05       		.uleb128 0x5
 3274 01d1 00       		.byte	0
 3275 01d2 03       		.uleb128 0x3
 3276 01d3 08       		.uleb128 0x8
 3277 01d4 3A       		.uleb128 0x3a
 3278 01d5 0B       		.uleb128 0xb
ARM GAS  /tmp/ccFub3FT.s 			page 59


 3279 01d6 3B       		.uleb128 0x3b
 3280 01d7 0B       		.uleb128 0xb
 3281 01d8 49       		.uleb128 0x49
 3282 01d9 13       		.uleb128 0x13
 3283 01da 02       		.uleb128 0x2
 3284 01db 17       		.uleb128 0x17
 3285 01dc 00       		.byte	0
 3286 01dd 00       		.byte	0
 3287 01de 26       		.uleb128 0x26
 3288 01df 898201   		.uleb128 0x4109
 3289 01e2 01       		.byte	0x1
 3290 01e3 11       		.uleb128 0x11
 3291 01e4 01       		.uleb128 0x1
 3292 01e5 9542     		.uleb128 0x2115
 3293 01e7 19       		.uleb128 0x19
 3294 01e8 31       		.uleb128 0x31
 3295 01e9 13       		.uleb128 0x13
 3296 01ea 00       		.byte	0
 3297 01eb 00       		.byte	0
 3298 01ec 27       		.uleb128 0x27
 3299 01ed 34       		.uleb128 0x34
 3300 01ee 00       		.byte	0
 3301 01ef 03       		.uleb128 0x3
 3302 01f0 0E       		.uleb128 0xe
 3303 01f1 3A       		.uleb128 0x3a
 3304 01f2 0B       		.uleb128 0xb
 3305 01f3 3B       		.uleb128 0x3b
 3306 01f4 0B       		.uleb128 0xb
 3307 01f5 49       		.uleb128 0x49
 3308 01f6 13       		.uleb128 0x13
 3309 01f7 02       		.uleb128 0x2
 3310 01f8 17       		.uleb128 0x17
 3311 01f9 00       		.byte	0
 3312 01fa 00       		.byte	0
 3313 01fb 28       		.uleb128 0x28
 3314 01fc 34       		.uleb128 0x34
 3315 01fd 00       		.byte	0
 3316 01fe 03       		.uleb128 0x3
 3317 01ff 0E       		.uleb128 0xe
 3318 0200 3A       		.uleb128 0x3a
 3319 0201 0B       		.uleb128 0xb
 3320 0202 3B       		.uleb128 0x3b
 3321 0203 0B       		.uleb128 0xb
 3322 0204 49       		.uleb128 0x49
 3323 0205 13       		.uleb128 0x13
 3324 0206 00       		.byte	0
 3325 0207 00       		.byte	0
 3326 0208 29       		.uleb128 0x29
 3327 0209 34       		.uleb128 0x34
 3328 020a 00       		.byte	0
 3329 020b 03       		.uleb128 0x3
 3330 020c 0E       		.uleb128 0xe
 3331 020d 3A       		.uleb128 0x3a
 3332 020e 0B       		.uleb128 0xb
 3333 020f 3B       		.uleb128 0x3b
 3334 0210 0B       		.uleb128 0xb
 3335 0211 49       		.uleb128 0x49
ARM GAS  /tmp/ccFub3FT.s 			page 60


 3336 0212 13       		.uleb128 0x13
 3337 0213 3F       		.uleb128 0x3f
 3338 0214 19       		.uleb128 0x19
 3339 0215 3C       		.uleb128 0x3c
 3340 0216 19       		.uleb128 0x19
 3341 0217 00       		.byte	0
 3342 0218 00       		.byte	0
 3343 0219 2A       		.uleb128 0x2a
 3344 021a 21       		.uleb128 0x21
 3345 021b 00       		.byte	0
 3346 021c 00       		.byte	0
 3347 021d 00       		.byte	0
 3348 021e 2B       		.uleb128 0x2b
 3349 021f 34       		.uleb128 0x34
 3350 0220 00       		.byte	0
 3351 0221 03       		.uleb128 0x3
 3352 0222 08       		.uleb128 0x8
 3353 0223 3A       		.uleb128 0x3a
 3354 0224 0B       		.uleb128 0xb
 3355 0225 3B       		.uleb128 0x3b
 3356 0226 0B       		.uleb128 0xb
 3357 0227 49       		.uleb128 0x49
 3358 0228 13       		.uleb128 0x13
 3359 0229 3F       		.uleb128 0x3f
 3360 022a 19       		.uleb128 0x19
 3361 022b 3C       		.uleb128 0x3c
 3362 022c 19       		.uleb128 0x19
 3363 022d 00       		.byte	0
 3364 022e 00       		.byte	0
 3365 022f 2C       		.uleb128 0x2c
 3366 0230 34       		.uleb128 0x34
 3367 0231 00       		.byte	0
 3368 0232 03       		.uleb128 0x3
 3369 0233 0E       		.uleb128 0xe
 3370 0234 3A       		.uleb128 0x3a
 3371 0235 0B       		.uleb128 0xb
 3372 0236 3B       		.uleb128 0x3b
 3373 0237 0B       		.uleb128 0xb
 3374 0238 49       		.uleb128 0x49
 3375 0239 13       		.uleb128 0x13
 3376 023a 3F       		.uleb128 0x3f
 3377 023b 19       		.uleb128 0x19
 3378 023c 02       		.uleb128 0x2
 3379 023d 18       		.uleb128 0x18
 3380 023e 00       		.byte	0
 3381 023f 00       		.byte	0
 3382 0240 2D       		.uleb128 0x2d
 3383 0241 2E       		.uleb128 0x2e
 3384 0242 01       		.byte	0x1
 3385 0243 3F       		.uleb128 0x3f
 3386 0244 19       		.uleb128 0x19
 3387 0245 03       		.uleb128 0x3
 3388 0246 0E       		.uleb128 0xe
 3389 0247 3A       		.uleb128 0x3a
 3390 0248 0B       		.uleb128 0xb
 3391 0249 3B       		.uleb128 0x3b
 3392 024a 0B       		.uleb128 0xb
ARM GAS  /tmp/ccFub3FT.s 			page 61


 3393 024b 27       		.uleb128 0x27
 3394 024c 19       		.uleb128 0x19
 3395 024d 49       		.uleb128 0x49
 3396 024e 13       		.uleb128 0x13
 3397 024f 3C       		.uleb128 0x3c
 3398 0250 19       		.uleb128 0x19
 3399 0251 01       		.uleb128 0x1
 3400 0252 13       		.uleb128 0x13
 3401 0253 00       		.byte	0
 3402 0254 00       		.byte	0
 3403 0255 2E       		.uleb128 0x2e
 3404 0256 2E       		.uleb128 0x2e
 3405 0257 01       		.byte	0x1
 3406 0258 3F       		.uleb128 0x3f
 3407 0259 19       		.uleb128 0x19
 3408 025a 03       		.uleb128 0x3
 3409 025b 0E       		.uleb128 0xe
 3410 025c 3A       		.uleb128 0x3a
 3411 025d 0B       		.uleb128 0xb
 3412 025e 3B       		.uleb128 0x3b
 3413 025f 0B       		.uleb128 0xb
 3414 0260 27       		.uleb128 0x27
 3415 0261 19       		.uleb128 0x19
 3416 0262 3C       		.uleb128 0x3c
 3417 0263 19       		.uleb128 0x19
 3418 0264 01       		.uleb128 0x1
 3419 0265 13       		.uleb128 0x13
 3420 0266 00       		.byte	0
 3421 0267 00       		.byte	0
 3422 0268 2F       		.uleb128 0x2f
 3423 0269 2E       		.uleb128 0x2e
 3424 026a 00       		.byte	0
 3425 026b 3F       		.uleb128 0x3f
 3426 026c 19       		.uleb128 0x19
 3427 026d 03       		.uleb128 0x3
 3428 026e 0E       		.uleb128 0xe
 3429 026f 3A       		.uleb128 0x3a
 3430 0270 0B       		.uleb128 0xb
 3431 0271 3B       		.uleb128 0x3b
 3432 0272 0B       		.uleb128 0xb
 3433 0273 27       		.uleb128 0x27
 3434 0274 19       		.uleb128 0x19
 3435 0275 3C       		.uleb128 0x3c
 3436 0276 19       		.uleb128 0x19
 3437 0277 00       		.byte	0
 3438 0278 00       		.byte	0
 3439 0279 30       		.uleb128 0x30
 3440 027a 2E       		.uleb128 0x2e
 3441 027b 00       		.byte	0
 3442 027c 3F       		.uleb128 0x3f
 3443 027d 19       		.uleb128 0x19
 3444 027e 03       		.uleb128 0x3
 3445 027f 0E       		.uleb128 0xe
 3446 0280 3A       		.uleb128 0x3a
 3447 0281 0B       		.uleb128 0xb
 3448 0282 3B       		.uleb128 0x3b
 3449 0283 0B       		.uleb128 0xb
ARM GAS  /tmp/ccFub3FT.s 			page 62


 3450 0284 27       		.uleb128 0x27
 3451 0285 19       		.uleb128 0x19
 3452 0286 49       		.uleb128 0x49
 3453 0287 13       		.uleb128 0x13
 3454 0288 3C       		.uleb128 0x3c
 3455 0289 19       		.uleb128 0x19
 3456 028a 00       		.byte	0
 3457 028b 00       		.byte	0
 3458 028c 31       		.uleb128 0x31
 3459 028d 2E       		.uleb128 0x2e
 3460 028e 01       		.byte	0x1
 3461 028f 3F       		.uleb128 0x3f
 3462 0290 19       		.uleb128 0x19
 3463 0291 03       		.uleb128 0x3
 3464 0292 0E       		.uleb128 0xe
 3465 0293 3A       		.uleb128 0x3a
 3466 0294 0B       		.uleb128 0xb
 3467 0295 3B       		.uleb128 0x3b
 3468 0296 05       		.uleb128 0x5
 3469 0297 27       		.uleb128 0x27
 3470 0298 19       		.uleb128 0x19
 3471 0299 3C       		.uleb128 0x3c
 3472 029a 19       		.uleb128 0x19
 3473 029b 00       		.byte	0
 3474 029c 00       		.byte	0
 3475 029d 00       		.byte	0
 3476              		.section	.debug_loc,"",%progbits
 3477              	.Ldebug_loc0:
 3478              	.LLST0:
 3479 0000 56000000 		.4byte	.LVL6
 3480 0004 5C000000 		.4byte	.LVL7
 3481 0008 0100     		.2byte	0x1
 3482 000a 50       		.byte	0x50
 3483 000b 5C000000 		.4byte	.LVL7
 3484 000f F0000000 		.4byte	.LFE9
 3485 0013 0100     		.2byte	0x1
 3486 0015 56       		.byte	0x56
 3487 0016 00000000 		.4byte	0
 3488 001a 00000000 		.4byte	0
 3489              	.LLST1:
 3490 001e 00000000 		.4byte	.LVL17
 3491 0022 04000000 		.4byte	.LVL18
 3492 0026 0100     		.2byte	0x1
 3493 0028 50       		.byte	0x50
 3494 0029 04000000 		.4byte	.LVL18
 3495 002d 0C000000 		.4byte	.LFE7
 3496 0031 0400     		.2byte	0x4
 3497 0033 F3       		.byte	0xf3
 3498 0034 01       		.uleb128 0x1
 3499 0035 50       		.byte	0x50
 3500 0036 9F       		.byte	0x9f
 3501 0037 00000000 		.4byte	0
 3502 003b 00000000 		.4byte	0
 3503              	.LLST2:
 3504 003f 0A000000 		.4byte	.LVL22
 3505 0043 0E000000 		.4byte	.LVL23
 3506 0047 0200     		.2byte	0x2
ARM GAS  /tmp/ccFub3FT.s 			page 63


 3507 0049 30       		.byte	0x30
 3508 004a 9F       		.byte	0x9f
 3509 004b 98000000 		.4byte	.LVL34
 3510 004f AA000000 		.4byte	.LVL36
 3511 0053 0500     		.2byte	0x5
 3512 0055 34       		.byte	0x34
 3513 0056 74       		.byte	0x74
 3514 0057 00       		.sleb128 0
 3515 0058 1C       		.byte	0x1c
 3516 0059 9F       		.byte	0x9f
 3517 005a AA000000 		.4byte	.LVL36
 3518 005e B0000000 		.4byte	.LVL37
 3519 0062 0500     		.2byte	0x5
 3520 0064 35       		.byte	0x35
 3521 0065 74       		.byte	0x74
 3522 0066 00       		.sleb128 0
 3523 0067 1C       		.byte	0x1c
 3524 0068 9F       		.byte	0x9f
 3525 0069 B0000000 		.4byte	.LVL37
 3526 006d C6000000 		.4byte	.LVL39
 3527 0071 0500     		.2byte	0x5
 3528 0073 34       		.byte	0x34
 3529 0074 74       		.byte	0x74
 3530 0075 00       		.sleb128 0
 3531 0076 1C       		.byte	0x1c
 3532 0077 9F       		.byte	0x9f
 3533 0078 00000000 		.4byte	0
 3534 007c 00000000 		.4byte	0
 3535              	.LLST3:
 3536 0080 0A000000 		.4byte	.LVL22
 3537 0084 C6000000 		.4byte	.LVL39
 3538 0088 0100     		.2byte	0x1
 3539 008a 55       		.byte	0x55
 3540 008b 00000000 		.4byte	0
 3541 008f 00000000 		.4byte	0
 3542              	.LLST4:
 3543 0093 00000000 		.4byte	.LVL42
 3544 0097 07000000 		.4byte	.LVL43-1
 3545 009b 0100     		.2byte	0x1
 3546 009d 50       		.byte	0x50
 3547 009e 07000000 		.4byte	.LVL43-1
 3548 00a2 24000000 		.4byte	.LFE12
 3549 00a6 0100     		.2byte	0x1
 3550 00a8 55       		.byte	0x55
 3551 00a9 00000000 		.4byte	0
 3552 00ad 00000000 		.4byte	0
 3553              	.LLST5:
 3554 00b1 0C000000 		.4byte	.LVL44
 3555 00b5 19000000 		.4byte	.LVL46-1
 3556 00b9 0100     		.2byte	0x1
 3557 00bb 50       		.byte	0x50
 3558 00bc 1A000000 		.4byte	.LVL46
 3559 00c0 22000000 		.4byte	.LVL47
 3560 00c4 0100     		.2byte	0x1
 3561 00c6 50       		.byte	0x50
 3562 00c7 22000000 		.4byte	.LVL47
 3563 00cb 24000000 		.4byte	.LFE12
ARM GAS  /tmp/ccFub3FT.s 			page 64


 3564 00cf 0100     		.2byte	0x1
 3565 00d1 53       		.byte	0x53
 3566 00d2 00000000 		.4byte	0
 3567 00d6 00000000 		.4byte	0
 3568              	.LLST6:
 3569 00da 00000000 		.4byte	.LVL42
 3570 00de 0C000000 		.4byte	.LVL44
 3571 00e2 0200     		.2byte	0x2
 3572 00e4 30       		.byte	0x30
 3573 00e5 9F       		.byte	0x9f
 3574 00e6 0C000000 		.4byte	.LVL44
 3575 00ea 24000000 		.4byte	.LFE12
 3576 00ee 0100     		.2byte	0x1
 3577 00f0 54       		.byte	0x54
 3578 00f1 00000000 		.4byte	0
 3579 00f5 00000000 		.4byte	0
 3580              	.LLST7:
 3581 00f9 1E000000 		.4byte	.LVL51
 3582 00fd 20000000 		.4byte	.LVL52
 3583 0101 0100     		.2byte	0x1
 3584 0103 50       		.byte	0x50
 3585 0104 20000000 		.4byte	.LVL52
 3586 0108 30010000 		.4byte	.LVL75
 3587 010c 0100     		.2byte	0x1
 3588 010e 54       		.byte	0x54
 3589 010f 00000000 		.4byte	0
 3590 0113 00000000 		.4byte	0
 3591              		.section	.debug_aranges,"",%progbits
 3592 0000 54000000 		.4byte	0x54
 3593 0004 0200     		.2byte	0x2
 3594 0006 00000000 		.4byte	.Ldebug_info0
 3595 000a 04       		.byte	0x4
 3596 000b 00       		.byte	0
 3597 000c 0000     		.2byte	0
 3598 000e 0000     		.2byte	0
 3599 0010 00000000 		.4byte	.LFB9
 3600 0014 F0000000 		.4byte	.LFE9-.LFB9
 3601 0018 00000000 		.4byte	.LFB7
 3602 001c 0C000000 		.4byte	.LFE7-.LFB7
 3603 0020 00000000 		.4byte	.LFB8
 3604 0024 14000000 		.4byte	.LFE8-.LFB8
 3605 0028 00000000 		.4byte	.LFB13
 3606 002c 14000000 		.4byte	.LFE13-.LFB13
 3607 0030 00000000 		.4byte	.LFB11
 3608 0034 F8000000 		.4byte	.LFE11-.LFB11
 3609 0038 00000000 		.4byte	.LFB10
 3610 003c 10000000 		.4byte	.LFE10-.LFB10
 3611 0040 00000000 		.4byte	.LFB12
 3612 0044 24000000 		.4byte	.LFE12-.LFB12
 3613 0048 00000000 		.4byte	.LFB14
 3614 004c 44010000 		.4byte	.LFE14-.LFB14
 3615 0050 00000000 		.4byte	0
 3616 0054 00000000 		.4byte	0
 3617              		.section	.debug_ranges,"",%progbits
 3618              	.Ldebug_ranges0:
 3619 0000 00000000 		.4byte	.LFB9
 3620 0004 F0000000 		.4byte	.LFE9
ARM GAS  /tmp/ccFub3FT.s 			page 65


 3621 0008 00000000 		.4byte	.LFB7
 3622 000c 0C000000 		.4byte	.LFE7
 3623 0010 00000000 		.4byte	.LFB8
 3624 0014 14000000 		.4byte	.LFE8
 3625 0018 00000000 		.4byte	.LFB13
 3626 001c 14000000 		.4byte	.LFE13
 3627 0020 00000000 		.4byte	.LFB11
 3628 0024 F8000000 		.4byte	.LFE11
 3629 0028 00000000 		.4byte	.LFB10
 3630 002c 10000000 		.4byte	.LFE10
 3631 0030 00000000 		.4byte	.LFB12
 3632 0034 24000000 		.4byte	.LFE12
 3633 0038 00000000 		.4byte	.LFB14
 3634 003c 44010000 		.4byte	.LFE14
 3635 0040 00000000 		.4byte	0
 3636 0044 00000000 		.4byte	0
 3637              		.section	.debug_line,"",%progbits
 3638              	.Ldebug_line0:
 3639 0000 87020000 		.section	.debug_str,"MS",%progbits,1
 3639      02006601 
 3639      00000201 
 3639      FB0E0D00 
 3639      01010101 
 3640              	.LASF84:
 3641 0000 7466756E 		.ascii	"tfunc_t\000"
 3641      635F7400 
 3642              	.LASF40:
 3643 0008 705F6D73 		.ascii	"p_msg\000"
 3643      6700
 3644              	.LASF2:
 3645 000e 73697A65 		.ascii	"size_t\000"
 3645      5F7400
 3646              	.LASF93:
 3647 0015 7072696F 		.ascii	"prio\000"
 3647      00
 3648              	.LASF79:
 3649 001a 7264796D 		.ascii	"rdymsg\000"
 3649      736700
 3650              	.LASF12:
 3651 0021 75696E74 		.ascii	"uint64_t\000"
 3651      36345F74 
 3651      00
 3652              	.LASF78:
 3653 002a 4D656D6F 		.ascii	"MemoryPool\000"
 3653      7279506F 
 3653      6F6C00
 3654              	.LASF63:
 3655 0035 6D656D67 		.ascii	"memgetfunc_t\000"
 3655      65746675 
 3655      6E635F74 
 3655      00
 3656              	.LASF13:
 3657 0042 6C6F6E67 		.ascii	"long long unsigned int\000"
 3657      206C6F6E 
 3657      6720756E 
 3657      7369676E 
 3657      65642069 
ARM GAS  /tmp/ccFub3FT.s 			page 66


 3658              	.LASF80:
 3659 0059 65786974 		.ascii	"exitcode\000"
 3659      636F6465 
 3659      00
 3660              	.LASF67:
 3661 0062 685F6672 		.ascii	"h_free\000"
 3661      656500
 3662              	.LASF106:
 3663 0069 74657374 		.ascii	"test\000"
 3663      00
 3664              	.LASF130:
 3665 006e 63685265 		.ascii	"chRegFirstThread\000"
 3665      67466972 
 3665      73745468 
 3665      72656164 
 3665      00
 3666              	.LASF118:
 3667 007f 63684865 		.ascii	"chHeapInit\000"
 3667      6170496E 
 3667      697400
 3668              	.LASF69:
 3669 008a 6E657874 		.ascii	"next\000"
 3669      00
 3670              	.LASF27:
 3671 008f 705F7072 		.ascii	"p_prio\000"
 3671      696F00
 3672              	.LASF98:
 3673 0096 64796E32 		.ascii	"dyn2_setup\000"
 3673      5F736574 
 3673      757000
 3674              	.LASF11:
 3675 00a1 6C6F6E67 		.ascii	"long long int\000"
 3675      206C6F6E 
 3675      6720696E 
 3675      7400
 3676              	.LASF1:
 3677 00af 7369676E 		.ascii	"signed char\000"
 3677      65642063 
 3677      68617200 
 3678              	.LASF68:
 3679 00bb 685F6D74 		.ascii	"h_mtx\000"
 3679      7800
 3680              	.LASF44:
 3681 00c1 705F6D70 		.ascii	"p_mpool\000"
 3681      6F6F6C00 
 3682              	.LASF14:
 3683 00c9 626F6F6C 		.ascii	"bool_t\000"
 3683      5F7400
 3684              	.LASF60:
 3685 00d0 6D5F7175 		.ascii	"m_queue\000"
 3685      65756500 
 3686              	.LASF117:
 3687 00d8 74657374 		.ascii	"test_emit_token\000"
 3687      5F656D69 
 3687      745F746F 
 3687      6B656E00 
 3688              	.LASF116:
ARM GAS  /tmp/ccFub3FT.s 			page 67


 3689 00e8 63684865 		.ascii	"chHeapFree\000"
 3689      61704672 
 3689      656500
 3690              	.LASF19:
 3691 00f3 74736C69 		.ascii	"tslices_t\000"
 3691      6365735F 
 3691      7400
 3692              	.LASF8:
 3693 00fd 6C6F6E67 		.ascii	"long int\000"
 3693      20696E74 
 3693      00
 3694              	.LASF112:
 3695 0106 63685468 		.ascii	"chThdCreateFromHeap\000"
 3695      64437265 
 3695      61746546 
 3695      726F6D48 
 3695      65617000 
 3696              	.LASF17:
 3697 011a 74737461 		.ascii	"tstate_t\000"
 3697      74655F74 
 3697      00
 3698              	.LASF75:
 3699 0123 6D705F6E 		.ascii	"mp_next\000"
 3699      65787400 
 3700              	.LASF94:
 3701 012b 64796E31 		.ascii	"dyn1_execute\000"
 3701      5F657865 
 3701      63757465 
 3701      00
 3702              	.LASF29:
 3703 0138 705F6E65 		.ascii	"p_newer\000"
 3703      77657200 
 3704              	.LASF120:
 3705 0140 63685468 		.ascii	"chThdCreateFromMemoryPool\000"
 3705      64437265 
 3705      61746546 
 3705      726F6D4D 
 3705      656D6F72 
 3706              	.LASF55:
 3707 015a 725F6E65 		.ascii	"r_newer\000"
 3707      77657200 
 3708              	.LASF77:
 3709 0162 6D705F70 		.ascii	"mp_provider\000"
 3709      726F7669 
 3709      64657200 
 3710              	.LASF47:
 3711 016e 72656761 		.ascii	"regarm_t\000"
 3711      726D5F74 
 3711      00
 3712              	.LASF71:
 3713 0177 616C6967 		.ascii	"align\000"
 3713      6E00
 3714              	.LASF32:
 3715 017d 705F7374 		.ascii	"p_stklimit\000"
 3715      6B6C696D 
 3715      697400
 3716              	.LASF0:
ARM GAS  /tmp/ccFub3FT.s 			page 68


 3717 0188 756E7369 		.ascii	"unsigned int\000"
 3717      676E6564 
 3717      20696E74 
 3717      00
 3718              	.LASF10:
 3719 0195 6C6F6E67 		.ascii	"long unsigned int\000"
 3719      20756E73 
 3719      69676E65 
 3719      6420696E 
 3719      7400
 3720              	.LASF88:
 3721 01a7 74656172 		.ascii	"teardown\000"
 3721      646F776E 
 3721      00
 3722              	.LASF95:
 3723 01b0 64796E31 		.ascii	"dyn1_setup\000"
 3723      5F736574 
 3723      757000
 3724              	.LASF86:
 3725 01bb 6E616D65 		.ascii	"name\000"
 3725      00
 3726              	.LASF50:
 3727 01c0 636F6E74 		.ascii	"context\000"
 3727      65787400 
 3728              	.LASF72:
 3729 01c8 73697A65 		.ascii	"size\000"
 3729      00
 3730              	.LASF6:
 3731 01cd 73686F72 		.ascii	"short unsigned int\000"
 3731      7420756E 
 3731      7369676E 
 3731      65642069 
 3731      6E7400
 3732              	.LASF97:
 3733 01e0 64796E32 		.ascii	"dyn2_execute\000"
 3733      5F657865 
 3733      63757465 
 3733      00
 3734              	.LASF21:
 3735 01ed 6D73675F 		.ascii	"msg_t\000"
 3735      7400
 3736              	.LASF16:
 3737 01f3 746D6F64 		.ascii	"tmode_t\000"
 3737      655F7400 
 3738              	.LASF46:
 3739 01fb 54687265 		.ascii	"ThreadsList\000"
 3739      6164734C 
 3739      69737400 
 3740              	.LASF128:
 3741 0207 2F686F6D 		.ascii	"/home/john/git/ChibiOS-RT/testhal/STM32F30x/ADC\000"
 3741      652F6A6F 
 3741      686E2F67 
 3741      69742F43 
 3741      68696269 
 3742              	.LASF22:
 3743 0237 6576656E 		.ascii	"eventmask_t\000"
 3743      746D6173 
ARM GAS  /tmp/ccFub3FT.s 			page 69


 3743      6B5F7400 
 3744              	.LASF59:
 3745 0243 4D757465 		.ascii	"Mutex\000"
 3745      7800
 3746              	.LASF124:
 3747 0249 63685468 		.ascii	"chThdAddRef\000"
 3747      64416464 
 3747      52656600 
 3748              	.LASF48:
 3749 0255 73746B61 		.ascii	"stkalign_t\000"
 3749      6C69676E 
 3749      5F7400
 3750              	.LASF51:
 3751 0260 73697A65 		.ascii	"sizetype\000"
 3751      74797065 
 3751      00
 3752              	.LASF65:
 3753 0269 6D656D6F 		.ascii	"memory_heap\000"
 3753      72795F68 
 3753      65617000 
 3754              	.LASF107:
 3755 0275 74657374 		.ascii	"testdyn1\000"
 3755      64796E31 
 3755      00
 3756              	.LASF108:
 3757 027e 74657374 		.ascii	"testdyn2\000"
 3757      64796E32 
 3757      00
 3758              	.LASF109:
 3759 0287 74657374 		.ascii	"testdyn3\000"
 3759      64796E33 
 3759      00
 3760              	.LASF102:
 3761 0290 64796E33 		.ascii	"dyn3_execute\000"
 3761      5F657865 
 3761      63757465 
 3761      00
 3762              	.LASF30:
 3763 029d 705F6F6C 		.ascii	"p_older\000"
 3763      64657200 
 3764              	.LASF54:
 3765 02a5 725F6374 		.ascii	"r_ctx\000"
 3765      7800
 3766              	.LASF45:
 3767 02ab 54687265 		.ascii	"ThreadsQueue\000"
 3767      61647351 
 3767      75657565 
 3767      00
 3768              	.LASF76:
 3769 02b8 6D705F6F 		.ascii	"mp_object_size\000"
 3769      626A6563 
 3769      745F7369 
 3769      7A6500
 3770              	.LASF87:
 3771 02c7 73657475 		.ascii	"setup\000"
 3771      7000
 3772              	.LASF115:
ARM GAS  /tmp/ccFub3FT.s 			page 70


 3773 02cd 5F746573 		.ascii	"_test_assert_sequence\000"
 3773      745F6173 
 3773      73657274 
 3773      5F736571 
 3773      75656E63 
 3774              	.LASF57:
 3775 02e3 725F6375 		.ascii	"r_current\000"
 3775      7272656E 
 3775      7400
 3776              	.LASF56:
 3777 02ed 725F6F6C 		.ascii	"r_older\000"
 3777      64657200 
 3778              	.LASF64:
 3779 02f5 4D656D6F 		.ascii	"MemoryHeap\000"
 3779      72794865 
 3779      617000
 3780              	.LASF74:
 3781 0300 70685F6E 		.ascii	"ph_next\000"
 3781      65787400 
 3782              	.LASF18:
 3783 0308 74726566 		.ascii	"trefs_t\000"
 3783      735F7400 
 3784              	.LASF26:
 3785 0310 705F7072 		.ascii	"p_prev\000"
 3785      657600
 3786              	.LASF89:
 3787 0317 65786563 		.ascii	"execute\000"
 3787      75746500 
 3788              	.LASF20:
 3789 031f 74707269 		.ascii	"tprio_t\000"
 3789      6F5F7400 
 3790              	.LASF126:
 3791 0327 474E5520 		.ascii	"GNU C 4.8.3 20131129 (release) [ARM/embedded-4_8-br"
 3791      4320342E 
 3791      382E3320 
 3791      32303133 
 3791      31313239 
 3792 035a 616E6368 		.ascii	"anch revision 205641] -mcpu=cortex-m4 -mno-thumb-in"
 3792      20726576 
 3792      6973696F 
 3792      6E203230 
 3792      35363431 
 3793 038d 74657277 		.ascii	"terwork -mthumb -ggdb -O2 -fomit-frame-pointer -fal"
 3793      6F726B20 
 3793      2D6D7468 
 3793      756D6220 
 3793      2D676764 
 3794 03c0 69676E2D 		.ascii	"ign-functions=16 -ffunction-sections -fdata-section"
 3794      66756E63 
 3794      74696F6E 
 3794      733D3136 
 3794      202D6666 
 3795 03f3 73202D66 		.ascii	"s -fno-common\000"
 3795      6E6F2D63 
 3795      6F6D6D6F 
 3795      6E00
 3796              	.LASF99:
ARM GAS  /tmp/ccFub3FT.s 			page 71


 3797 0401 74687265 		.ascii	"thread\000"
 3797      616400
 3798              	.LASF15:
 3799 0408 5F426F6F 		.ascii	"_Bool\000"
 3799      6C00
 3800              	.LASF7:
 3801 040e 696E7433 		.ascii	"int32_t\000"
 3801      325F7400 
 3802              	.LASF4:
 3803 0416 756E7369 		.ascii	"unsigned char\000"
 3803      676E6564 
 3803      20636861 
 3803      7200
 3804              	.LASF66:
 3805 0424 685F7072 		.ascii	"h_provider\000"
 3805      6F766964 
 3805      657200
 3806              	.LASF42:
 3807 042f 705F6D74 		.ascii	"p_mtxlist\000"
 3807      786C6973 
 3807      7400
 3808              	.LASF5:
 3809 0439 73686F72 		.ascii	"short int\000"
 3809      7420696E 
 3809      7400
 3810              	.LASF33:
 3811 0443 705F7374 		.ascii	"p_state\000"
 3811      61746500 
 3812              	.LASF36:
 3813 044b 705F7072 		.ascii	"p_preempt\000"
 3813      65656D70 
 3813      7400
 3814              	.LASF105:
 3815 0455 74687265 		.ascii	"threads\000"
 3815      61647300 
 3816              	.LASF53:
 3817 045d 725F7072 		.ascii	"r_prio\000"
 3817      696F00
 3818              	.LASF90:
 3819 0464 68656170 		.ascii	"heap_header\000"
 3819      5F686561 
 3819      64657200 
 3820              	.LASF82:
 3821 0470 65776D61 		.ascii	"ewmask\000"
 3821      736B00
 3822              	.LASF25:
 3823 0477 705F6E65 		.ascii	"p_next\000"
 3823      787400
 3824              	.LASF34:
 3825 047e 705F666C 		.ascii	"p_flags\000"
 3825      61677300 
 3826              	.LASF125:
 3827 0486 63685468 		.ascii	"chThdRelease\000"
 3827      6452656C 
 3827      65617365 
 3827      00
 3828              	.LASF24:
ARM GAS  /tmp/ccFub3FT.s 			page 72


 3829 0493 54687265 		.ascii	"Thread\000"
 3829      616400
 3830              	.LASF113:
 3831 049a 63684865 		.ascii	"chHeapAlloc\000"
 3831      6170416C 
 3831      6C6F6300 
 3832              	.LASF85:
 3833 04a6 74657374 		.ascii	"testcase\000"
 3833      63617365 
 3833      00
 3834              	.LASF41:
 3835 04af 705F6570 		.ascii	"p_epending\000"
 3835      656E6469 
 3835      6E6700
 3836              	.LASF131:
 3837 04ba 63685468 		.ascii	"chThdSleep\000"
 3837      64536C65 
 3837      657000
 3838              	.LASF9:
 3839 04c5 75696E74 		.ascii	"uint32_t\000"
 3839      33325F74 
 3839      00
 3840              	.LASF52:
 3841 04ce 725F7175 		.ascii	"r_queue\000"
 3841      65756500 
 3842              	.LASF70:
 3843 04d6 68656170 		.ascii	"heap\000"
 3843      00
 3844              	.LASF83:
 3845 04db 63686172 		.ascii	"char\000"
 3845      00
 3846              	.LASF123:
 3847 04e0 63685265 		.ascii	"chRegNextThread\000"
 3847      674E6578 
 3847      74546872 
 3847      65616400 
 3848              	.LASF96:
 3849 04f0 64796E33 		.ascii	"dyn3_setup\000"
 3849      5F736574 
 3849      757000
 3850              	.LASF111:
 3851 04fb 63684865 		.ascii	"chHeapStatus\000"
 3851      61705374 
 3851      61747573 
 3851      00
 3852              	.LASF129:
 3853 0508 74657374 		.ascii	"test_wait_threads\000"
 3853      5F776169 
 3853      745F7468 
 3853      72656164 
 3853      7300
 3854              	.LASF62:
 3855 051a 6D5F6E65 		.ascii	"m_next\000"
 3855      787400
 3856              	.LASF23:
 3857 0521 73797374 		.ascii	"systime_t\000"
 3857      696D655F 
ARM GAS  /tmp/ccFub3FT.s 			page 73


 3857      7400
 3858              	.LASF43:
 3859 052b 705F7265 		.ascii	"p_realprio\000"
 3859      616C7072 
 3859      696F00
 3860              	.LASF92:
 3861 0536 62756666 		.ascii	"buffer\000"
 3861      657200
 3862              	.LASF110:
 3863 053d 70617474 		.ascii	"patterndyn\000"
 3863      65726E64 
 3863      796E00
 3864              	.LASF37:
 3865 0548 705F7469 		.ascii	"p_time\000"
 3865      6D6500
 3866              	.LASF49:
 3867 054f 696E7463 		.ascii	"intctx\000"
 3867      747800
 3868              	.LASF39:
 3869 0556 705F6D73 		.ascii	"p_msgqueue\000"
 3869      67717565 
 3869      756500
 3870              	.LASF122:
 3871 0561 6368506F 		.ascii	"chPoolInit\000"
 3871      6F6C496E 
 3871      697400
 3872              	.LASF101:
 3873 056c 666F756E 		.ascii	"found\000"
 3873      6400
 3874              	.LASF91:
 3875 0572 74657374 		.ascii	"test_buffers\000"
 3875      5F627566 
 3875      66657273 
 3875      00
 3876              	.LASF73:
 3877 057f 706F6F6C 		.ascii	"pool_header\000"
 3877      5F686561 
 3877      64657200 
 3878              	.LASF35:
 3879 058b 705F7265 		.ascii	"p_refs\000"
 3879      667300
 3880              	.LASF58:
 3881 0592 52656164 		.ascii	"ReadyList\000"
 3881      794C6973 
 3881      7400
 3882              	.LASF100:
 3883 059c 72656766 		.ascii	"regfind\000"
 3883      696E6400 
 3884              	.LASF104:
 3885 05a4 726C6973 		.ascii	"rlist\000"
 3885      7400
 3886              	.LASF3:
 3887 05aa 75696E74 		.ascii	"uint8_t\000"
 3887      385F7400 
 3888              	.LASF121:
 3889 05b2 6368506F 		.ascii	"chPoolAlloc\000"
 3889      6F6C416C 
ARM GAS  /tmp/ccFub3FT.s 			page 74


 3889      6C6F6300 
 3890              	.LASF119:
 3891 05be 6368506F 		.ascii	"chPoolFree\000"
 3891      6F6C4672 
 3891      656500
 3892              	.LASF81:
 3893 05c9 77746F62 		.ascii	"wtobjp\000"
 3893      6A7000
 3894              	.LASF31:
 3895 05d0 705F6E61 		.ascii	"p_name\000"
 3895      6D6500
 3896              	.LASF114:
 3897 05d7 5F746573 		.ascii	"_test_assert\000"
 3897      745F6173 
 3897      73657274 
 3897      00
 3898              	.LASF61:
 3899 05e4 6D5F6F77 		.ascii	"m_owner\000"
 3899      6E657200 
 3900              	.LASF28:
 3901 05ec 705F6374 		.ascii	"p_ctx\000"
 3901      7800
 3902              	.LASF38:
 3903 05f2 705F7761 		.ascii	"p_waiting\000"
 3903      6974696E 
 3903      6700
 3904              	.LASF103:
 3905 05fc 68656170 		.ascii	"heap1\000"
 3905      3100
 3906              	.LASF127:
 3907 0602 2E2E2F2E 		.ascii	"../../../test/testdyn.c\000"
 3907      2E2F2E2E 
 3907      2F746573 
 3907      742F7465 
 3907      73746479 
 3908              		.ident	"GCC: (GNU Tools for ARM Embedded Processors) 4.8.3 20131129 (release) [ARM/embedded-4_8-br
ARM GAS  /tmp/ccFub3FT.s 			page 75


DEFINED SYMBOLS
                            *ABS*:0000000000000000 testdyn.c
     /tmp/ccFub3FT.s:19     .text.dyn1_execute:0000000000000000 $t
     /tmp/ccFub3FT.s:24     .text.dyn1_execute:0000000000000000 dyn1_execute
     /tmp/ccFub3FT.s:176    .text.dyn1_execute:00000000000000d0 $d
     /tmp/ccFub3FT.s:193    .text.thread:0000000000000000 thread
     /tmp/ccFub3FT.s:188    .text.thread:0000000000000000 $t
     /tmp/ccFub3FT.s:216    .text.dyn1_setup:0000000000000000 $t
     /tmp/ccFub3FT.s:221    .text.dyn1_setup:0000000000000000 dyn1_setup
     /tmp/ccFub3FT.s:237    .text.dyn1_setup:000000000000000c $d
     /tmp/ccFub3FT.s:243    .text.dyn3_setup:0000000000000000 $t
     /tmp/ccFub3FT.s:248    .text.dyn3_setup:0000000000000000 dyn3_setup
     /tmp/ccFub3FT.s:264    .text.dyn3_setup:000000000000000c $d
     /tmp/ccFub3FT.s:270    .text.dyn2_execute:0000000000000000 $t
     /tmp/ccFub3FT.s:275    .text.dyn2_execute:0000000000000000 dyn2_execute
     /tmp/ccFub3FT.s:426    .text.dyn2_execute:00000000000000cc $d
     /tmp/ccFub3FT.s:441    .text.dyn2_setup:0000000000000000 $t
     /tmp/ccFub3FT.s:446    .text.dyn2_setup:0000000000000000 dyn2_setup
     /tmp/ccFub3FT.s:462    .text.dyn2_setup:000000000000000c $d
     /tmp/ccFub3FT.s:467    .text.regfind:0000000000000000 $t
     /tmp/ccFub3FT.s:472    .text.regfind:0000000000000000 regfind
     /tmp/ccFub3FT.s:518    .text.dyn3_execute:0000000000000000 $t
     /tmp/ccFub3FT.s:523    .text.dyn3_execute:0000000000000000 dyn3_execute
     /tmp/ccFub3FT.s:707    .text.dyn3_execute:0000000000000134 $d
     /tmp/ccFub3FT.s:786    .rodata.patterndyn:0000000000000000 patterndyn
     /tmp/ccFub3FT.s:740    .rodata.testdyn3:0000000000000000 testdyn3
     /tmp/ccFub3FT.s:731    .rodata.testdyn2:0000000000000000 testdyn2
     /tmp/ccFub3FT.s:722    .rodata.testdyn1:0000000000000000 testdyn1
     /tmp/ccFub3FT.s:719    .rodata.testdyn1:0000000000000000 $d
     /tmp/ccFub3FT.s:728    .rodata.testdyn2:0000000000000000 $d
     /tmp/ccFub3FT.s:737    .rodata.testdyn3:0000000000000000 $d
     /tmp/ccFub3FT.s:746    .bss.mp1:0000000000000000 $d
     /tmp/ccFub3FT.s:750    .bss.mp1:0000000000000000 mp1
     /tmp/ccFub3FT.s:753    .rodata.str1.4:0000000000000000 $d
     /tmp/ccFub3FT.s:783    .rodata.patterndyn:0000000000000000 $d
     /tmp/ccFub3FT.s:792    .bss.heap1:0000000000000000 $d
     /tmp/ccFub3FT.s:796    .bss.heap1:0000000000000000 heap1
                     .debug_frame:0000000000000010 $d
     /tmp/ccFub3FT.s:242    .text.dyn1_setup:0000000000000014 $t
     /tmp/ccFub3FT.s:269    .text.dyn3_setup:0000000000000014 $t
     /tmp/ccFub3FT.s:440    .text.dyn2_execute:00000000000000f8 $t
     /tmp/ccFub3FT.s:718    .text.dyn3_execute:0000000000000144 $t

UNDEFINED SYMBOLS
chHeapStatus
chThdCreateFromHeap
chHeapAlloc
chHeapFree
_test_assert
test_wait_threads
_test_assert_sequence
rlist
threads
test_emit_token
chHeapInit
test
chPoolFree
ARM GAS  /tmp/ccFub3FT.s 			page 76


chThdCreateFromMemoryPool
chPoolAlloc
wa
chPoolInit
chRegFirstThread
chRegNextThread
chThdAddRef
chThdRelease
chThdSleep
