ARM GAS  /tmp/ccR4KGij.s 			page 1


   1              		.syntax unified
   2              		.cpu cortex-m4
   3              		.fpu softvfp
   4              		.eabi_attribute 20, 1
   5              		.eabi_attribute 21, 1
   6              		.eabi_attribute 23, 3
   7              		.eabi_attribute 24, 1
   8              		.eabi_attribute 25, 1
   9              		.eabi_attribute 26, 1
  10              		.eabi_attribute 30, 2
  11              		.eabi_attribute 34, 1
  12              		.eabi_attribute 18, 4
  13              		.thumb
  14              		.file	"testthd.c"
  15              		.text
  16              	.Ltext0:
  17              		.cfi_sections	.debug_frame
  18              		.section	.text.thd1_execute,"ax",%progbits
  19              		.align	2
  20              		.p2align 4,,15
  21              		.thumb
  22              		.thumb_func
  23              		.type	thd1_execute, %function
  24              	thd1_execute:
  25              	.LFB8:
  26              		.file 1 "../../../test/testthd.c"
  27              		.loc 1 66 0
  28              		.cfi_startproc
  29              		@ args = 0, pretend = 0, frame = 0
  30              		@ frame_needed = 0, uses_anonymous_args = 0
  31 0000 F0B5     		push	{r4, r5, r6, r7, lr}
  32              		.cfi_def_cfa_offset 20
  33              		.cfi_offset 4, -20
  34              		.cfi_offset 5, -16
  35              		.cfi_offset 6, -12
  36              		.cfi_offset 7, -8
  37              		.cfi_offset 14, -4
  38              		.loc 1 68 0
  39 0002 274F     		ldr	r7, .L2
  40 0004 274E     		ldr	r6, .L2+4
  41 0006 BB69     		ldr	r3, [r7, #24]
  42 0008 274D     		ldr	r5, .L2+8
  43 000a 9A68     		ldr	r2, [r3, #8]
  44 000c 274B     		ldr	r3, .L2+12
  45 000e 3068     		ldr	r0, [r6]
  46 0010 274C     		ldr	r4, .L2+16
  47              		.loc 1 66 0
  48 0012 83B0     		sub	sp, sp, #12
  49              		.cfi_def_cfa_offset 32
  50              		.loc 1 68 0
  51 0014 053A     		subs	r2, r2, #5
  52 0016 0093     		str	r3, [sp]
  53 0018 4FF49871 		mov	r1, #304
  54 001c 2B46     		mov	r3, r5
  55 001e FFF7FEFF 		bl	chThdCreateStatic
  56              	.LVL0:
  57              		.loc 1 69 0
ARM GAS  /tmp/ccR4KGij.s 			page 2


  58 0022 BB69     		ldr	r3, [r7, #24]
  59 0024 2349     		ldr	r1, .L2+20
  60 0026 9A68     		ldr	r2, [r3, #8]
  61 0028 7368     		ldr	r3, [r6, #4]
  62              		.loc 1 68 0
  63 002a 2060     		str	r0, [r4]
  64              		.loc 1 69 0
  65 002c 0091     		str	r1, [sp]
  66 002e 043A     		subs	r2, r2, #4
  67 0030 1846     		mov	r0, r3
  68 0032 4FF49871 		mov	r1, #304
  69 0036 2B46     		mov	r3, r5
  70 0038 FFF7FEFF 		bl	chThdCreateStatic
  71              	.LVL1:
  72              		.loc 1 70 0
  73 003c BA69     		ldr	r2, [r7, #24]
  74 003e B368     		ldr	r3, [r6, #8]
  75 0040 9268     		ldr	r2, [r2, #8]
  76 0042 1D49     		ldr	r1, .L2+24
  77              		.loc 1 69 0
  78 0044 6060     		str	r0, [r4, #4]
  79              		.loc 1 70 0
  80 0046 0091     		str	r1, [sp]
  81 0048 033A     		subs	r2, r2, #3
  82 004a 1846     		mov	r0, r3
  83 004c 4FF49871 		mov	r1, #304
  84 0050 2B46     		mov	r3, r5
  85 0052 FFF7FEFF 		bl	chThdCreateStatic
  86              	.LVL2:
  87              		.loc 1 71 0
  88 0056 BA69     		ldr	r2, [r7, #24]
  89 0058 F368     		ldr	r3, [r6, #12]
  90 005a 9268     		ldr	r2, [r2, #8]
  91 005c 1749     		ldr	r1, .L2+28
  92              		.loc 1 70 0
  93 005e A060     		str	r0, [r4, #8]
  94              		.loc 1 71 0
  95 0060 0091     		str	r1, [sp]
  96 0062 023A     		subs	r2, r2, #2
  97 0064 1846     		mov	r0, r3
  98 0066 4FF49871 		mov	r1, #304
  99 006a 2B46     		mov	r3, r5
 100 006c FFF7FEFF 		bl	chThdCreateStatic
 101              	.LVL3:
 102              		.loc 1 72 0
 103 0070 BA69     		ldr	r2, [r7, #24]
 104 0072 3369     		ldr	r3, [r6, #16]
 105 0074 9268     		ldr	r2, [r2, #8]
 106 0076 1249     		ldr	r1, .L2+32
 107              		.loc 1 71 0
 108 0078 E060     		str	r0, [r4, #12]
 109              		.loc 1 72 0
 110 007a 013A     		subs	r2, r2, #1
 111 007c 0091     		str	r1, [sp]
 112 007e 1846     		mov	r0, r3
 113 0080 4FF49871 		mov	r1, #304
 114 0084 2B46     		mov	r3, r5
ARM GAS  /tmp/ccR4KGij.s 			page 3


 115 0086 FFF7FEFF 		bl	chThdCreateStatic
 116              	.LVL4:
 117 008a 2061     		str	r0, [r4, #16]
 118              		.loc 1 73 0
 119 008c FFF7FEFF 		bl	test_wait_threads
 120              	.LVL5:
 121              		.loc 1 74 0
 122 0090 0C49     		ldr	r1, .L2+36
 123 0092 0120     		movs	r0, #1
 124              		.loc 1 75 0
 125 0094 03B0     		add	sp, sp, #12
 126              		@ sp needed
 127 0096 BDE8F040 		pop	{r4, r5, r6, r7, lr}
 128              		.loc 1 74 0
 129 009a FFF7FEBF 		b	_test_assert_sequence
 130              	.LVL6:
 131              	.L3:
 132 009e 00BF     		.align	2
 133              	.L2:
 134 00a0 00000000 		.word	rlist
 135 00a4 00000000 		.word	wa
 136 00a8 00000000 		.word	thread
 137 00ac 00000000 		.word	.LC0
 138 00b0 00000000 		.word	threads
 139 00b4 04000000 		.word	.LC1
 140 00b8 08000000 		.word	.LC2
 141 00bc 0C000000 		.word	.LC3
 142 00c0 10000000 		.word	.LC4
 143 00c4 14000000 		.word	.LC5
 144              		.cfi_endproc
 145              	.LFE8:
 146              		.size	thd1_execute, .-thd1_execute
 147 00c8 AFF30080 		.section	.text.thread,"ax",%progbits
 147      AFF30080 
 148              		.align	2
 149              		.p2align 4,,15
 150              		.thumb
 151              		.thumb_func
 152              		.type	thread, %function
 153              	thread:
 154              	.LFB7:
 155              		.loc 1 60 0
 156              		.cfi_startproc
 157              		@ args = 0, pretend = 0, frame = 0
 158              		@ frame_needed = 0, uses_anonymous_args = 0
 159              	.LVL7:
 160 0000 08B5     		push	{r3, lr}
 161              		.cfi_def_cfa_offset 8
 162              		.cfi_offset 3, -8
 163              		.cfi_offset 14, -4
 164              		.loc 1 62 0
 165 0002 0078     		ldrb	r0, [r0]	@ zero_extendqisi2
 166              	.LVL8:
 167 0004 FFF7FEFF 		bl	test_emit_token
 168              	.LVL9:
 169              		.loc 1 64 0
 170 0008 0020     		movs	r0, #0
ARM GAS  /tmp/ccR4KGij.s 			page 4


 171 000a 08BD     		pop	{r3, pc}
 172              		.cfi_endproc
 173              	.LFE7:
 174              		.size	thread, .-thread
 175 000c AFF30080 		.section	.text.thd2_execute,"ax",%progbits
 176              		.align	2
 177              		.p2align 4,,15
 178              		.thumb
 179              		.thumb_func
 180              		.type	thd2_execute, %function
 181              	thd2_execute:
 182              	.LFB9:
 183              		.loc 1 94 0
 184              		.cfi_startproc
 185              		@ args = 0, pretend = 0, frame = 0
 186              		@ frame_needed = 0, uses_anonymous_args = 0
 187 0000 F0B5     		push	{r4, r5, r6, r7, lr}
 188              		.cfi_def_cfa_offset 20
 189              		.cfi_offset 4, -20
 190              		.cfi_offset 5, -16
 191              		.cfi_offset 6, -12
 192              		.cfi_offset 7, -8
 193              		.cfi_offset 14, -4
 194              		.loc 1 96 0
 195 0002 2D4F     		ldr	r7, .L6
 196 0004 2D4E     		ldr	r6, .L6+4
 197 0006 BB69     		ldr	r3, [r7, #24]
 198 0008 2D4D     		ldr	r5, .L6+8
 199 000a 9A68     		ldr	r2, [r3, #8]
 200 000c 2D4B     		ldr	r3, .L6+12
 201 000e 7068     		ldr	r0, [r6, #4]
 202 0010 2D4C     		ldr	r4, .L6+16
 203              		.loc 1 94 0
 204 0012 83B0     		sub	sp, sp, #12
 205              		.cfi_def_cfa_offset 32
 206              		.loc 1 96 0
 207 0014 043A     		subs	r2, r2, #4
 208 0016 0093     		str	r3, [sp]
 209 0018 4FF49871 		mov	r1, #304
 210 001c 2B46     		mov	r3, r5
 211 001e FFF7FEFF 		bl	chThdCreateStatic
 212              	.LVL10:
 213              		.loc 1 97 0
 214 0022 BB69     		ldr	r3, [r7, #24]
 215 0024 2949     		ldr	r1, .L6+20
 216 0026 9A68     		ldr	r2, [r3, #8]
 217 0028 3368     		ldr	r3, [r6]
 218              		.loc 1 96 0
 219 002a 6060     		str	r0, [r4, #4]
 220              		.loc 1 97 0
 221 002c 0091     		str	r1, [sp]
 222 002e 053A     		subs	r2, r2, #5
 223 0030 1846     		mov	r0, r3
 224 0032 4FF49871 		mov	r1, #304
 225 0036 2B46     		mov	r3, r5
 226 0038 FFF7FEFF 		bl	chThdCreateStatic
 227              	.LVL11:
ARM GAS  /tmp/ccR4KGij.s 			page 5


 228              		.loc 1 98 0
 229 003c BA69     		ldr	r2, [r7, #24]
 230 003e 3369     		ldr	r3, [r6, #16]
 231 0040 9268     		ldr	r2, [r2, #8]
 232 0042 2349     		ldr	r1, .L6+24
 233              		.loc 1 97 0
 234 0044 2060     		str	r0, [r4]
 235              		.loc 1 98 0
 236 0046 0091     		str	r1, [sp]
 237 0048 013A     		subs	r2, r2, #1
 238 004a 1846     		mov	r0, r3
 239 004c 4FF49871 		mov	r1, #304
 240 0050 2B46     		mov	r3, r5
 241 0052 FFF7FEFF 		bl	chThdCreateStatic
 242              	.LVL12:
 243              		.loc 1 99 0
 244 0056 BA69     		ldr	r2, [r7, #24]
 245 0058 F368     		ldr	r3, [r6, #12]
 246 005a 9268     		ldr	r2, [r2, #8]
 247 005c 1D49     		ldr	r1, .L6+28
 248              		.loc 1 98 0
 249 005e 2061     		str	r0, [r4, #16]
 250              		.loc 1 99 0
 251 0060 0091     		str	r1, [sp]
 252 0062 023A     		subs	r2, r2, #2
 253 0064 1846     		mov	r0, r3
 254 0066 4FF49871 		mov	r1, #304
 255 006a 2B46     		mov	r3, r5
 256 006c FFF7FEFF 		bl	chThdCreateStatic
 257              	.LVL13:
 258              	.LBB2:
 259              		.loc 1 101 0
 260 0070 2023     		movs	r3, #32
 261              	.LBE2:
 262              		.loc 1 99 0
 263 0072 E060     		str	r0, [r4, #12]
 264              	.LBB3:
 265              		.loc 1 101 0
 266              	@ 101 "../../../test/testthd.c" 1
 267 0074 83F31188 		msr     BASEPRI, r3
 268              	@ 0 "" 2
 269              		.thumb
 270              	.LBE3:
 271 0078 FFF7FEFF 		bl	dbg_check_lock
 272              	.LVL14:
 273              		.loc 1 102 0
 274 007c BB69     		ldr	r3, [r7, #24]
 275 007e B068     		ldr	r0, [r6, #8]
 276 0080 9A68     		ldr	r2, [r3, #8]
 277 0082 154B     		ldr	r3, .L6+32
 278 0084 0093     		str	r3, [sp]
 279 0086 033A     		subs	r2, r2, #3
 280 0088 2B46     		mov	r3, r5
 281 008a 4FF49871 		mov	r1, #304
 282 008e FFF7FEFF 		bl	chThdCreateI
 283              	.LVL15:
 284 0092 A060     		str	r0, [r4, #8]
ARM GAS  /tmp/ccR4KGij.s 			page 6


 285              		.loc 1 103 0
 286 0094 FFF7FEFF 		bl	dbg_check_unlock
 287              	.LVL16:
 288              	.LBB4:
 289 0098 0023     		movs	r3, #0
 290              	@ 103 "../../../test/testthd.c" 1
 291 009a 83F31188 		msr     BASEPRI, r3
 292              	@ 0 "" 2
 293              		.thumb
 294              	.LBE4:
 295              		.loc 1 104 0
 296 009e A068     		ldr	r0, [r4, #8]
 297 00a0 FFF7FEFF 		bl	chThdResume
 298              	.LVL17:
 299              		.loc 1 105 0
 300 00a4 FFF7FEFF 		bl	test_wait_threads
 301              	.LVL18:
 302              		.loc 1 106 0
 303 00a8 0C49     		ldr	r1, .L6+36
 304 00aa 0120     		movs	r0, #1
 305              		.loc 1 107 0
 306 00ac 03B0     		add	sp, sp, #12
 307              		@ sp needed
 308 00ae BDE8F040 		pop	{r4, r5, r6, r7, lr}
 309              		.loc 1 106 0
 310 00b2 FFF7FEBF 		b	_test_assert_sequence
 311              	.LVL19:
 312              	.L7:
 313 00b6 00BF     		.align	2
 314              	.L6:
 315 00b8 00000000 		.word	rlist
 316 00bc 00000000 		.word	wa
 317 00c0 00000000 		.word	thread
 318 00c4 04000000 		.word	.LC1
 319 00c8 00000000 		.word	threads
 320 00cc 00000000 		.word	.LC0
 321 00d0 10000000 		.word	.LC4
 322 00d4 0C000000 		.word	.LC3
 323 00d8 08000000 		.word	.LC2
 324 00dc 14000000 		.word	.LC5
 325              		.cfi_endproc
 326              	.LFE9:
 327              		.size	thd2_execute, .-thd2_execute
 328              		.section	.text.thd3_execute,"ax",%progbits
 329              		.align	2
 330              		.p2align 4,,15
 331              		.thumb
 332              		.thumb_func
 333              		.type	thd3_execute, %function
 334              	thd3_execute:
 335              	.LFB10:
 336              		.loc 1 126 0
 337              		.cfi_startproc
 338              		@ args = 0, pretend = 0, frame = 0
 339              		@ frame_needed = 0, uses_anonymous_args = 0
 340 0000 F8B5     		push	{r3, r4, r5, r6, r7, lr}
 341              		.cfi_def_cfa_offset 24
ARM GAS  /tmp/ccR4KGij.s 			page 7


 342              		.cfi_offset 3, -24
 343              		.cfi_offset 4, -20
 344              		.cfi_offset 5, -16
 345              		.cfi_offset 6, -12
 346              		.cfi_offset 7, -8
 347              		.cfi_offset 14, -4
 348              		.loc 1 129 0
 349 0002 514E     		ldr	r6, .L14
 350 0004 B369     		ldr	r3, [r6, #24]
 351 0006 9C68     		ldr	r4, [r3, #8]
 352              	.LVL20:
 353              		.loc 1 130 0
 354 0008 651C     		adds	r5, r4, #1
 355 000a 2846     		mov	r0, r5
 356 000c FFF7FEFF 		bl	chThdSetPriority
 357              	.LVL21:
 358              		.loc 1 131 0
 359 0010 B0EB040C 		subs	ip, r0, r4
 360 0014 DCF10001 		rsbs	r1, ip, #0
 361              		.loc 1 130 0
 362 0018 0746     		mov	r7, r0
 363              	.LVL22:
 364              		.loc 1 131 0
 365 001a 51EB0C01 		adcs	r1, r1, ip
 366 001e 0120     		movs	r0, #1
 367              	.LVL23:
 368 0020 FFF7FEFF 		bl	_test_assert
 369              	.LVL24:
 370 0024 00B1     		cbz	r0, .L13
 371              	.LVL25:
 372              	.L8:
 373 0026 F8BD     		pop	{r3, r4, r5, r6, r7, pc}
 374              	.LVL26:
 375              	.L13:
 376              		.loc 1 133 0
 377 0028 B369     		ldr	r3, [r6, #24]
 378 002a 9968     		ldr	r1, [r3, #8]
 379 002c B5EB010E 		subs	lr, r5, r1
 380 0030 DEF10001 		rsbs	r1, lr, #0
 381 0034 51EB0E01 		adcs	r1, r1, lr
 382 0038 0220     		movs	r0, #2
 383 003a FFF7FEFF 		bl	_test_assert
 384              	.LVL27:
 385 003e 0028     		cmp	r0, #0
 386 0040 F1D1     		bne	.L8
 387              		.loc 1 135 0
 388 0042 3846     		mov	r0, r7
 389 0044 FFF7FEFF 		bl	chThdSetPriority
 390              	.LVL28:
 391              		.loc 1 136 0
 392 0048 281A     		subs	r0, r5, r0
 393              	.LVL29:
 394 004a 4142     		rsbs	r1, r0, #0
 395 004c 4141     		adcs	r1, r1, r0
 396 004e 0320     		movs	r0, #3
 397 0050 FFF7FEFF 		bl	_test_assert
 398              	.LVL30:
ARM GAS  /tmp/ccR4KGij.s 			page 8


 399 0054 0028     		cmp	r0, #0
 400 0056 E6D1     		bne	.L8
 401              		.loc 1 138 0
 402 0058 B369     		ldr	r3, [r6, #24]
 403 005a 9968     		ldr	r1, [r3, #8]
 404 005c 0A1B     		subs	r2, r1, r4
 405 005e 5142     		rsbs	r1, r2, #0
 406 0060 5141     		adcs	r1, r1, r2
 407 0062 0420     		movs	r0, #4
 408 0064 FFF7FEFF 		bl	_test_assert
 409              	.LVL31:
 410 0068 0028     		cmp	r0, #0
 411 006a DCD1     		bne	.L8
 412              	.LBB5:
 413              		.loc 1 143 0
 414 006c 2023     		movs	r3, #32
 415              	@ 143 "../../../test/testthd.c" 1
 416 006e 83F31188 		msr     BASEPRI, r3
 417              	@ 0 "" 2
 418              		.thumb
 419              	.LBE5:
 420 0072 FFF7FEFF 		bl	dbg_check_lock
 421              	.LVL32:
 422              		.loc 1 144 0
 423 0076 B369     		ldr	r3, [r6, #24]
 424 0078 9A68     		ldr	r2, [r3, #8]
 425 007a 0232     		adds	r2, r2, #2
 426 007c 9A60     		str	r2, [r3, #8]
 427              		.loc 1 145 0
 428 007e FFF7FEFF 		bl	dbg_check_unlock
 429              	.LVL33:
 430              	.LBB6:
 431 0082 0023     		movs	r3, #0
 432              	@ 145 "../../../test/testthd.c" 1
 433 0084 83F31188 		msr     BASEPRI, r3
 434              	@ 0 "" 2
 435              		.thumb
 436              	.LBE6:
 437              		.loc 1 146 0
 438 0088 B369     		ldr	r3, [r6, #24]
 439 008a 9968     		ldr	r1, [r3, #8]
 440 008c A71C     		adds	r7, r4, #2
 441 008e CB1B     		subs	r3, r1, r7
 442 0090 5942     		rsbs	r1, r3, #0
 443 0092 5941     		adcs	r1, r1, r3
 444 0094 0520     		movs	r0, #5
 445 0096 FFF7FEFF 		bl	_test_assert
 446              	.LVL34:
 447 009a 0028     		cmp	r0, #0
 448 009c C3D1     		bne	.L8
 449              		.loc 1 150 0
 450 009e 2846     		mov	r0, r5
 451 00a0 FFF7FEFF 		bl	chThdSetPriority
 452              	.LVL35:
 453              		.loc 1 151 0
 454 00a4 B0EB040C 		subs	ip, r0, r4
 455 00a8 DCF10001 		rsbs	r1, ip, #0
ARM GAS  /tmp/ccR4KGij.s 			page 9


 456 00ac 51EB0C01 		adcs	r1, r1, ip
 457 00b0 0620     		movs	r0, #6
 458              	.LVL36:
 459 00b2 FFF7FEFF 		bl	_test_assert
 460              	.LVL37:
 461 00b6 0028     		cmp	r0, #0
 462 00b8 B5D1     		bne	.L8
 463              		.loc 1 153 0
 464 00ba B369     		ldr	r3, [r6, #24]
 465 00bc 9968     		ldr	r1, [r3, #8]
 466 00be B7EB010E 		subs	lr, r7, r1
 467 00c2 DEF10001 		rsbs	r1, lr, #0
 468 00c6 51EB0E01 		adcs	r1, r1, lr
 469 00ca 0720     		movs	r0, #7
 470 00cc FFF7FEFF 		bl	_test_assert
 471              	.LVL38:
 472 00d0 0028     		cmp	r0, #0
 473 00d2 A8D1     		bne	.L8
 474              		.loc 1 155 0
 475 00d4 B369     		ldr	r3, [r6, #24]
 476 00d6 596C     		ldr	r1, [r3, #68]
 477 00d8 6F1A     		subs	r7, r5, r1
 478 00da 7942     		rsbs	r1, r7, #0
 479 00dc 7941     		adcs	r1, r1, r7
 480 00de 0820     		movs	r0, #8
 481 00e0 FFF7FEFF 		bl	_test_assert
 482              	.LVL39:
 483 00e4 0028     		cmp	r0, #0
 484 00e6 9ED1     		bne	.L8
 485              		.loc 1 159 0
 486 00e8 E71C     		adds	r7, r4, #3
 487 00ea 3846     		mov	r0, r7
 488 00ec FFF7FEFF 		bl	chThdSetPriority
 489              	.LVL40:
 490              		.loc 1 160 0
 491 00f0 281A     		subs	r0, r5, r0
 492              	.LVL41:
 493 00f2 4142     		rsbs	r1, r0, #0
 494 00f4 4141     		adcs	r1, r1, r0
 495 00f6 0920     		movs	r0, #9
 496 00f8 FFF7FEFF 		bl	_test_assert
 497              	.LVL42:
 498 00fc 0028     		cmp	r0, #0
 499 00fe 92D1     		bne	.L8
 500              		.loc 1 162 0
 501 0100 B369     		ldr	r3, [r6, #24]
 502 0102 9968     		ldr	r1, [r3, #8]
 503 0104 7A1A     		subs	r2, r7, r1
 504 0106 5142     		rsbs	r1, r2, #0
 505 0108 5141     		adcs	r1, r1, r2
 506 010a 0A20     		movs	r0, #10
 507 010c FFF7FEFF 		bl	_test_assert
 508              	.LVL43:
 509 0110 0028     		cmp	r0, #0
 510 0112 88D1     		bne	.L8
 511              		.loc 1 164 0
 512 0114 B369     		ldr	r3, [r6, #24]
ARM GAS  /tmp/ccR4KGij.s 			page 10


 513 0116 596C     		ldr	r1, [r3, #68]
 514 0118 7B1A     		subs	r3, r7, r1
 515 011a 5942     		rsbs	r1, r3, #0
 516 011c 5941     		adcs	r1, r1, r3
 517 011e 0B20     		movs	r0, #11
 518 0120 FFF7FEFF 		bl	_test_assert
 519              	.LVL44:
 520 0124 0028     		cmp	r0, #0
 521 0126 7FF47EAF 		bne	.L8
 522              	.LBB7:
 523              		.loc 1 167 0
 524 012a 2023     		movs	r3, #32
 525              	@ 167 "../../../test/testthd.c" 1
 526 012c 83F31188 		msr     BASEPRI, r3
 527              	@ 0 "" 2
 528              		.thumb
 529              	.LBE7:
 530 0130 FFF7FEFF 		bl	dbg_check_lock
 531              	.LVL45:
 532              		.loc 1 168 0
 533 0134 B369     		ldr	r3, [r6, #24]
 534 0136 9C60     		str	r4, [r3, #8]
 535              		.loc 1 169 0
 536 0138 5C64     		str	r4, [r3, #68]
 537              		.loc 1 170 0
 538 013a FFF7FEFF 		bl	dbg_check_unlock
 539              	.LVL46:
 540              	.LBB8:
 541 013e 0023     		movs	r3, #0
 542              	@ 170 "../../../test/testthd.c" 1
 543 0140 83F31188 		msr     BASEPRI, r3
 544              	@ 0 "" 2
 545              		.thumb
 546 0144 6FE7     		b	.L8
 547              	.L15:
 548 0146 00BF     		.align	2
 549              	.L14:
 550 0148 00000000 		.word	rlist
 551              	.LBE8:
 552              		.cfi_endproc
 553              	.LFE10:
 554              		.size	thd3_execute, .-thd3_execute
 555 014c AFF30080 		.section	.text.thd4_execute,"ax",%progbits
 556              		.align	2
 557              		.p2align 4,,15
 558              		.thumb
 559              		.thumb_func
 560              		.type	thd4_execute, %function
 561              	thd4_execute:
 562              	.LFB11:
 563              		.loc 1 189 0
 564              		.cfi_startproc
 565              		@ args = 0, pretend = 0, frame = 0
 566              		@ frame_needed = 0, uses_anonymous_args = 0
 567 0000 38B5     		push	{r3, r4, r5, lr}
 568              		.cfi_def_cfa_offset 16
 569              		.cfi_offset 3, -16
ARM GAS  /tmp/ccR4KGij.s 			page 11


 570              		.cfi_offset 4, -12
 571              		.cfi_offset 5, -8
 572              		.cfi_offset 14, -4
 573              		.loc 1 195 0
 574 0002 1C4D     		ldr	r5, .L21
 575              		.loc 1 192 0
 576 0004 FFF7FEFF 		bl	test_wait_tick
 577              	.LVL47:
 578              		.loc 1 195 0
 579 0008 EC68     		ldr	r4, [r5, #12]
 580              	.LVL48:
 581              		.loc 1 196 0
 582 000a 6420     		movs	r0, #100
 583 000c FFF7FEFF 		bl	chThdSleep
 584              	.LVL49:
 585              		.loc 1 197 0
 586 0010 04F16401 		add	r1, r4, #100
 587 0014 04F16502 		add	r2, r4, #101
 588 0018 0120     		movs	r0, #1
 589 001a FFF7FEFF 		bl	_test_assert_time_window
 590              	.LVL50:
 591 001e 00B1     		cbz	r0, .L20
 592              	.LVL51:
 593              	.L16:
 594 0020 38BD     		pop	{r3, r4, r5, pc}
 595              	.LVL52:
 596              	.L20:
 597              		.loc 1 200 0
 598 0022 EC68     		ldr	r4, [r5, #12]
 599              	.LVL53:
 600              		.loc 1 201 0
 601 0024 6420     		movs	r0, #100
 602 0026 FFF7FEFF 		bl	chThdSleep
 603              	.LVL54:
 604              		.loc 1 202 0
 605 002a 04F16401 		add	r1, r4, #100
 606 002e 04F16502 		add	r2, r4, #101
 607 0032 0220     		movs	r0, #2
 608 0034 FFF7FEFF 		bl	_test_assert_time_window
 609              	.LVL55:
 610 0038 0028     		cmp	r0, #0
 611 003a F1D1     		bne	.L16
 612              	.LBB11:
 613              	.LBB12:
 614              		.loc 1 205 0
 615 003c EC68     		ldr	r4, [r5, #12]
 616              	.LVL56:
 617              		.loc 1 206 0
 618 003e 4FF47A70 		mov	r0, #1000
 619 0042 FFF7FEFF 		bl	chThdSleep
 620              	.LVL57:
 621              		.loc 1 207 0
 622 0046 04F57A71 		add	r1, r4, #1000
 623 004a 04F2E932 		addw	r2, r4, #1001
 624 004e 0320     		movs	r0, #3
 625 0050 FFF7FEFF 		bl	_test_assert_time_window
 626              	.LVL58:
ARM GAS  /tmp/ccR4KGij.s 			page 12


 627 0054 0028     		cmp	r0, #0
 628 0056 E3D1     		bne	.L16
 629              		.loc 1 210 0
 630 0058 EC68     		ldr	r4, [r5, #12]
 631              	.LVL59:
 632 005a 04F16405 		add	r5, r4, #100
 633              	.LVL60:
 634              		.loc 1 211 0
 635 005e 2846     		mov	r0, r5
 636 0060 FFF7FEFF 		bl	chThdSleepUntil
 637              	.LVL61:
 638              		.loc 1 212 0
 639 0064 2946     		mov	r1, r5
 640 0066 04F16502 		add	r2, r4, #101
 641 006a 0420     		movs	r0, #4
 642              	.LBE12:
 643              	.LBE11:
 644              		.loc 1 213 0
 645 006c BDE83840 		pop	{r3, r4, r5, lr}
 646              	.LVL62:
 647              	.LBB14:
 648              	.LBB13:
 649              		.loc 1 212 0
 650 0070 FFF7FEBF 		b	_test_assert_time_window
 651              	.LVL63:
 652              	.L22:
 653              		.align	2
 654              	.L21:
 655 0074 00000000 		.word	vtlist
 656              	.LBE13:
 657              	.LBE14:
 658              		.cfi_endproc
 659              	.LFE11:
 660              		.size	thd4_execute, .-thd4_execute
 661              		.global	patternthd
 662              		.global	testthd4
 663              		.global	testthd3
 664              		.global	testthd2
 665              		.global	testthd1
 666 0078 AFF30080 		.section	.rodata.testthd1,"a",%progbits
 666      AFF30080 
 667              		.align	2
 668              		.type	testthd1, %object
 669              		.size	testthd1, 16
 670              	testthd1:
 671 0000 64000000 		.word	.LC9
 672 0004 00000000 		.word	0
 673 0008 00000000 		.word	0
 674 000c 00000000 		.word	thd1_execute
 675              		.section	.rodata.testthd2,"a",%progbits
 676              		.align	2
 677              		.type	testthd2, %object
 678              		.size	testthd2, 16
 679              	testthd2:
 680 0000 48000000 		.word	.LC8
 681 0004 00000000 		.word	0
 682 0008 00000000 		.word	0
ARM GAS  /tmp/ccR4KGij.s 			page 13


 683 000c 00000000 		.word	thd2_execute
 684              		.section	.rodata.testthd3,"a",%progbits
 685              		.align	2
 686              		.type	testthd3, %object
 687              		.size	testthd3, 16
 688              	testthd3:
 689 0000 2C000000 		.word	.LC7
 690 0004 00000000 		.word	0
 691 0008 00000000 		.word	0
 692 000c 00000000 		.word	thd3_execute
 693              		.section	.rodata.testthd4,"a",%progbits
 694              		.align	2
 695              		.type	testthd4, %object
 696              		.size	testthd4, 16
 697              	testthd4:
 698 0000 1C000000 		.word	.LC6
 699 0004 00000000 		.word	0
 700 0008 00000000 		.word	0
 701 000c 00000000 		.word	thd4_execute
 702              		.section	.rodata.patternthd,"a",%progbits
 703              		.align	2
 704              		.type	patternthd, %object
 705              		.size	patternthd, 20
 706              	patternthd:
 707 0000 00000000 		.word	testthd1
 708 0004 00000000 		.word	testthd2
 709 0008 00000000 		.word	testthd3
 710 000c 00000000 		.word	testthd4
 711 0010 00000000 		.word	0
 712              		.section	.rodata.str1.4,"aMS",%progbits,1
 713              		.align	2
 714              	.LC0:
 715 0000 4500     		.ascii	"E\000"
 716 0002 0000     		.space	2
 717              	.LC1:
 718 0004 4400     		.ascii	"D\000"
 719 0006 0000     		.space	2
 720              	.LC2:
 721 0008 4300     		.ascii	"C\000"
 722 000a 0000     		.space	2
 723              	.LC3:
 724 000c 4200     		.ascii	"B\000"
 725 000e 0000     		.space	2
 726              	.LC4:
 727 0010 4100     		.ascii	"A\000"
 728 0012 0000     		.space	2
 729              	.LC5:
 730 0014 41424344 		.ascii	"ABCDE\000"
 730      4500
 731 001a 0000     		.space	2
 732              	.LC6:
 733 001c 54687265 		.ascii	"Threads, delays\000"
 733      6164732C 
 733      2064656C 
 733      61797300 
 734              	.LC7:
 735 002c 54687265 		.ascii	"Threads, priority change\000"
ARM GAS  /tmp/ccR4KGij.s 			page 14


 735      6164732C 
 735      20707269 
 735      6F726974 
 735      79206368 
 736 0045 000000   		.space	3
 737              	.LC8:
 738 0048 54687265 		.ascii	"Threads, enqueuing test #2\000"
 738      6164732C 
 738      20656E71 
 738      75657569 
 738      6E672074 
 739 0063 00       		.space	1
 740              	.LC9:
 741 0064 54687265 		.ascii	"Threads, enqueuing test #1\000"
 741      6164732C 
 741      20656E71 
 741      75657569 
 741      6E672074 
 742 007f 00       		.text
 743              	.Letext0:
 744              		.file 2 "/usr/lib/gcc/arm-none-eabi/4.8.3/include/stddef.h"
 745              		.file 3 "/usr/arm-none-eabi/include/stdint.h"
 746              		.file 4 "../../../os/ports/GCC/ARMCMx/chtypes.h"
 747              		.file 5 "../../../os/kernel/include/chlists.h"
 748              		.file 6 "../../../os/kernel/include/chthreads.h"
 749              		.file 7 "../../../os/ports/GCC/ARMCMx/chcore_v7m.h"
 750              		.file 8 "../../../os/kernel/include/chvt.h"
 751              		.file 9 "../../../os/kernel/include/chschd.h"
 752              		.file 10 "../../../os/kernel/include/chmtx.h"
 753              		.file 11 "../../../test/test.h"
 754              		.file 12 "../../../os/kernel/include/chdebug.h"
 755              		.section	.debug_info,"",%progbits
 756              	.Ldebug_info0:
 757 0000 D50C0000 		.4byte	0xcd5
 758 0004 0400     		.2byte	0x4
 759 0006 00000000 		.4byte	.Ldebug_abbrev0
 760 000a 04       		.byte	0x4
 761 000b 01       		.uleb128 0x1
 762 000c 00030000 		.4byte	.LASF108
 763 0010 01       		.byte	0x1
 764 0011 72040000 		.4byte	.LASF109
 765 0015 9C010000 		.4byte	.LASF110
 766 0019 30000000 		.4byte	.Ldebug_ranges0+0x30
 767 001d 00000000 		.4byte	0
 768 0021 00000000 		.4byte	.Ldebug_line0
 769 0025 02       		.uleb128 0x2
 770 0026 04       		.byte	0x4
 771 0027 05       		.byte	0x5
 772 0028 696E7400 		.ascii	"int\000"
 773 002c 03       		.uleb128 0x3
 774 002d 0E000000 		.4byte	.LASF2
 775 0031 02       		.byte	0x2
 776 0032 D4       		.byte	0xd4
 777 0033 37000000 		.4byte	0x37
 778 0037 04       		.uleb128 0x4
 779 0038 04       		.byte	0x4
 780 0039 07       		.byte	0x7
ARM GAS  /tmp/ccR4KGij.s 			page 15


 781 003a 25010000 		.4byte	.LASF0
 782 003e 04       		.uleb128 0x4
 783 003f 01       		.byte	0x1
 784 0040 06       		.byte	0x6
 785 0041 66000000 		.4byte	.LASF1
 786 0045 03       		.uleb128 0x3
 787 0046 2C050000 		.4byte	.LASF3
 788 004a 03       		.byte	0x3
 789 004b 2A       		.byte	0x2a
 790 004c 50000000 		.4byte	0x50
 791 0050 04       		.uleb128 0x4
 792 0051 01       		.byte	0x1
 793 0052 08       		.byte	0x8
 794 0053 EF030000 		.4byte	.LASF4
 795 0057 04       		.uleb128 0x4
 796 0058 02       		.byte	0x2
 797 0059 05       		.byte	0x5
 798 005a 16040000 		.4byte	.LASF5
 799 005e 04       		.uleb128 0x4
 800 005f 02       		.byte	0x2
 801 0060 07       		.byte	0x7
 802 0061 62010000 		.4byte	.LASF6
 803 0065 03       		.uleb128 0x3
 804 0066 E7030000 		.4byte	.LASF7
 805 006a 03       		.byte	0x3
 806 006b 4F       		.byte	0x4f
 807 006c 70000000 		.4byte	0x70
 808 0070 04       		.uleb128 0x4
 809 0071 04       		.byte	0x4
 810 0072 05       		.byte	0x5
 811 0073 B0000000 		.4byte	.LASF8
 812 0077 03       		.uleb128 0x3
 813 0078 01050000 		.4byte	.LASF9
 814 007c 03       		.byte	0x3
 815 007d 50       		.byte	0x50
 816 007e 82000000 		.4byte	0x82
 817 0082 04       		.uleb128 0x4
 818 0083 04       		.byte	0x4
 819 0084 07       		.byte	0x7
 820 0085 3A010000 		.4byte	.LASF10
 821 0089 04       		.uleb128 0x4
 822 008a 08       		.byte	0x8
 823 008b 05       		.byte	0x5
 824 008c 58000000 		.4byte	.LASF11
 825 0090 03       		.uleb128 0x3
 826 0091 21000000 		.4byte	.LASF12
 827 0095 03       		.byte	0x3
 828 0096 78       		.byte	0x78
 829 0097 9B000000 		.4byte	0x9b
 830 009b 04       		.uleb128 0x4
 831 009c 08       		.byte	0x8
 832 009d 07       		.byte	0x7
 833 009e 31000000 		.4byte	.LASF13
 834 00a2 03       		.uleb128 0x3
 835 00a3 7A000000 		.4byte	.LASF14
 836 00a7 04       		.byte	0x4
 837 00a8 24       		.byte	0x24
ARM GAS  /tmp/ccR4KGij.s 			page 16


 838 00a9 AD000000 		.4byte	0xad
 839 00ad 04       		.uleb128 0x4
 840 00ae 01       		.byte	0x1
 841 00af 02       		.byte	0x2
 842 00b0 E1030000 		.4byte	.LASF15
 843 00b4 03       		.uleb128 0x3
 844 00b5 88010000 		.4byte	.LASF16
 845 00b9 04       		.byte	0x4
 846 00ba 25       		.byte	0x25
 847 00bb 45000000 		.4byte	0x45
 848 00bf 03       		.uleb128 0x3
 849 00c0 B9000000 		.4byte	.LASF17
 850 00c4 04       		.byte	0x4
 851 00c5 26       		.byte	0x26
 852 00c6 45000000 		.4byte	0x45
 853 00ca 03       		.uleb128 0x3
 854 00cb D4020000 		.4byte	.LASF18
 855 00cf 04       		.byte	0x4
 856 00d0 27       		.byte	0x27
 857 00d1 45000000 		.4byte	0x45
 858 00d5 03       		.uleb128 0x3
 859 00d6 99000000 		.4byte	.LASF19
 860 00da 04       		.byte	0x4
 861 00db 28       		.byte	0x28
 862 00dc 45000000 		.4byte	0x45
 863 00e0 03       		.uleb128 0x3
 864 00e1 F8020000 		.4byte	.LASF20
 865 00e5 04       		.byte	0x4
 866 00e6 29       		.byte	0x29
 867 00e7 77000000 		.4byte	0x77
 868 00eb 03       		.uleb128 0x3
 869 00ec 82010000 		.4byte	.LASF21
 870 00f0 04       		.byte	0x4
 871 00f1 2A       		.byte	0x2a
 872 00f2 65000000 		.4byte	0x65
 873 00f6 03       		.uleb128 0x3
 874 00f7 CC010000 		.4byte	.LASF22
 875 00fb 04       		.byte	0x4
 876 00fc 2C       		.byte	0x2c
 877 00fd 77000000 		.4byte	0x77
 878 0101 03       		.uleb128 0x3
 879 0102 C3040000 		.4byte	.LASF23
 880 0106 04       		.byte	0x4
 881 0107 2E       		.byte	0x2e
 882 0108 77000000 		.4byte	0x77
 883 010c 03       		.uleb128 0x3
 884 010d 57040000 		.4byte	.LASF24
 885 0111 05       		.byte	0x5
 886 0112 23       		.byte	0x23
 887 0113 17010000 		.4byte	0x117
 888 0117 05       		.uleb128 0x5
 889 0118 57040000 		.4byte	.LASF24
 890 011c 4C       		.byte	0x4c
 891 011d 06       		.byte	0x6
 892 011e 57       		.byte	0x57
 893 011f 20020000 		.4byte	0x220
 894 0123 06       		.uleb128 0x6
ARM GAS  /tmp/ccR4KGij.s 			page 17


 895 0124 48040000 		.4byte	.LASF25
 896 0128 06       		.byte	0x6
 897 0129 58       		.byte	0x58
 898 012a 41020000 		.4byte	0x241
 899 012e 00       		.byte	0
 900 012f 06       		.uleb128 0x6
 901 0130 E9020000 		.4byte	.LASF26
 902 0134 06       		.byte	0x6
 903 0135 5A       		.byte	0x5a
 904 0136 41020000 		.4byte	0x241
 905 013a 04       		.byte	0x4
 906 013b 06       		.uleb128 0x6
 907 013c 51000000 		.4byte	.LASF27
 908 0140 06       		.byte	0x6
 909 0141 5C       		.byte	0x5c
 910 0142 E0000000 		.4byte	0xe0
 911 0146 08       		.byte	0x8
 912 0147 06       		.uleb128 0x6
 913 0148 69050000 		.4byte	.LASF28
 914 014c 06       		.byte	0x6
 915 014d 5D       		.byte	0x5d
 916 014e 06030000 		.4byte	0x306
 917 0152 0C       		.byte	0xc
 918 0153 06       		.uleb128 0x6
 919 0154 DB000000 		.4byte	.LASF29
 920 0158 06       		.byte	0x6
 921 0159 5F       		.byte	0x5f
 922 015a 41020000 		.4byte	0x241
 923 015e 10       		.byte	0x10
 924 015f 06       		.uleb128 0x6
 925 0160 65020000 		.4byte	.LASF30
 926 0164 06       		.byte	0x6
 927 0165 60       		.byte	0x60
 928 0166 41020000 		.4byte	0x241
 929 016a 14       		.byte	0x14
 930 016b 06       		.uleb128 0x6
 931 016c 3B050000 		.4byte	.LASF31
 932 0170 06       		.byte	0x6
 933 0171 67       		.byte	0x67
 934 0172 C0040000 		.4byte	0x4c0
 935 0176 18       		.byte	0x18
 936 0177 06       		.uleb128 0x6
 937 0178 1A010000 		.4byte	.LASF32
 938 017c 06       		.byte	0x6
 939 017d 6D       		.byte	0x6d
 940 017e D2040000 		.4byte	0x4d2
 941 0182 1C       		.byte	0x1c
 942 0183 06       		.uleb128 0x6
 943 0184 20040000 		.4byte	.LASF33
 944 0188 06       		.byte	0x6
 945 0189 72       		.byte	0x72
 946 018a BF000000 		.4byte	0xbf
 947 018e 20       		.byte	0x20
 948 018f 06       		.uleb128 0x6
 949 0190 4F040000 		.4byte	.LASF34
 950 0194 06       		.byte	0x6
 951 0195 76       		.byte	0x76
ARM GAS  /tmp/ccR4KGij.s 			page 18


 952 0196 B4000000 		.4byte	0xb4
 953 019a 21       		.byte	0x21
 954 019b 06       		.uleb128 0x6
 955 019c 15050000 		.4byte	.LASF35
 956 01a0 06       		.byte	0x6
 957 01a1 7B       		.byte	0x7b
 958 01a2 CA000000 		.4byte	0xca
 959 01a6 22       		.byte	0x22
 960 01a7 06       		.uleb128 0x6
 961 01a8 28040000 		.4byte	.LASF36
 962 01ac 06       		.byte	0x6
 963 01ad 81       		.byte	0x81
 964 01ae D5000000 		.4byte	0xd5
 965 01b2 23       		.byte	0x23
 966 01b3 06       		.uleb128 0x6
 967 01b4 E1040000 		.4byte	.LASF37
 968 01b8 06       		.byte	0x6
 969 01b9 88       		.byte	0x88
 970 01ba DD030000 		.4byte	0x3dd
 971 01be 24       		.byte	0x24
 972 01bf 07       		.uleb128 0x7
 973 01c0 705F7500 		.ascii	"p_u\000"
 974 01c4 06       		.byte	0x6
 975 01c5 AD       		.byte	0xad
 976 01c6 8B040000 		.4byte	0x48b
 977 01ca 28       		.byte	0x28
 978 01cb 06       		.uleb128 0x6
 979 01cc 6F050000 		.4byte	.LASF38
 980 01d0 06       		.byte	0x6
 981 01d1 B2       		.byte	0xb2
 982 01d2 67020000 		.4byte	0x267
 983 01d6 2C       		.byte	0x2c
 984 01d7 06       		.uleb128 0x6
 985 01d8 EF040000 		.4byte	.LASF39
 986 01dc 06       		.byte	0x6
 987 01dd B8       		.byte	0xb8
 988 01de 47020000 		.4byte	0x247
 989 01e2 30       		.byte	0x30
 990 01e3 06       		.uleb128 0x6
 991 01e4 08000000 		.4byte	.LASF40
 992 01e8 06       		.byte	0x6
 993 01e9 BC       		.byte	0xbc
 994 01ea EB000000 		.4byte	0xeb
 995 01ee 38       		.byte	0x38
 996 01ef 06       		.uleb128 0x6
 997 01f0 67040000 		.4byte	.LASF41
 998 01f4 06       		.byte	0x6
 999 01f5 C2       		.byte	0xc2
 1000 01f6 F6000000 		.4byte	0xf6
 1001 01fa 3C       		.byte	0x3c
 1002 01fb 06       		.uleb128 0x6
 1003 01fc 0C040000 		.4byte	.LASF42
 1004 0200 06       		.byte	0x6
 1005 0201 C9       		.byte	0xc9
 1006 0202 D8040000 		.4byte	0x4d8
 1007 0206 40       		.byte	0x40
 1008 0207 06       		.uleb128 0x6
ARM GAS  /tmp/ccR4KGij.s 			page 19


 1009 0208 CD040000 		.4byte	.LASF43
 1010 020c 06       		.byte	0x6
 1011 020d CD       		.byte	0xcd
 1012 020e E0000000 		.4byte	0xe0
 1013 0212 44       		.byte	0x44
 1014 0213 06       		.uleb128 0x6
 1015 0214 72000000 		.4byte	.LASF44
 1016 0218 06       		.byte	0x6
 1017 0219 D3       		.byte	0xd3
 1018 021a 7D020000 		.4byte	0x27d
 1019 021e 48       		.byte	0x48
 1020 021f 00       		.byte	0
 1021 0220 08       		.uleb128 0x8
 1022 0221 08       		.byte	0x8
 1023 0222 05       		.byte	0x5
 1024 0223 5A       		.byte	0x5a
 1025 0224 41020000 		.4byte	0x241
 1026 0228 06       		.uleb128 0x6
 1027 0229 48040000 		.4byte	.LASF25
 1028 022d 05       		.byte	0x5
 1029 022e 5B       		.byte	0x5b
 1030 022f 41020000 		.4byte	0x241
 1031 0233 00       		.byte	0
 1032 0234 06       		.uleb128 0x6
 1033 0235 E9020000 		.4byte	.LASF26
 1034 0239 05       		.byte	0x5
 1035 023a 5D       		.byte	0x5d
 1036 023b 41020000 		.4byte	0x241
 1037 023f 04       		.byte	0x4
 1038 0240 00       		.byte	0
 1039 0241 09       		.uleb128 0x9
 1040 0242 04       		.byte	0x4
 1041 0243 0C010000 		.4byte	0x10c
 1042 0247 03       		.uleb128 0x3
 1043 0248 73020000 		.4byte	.LASF45
 1044 024c 05       		.byte	0x5
 1045 024d 5F       		.byte	0x5f
 1046 024e 20020000 		.4byte	0x220
 1047 0252 08       		.uleb128 0x8
 1048 0253 04       		.byte	0x4
 1049 0254 05       		.byte	0x5
 1050 0255 64       		.byte	0x64
 1051 0256 67020000 		.4byte	0x267
 1052 025a 06       		.uleb128 0x6
 1053 025b 48040000 		.4byte	.LASF25
 1054 025f 05       		.byte	0x5
 1055 0260 66       		.byte	0x66
 1056 0261 41020000 		.4byte	0x241
 1057 0265 00       		.byte	0
 1058 0266 00       		.byte	0
 1059 0267 03       		.uleb128 0x3
 1060 0268 90010000 		.4byte	.LASF46
 1061 026c 05       		.byte	0x5
 1062 026d 69       		.byte	0x69
 1063 026e 52020000 		.4byte	0x252
 1064 0272 03       		.uleb128 0x3
 1065 0273 FC000000 		.4byte	.LASF47
ARM GAS  /tmp/ccR4KGij.s 			page 20


 1066 0277 07       		.byte	0x7
 1067 0278 DE       		.byte	0xde
 1068 0279 7D020000 		.4byte	0x27d
 1069 027d 0A       		.uleb128 0xa
 1070 027e 04       		.byte	0x4
 1071 027f 03       		.uleb128 0x3
 1072 0280 DE010000 		.4byte	.LASF48
 1073 0284 07       		.byte	0x7
 1074 0285 E4       		.byte	0xe4
 1075 0286 90000000 		.4byte	0x90
 1076 028a 0B       		.uleb128 0xb
 1077 028b E8040000 		.4byte	.LASF49
 1078 028f 24       		.byte	0x24
 1079 0290 07       		.byte	0x7
 1080 0291 0501     		.2byte	0x105
 1081 0293 06030000 		.4byte	0x306
 1082 0297 0C       		.uleb128 0xc
 1083 0298 723400   		.ascii	"r4\000"
 1084 029b 07       		.byte	0x7
 1085 029c 1801     		.2byte	0x118
 1086 029e 72020000 		.4byte	0x272
 1087 02a2 00       		.byte	0
 1088 02a3 0C       		.uleb128 0xc
 1089 02a4 723500   		.ascii	"r5\000"
 1090 02a7 07       		.byte	0x7
 1091 02a8 1901     		.2byte	0x119
 1092 02aa 72020000 		.4byte	0x272
 1093 02ae 04       		.byte	0x4
 1094 02af 0C       		.uleb128 0xc
 1095 02b0 723600   		.ascii	"r6\000"
 1096 02b3 07       		.byte	0x7
 1097 02b4 1A01     		.2byte	0x11a
 1098 02b6 72020000 		.4byte	0x272
 1099 02ba 08       		.byte	0x8
 1100 02bb 0C       		.uleb128 0xc
 1101 02bc 723700   		.ascii	"r7\000"
 1102 02bf 07       		.byte	0x7
 1103 02c0 1B01     		.2byte	0x11b
 1104 02c2 72020000 		.4byte	0x272
 1105 02c6 0C       		.byte	0xc
 1106 02c7 0C       		.uleb128 0xc
 1107 02c8 723800   		.ascii	"r8\000"
 1108 02cb 07       		.byte	0x7
 1109 02cc 1C01     		.2byte	0x11c
 1110 02ce 72020000 		.4byte	0x272
 1111 02d2 10       		.byte	0x10
 1112 02d3 0C       		.uleb128 0xc
 1113 02d4 723900   		.ascii	"r9\000"
 1114 02d7 07       		.byte	0x7
 1115 02d8 1D01     		.2byte	0x11d
 1116 02da 72020000 		.4byte	0x272
 1117 02de 14       		.byte	0x14
 1118 02df 0C       		.uleb128 0xc
 1119 02e0 72313000 		.ascii	"r10\000"
 1120 02e4 07       		.byte	0x7
 1121 02e5 1E01     		.2byte	0x11e
 1122 02e7 72020000 		.4byte	0x272
ARM GAS  /tmp/ccR4KGij.s 			page 21


 1123 02eb 18       		.byte	0x18
 1124 02ec 0C       		.uleb128 0xc
 1125 02ed 72313100 		.ascii	"r11\000"
 1126 02f1 07       		.byte	0x7
 1127 02f2 1F01     		.2byte	0x11f
 1128 02f4 72020000 		.4byte	0x272
 1129 02f8 1C       		.byte	0x1c
 1130 02f9 0C       		.uleb128 0xc
 1131 02fa 6C7200   		.ascii	"lr\000"
 1132 02fd 07       		.byte	0x7
 1133 02fe 2001     		.2byte	0x120
 1134 0300 72020000 		.4byte	0x272
 1135 0304 20       		.byte	0x20
 1136 0305 00       		.byte	0
 1137 0306 0B       		.uleb128 0xb
 1138 0307 5A010000 		.4byte	.LASF50
 1139 030b 04       		.byte	0x4
 1140 030c 07       		.byte	0x7
 1141 030d 2A01     		.2byte	0x12a
 1142 030f 21030000 		.4byte	0x321
 1143 0313 0C       		.uleb128 0xc
 1144 0314 72313300 		.ascii	"r13\000"
 1145 0318 07       		.byte	0x7
 1146 0319 2B01     		.2byte	0x12b
 1147 031b 21030000 		.4byte	0x321
 1148 031f 00       		.byte	0
 1149 0320 00       		.byte	0
 1150 0321 09       		.uleb128 0x9
 1151 0322 04       		.byte	0x4
 1152 0323 8A020000 		.4byte	0x28a
 1153 0327 04       		.uleb128 0x4
 1154 0328 04       		.byte	0x4
 1155 0329 07       		.byte	0x7
 1156 032a 03020000 		.4byte	.LASF51
 1157 032e 03       		.uleb128 0x3
 1158 032f D8040000 		.4byte	.LASF52
 1159 0333 08       		.byte	0x8
 1160 0334 51       		.byte	0x51
 1161 0335 39030000 		.4byte	0x339
 1162 0339 09       		.uleb128 0x9
 1163 033a 04       		.byte	0x4
 1164 033b 3F030000 		.4byte	0x33f
 1165 033f 0D       		.uleb128 0xd
 1166 0340 4A030000 		.4byte	0x34a
 1167 0344 0E       		.uleb128 0xe
 1168 0345 7D020000 		.4byte	0x27d
 1169 0349 00       		.byte	0
 1170 034a 03       		.uleb128 0x3
 1171 034b 92040000 		.4byte	.LASF53
 1172 034f 08       		.byte	0x8
 1173 0350 56       		.byte	0x56
 1174 0351 55030000 		.4byte	0x355
 1175 0355 05       		.uleb128 0x5
 1176 0356 92040000 		.4byte	.LASF53
 1177 035a 14       		.byte	0x14
 1178 035b 08       		.byte	0x8
 1179 035c 5D       		.byte	0x5d
ARM GAS  /tmp/ccR4KGij.s 			page 22


 1180 035d 9E030000 		.4byte	0x39e
 1181 0361 06       		.uleb128 0x6
 1182 0362 32010000 		.4byte	.LASF54
 1183 0366 08       		.byte	0x8
 1184 0367 5E       		.byte	0x5e
 1185 0368 9E030000 		.4byte	0x39e
 1186 036c 00       		.byte	0
 1187 036d 06       		.uleb128 0x6
 1188 036e 05010000 		.4byte	.LASF55
 1189 0372 08       		.byte	0x8
 1190 0373 60       		.byte	0x60
 1191 0374 9E030000 		.4byte	0x39e
 1192 0378 04       		.byte	0x4
 1193 0379 06       		.uleb128 0x6
 1194 037a FB010000 		.4byte	.LASF56
 1195 037e 08       		.byte	0x8
 1196 037f 62       		.byte	0x62
 1197 0380 01010000 		.4byte	0x101
 1198 0384 08       		.byte	0x8
 1199 0385 06       		.uleb128 0x6
 1200 0386 30020000 		.4byte	.LASF57
 1201 038a 08       		.byte	0x8
 1202 038b 63       		.byte	0x63
 1203 038c 2E030000 		.4byte	0x32e
 1204 0390 0C       		.byte	0xc
 1205 0391 06       		.uleb128 0x6
 1206 0392 FA040000 		.4byte	.LASF58
 1207 0396 08       		.byte	0x8
 1208 0397 65       		.byte	0x65
 1209 0398 7D020000 		.4byte	0x27d
 1210 039c 10       		.byte	0x10
 1211 039d 00       		.byte	0
 1212 039e 09       		.uleb128 0x9
 1213 039f 04       		.byte	0x4
 1214 03a0 4A030000 		.4byte	0x34a
 1215 03a4 08       		.uleb128 0x8
 1216 03a5 10       		.byte	0x10
 1217 03a6 08       		.byte	0x8
 1218 03a7 6F       		.byte	0x6f
 1219 03a8 DD030000 		.4byte	0x3dd
 1220 03ac 06       		.uleb128 0x6
 1221 03ad 32010000 		.4byte	.LASF54
 1222 03b1 08       		.byte	0x8
 1223 03b2 70       		.byte	0x70
 1224 03b3 9E030000 		.4byte	0x39e
 1225 03b7 00       		.byte	0
 1226 03b8 06       		.uleb128 0x6
 1227 03b9 05010000 		.4byte	.LASF55
 1228 03bd 08       		.byte	0x8
 1229 03be 72       		.byte	0x72
 1230 03bf 9E030000 		.4byte	0x39e
 1231 03c3 04       		.byte	0x4
 1232 03c4 06       		.uleb128 0x6
 1233 03c5 FB010000 		.4byte	.LASF56
 1234 03c9 08       		.byte	0x8
 1235 03ca 74       		.byte	0x74
 1236 03cb 01010000 		.4byte	0x101
ARM GAS  /tmp/ccR4KGij.s 			page 23


 1237 03cf 08       		.byte	0x8
 1238 03d0 06       		.uleb128 0x6
 1239 03d1 4F050000 		.4byte	.LASF59
 1240 03d5 08       		.byte	0x8
 1241 03d6 75       		.byte	0x75
 1242 03d7 DD030000 		.4byte	0x3dd
 1243 03db 0C       		.byte	0xc
 1244 03dc 00       		.byte	0
 1245 03dd 0F       		.uleb128 0xf
 1246 03de 01010000 		.4byte	0x101
 1247 03e2 03       		.uleb128 0x3
 1248 03e3 5A050000 		.4byte	.LASF60
 1249 03e7 08       		.byte	0x8
 1250 03e8 76       		.byte	0x76
 1251 03e9 A4030000 		.4byte	0x3a4
 1252 03ed 08       		.uleb128 0x8
 1253 03ee 1C       		.byte	0x1c
 1254 03ef 09       		.byte	0x9
 1255 03f0 57       		.byte	0x57
 1256 03f1 3E040000 		.4byte	0x43e
 1257 03f5 06       		.uleb128 0x6
 1258 03f6 8A040000 		.4byte	.LASF61
 1259 03fa 09       		.byte	0x9
 1260 03fb 58       		.byte	0x58
 1261 03fc 47020000 		.4byte	0x247
 1262 0400 00       		.byte	0
 1263 0401 06       		.uleb128 0x6
 1264 0402 3A040000 		.4byte	.LASF62
 1265 0406 09       		.byte	0x9
 1266 0407 59       		.byte	0x59
 1267 0408 E0000000 		.4byte	0xe0
 1268 040c 08       		.byte	0x8
 1269 040d 06       		.uleb128 0x6
 1270 040e 6D020000 		.4byte	.LASF63
 1271 0412 09       		.byte	0x9
 1272 0413 5B       		.byte	0x5b
 1273 0414 06030000 		.4byte	0x306
 1274 0418 0C       		.byte	0xc
 1275 0419 06       		.uleb128 0x6
 1276 041a F4000000 		.4byte	.LASF64
 1277 041e 09       		.byte	0x9
 1278 041f 5E       		.byte	0x5e
 1279 0420 41020000 		.4byte	0x241
 1280 0424 10       		.byte	0x10
 1281 0425 06       		.uleb128 0x6
 1282 0426 AB020000 		.4byte	.LASF65
 1283 042a 09       		.byte	0x9
 1284 042b 5F       		.byte	0x5f
 1285 042c 41020000 		.4byte	0x241
 1286 0430 14       		.byte	0x14
 1287 0431 06       		.uleb128 0x6
 1288 0432 A1020000 		.4byte	.LASF66
 1289 0436 09       		.byte	0x9
 1290 0437 62       		.byte	0x62
 1291 0438 41020000 		.4byte	0x241
 1292 043c 18       		.byte	0x18
 1293 043d 00       		.byte	0
ARM GAS  /tmp/ccR4KGij.s 			page 24


 1294 043e 03       		.uleb128 0x3
 1295 043f 1C050000 		.4byte	.LASF67
 1296 0443 09       		.byte	0x9
 1297 0444 64       		.byte	0x64
 1298 0445 ED030000 		.4byte	0x3ed
 1299 0449 05       		.uleb128 0x5
 1300 044a D8010000 		.4byte	.LASF68
 1301 044e 10       		.byte	0x10
 1302 044f 0A       		.byte	0xa
 1303 0450 25       		.byte	0x25
 1304 0451 7A040000 		.4byte	0x47a
 1305 0455 06       		.uleb128 0x6
 1306 0456 81000000 		.4byte	.LASF69
 1307 045a 0A       		.byte	0xa
 1308 045b 26       		.byte	0x26
 1309 045c 47020000 		.4byte	0x247
 1310 0460 00       		.byte	0
 1311 0461 06       		.uleb128 0x6
 1312 0462 61050000 		.4byte	.LASF70
 1313 0466 0A       		.byte	0xa
 1314 0467 28       		.byte	0x28
 1315 0468 41020000 		.4byte	0x241
 1316 046c 08       		.byte	0x8
 1317 046d 06       		.uleb128 0x6
 1318 046e BC040000 		.4byte	.LASF71
 1319 0472 0A       		.byte	0xa
 1320 0473 2A       		.byte	0x2a
 1321 0474 7A040000 		.4byte	0x47a
 1322 0478 0C       		.byte	0xc
 1323 0479 00       		.byte	0
 1324 047a 09       		.uleb128 0x9
 1325 047b 04       		.byte	0x4
 1326 047c 49040000 		.4byte	0x449
 1327 0480 03       		.uleb128 0x3
 1328 0481 D8010000 		.4byte	.LASF68
 1329 0485 0A       		.byte	0xa
 1330 0486 2C       		.byte	0x2c
 1331 0487 49040000 		.4byte	0x449
 1332 048b 10       		.uleb128 0x10
 1333 048c 04       		.byte	0x4
 1334 048d 06       		.byte	0x6
 1335 048e 8F       		.byte	0x8f
 1336 048f C0040000 		.4byte	0x4c0
 1337 0493 11       		.uleb128 0x11
 1338 0494 1A000000 		.4byte	.LASF72
 1339 0498 06       		.byte	0x6
 1340 0499 96       		.byte	0x96
 1341 049a EB000000 		.4byte	0xeb
 1342 049e 11       		.uleb128 0x11
 1343 049f 48000000 		.4byte	.LASF73
 1344 04a3 06       		.byte	0x6
 1345 04a4 9D       		.byte	0x9d
 1346 04a5 EB000000 		.4byte	0xeb
 1347 04a9 11       		.uleb128 0x11
 1348 04aa 34050000 		.4byte	.LASF74
 1349 04ae 06       		.byte	0x6
 1350 04af A4       		.byte	0xa4
ARM GAS  /tmp/ccR4KGij.s 			page 25


 1351 04b0 7D020000 		.4byte	0x27d
 1352 04b4 11       		.uleb128 0x11
 1353 04b5 41040000 		.4byte	.LASF75
 1354 04b9 06       		.byte	0x6
 1355 04ba AB       		.byte	0xab
 1356 04bb F6000000 		.4byte	0xf6
 1357 04bf 00       		.byte	0
 1358 04c0 09       		.uleb128 0x9
 1359 04c1 04       		.byte	0x4
 1360 04c2 C6040000 		.4byte	0x4c6
 1361 04c6 12       		.uleb128 0x12
 1362 04c7 CB040000 		.4byte	0x4cb
 1363 04cb 04       		.uleb128 0x4
 1364 04cc 01       		.byte	0x1
 1365 04cd 08       		.byte	0x8
 1366 04ce 9F040000 		.4byte	.LASF76
 1367 04d2 09       		.uleb128 0x9
 1368 04d3 04       		.byte	0x4
 1369 04d4 7F020000 		.4byte	0x27f
 1370 04d8 09       		.uleb128 0x9
 1371 04d9 04       		.byte	0x4
 1372 04da 80040000 		.4byte	0x480
 1373 04de 03       		.uleb128 0x3
 1374 04df 00000000 		.4byte	.LASF77
 1375 04e3 06       		.byte	0x6
 1376 04e4 DE       		.byte	0xde
 1377 04e5 E9040000 		.4byte	0x4e9
 1378 04e9 09       		.uleb128 0x9
 1379 04ea 04       		.byte	0x4
 1380 04eb EF040000 		.4byte	0x4ef
 1381 04ef 13       		.uleb128 0x13
 1382 04f0 EB000000 		.4byte	0xeb
 1383 04f4 FE040000 		.4byte	0x4fe
 1384 04f8 0E       		.uleb128 0xe
 1385 04f9 7D020000 		.4byte	0x27d
 1386 04fd 00       		.byte	0
 1387 04fe 05       		.uleb128 0x5
 1388 04ff 5E040000 		.4byte	.LASF78
 1389 0503 10       		.byte	0x10
 1390 0504 0B       		.byte	0xb
 1391 0505 3B       		.byte	0x3b
 1392 0506 3B050000 		.4byte	0x53b
 1393 050a 06       		.uleb128 0x6
 1394 050b 55010000 		.4byte	.LASF79
 1395 050f 0B       		.byte	0xb
 1396 0510 3C       		.byte	0x3c
 1397 0511 C0040000 		.4byte	0x4c0
 1398 0515 00       		.byte	0
 1399 0516 06       		.uleb128 0x6
 1400 0517 80020000 		.4byte	.LASF80
 1401 051b 0B       		.byte	0xb
 1402 051c 3D       		.byte	0x3d
 1403 051d 3C050000 		.4byte	0x53c
 1404 0521 04       		.byte	0x4
 1405 0522 06       		.uleb128 0x6
 1406 0523 4C010000 		.4byte	.LASF81
 1407 0527 0B       		.byte	0xb
ARM GAS  /tmp/ccR4KGij.s 			page 26


 1408 0528 3E       		.byte	0x3e
 1409 0529 3C050000 		.4byte	0x53c
 1410 052d 08       		.byte	0x8
 1411 052e 06       		.uleb128 0x6
 1412 052f F0020000 		.4byte	.LASF82
 1413 0533 0B       		.byte	0xb
 1414 0534 3F       		.byte	0x3f
 1415 0535 3C050000 		.4byte	0x53c
 1416 0539 0C       		.byte	0xc
 1417 053a 00       		.byte	0
 1418 053b 14       		.uleb128 0x14
 1419 053c 09       		.uleb128 0x9
 1420 053d 04       		.byte	0x4
 1421 053e 3B050000 		.4byte	0x53b
 1422 0542 15       		.uleb128 0x15
 1423 0543 A4040000 		.4byte	.LASF111
 1424 0547 01       		.byte	0x1
 1425 0548 BD       		.byte	0xbd
 1426 0549 01       		.byte	0x1
 1427 054a 5A050000 		.4byte	0x55a
 1428 054e 16       		.uleb128 0x16
 1429 054f 9C020000 		.4byte	.LASF112
 1430 0553 01       		.byte	0x1
 1431 0554 BE       		.byte	0xbe
 1432 0555 01010000 		.4byte	0x101
 1433 0559 00       		.byte	0
 1434 055a 17       		.uleb128 0x17
 1435 055b 0D010000 		.4byte	.LASF83
 1436 055f 01       		.byte	0x1
 1437 0560 42       		.byte	0x42
 1438 0561 00000000 		.4byte	.LFB8
 1439 0565 C8000000 		.4byte	.LFE8-.LFB8
 1440 0569 01       		.uleb128 0x1
 1441 056a 9C       		.byte	0x9c
 1442 056b 6D060000 		.4byte	0x66d
 1443 056f 18       		.uleb128 0x18
 1444 0570 22000000 		.4byte	.LVL0
 1445 0574 AA0B0000 		.4byte	0xbaa
 1446 0578 9B050000 		.4byte	0x59b
 1447 057c 19       		.uleb128 0x19
 1448 057d 01       		.uleb128 0x1
 1449 057e 53       		.byte	0x53
 1450 057f 02       		.uleb128 0x2
 1451 0580 75       		.byte	0x75
 1452 0581 00       		.sleb128 0
 1453 0582 19       		.uleb128 0x19
 1454 0583 01       		.uleb128 0x1
 1455 0584 51       		.byte	0x51
 1456 0585 03       		.uleb128 0x3
 1457 0586 0A       		.byte	0xa
 1458 0587 3001     		.2byte	0x130
 1459 0589 19       		.uleb128 0x19
 1460 058a 01       		.uleb128 0x1
 1461 058b 50       		.byte	0x50
 1462 058c 03       		.uleb128 0x3
 1463 058d 76       		.byte	0x76
 1464 058e 00       		.sleb128 0
ARM GAS  /tmp/ccR4KGij.s 			page 27


 1465 058f 06       		.byte	0x6
 1466 0590 19       		.uleb128 0x19
 1467 0591 02       		.uleb128 0x2
 1468 0592 7D       		.byte	0x7d
 1469 0593 00       		.sleb128 0
 1470 0594 05       		.uleb128 0x5
 1471 0595 03       		.byte	0x3
 1472 0596 00000000 		.4byte	.LC0
 1473 059a 00       		.byte	0
 1474 059b 18       		.uleb128 0x18
 1475 059c 3C000000 		.4byte	.LVL1
 1476 05a0 AA0B0000 		.4byte	0xbaa
 1477 05a4 C7050000 		.4byte	0x5c7
 1478 05a8 19       		.uleb128 0x19
 1479 05a9 01       		.uleb128 0x1
 1480 05aa 53       		.byte	0x53
 1481 05ab 02       		.uleb128 0x2
 1482 05ac 75       		.byte	0x75
 1483 05ad 00       		.sleb128 0
 1484 05ae 19       		.uleb128 0x19
 1485 05af 01       		.uleb128 0x1
 1486 05b0 51       		.byte	0x51
 1487 05b1 03       		.uleb128 0x3
 1488 05b2 0A       		.byte	0xa
 1489 05b3 3001     		.2byte	0x130
 1490 05b5 19       		.uleb128 0x19
 1491 05b6 01       		.uleb128 0x1
 1492 05b7 50       		.byte	0x50
 1493 05b8 03       		.uleb128 0x3
 1494 05b9 76       		.byte	0x76
 1495 05ba 04       		.sleb128 4
 1496 05bb 06       		.byte	0x6
 1497 05bc 19       		.uleb128 0x19
 1498 05bd 02       		.uleb128 0x2
 1499 05be 7D       		.byte	0x7d
 1500 05bf 00       		.sleb128 0
 1501 05c0 05       		.uleb128 0x5
 1502 05c1 03       		.byte	0x3
 1503 05c2 04000000 		.4byte	.LC1
 1504 05c6 00       		.byte	0
 1505 05c7 18       		.uleb128 0x18
 1506 05c8 56000000 		.4byte	.LVL2
 1507 05cc AA0B0000 		.4byte	0xbaa
 1508 05d0 F3050000 		.4byte	0x5f3
 1509 05d4 19       		.uleb128 0x19
 1510 05d5 01       		.uleb128 0x1
 1511 05d6 53       		.byte	0x53
 1512 05d7 02       		.uleb128 0x2
 1513 05d8 75       		.byte	0x75
 1514 05d9 00       		.sleb128 0
 1515 05da 19       		.uleb128 0x19
 1516 05db 01       		.uleb128 0x1
 1517 05dc 51       		.byte	0x51
 1518 05dd 03       		.uleb128 0x3
 1519 05de 0A       		.byte	0xa
 1520 05df 3001     		.2byte	0x130
 1521 05e1 19       		.uleb128 0x19
ARM GAS  /tmp/ccR4KGij.s 			page 28


 1522 05e2 01       		.uleb128 0x1
 1523 05e3 50       		.byte	0x50
 1524 05e4 03       		.uleb128 0x3
 1525 05e5 76       		.byte	0x76
 1526 05e6 08       		.sleb128 8
 1527 05e7 06       		.byte	0x6
 1528 05e8 19       		.uleb128 0x19
 1529 05e9 02       		.uleb128 0x2
 1530 05ea 7D       		.byte	0x7d
 1531 05eb 00       		.sleb128 0
 1532 05ec 05       		.uleb128 0x5
 1533 05ed 03       		.byte	0x3
 1534 05ee 08000000 		.4byte	.LC2
 1535 05f2 00       		.byte	0
 1536 05f3 18       		.uleb128 0x18
 1537 05f4 70000000 		.4byte	.LVL3
 1538 05f8 AA0B0000 		.4byte	0xbaa
 1539 05fc 1F060000 		.4byte	0x61f
 1540 0600 19       		.uleb128 0x19
 1541 0601 01       		.uleb128 0x1
 1542 0602 53       		.byte	0x53
 1543 0603 02       		.uleb128 0x2
 1544 0604 75       		.byte	0x75
 1545 0605 00       		.sleb128 0
 1546 0606 19       		.uleb128 0x19
 1547 0607 01       		.uleb128 0x1
 1548 0608 51       		.byte	0x51
 1549 0609 03       		.uleb128 0x3
 1550 060a 0A       		.byte	0xa
 1551 060b 3001     		.2byte	0x130
 1552 060d 19       		.uleb128 0x19
 1553 060e 01       		.uleb128 0x1
 1554 060f 50       		.byte	0x50
 1555 0610 03       		.uleb128 0x3
 1556 0611 76       		.byte	0x76
 1557 0612 0C       		.sleb128 12
 1558 0613 06       		.byte	0x6
 1559 0614 19       		.uleb128 0x19
 1560 0615 02       		.uleb128 0x2
 1561 0616 7D       		.byte	0x7d
 1562 0617 00       		.sleb128 0
 1563 0618 05       		.uleb128 0x5
 1564 0619 03       		.byte	0x3
 1565 061a 0C000000 		.4byte	.LC3
 1566 061e 00       		.byte	0
 1567 061f 18       		.uleb128 0x18
 1568 0620 8A000000 		.4byte	.LVL4
 1569 0624 AA0B0000 		.4byte	0xbaa
 1570 0628 4B060000 		.4byte	0x64b
 1571 062c 19       		.uleb128 0x19
 1572 062d 01       		.uleb128 0x1
 1573 062e 53       		.byte	0x53
 1574 062f 02       		.uleb128 0x2
 1575 0630 75       		.byte	0x75
 1576 0631 00       		.sleb128 0
 1577 0632 19       		.uleb128 0x19
 1578 0633 01       		.uleb128 0x1
ARM GAS  /tmp/ccR4KGij.s 			page 29


 1579 0634 51       		.byte	0x51
 1580 0635 03       		.uleb128 0x3
 1581 0636 0A       		.byte	0xa
 1582 0637 3001     		.2byte	0x130
 1583 0639 19       		.uleb128 0x19
 1584 063a 01       		.uleb128 0x1
 1585 063b 50       		.byte	0x50
 1586 063c 03       		.uleb128 0x3
 1587 063d 76       		.byte	0x76
 1588 063e 10       		.sleb128 16
 1589 063f 06       		.byte	0x6
 1590 0640 19       		.uleb128 0x19
 1591 0641 02       		.uleb128 0x2
 1592 0642 7D       		.byte	0x7d
 1593 0643 00       		.sleb128 0
 1594 0644 05       		.uleb128 0x5
 1595 0645 03       		.byte	0x3
 1596 0646 10000000 		.4byte	.LC4
 1597 064a 00       		.byte	0
 1598 064b 1A       		.uleb128 0x1a
 1599 064c 90000000 		.4byte	.LVL5
 1600 0650 D40B0000 		.4byte	0xbd4
 1601 0654 1B       		.uleb128 0x1b
 1602 0655 9E000000 		.4byte	.LVL6
 1603 0659 DB0B0000 		.4byte	0xbdb
 1604 065d 19       		.uleb128 0x19
 1605 065e 01       		.uleb128 0x1
 1606 065f 51       		.byte	0x51
 1607 0660 05       		.uleb128 0x5
 1608 0661 03       		.byte	0x3
 1609 0662 14000000 		.4byte	.LC5
 1610 0666 19       		.uleb128 0x19
 1611 0667 01       		.uleb128 0x1
 1612 0668 50       		.byte	0x50
 1613 0669 01       		.uleb128 0x1
 1614 066a 31       		.byte	0x31
 1615 066b 00       		.byte	0
 1616 066c 00       		.byte	0
 1617 066d 1C       		.uleb128 0x1c
 1618 066e DA030000 		.4byte	.LASF113
 1619 0672 01       		.byte	0x1
 1620 0673 3C       		.byte	0x3c
 1621 0674 EB000000 		.4byte	0xeb
 1622 0678 00000000 		.4byte	.LFB7
 1623 067c 0C000000 		.4byte	.LFE7-.LFB7
 1624 0680 01       		.uleb128 0x1
 1625 0681 9C       		.byte	0x9c
 1626 0682 9D060000 		.4byte	0x69d
 1627 0686 1D       		.uleb128 0x1d
 1628 0687 7000     		.ascii	"p\000"
 1629 0689 01       		.byte	0x1
 1630 068a 3C       		.byte	0x3c
 1631 068b 7D020000 		.4byte	0x27d
 1632 068f 00000000 		.4byte	.LLST0
 1633 0693 1A       		.uleb128 0x1a
 1634 0694 08000000 		.4byte	.LVL9
 1635 0698 FB0B0000 		.4byte	0xbfb
ARM GAS  /tmp/ccR4KGij.s 			page 30


 1636 069c 00       		.byte	0
 1637 069d 17       		.uleb128 0x17
 1638 069e 75010000 		.4byte	.LASF84
 1639 06a2 01       		.byte	0x1
 1640 06a3 5E       		.byte	0x5e
 1641 06a4 00000000 		.4byte	.LFB9
 1642 06a8 E0000000 		.4byte	.LFE9-.LFB9
 1643 06ac 01       		.uleb128 0x1
 1644 06ad 9C       		.byte	0x9c
 1645 06ae FD070000 		.4byte	0x7fd
 1646 06b2 1E       		.uleb128 0x1e
 1647 06b3 00000000 		.4byte	.Ldebug_ranges0+0
 1648 06b7 C9060000 		.4byte	0x6c9
 1649 06bb 1F       		.uleb128 0x1f
 1650 06bc 746D7000 		.ascii	"tmp\000"
 1651 06c0 01       		.byte	0x1
 1652 06c1 65       		.byte	0x65
 1653 06c2 77000000 		.4byte	0x77
 1654 06c6 01       		.uleb128 0x1
 1655 06c7 53       		.byte	0x53
 1656 06c8 00       		.byte	0
 1657 06c9 20       		.uleb128 0x20
 1658 06ca 98000000 		.4byte	.LBB4
 1659 06ce 06000000 		.4byte	.LBE4-.LBB4
 1660 06d2 E4060000 		.4byte	0x6e4
 1661 06d6 1F       		.uleb128 0x1f
 1662 06d7 746D7000 		.ascii	"tmp\000"
 1663 06db 01       		.byte	0x1
 1664 06dc 67       		.byte	0x67
 1665 06dd 77000000 		.4byte	0x77
 1666 06e1 01       		.uleb128 0x1
 1667 06e2 53       		.byte	0x53
 1668 06e3 00       		.byte	0
 1669 06e4 18       		.uleb128 0x18
 1670 06e5 22000000 		.4byte	.LVL10
 1671 06e9 AA0B0000 		.4byte	0xbaa
 1672 06ed 10070000 		.4byte	0x710
 1673 06f1 19       		.uleb128 0x19
 1674 06f2 01       		.uleb128 0x1
 1675 06f3 53       		.byte	0x53
 1676 06f4 02       		.uleb128 0x2
 1677 06f5 75       		.byte	0x75
 1678 06f6 00       		.sleb128 0
 1679 06f7 19       		.uleb128 0x19
 1680 06f8 01       		.uleb128 0x1
 1681 06f9 51       		.byte	0x51
 1682 06fa 03       		.uleb128 0x3
 1683 06fb 0A       		.byte	0xa
 1684 06fc 3001     		.2byte	0x130
 1685 06fe 19       		.uleb128 0x19
 1686 06ff 01       		.uleb128 0x1
 1687 0700 50       		.byte	0x50
 1688 0701 03       		.uleb128 0x3
 1689 0702 76       		.byte	0x76
 1690 0703 04       		.sleb128 4
 1691 0704 06       		.byte	0x6
 1692 0705 19       		.uleb128 0x19
ARM GAS  /tmp/ccR4KGij.s 			page 31


 1693 0706 02       		.uleb128 0x2
 1694 0707 7D       		.byte	0x7d
 1695 0708 00       		.sleb128 0
 1696 0709 05       		.uleb128 0x5
 1697 070a 03       		.byte	0x3
 1698 070b 04000000 		.4byte	.LC1
 1699 070f 00       		.byte	0
 1700 0710 18       		.uleb128 0x18
 1701 0711 3C000000 		.4byte	.LVL11
 1702 0715 AA0B0000 		.4byte	0xbaa
 1703 0719 3C070000 		.4byte	0x73c
 1704 071d 19       		.uleb128 0x19
 1705 071e 01       		.uleb128 0x1
 1706 071f 53       		.byte	0x53
 1707 0720 02       		.uleb128 0x2
 1708 0721 75       		.byte	0x75
 1709 0722 00       		.sleb128 0
 1710 0723 19       		.uleb128 0x19
 1711 0724 01       		.uleb128 0x1
 1712 0725 51       		.byte	0x51
 1713 0726 03       		.uleb128 0x3
 1714 0727 0A       		.byte	0xa
 1715 0728 3001     		.2byte	0x130
 1716 072a 19       		.uleb128 0x19
 1717 072b 01       		.uleb128 0x1
 1718 072c 50       		.byte	0x50
 1719 072d 03       		.uleb128 0x3
 1720 072e 76       		.byte	0x76
 1721 072f 00       		.sleb128 0
 1722 0730 06       		.byte	0x6
 1723 0731 19       		.uleb128 0x19
 1724 0732 02       		.uleb128 0x2
 1725 0733 7D       		.byte	0x7d
 1726 0734 00       		.sleb128 0
 1727 0735 05       		.uleb128 0x5
 1728 0736 03       		.byte	0x3
 1729 0737 00000000 		.4byte	.LC0
 1730 073b 00       		.byte	0
 1731 073c 18       		.uleb128 0x18
 1732 073d 56000000 		.4byte	.LVL12
 1733 0741 AA0B0000 		.4byte	0xbaa
 1734 0745 68070000 		.4byte	0x768
 1735 0749 19       		.uleb128 0x19
 1736 074a 01       		.uleb128 0x1
 1737 074b 53       		.byte	0x53
 1738 074c 02       		.uleb128 0x2
 1739 074d 75       		.byte	0x75
 1740 074e 00       		.sleb128 0
 1741 074f 19       		.uleb128 0x19
 1742 0750 01       		.uleb128 0x1
 1743 0751 51       		.byte	0x51
 1744 0752 03       		.uleb128 0x3
 1745 0753 0A       		.byte	0xa
 1746 0754 3001     		.2byte	0x130
 1747 0756 19       		.uleb128 0x19
 1748 0757 01       		.uleb128 0x1
 1749 0758 50       		.byte	0x50
ARM GAS  /tmp/ccR4KGij.s 			page 32


 1750 0759 03       		.uleb128 0x3
 1751 075a 76       		.byte	0x76
 1752 075b 10       		.sleb128 16
 1753 075c 06       		.byte	0x6
 1754 075d 19       		.uleb128 0x19
 1755 075e 02       		.uleb128 0x2
 1756 075f 7D       		.byte	0x7d
 1757 0760 00       		.sleb128 0
 1758 0761 05       		.uleb128 0x5
 1759 0762 03       		.byte	0x3
 1760 0763 10000000 		.4byte	.LC4
 1761 0767 00       		.byte	0
 1762 0768 18       		.uleb128 0x18
 1763 0769 70000000 		.4byte	.LVL13
 1764 076d AA0B0000 		.4byte	0xbaa
 1765 0771 94070000 		.4byte	0x794
 1766 0775 19       		.uleb128 0x19
 1767 0776 01       		.uleb128 0x1
 1768 0777 53       		.byte	0x53
 1769 0778 02       		.uleb128 0x2
 1770 0779 75       		.byte	0x75
 1771 077a 00       		.sleb128 0
 1772 077b 19       		.uleb128 0x19
 1773 077c 01       		.uleb128 0x1
 1774 077d 51       		.byte	0x51
 1775 077e 03       		.uleb128 0x3
 1776 077f 0A       		.byte	0xa
 1777 0780 3001     		.2byte	0x130
 1778 0782 19       		.uleb128 0x19
 1779 0783 01       		.uleb128 0x1
 1780 0784 50       		.byte	0x50
 1781 0785 03       		.uleb128 0x3
 1782 0786 76       		.byte	0x76
 1783 0787 0C       		.sleb128 12
 1784 0788 06       		.byte	0x6
 1785 0789 19       		.uleb128 0x19
 1786 078a 02       		.uleb128 0x2
 1787 078b 7D       		.byte	0x7d
 1788 078c 00       		.sleb128 0
 1789 078d 05       		.uleb128 0x5
 1790 078e 03       		.byte	0x3
 1791 078f 0C000000 		.4byte	.LC3
 1792 0793 00       		.byte	0
 1793 0794 1A       		.uleb128 0x1a
 1794 0795 7C000000 		.4byte	.LVL14
 1795 0799 0C0C0000 		.4byte	0xc0c
 1796 079d 18       		.uleb128 0x18
 1797 079e 92000000 		.4byte	.LVL15
 1798 07a2 130C0000 		.4byte	0xc13
 1799 07a6 C9070000 		.4byte	0x7c9
 1800 07aa 19       		.uleb128 0x19
 1801 07ab 01       		.uleb128 0x1
 1802 07ac 53       		.byte	0x53
 1803 07ad 02       		.uleb128 0x2
 1804 07ae 75       		.byte	0x75
 1805 07af 00       		.sleb128 0
 1806 07b0 19       		.uleb128 0x19
ARM GAS  /tmp/ccR4KGij.s 			page 33


 1807 07b1 01       		.uleb128 0x1
 1808 07b2 51       		.byte	0x51
 1809 07b3 03       		.uleb128 0x3
 1810 07b4 0A       		.byte	0xa
 1811 07b5 3001     		.2byte	0x130
 1812 07b7 19       		.uleb128 0x19
 1813 07b8 01       		.uleb128 0x1
 1814 07b9 50       		.byte	0x50
 1815 07ba 03       		.uleb128 0x3
 1816 07bb 76       		.byte	0x76
 1817 07bc 08       		.sleb128 8
 1818 07bd 06       		.byte	0x6
 1819 07be 19       		.uleb128 0x19
 1820 07bf 02       		.uleb128 0x2
 1821 07c0 7D       		.byte	0x7d
 1822 07c1 00       		.sleb128 0
 1823 07c2 05       		.uleb128 0x5
 1824 07c3 03       		.byte	0x3
 1825 07c4 08000000 		.4byte	.LC2
 1826 07c8 00       		.byte	0
 1827 07c9 1A       		.uleb128 0x1a
 1828 07ca 98000000 		.4byte	.LVL16
 1829 07ce 3D0C0000 		.4byte	0xc3d
 1830 07d2 1A       		.uleb128 0x1a
 1831 07d3 A4000000 		.4byte	.LVL17
 1832 07d7 440C0000 		.4byte	0xc44
 1833 07db 1A       		.uleb128 0x1a
 1834 07dc A8000000 		.4byte	.LVL18
 1835 07e0 D40B0000 		.4byte	0xbd4
 1836 07e4 1B       		.uleb128 0x1b
 1837 07e5 B6000000 		.4byte	.LVL19
 1838 07e9 DB0B0000 		.4byte	0xbdb
 1839 07ed 19       		.uleb128 0x19
 1840 07ee 01       		.uleb128 0x1
 1841 07ef 51       		.byte	0x51
 1842 07f0 05       		.uleb128 0x5
 1843 07f1 03       		.byte	0x3
 1844 07f2 14000000 		.4byte	.LC5
 1845 07f6 19       		.uleb128 0x19
 1846 07f7 01       		.uleb128 0x1
 1847 07f8 50       		.byte	0x50
 1848 07f9 01       		.uleb128 0x1
 1849 07fa 31       		.byte	0x31
 1850 07fb 00       		.byte	0
 1851 07fc 00       		.byte	0
 1852 07fd 17       		.uleb128 0x17
 1853 07fe DC020000 		.4byte	.LASF85
 1854 0802 01       		.byte	0x1
 1855 0803 7E       		.byte	0x7e
 1856 0804 00000000 		.4byte	.LFB10
 1857 0808 4C010000 		.4byte	.LFE10-.LFB10
 1858 080c 01       		.uleb128 0x1
 1859 080d 9C       		.byte	0x9c
 1860 080e F2090000 		.4byte	0x9f2
 1861 0812 21       		.uleb128 0x21
 1862 0813 15000000 		.4byte	.LASF86
 1863 0817 01       		.byte	0x1
ARM GAS  /tmp/ccR4KGij.s 			page 34


 1864 0818 7F       		.byte	0x7f
 1865 0819 E0000000 		.4byte	0xe0
 1866 081d 01       		.uleb128 0x1
 1867 081e 54       		.byte	0x54
 1868 081f 22       		.uleb128 0x22
 1869 0820 703100   		.ascii	"p1\000"
 1870 0823 01       		.byte	0x1
 1871 0824 7F       		.byte	0x7f
 1872 0825 E0000000 		.4byte	0xe0
 1873 0829 21000000 		.4byte	.LLST1
 1874 082d 20       		.uleb128 0x20
 1875 082e 6C000000 		.4byte	.LBB5
 1876 0832 06000000 		.4byte	.LBE5-.LBB5
 1877 0836 48080000 		.4byte	0x848
 1878 083a 1F       		.uleb128 0x1f
 1879 083b 746D7000 		.ascii	"tmp\000"
 1880 083f 01       		.byte	0x1
 1881 0840 8F       		.byte	0x8f
 1882 0841 77000000 		.4byte	0x77
 1883 0845 01       		.uleb128 0x1
 1884 0846 53       		.byte	0x53
 1885 0847 00       		.byte	0
 1886 0848 20       		.uleb128 0x20
 1887 0849 82000000 		.4byte	.LBB6
 1888 084d 06000000 		.4byte	.LBE6-.LBB6
 1889 0851 63080000 		.4byte	0x863
 1890 0855 1F       		.uleb128 0x1f
 1891 0856 746D7000 		.ascii	"tmp\000"
 1892 085a 01       		.byte	0x1
 1893 085b 91       		.byte	0x91
 1894 085c 77000000 		.4byte	0x77
 1895 0860 01       		.uleb128 0x1
 1896 0861 53       		.byte	0x53
 1897 0862 00       		.byte	0
 1898 0863 20       		.uleb128 0x20
 1899 0864 2A010000 		.4byte	.LBB7
 1900 0868 06000000 		.4byte	.LBE7-.LBB7
 1901 086c 7E080000 		.4byte	0x87e
 1902 0870 1F       		.uleb128 0x1f
 1903 0871 746D7000 		.ascii	"tmp\000"
 1904 0875 01       		.byte	0x1
 1905 0876 A7       		.byte	0xa7
 1906 0877 77000000 		.4byte	0x77
 1907 087b 01       		.uleb128 0x1
 1908 087c 53       		.byte	0x53
 1909 087d 00       		.byte	0
 1910 087e 20       		.uleb128 0x20
 1911 087f 3E010000 		.4byte	.LBB8
 1912 0883 0E000000 		.4byte	.LBE8-.LBB8
 1913 0887 99080000 		.4byte	0x899
 1914 088b 1F       		.uleb128 0x1f
 1915 088c 746D7000 		.ascii	"tmp\000"
 1916 0890 01       		.byte	0x1
 1917 0891 AA       		.byte	0xaa
 1918 0892 77000000 		.4byte	0x77
 1919 0896 01       		.uleb128 0x1
 1920 0897 53       		.byte	0x53
ARM GAS  /tmp/ccR4KGij.s 			page 35


 1921 0898 00       		.byte	0
 1922 0899 18       		.uleb128 0x18
 1923 089a 10000000 		.4byte	.LVL21
 1924 089e 5A0C0000 		.4byte	0xc5a
 1925 08a2 AD080000 		.4byte	0x8ad
 1926 08a6 19       		.uleb128 0x19
 1927 08a7 01       		.uleb128 0x1
 1928 08a8 50       		.byte	0x50
 1929 08a9 02       		.uleb128 0x2
 1930 08aa 75       		.byte	0x75
 1931 08ab 00       		.sleb128 0
 1932 08ac 00       		.byte	0
 1933 08ad 18       		.uleb128 0x18
 1934 08ae 24000000 		.4byte	.LVL24
 1935 08b2 700C0000 		.4byte	0xc70
 1936 08b6 CB080000 		.4byte	0x8cb
 1937 08ba 19       		.uleb128 0x19
 1938 08bb 01       		.uleb128 0x1
 1939 08bc 51       		.byte	0x51
 1940 08bd 07       		.uleb128 0x7
 1941 08be 77       		.byte	0x77
 1942 08bf 00       		.sleb128 0
 1943 08c0 74       		.byte	0x74
 1944 08c1 00       		.sleb128 0
 1945 08c2 1C       		.byte	0x1c
 1946 08c3 30       		.byte	0x30
 1947 08c4 29       		.byte	0x29
 1948 08c5 19       		.uleb128 0x19
 1949 08c6 01       		.uleb128 0x1
 1950 08c7 50       		.byte	0x50
 1951 08c8 01       		.uleb128 0x1
 1952 08c9 31       		.byte	0x31
 1953 08ca 00       		.byte	0
 1954 08cb 18       		.uleb128 0x18
 1955 08cc 3E000000 		.4byte	.LVL27
 1956 08d0 700C0000 		.4byte	0xc70
 1957 08d4 DE080000 		.4byte	0x8de
 1958 08d8 19       		.uleb128 0x19
 1959 08d9 01       		.uleb128 0x1
 1960 08da 50       		.byte	0x50
 1961 08db 01       		.uleb128 0x1
 1962 08dc 32       		.byte	0x32
 1963 08dd 00       		.byte	0
 1964 08de 18       		.uleb128 0x18
 1965 08df 48000000 		.4byte	.LVL28
 1966 08e3 5A0C0000 		.4byte	0xc5a
 1967 08e7 F2080000 		.4byte	0x8f2
 1968 08eb 19       		.uleb128 0x19
 1969 08ec 01       		.uleb128 0x1
 1970 08ed 50       		.byte	0x50
 1971 08ee 02       		.uleb128 0x2
 1972 08ef 77       		.byte	0x77
 1973 08f0 00       		.sleb128 0
 1974 08f1 00       		.byte	0
 1975 08f2 18       		.uleb128 0x18
 1976 08f3 54000000 		.4byte	.LVL30
 1977 08f7 700C0000 		.4byte	0xc70
ARM GAS  /tmp/ccR4KGij.s 			page 36


 1978 08fb 05090000 		.4byte	0x905
 1979 08ff 19       		.uleb128 0x19
 1980 0900 01       		.uleb128 0x1
 1981 0901 50       		.byte	0x50
 1982 0902 01       		.uleb128 0x1
 1983 0903 33       		.byte	0x33
 1984 0904 00       		.byte	0
 1985 0905 18       		.uleb128 0x18
 1986 0906 68000000 		.4byte	.LVL31
 1987 090a 700C0000 		.4byte	0xc70
 1988 090e 18090000 		.4byte	0x918
 1989 0912 19       		.uleb128 0x19
 1990 0913 01       		.uleb128 0x1
 1991 0914 50       		.byte	0x50
 1992 0915 01       		.uleb128 0x1
 1993 0916 34       		.byte	0x34
 1994 0917 00       		.byte	0
 1995 0918 1A       		.uleb128 0x1a
 1996 0919 76000000 		.4byte	.LVL32
 1997 091d 0C0C0000 		.4byte	0xc0c
 1998 0921 1A       		.uleb128 0x1a
 1999 0922 82000000 		.4byte	.LVL33
 2000 0926 3D0C0000 		.4byte	0xc3d
 2001 092a 18       		.uleb128 0x18
 2002 092b 9A000000 		.4byte	.LVL34
 2003 092f 700C0000 		.4byte	0xc70
 2004 0933 3D090000 		.4byte	0x93d
 2005 0937 19       		.uleb128 0x19
 2006 0938 01       		.uleb128 0x1
 2007 0939 50       		.byte	0x50
 2008 093a 01       		.uleb128 0x1
 2009 093b 35       		.byte	0x35
 2010 093c 00       		.byte	0
 2011 093d 18       		.uleb128 0x18
 2012 093e A4000000 		.4byte	.LVL35
 2013 0942 5A0C0000 		.4byte	0xc5a
 2014 0946 51090000 		.4byte	0x951
 2015 094a 19       		.uleb128 0x19
 2016 094b 01       		.uleb128 0x1
 2017 094c 50       		.byte	0x50
 2018 094d 02       		.uleb128 0x2
 2019 094e 75       		.byte	0x75
 2020 094f 00       		.sleb128 0
 2021 0950 00       		.byte	0
 2022 0951 18       		.uleb128 0x18
 2023 0952 B6000000 		.4byte	.LVL37
 2024 0956 700C0000 		.4byte	0xc70
 2025 095a 64090000 		.4byte	0x964
 2026 095e 19       		.uleb128 0x19
 2027 095f 01       		.uleb128 0x1
 2028 0960 50       		.byte	0x50
 2029 0961 01       		.uleb128 0x1
 2030 0962 36       		.byte	0x36
 2031 0963 00       		.byte	0
 2032 0964 18       		.uleb128 0x18
 2033 0965 D0000000 		.4byte	.LVL38
 2034 0969 700C0000 		.4byte	0xc70
ARM GAS  /tmp/ccR4KGij.s 			page 37


 2035 096d 77090000 		.4byte	0x977
 2036 0971 19       		.uleb128 0x19
 2037 0972 01       		.uleb128 0x1
 2038 0973 50       		.byte	0x50
 2039 0974 01       		.uleb128 0x1
 2040 0975 37       		.byte	0x37
 2041 0976 00       		.byte	0
 2042 0977 18       		.uleb128 0x18
 2043 0978 E4000000 		.4byte	.LVL39
 2044 097c 700C0000 		.4byte	0xc70
 2045 0980 92090000 		.4byte	0x992
 2046 0984 19       		.uleb128 0x19
 2047 0985 01       		.uleb128 0x1
 2048 0986 51       		.byte	0x51
 2049 0987 04       		.uleb128 0x4
 2050 0988 77       		.byte	0x77
 2051 0989 00       		.sleb128 0
 2052 098a 30       		.byte	0x30
 2053 098b 29       		.byte	0x29
 2054 098c 19       		.uleb128 0x19
 2055 098d 01       		.uleb128 0x1
 2056 098e 50       		.byte	0x50
 2057 098f 01       		.uleb128 0x1
 2058 0990 38       		.byte	0x38
 2059 0991 00       		.byte	0
 2060 0992 18       		.uleb128 0x18
 2061 0993 F0000000 		.4byte	.LVL40
 2062 0997 5A0C0000 		.4byte	0xc5a
 2063 099b A6090000 		.4byte	0x9a6
 2064 099f 19       		.uleb128 0x19
 2065 09a0 01       		.uleb128 0x1
 2066 09a1 50       		.byte	0x50
 2067 09a2 02       		.uleb128 0x2
 2068 09a3 77       		.byte	0x77
 2069 09a4 00       		.sleb128 0
 2070 09a5 00       		.byte	0
 2071 09a6 18       		.uleb128 0x18
 2072 09a7 FC000000 		.4byte	.LVL42
 2073 09ab 700C0000 		.4byte	0xc70
 2074 09af B9090000 		.4byte	0x9b9
 2075 09b3 19       		.uleb128 0x19
 2076 09b4 01       		.uleb128 0x1
 2077 09b5 50       		.byte	0x50
 2078 09b6 01       		.uleb128 0x1
 2079 09b7 39       		.byte	0x39
 2080 09b8 00       		.byte	0
 2081 09b9 18       		.uleb128 0x18
 2082 09ba 10010000 		.4byte	.LVL43
 2083 09be 700C0000 		.4byte	0xc70
 2084 09c2 CC090000 		.4byte	0x9cc
 2085 09c6 19       		.uleb128 0x19
 2086 09c7 01       		.uleb128 0x1
 2087 09c8 50       		.byte	0x50
 2088 09c9 01       		.uleb128 0x1
 2089 09ca 3A       		.byte	0x3a
 2090 09cb 00       		.byte	0
 2091 09cc 18       		.uleb128 0x18
ARM GAS  /tmp/ccR4KGij.s 			page 38


 2092 09cd 24010000 		.4byte	.LVL44
 2093 09d1 700C0000 		.4byte	0xc70
 2094 09d5 DF090000 		.4byte	0x9df
 2095 09d9 19       		.uleb128 0x19
 2096 09da 01       		.uleb128 0x1
 2097 09db 50       		.byte	0x50
 2098 09dc 01       		.uleb128 0x1
 2099 09dd 3B       		.byte	0x3b
 2100 09de 00       		.byte	0
 2101 09df 1A       		.uleb128 0x1a
 2102 09e0 34010000 		.4byte	.LVL45
 2103 09e4 0C0C0000 		.4byte	0xc0c
 2104 09e8 1A       		.uleb128 0x1a
 2105 09e9 3E010000 		.4byte	.LVL46
 2106 09ed 3D0C0000 		.4byte	0xc3d
 2107 09f1 00       		.byte	0
 2108 09f2 23       		.uleb128 0x23
 2109 09f3 42050000 		.4byte	0x542
 2110 09f7 00000000 		.4byte	.LFB11
 2111 09fb 78000000 		.4byte	.LFE11-.LFB11
 2112 09ff 01       		.uleb128 0x1
 2113 0a00 9C       		.byte	0x9c
 2114 0a01 EA0A0000 		.4byte	0xaea
 2115 0a05 24       		.uleb128 0x24
 2116 0a06 4E050000 		.4byte	0x54e
 2117 0a0a 6B000000 		.4byte	.LLST2
 2118 0a0e 1E       		.uleb128 0x1e
 2119 0a0f 18000000 		.4byte	.Ldebug_ranges0+0x18
 2120 0a13 7A0A0000 		.4byte	0xa7a
 2121 0a17 24       		.uleb128 0x24
 2122 0a18 4E050000 		.4byte	0x54e
 2123 0a1c 89000000 		.4byte	.LLST3
 2124 0a20 18       		.uleb128 0x18
 2125 0a21 46000000 		.4byte	.LVL57
 2126 0a25 8A0C0000 		.4byte	0xc8a
 2127 0a29 350A0000 		.4byte	0xa35
 2128 0a2d 19       		.uleb128 0x19
 2129 0a2e 01       		.uleb128 0x1
 2130 0a2f 50       		.byte	0x50
 2131 0a30 03       		.uleb128 0x3
 2132 0a31 0A       		.byte	0xa
 2133 0a32 E803     		.2byte	0x3e8
 2134 0a34 00       		.byte	0
 2135 0a35 18       		.uleb128 0x18
 2136 0a36 54000000 		.4byte	.LVL58
 2137 0a3a 9C0C0000 		.4byte	0xc9c
 2138 0a3e 560A0000 		.4byte	0xa56
 2139 0a42 19       		.uleb128 0x19
 2140 0a43 01       		.uleb128 0x1
 2141 0a44 52       		.byte	0x52
 2142 0a45 03       		.uleb128 0x3
 2143 0a46 74       		.byte	0x74
 2144 0a47 E907     		.sleb128 1001
 2145 0a49 19       		.uleb128 0x19
 2146 0a4a 01       		.uleb128 0x1
 2147 0a4b 51       		.byte	0x51
 2148 0a4c 03       		.uleb128 0x3
ARM GAS  /tmp/ccR4KGij.s 			page 39


 2149 0a4d 74       		.byte	0x74
 2150 0a4e E807     		.sleb128 1000
 2151 0a50 19       		.uleb128 0x19
 2152 0a51 01       		.uleb128 0x1
 2153 0a52 50       		.byte	0x50
 2154 0a53 01       		.uleb128 0x1
 2155 0a54 33       		.byte	0x33
 2156 0a55 00       		.byte	0
 2157 0a56 18       		.uleb128 0x18
 2158 0a57 64000000 		.4byte	.LVL61
 2159 0a5b BB0C0000 		.4byte	0xcbb
 2160 0a5f 6A0A0000 		.4byte	0xa6a
 2161 0a63 19       		.uleb128 0x19
 2162 0a64 01       		.uleb128 0x1
 2163 0a65 50       		.byte	0x50
 2164 0a66 02       		.uleb128 0x2
 2165 0a67 75       		.byte	0x75
 2166 0a68 00       		.sleb128 0
 2167 0a69 00       		.byte	0
 2168 0a6a 1B       		.uleb128 0x1b
 2169 0a6b 74000000 		.4byte	.LVL63
 2170 0a6f 9C0C0000 		.4byte	0xc9c
 2171 0a73 19       		.uleb128 0x19
 2172 0a74 01       		.uleb128 0x1
 2173 0a75 50       		.byte	0x50
 2174 0a76 01       		.uleb128 0x1
 2175 0a77 34       		.byte	0x34
 2176 0a78 00       		.byte	0
 2177 0a79 00       		.byte	0
 2178 0a7a 1A       		.uleb128 0x1a
 2179 0a7b 08000000 		.4byte	.LVL47
 2180 0a7f CD0C0000 		.4byte	0xccd
 2181 0a83 18       		.uleb128 0x18
 2182 0a84 10000000 		.4byte	.LVL49
 2183 0a88 8A0C0000 		.4byte	0xc8a
 2184 0a8c 970A0000 		.4byte	0xa97
 2185 0a90 19       		.uleb128 0x19
 2186 0a91 01       		.uleb128 0x1
 2187 0a92 50       		.byte	0x50
 2188 0a93 02       		.uleb128 0x2
 2189 0a94 08       		.byte	0x8
 2190 0a95 64       		.byte	0x64
 2191 0a96 00       		.byte	0
 2192 0a97 18       		.uleb128 0x18
 2193 0a98 1E000000 		.4byte	.LVL50
 2194 0a9c 9C0C0000 		.4byte	0xc9c
 2195 0aa0 B80A0000 		.4byte	0xab8
 2196 0aa4 19       		.uleb128 0x19
 2197 0aa5 01       		.uleb128 0x1
 2198 0aa6 52       		.byte	0x52
 2199 0aa7 03       		.uleb128 0x3
 2200 0aa8 74       		.byte	0x74
 2201 0aa9 E500     		.sleb128 101
 2202 0aab 19       		.uleb128 0x19
 2203 0aac 01       		.uleb128 0x1
 2204 0aad 51       		.byte	0x51
 2205 0aae 03       		.uleb128 0x3
ARM GAS  /tmp/ccR4KGij.s 			page 40


 2206 0aaf 74       		.byte	0x74
 2207 0ab0 E400     		.sleb128 100
 2208 0ab2 19       		.uleb128 0x19
 2209 0ab3 01       		.uleb128 0x1
 2210 0ab4 50       		.byte	0x50
 2211 0ab5 01       		.uleb128 0x1
 2212 0ab6 31       		.byte	0x31
 2213 0ab7 00       		.byte	0
 2214 0ab8 18       		.uleb128 0x18
 2215 0ab9 2A000000 		.4byte	.LVL54
 2216 0abd 8A0C0000 		.4byte	0xc8a
 2217 0ac1 CC0A0000 		.4byte	0xacc
 2218 0ac5 19       		.uleb128 0x19
 2219 0ac6 01       		.uleb128 0x1
 2220 0ac7 50       		.byte	0x50
 2221 0ac8 02       		.uleb128 0x2
 2222 0ac9 08       		.byte	0x8
 2223 0aca 64       		.byte	0x64
 2224 0acb 00       		.byte	0
 2225 0acc 25       		.uleb128 0x25
 2226 0acd 38000000 		.4byte	.LVL55
 2227 0ad1 9C0C0000 		.4byte	0xc9c
 2228 0ad5 19       		.uleb128 0x19
 2229 0ad6 01       		.uleb128 0x1
 2230 0ad7 52       		.byte	0x52
 2231 0ad8 03       		.uleb128 0x3
 2232 0ad9 74       		.byte	0x74
 2233 0ada E500     		.sleb128 101
 2234 0adc 19       		.uleb128 0x19
 2235 0add 01       		.uleb128 0x1
 2236 0ade 51       		.byte	0x51
 2237 0adf 03       		.uleb128 0x3
 2238 0ae0 74       		.byte	0x74
 2239 0ae1 E400     		.sleb128 100
 2240 0ae3 19       		.uleb128 0x19
 2241 0ae4 01       		.uleb128 0x1
 2242 0ae5 50       		.byte	0x50
 2243 0ae6 01       		.uleb128 0x1
 2244 0ae7 32       		.byte	0x32
 2245 0ae8 00       		.byte	0
 2246 0ae9 00       		.byte	0
 2247 0aea 26       		.uleb128 0x26
 2248 0aeb 2A000000 		.4byte	.LASF87
 2249 0aef 08       		.byte	0x8
 2250 0af0 EE       		.byte	0xee
 2251 0af1 E2030000 		.4byte	0x3e2
 2252 0af5 26       		.uleb128 0x26
 2253 0af6 26050000 		.4byte	.LASF88
 2254 0afa 09       		.byte	0x9
 2255 0afb 68       		.byte	0x68
 2256 0afc 3E040000 		.4byte	0x43e
 2257 0b00 27       		.uleb128 0x27
 2258 0b01 41020000 		.4byte	0x241
 2259 0b05 100B0000 		.4byte	0xb10
 2260 0b09 28       		.uleb128 0x28
 2261 0b0a 27030000 		.4byte	0x327
 2262 0b0e 04       		.byte	0x4
ARM GAS  /tmp/ccR4KGij.s 			page 41


 2263 0b0f 00       		.byte	0
 2264 0b10 26       		.uleb128 0x26
 2265 0b11 32040000 		.4byte	.LASF89
 2266 0b15 0B       		.byte	0xb
 2267 0b16 A5       		.byte	0xa5
 2268 0b17 000B0000 		.4byte	0xb00
 2269 0b1b 27       		.uleb128 0x27
 2270 0b1c 7D020000 		.4byte	0x27d
 2271 0b20 260B0000 		.4byte	0xb26
 2272 0b24 29       		.uleb128 0x29
 2273 0b25 00       		.byte	0
 2274 0b26 2A       		.uleb128 0x2a
 2275 0b27 776100   		.ascii	"wa\000"
 2276 0b2a 0B       		.byte	0xb
 2277 0b2b A7       		.byte	0xa7
 2278 0b2c 300B0000 		.4byte	0xb30
 2279 0b30 12       		.uleb128 0x12
 2280 0b31 1B0B0000 		.4byte	0xb1b
 2281 0b35 2B       		.uleb128 0x2b
 2282 0b36 0C020000 		.4byte	.LASF90
 2283 0b3a 01       		.byte	0x1
 2284 0b3b 4D       		.byte	0x4d
 2285 0b3c 460B0000 		.4byte	0xb46
 2286 0b40 05       		.uleb128 0x5
 2287 0b41 03       		.byte	0x3
 2288 0b42 00000000 		.4byte	testthd1
 2289 0b46 12       		.uleb128 0x12
 2290 0b47 FE040000 		.4byte	0x4fe
 2291 0b4b 2B       		.uleb128 0x2b
 2292 0b4c 15020000 		.4byte	.LASF91
 2293 0b50 01       		.byte	0x1
 2294 0b51 6D       		.byte	0x6d
 2295 0b52 460B0000 		.4byte	0xb46
 2296 0b56 05       		.uleb128 0x5
 2297 0b57 03       		.byte	0x3
 2298 0b58 00000000 		.4byte	testthd2
 2299 0b5c 2B       		.uleb128 0x2b
 2300 0b5d 1E020000 		.4byte	.LASF92
 2301 0b61 01       		.byte	0x1
 2302 0b62 AE       		.byte	0xae
 2303 0b63 460B0000 		.4byte	0xb46
 2304 0b67 05       		.uleb128 0x5
 2305 0b68 03       		.byte	0x3
 2306 0b69 00000000 		.4byte	testthd3
 2307 0b6d 2B       		.uleb128 0x2b
 2308 0b6e 27020000 		.4byte	.LASF93
 2309 0b72 01       		.byte	0x1
 2310 0b73 D7       		.byte	0xd7
 2311 0b74 460B0000 		.4byte	0xb46
 2312 0b78 05       		.uleb128 0x5
 2313 0b79 03       		.byte	0x3
 2314 0b7a 00000000 		.4byte	testthd4
 2315 0b7e 27       		.uleb128 0x27
 2316 0b7f 8E0B0000 		.4byte	0xb8e
 2317 0b83 8E0B0000 		.4byte	0xb8e
 2318 0b87 28       		.uleb128 0x28
 2319 0b88 27030000 		.4byte	0x327
ARM GAS  /tmp/ccR4KGij.s 			page 42


 2320 0b8c 04       		.byte	0x4
 2321 0b8d 00       		.byte	0
 2322 0b8e 09       		.uleb128 0x9
 2323 0b8f 04       		.byte	0x4
 2324 0b90 460B0000 		.4byte	0xb46
 2325 0b94 2B       		.uleb128 0x2b
 2326 0b95 B1040000 		.4byte	.LASF94
 2327 0b99 01       		.byte	0x1
 2328 0b9a E1       		.byte	0xe1
 2329 0b9b A50B0000 		.4byte	0xba5
 2330 0b9f 05       		.uleb128 0x5
 2331 0ba0 03       		.byte	0x3
 2332 0ba1 00000000 		.4byte	patternthd
 2333 0ba5 12       		.uleb128 0x12
 2334 0ba6 7E0B0000 		.4byte	0xb7e
 2335 0baa 2C       		.uleb128 0x2c
 2336 0bab E9010000 		.4byte	.LASF95
 2337 0baf 06       		.byte	0x6
 2338 0bb0 6901     		.2byte	0x169
 2339 0bb2 41020000 		.4byte	0x241
 2340 0bb6 D40B0000 		.4byte	0xbd4
 2341 0bba 0E       		.uleb128 0xe
 2342 0bbb 7D020000 		.4byte	0x27d
 2343 0bbf 0E       		.uleb128 0xe
 2344 0bc0 2C000000 		.4byte	0x2c
 2345 0bc4 0E       		.uleb128 0xe
 2346 0bc5 E0000000 		.4byte	0xe0
 2347 0bc9 0E       		.uleb128 0xe
 2348 0bca DE040000 		.4byte	0x4de
 2349 0bce 0E       		.uleb128 0xe
 2350 0bcf 7D020000 		.4byte	0x27d
 2351 0bd3 00       		.byte	0
 2352 0bd4 2D       		.uleb128 0x2d
 2353 0bd5 53020000 		.4byte	.LASF97
 2354 0bd9 0B       		.byte	0xb
 2355 0bda 5C       		.byte	0x5c
 2356 0bdb 2E       		.uleb128 0x2e
 2357 0bdc 86020000 		.4byte	.LASF96
 2358 0be0 0B       		.byte	0xb
 2359 0be1 59       		.byte	0x59
 2360 0be2 A2000000 		.4byte	0xa2
 2361 0be6 F50B0000 		.4byte	0xbf5
 2362 0bea 0E       		.uleb128 0xe
 2363 0beb 37000000 		.4byte	0x37
 2364 0bef 0E       		.uleb128 0xe
 2365 0bf0 F50B0000 		.4byte	0xbf5
 2366 0bf4 00       		.byte	0
 2367 0bf5 09       		.uleb128 0x9
 2368 0bf6 04       		.byte	0x4
 2369 0bf7 CB040000 		.4byte	0x4cb
 2370 0bfb 2F       		.uleb128 0x2f
 2371 0bfc 89000000 		.4byte	.LASF104
 2372 0c00 0B       		.byte	0xb
 2373 0c01 56       		.byte	0x56
 2374 0c02 0C0C0000 		.4byte	0xc0c
 2375 0c06 0E       		.uleb128 0xe
 2376 0c07 CB040000 		.4byte	0x4cb
ARM GAS  /tmp/ccR4KGij.s 			page 43


 2377 0c0b 00       		.byte	0
 2378 0c0c 2D       		.uleb128 0x2d
 2379 0c0d 38020000 		.4byte	.LASF98
 2380 0c11 0C       		.byte	0xc
 2381 0c12 E0       		.byte	0xe0
 2382 0c13 2C       		.uleb128 0x2c
 2383 0c14 A3000000 		.4byte	.LASF99
 2384 0c18 06       		.byte	0x6
 2385 0c19 6701     		.2byte	0x167
 2386 0c1b 41020000 		.4byte	0x241
 2387 0c1f 3D0C0000 		.4byte	0xc3d
 2388 0c23 0E       		.uleb128 0xe
 2389 0c24 7D020000 		.4byte	0x27d
 2390 0c28 0E       		.uleb128 0xe
 2391 0c29 2C000000 		.4byte	0x2c
 2392 0c2d 0E       		.uleb128 0xe
 2393 0c2e E0000000 		.4byte	0xe0
 2394 0c32 0E       		.uleb128 0xe
 2395 0c33 DE040000 		.4byte	0x4de
 2396 0c37 0E       		.uleb128 0xe
 2397 0c38 7D020000 		.4byte	0x27d
 2398 0c3c 00       		.byte	0
 2399 0c3d 2D       		.uleb128 0x2d
 2400 0c3e B3020000 		.4byte	.LASF100
 2401 0c42 0C       		.byte	0xc
 2402 0c43 E1       		.byte	0xe1
 2403 0c44 2C       		.uleb128 0x2c
 2404 0c45 47020000 		.4byte	.LASF101
 2405 0c49 06       		.byte	0x6
 2406 0c4a 6C01     		.2byte	0x16c
 2407 0c4c 41020000 		.4byte	0x241
 2408 0c50 5A0C0000 		.4byte	0xc5a
 2409 0c54 0E       		.uleb128 0xe
 2410 0c55 41020000 		.4byte	0x241
 2411 0c59 00       		.byte	0
 2412 0c5a 2C       		.uleb128 0x2c
 2413 0c5b E3000000 		.4byte	.LASF102
 2414 0c5f 06       		.byte	0x6
 2415 0c60 6B01     		.2byte	0x16b
 2416 0c62 E0000000 		.4byte	0xe0
 2417 0c66 700C0000 		.4byte	0xc70
 2418 0c6a 0E       		.uleb128 0xe
 2419 0c6b E0000000 		.4byte	0xe0
 2420 0c6f 00       		.byte	0
 2421 0c70 2E       		.uleb128 0x2e
 2422 0c71 42050000 		.4byte	.LASF103
 2423 0c75 0B       		.byte	0xb
 2424 0c76 58       		.byte	0x58
 2425 0c77 A2000000 		.4byte	0xa2
 2426 0c7b 8A0C0000 		.4byte	0xc8a
 2427 0c7f 0E       		.uleb128 0xe
 2428 0c80 37000000 		.4byte	0x37
 2429 0c84 0E       		.uleb128 0xe
 2430 0c85 A2000000 		.4byte	0xa2
 2431 0c89 00       		.byte	0
 2432 0c8a 30       		.uleb128 0x30
 2433 0c8b 0A050000 		.4byte	.LASF105
ARM GAS  /tmp/ccR4KGij.s 			page 44


 2434 0c8f 06       		.byte	0x6
 2435 0c90 6E01     		.2byte	0x16e
 2436 0c92 9C0C0000 		.4byte	0xc9c
 2437 0c96 0E       		.uleb128 0xe
 2438 0c97 01010000 		.4byte	0x101
 2439 0c9b 00       		.byte	0
 2440 0c9c 2E       		.uleb128 0x2e
 2441 0c9d C2000000 		.4byte	.LASF106
 2442 0ca1 0B       		.byte	0xb
 2443 0ca2 5A       		.byte	0x5a
 2444 0ca3 A2000000 		.4byte	0xa2
 2445 0ca7 BB0C0000 		.4byte	0xcbb
 2446 0cab 0E       		.uleb128 0xe
 2447 0cac 37000000 		.4byte	0x37
 2448 0cb0 0E       		.uleb128 0xe
 2449 0cb1 01010000 		.4byte	0x101
 2450 0cb5 0E       		.uleb128 0xe
 2451 0cb6 01010000 		.4byte	0x101
 2452 0cba 00       		.byte	0
 2453 0cbb 30       		.uleb128 0x30
 2454 0cbc C4020000 		.4byte	.LASF107
 2455 0cc0 06       		.byte	0x6
 2456 0cc1 6F01     		.2byte	0x16f
 2457 0cc3 CD0C0000 		.4byte	0xccd
 2458 0cc7 0E       		.uleb128 0xe
 2459 0cc8 01010000 		.4byte	0x101
 2460 0ccc 00       		.byte	0
 2461 0ccd 31       		.uleb128 0x31
 2462 0cce FD030000 		.4byte	.LASF114
 2463 0cd2 0B       		.byte	0xb
 2464 0cd3 5D       		.byte	0x5d
 2465 0cd4 01010000 		.4byte	0x101
 2466 0cd8 00       		.byte	0
 2467              		.section	.debug_abbrev,"",%progbits
 2468              	.Ldebug_abbrev0:
 2469 0000 01       		.uleb128 0x1
 2470 0001 11       		.uleb128 0x11
 2471 0002 01       		.byte	0x1
 2472 0003 25       		.uleb128 0x25
 2473 0004 0E       		.uleb128 0xe
 2474 0005 13       		.uleb128 0x13
 2475 0006 0B       		.uleb128 0xb
 2476 0007 03       		.uleb128 0x3
 2477 0008 0E       		.uleb128 0xe
 2478 0009 1B       		.uleb128 0x1b
 2479 000a 0E       		.uleb128 0xe
 2480 000b 55       		.uleb128 0x55
 2481 000c 17       		.uleb128 0x17
 2482 000d 11       		.uleb128 0x11
 2483 000e 01       		.uleb128 0x1
 2484 000f 10       		.uleb128 0x10
 2485 0010 17       		.uleb128 0x17
 2486 0011 00       		.byte	0
 2487 0012 00       		.byte	0
 2488 0013 02       		.uleb128 0x2
 2489 0014 24       		.uleb128 0x24
 2490 0015 00       		.byte	0
ARM GAS  /tmp/ccR4KGij.s 			page 45


 2491 0016 0B       		.uleb128 0xb
 2492 0017 0B       		.uleb128 0xb
 2493 0018 3E       		.uleb128 0x3e
 2494 0019 0B       		.uleb128 0xb
 2495 001a 03       		.uleb128 0x3
 2496 001b 08       		.uleb128 0x8
 2497 001c 00       		.byte	0
 2498 001d 00       		.byte	0
 2499 001e 03       		.uleb128 0x3
 2500 001f 16       		.uleb128 0x16
 2501 0020 00       		.byte	0
 2502 0021 03       		.uleb128 0x3
 2503 0022 0E       		.uleb128 0xe
 2504 0023 3A       		.uleb128 0x3a
 2505 0024 0B       		.uleb128 0xb
 2506 0025 3B       		.uleb128 0x3b
 2507 0026 0B       		.uleb128 0xb
 2508 0027 49       		.uleb128 0x49
 2509 0028 13       		.uleb128 0x13
 2510 0029 00       		.byte	0
 2511 002a 00       		.byte	0
 2512 002b 04       		.uleb128 0x4
 2513 002c 24       		.uleb128 0x24
 2514 002d 00       		.byte	0
 2515 002e 0B       		.uleb128 0xb
 2516 002f 0B       		.uleb128 0xb
 2517 0030 3E       		.uleb128 0x3e
 2518 0031 0B       		.uleb128 0xb
 2519 0032 03       		.uleb128 0x3
 2520 0033 0E       		.uleb128 0xe
 2521 0034 00       		.byte	0
 2522 0035 00       		.byte	0
 2523 0036 05       		.uleb128 0x5
 2524 0037 13       		.uleb128 0x13
 2525 0038 01       		.byte	0x1
 2526 0039 03       		.uleb128 0x3
 2527 003a 0E       		.uleb128 0xe
 2528 003b 0B       		.uleb128 0xb
 2529 003c 0B       		.uleb128 0xb
 2530 003d 3A       		.uleb128 0x3a
 2531 003e 0B       		.uleb128 0xb
 2532 003f 3B       		.uleb128 0x3b
 2533 0040 0B       		.uleb128 0xb
 2534 0041 01       		.uleb128 0x1
 2535 0042 13       		.uleb128 0x13
 2536 0043 00       		.byte	0
 2537 0044 00       		.byte	0
 2538 0045 06       		.uleb128 0x6
 2539 0046 0D       		.uleb128 0xd
 2540 0047 00       		.byte	0
 2541 0048 03       		.uleb128 0x3
 2542 0049 0E       		.uleb128 0xe
 2543 004a 3A       		.uleb128 0x3a
 2544 004b 0B       		.uleb128 0xb
 2545 004c 3B       		.uleb128 0x3b
 2546 004d 0B       		.uleb128 0xb
 2547 004e 49       		.uleb128 0x49
ARM GAS  /tmp/ccR4KGij.s 			page 46


 2548 004f 13       		.uleb128 0x13
 2549 0050 38       		.uleb128 0x38
 2550 0051 0B       		.uleb128 0xb
 2551 0052 00       		.byte	0
 2552 0053 00       		.byte	0
 2553 0054 07       		.uleb128 0x7
 2554 0055 0D       		.uleb128 0xd
 2555 0056 00       		.byte	0
 2556 0057 03       		.uleb128 0x3
 2557 0058 08       		.uleb128 0x8
 2558 0059 3A       		.uleb128 0x3a
 2559 005a 0B       		.uleb128 0xb
 2560 005b 3B       		.uleb128 0x3b
 2561 005c 0B       		.uleb128 0xb
 2562 005d 49       		.uleb128 0x49
 2563 005e 13       		.uleb128 0x13
 2564 005f 38       		.uleb128 0x38
 2565 0060 0B       		.uleb128 0xb
 2566 0061 00       		.byte	0
 2567 0062 00       		.byte	0
 2568 0063 08       		.uleb128 0x8
 2569 0064 13       		.uleb128 0x13
 2570 0065 01       		.byte	0x1
 2571 0066 0B       		.uleb128 0xb
 2572 0067 0B       		.uleb128 0xb
 2573 0068 3A       		.uleb128 0x3a
 2574 0069 0B       		.uleb128 0xb
 2575 006a 3B       		.uleb128 0x3b
 2576 006b 0B       		.uleb128 0xb
 2577 006c 01       		.uleb128 0x1
 2578 006d 13       		.uleb128 0x13
 2579 006e 00       		.byte	0
 2580 006f 00       		.byte	0
 2581 0070 09       		.uleb128 0x9
 2582 0071 0F       		.uleb128 0xf
 2583 0072 00       		.byte	0
 2584 0073 0B       		.uleb128 0xb
 2585 0074 0B       		.uleb128 0xb
 2586 0075 49       		.uleb128 0x49
 2587 0076 13       		.uleb128 0x13
 2588 0077 00       		.byte	0
 2589 0078 00       		.byte	0
 2590 0079 0A       		.uleb128 0xa
 2591 007a 0F       		.uleb128 0xf
 2592 007b 00       		.byte	0
 2593 007c 0B       		.uleb128 0xb
 2594 007d 0B       		.uleb128 0xb
 2595 007e 00       		.byte	0
 2596 007f 00       		.byte	0
 2597 0080 0B       		.uleb128 0xb
 2598 0081 13       		.uleb128 0x13
 2599 0082 01       		.byte	0x1
 2600 0083 03       		.uleb128 0x3
 2601 0084 0E       		.uleb128 0xe
 2602 0085 0B       		.uleb128 0xb
 2603 0086 0B       		.uleb128 0xb
 2604 0087 3A       		.uleb128 0x3a
ARM GAS  /tmp/ccR4KGij.s 			page 47


 2605 0088 0B       		.uleb128 0xb
 2606 0089 3B       		.uleb128 0x3b
 2607 008a 05       		.uleb128 0x5
 2608 008b 01       		.uleb128 0x1
 2609 008c 13       		.uleb128 0x13
 2610 008d 00       		.byte	0
 2611 008e 00       		.byte	0
 2612 008f 0C       		.uleb128 0xc
 2613 0090 0D       		.uleb128 0xd
 2614 0091 00       		.byte	0
 2615 0092 03       		.uleb128 0x3
 2616 0093 08       		.uleb128 0x8
 2617 0094 3A       		.uleb128 0x3a
 2618 0095 0B       		.uleb128 0xb
 2619 0096 3B       		.uleb128 0x3b
 2620 0097 05       		.uleb128 0x5
 2621 0098 49       		.uleb128 0x49
 2622 0099 13       		.uleb128 0x13
 2623 009a 38       		.uleb128 0x38
 2624 009b 0B       		.uleb128 0xb
 2625 009c 00       		.byte	0
 2626 009d 00       		.byte	0
 2627 009e 0D       		.uleb128 0xd
 2628 009f 15       		.uleb128 0x15
 2629 00a0 01       		.byte	0x1
 2630 00a1 27       		.uleb128 0x27
 2631 00a2 19       		.uleb128 0x19
 2632 00a3 01       		.uleb128 0x1
 2633 00a4 13       		.uleb128 0x13
 2634 00a5 00       		.byte	0
 2635 00a6 00       		.byte	0
 2636 00a7 0E       		.uleb128 0xe
 2637 00a8 05       		.uleb128 0x5
 2638 00a9 00       		.byte	0
 2639 00aa 49       		.uleb128 0x49
 2640 00ab 13       		.uleb128 0x13
 2641 00ac 00       		.byte	0
 2642 00ad 00       		.byte	0
 2643 00ae 0F       		.uleb128 0xf
 2644 00af 35       		.uleb128 0x35
 2645 00b0 00       		.byte	0
 2646 00b1 49       		.uleb128 0x49
 2647 00b2 13       		.uleb128 0x13
 2648 00b3 00       		.byte	0
 2649 00b4 00       		.byte	0
 2650 00b5 10       		.uleb128 0x10
 2651 00b6 17       		.uleb128 0x17
 2652 00b7 01       		.byte	0x1
 2653 00b8 0B       		.uleb128 0xb
 2654 00b9 0B       		.uleb128 0xb
 2655 00ba 3A       		.uleb128 0x3a
 2656 00bb 0B       		.uleb128 0xb
 2657 00bc 3B       		.uleb128 0x3b
 2658 00bd 0B       		.uleb128 0xb
 2659 00be 01       		.uleb128 0x1
 2660 00bf 13       		.uleb128 0x13
 2661 00c0 00       		.byte	0
ARM GAS  /tmp/ccR4KGij.s 			page 48


 2662 00c1 00       		.byte	0
 2663 00c2 11       		.uleb128 0x11
 2664 00c3 0D       		.uleb128 0xd
 2665 00c4 00       		.byte	0
 2666 00c5 03       		.uleb128 0x3
 2667 00c6 0E       		.uleb128 0xe
 2668 00c7 3A       		.uleb128 0x3a
 2669 00c8 0B       		.uleb128 0xb
 2670 00c9 3B       		.uleb128 0x3b
 2671 00ca 0B       		.uleb128 0xb
 2672 00cb 49       		.uleb128 0x49
 2673 00cc 13       		.uleb128 0x13
 2674 00cd 00       		.byte	0
 2675 00ce 00       		.byte	0
 2676 00cf 12       		.uleb128 0x12
 2677 00d0 26       		.uleb128 0x26
 2678 00d1 00       		.byte	0
 2679 00d2 49       		.uleb128 0x49
 2680 00d3 13       		.uleb128 0x13
 2681 00d4 00       		.byte	0
 2682 00d5 00       		.byte	0
 2683 00d6 13       		.uleb128 0x13
 2684 00d7 15       		.uleb128 0x15
 2685 00d8 01       		.byte	0x1
 2686 00d9 27       		.uleb128 0x27
 2687 00da 19       		.uleb128 0x19
 2688 00db 49       		.uleb128 0x49
 2689 00dc 13       		.uleb128 0x13
 2690 00dd 01       		.uleb128 0x1
 2691 00de 13       		.uleb128 0x13
 2692 00df 00       		.byte	0
 2693 00e0 00       		.byte	0
 2694 00e1 14       		.uleb128 0x14
 2695 00e2 15       		.uleb128 0x15
 2696 00e3 00       		.byte	0
 2697 00e4 27       		.uleb128 0x27
 2698 00e5 19       		.uleb128 0x19
 2699 00e6 00       		.byte	0
 2700 00e7 00       		.byte	0
 2701 00e8 15       		.uleb128 0x15
 2702 00e9 2E       		.uleb128 0x2e
 2703 00ea 01       		.byte	0x1
 2704 00eb 03       		.uleb128 0x3
 2705 00ec 0E       		.uleb128 0xe
 2706 00ed 3A       		.uleb128 0x3a
 2707 00ee 0B       		.uleb128 0xb
 2708 00ef 3B       		.uleb128 0x3b
 2709 00f0 0B       		.uleb128 0xb
 2710 00f1 27       		.uleb128 0x27
 2711 00f2 19       		.uleb128 0x19
 2712 00f3 20       		.uleb128 0x20
 2713 00f4 0B       		.uleb128 0xb
 2714 00f5 01       		.uleb128 0x1
 2715 00f6 13       		.uleb128 0x13
 2716 00f7 00       		.byte	0
 2717 00f8 00       		.byte	0
 2718 00f9 16       		.uleb128 0x16
ARM GAS  /tmp/ccR4KGij.s 			page 49


 2719 00fa 34       		.uleb128 0x34
 2720 00fb 00       		.byte	0
 2721 00fc 03       		.uleb128 0x3
 2722 00fd 0E       		.uleb128 0xe
 2723 00fe 3A       		.uleb128 0x3a
 2724 00ff 0B       		.uleb128 0xb
 2725 0100 3B       		.uleb128 0x3b
 2726 0101 0B       		.uleb128 0xb
 2727 0102 49       		.uleb128 0x49
 2728 0103 13       		.uleb128 0x13
 2729 0104 00       		.byte	0
 2730 0105 00       		.byte	0
 2731 0106 17       		.uleb128 0x17
 2732 0107 2E       		.uleb128 0x2e
 2733 0108 01       		.byte	0x1
 2734 0109 03       		.uleb128 0x3
 2735 010a 0E       		.uleb128 0xe
 2736 010b 3A       		.uleb128 0x3a
 2737 010c 0B       		.uleb128 0xb
 2738 010d 3B       		.uleb128 0x3b
 2739 010e 0B       		.uleb128 0xb
 2740 010f 27       		.uleb128 0x27
 2741 0110 19       		.uleb128 0x19
 2742 0111 11       		.uleb128 0x11
 2743 0112 01       		.uleb128 0x1
 2744 0113 12       		.uleb128 0x12
 2745 0114 06       		.uleb128 0x6
 2746 0115 40       		.uleb128 0x40
 2747 0116 18       		.uleb128 0x18
 2748 0117 9742     		.uleb128 0x2117
 2749 0119 19       		.uleb128 0x19
 2750 011a 01       		.uleb128 0x1
 2751 011b 13       		.uleb128 0x13
 2752 011c 00       		.byte	0
 2753 011d 00       		.byte	0
 2754 011e 18       		.uleb128 0x18
 2755 011f 898201   		.uleb128 0x4109
 2756 0122 01       		.byte	0x1
 2757 0123 11       		.uleb128 0x11
 2758 0124 01       		.uleb128 0x1
 2759 0125 31       		.uleb128 0x31
 2760 0126 13       		.uleb128 0x13
 2761 0127 01       		.uleb128 0x1
 2762 0128 13       		.uleb128 0x13
 2763 0129 00       		.byte	0
 2764 012a 00       		.byte	0
 2765 012b 19       		.uleb128 0x19
 2766 012c 8A8201   		.uleb128 0x410a
 2767 012f 00       		.byte	0
 2768 0130 02       		.uleb128 0x2
 2769 0131 18       		.uleb128 0x18
 2770 0132 9142     		.uleb128 0x2111
 2771 0134 18       		.uleb128 0x18
 2772 0135 00       		.byte	0
 2773 0136 00       		.byte	0
 2774 0137 1A       		.uleb128 0x1a
 2775 0138 898201   		.uleb128 0x4109
ARM GAS  /tmp/ccR4KGij.s 			page 50


 2776 013b 00       		.byte	0
 2777 013c 11       		.uleb128 0x11
 2778 013d 01       		.uleb128 0x1
 2779 013e 31       		.uleb128 0x31
 2780 013f 13       		.uleb128 0x13
 2781 0140 00       		.byte	0
 2782 0141 00       		.byte	0
 2783 0142 1B       		.uleb128 0x1b
 2784 0143 898201   		.uleb128 0x4109
 2785 0146 01       		.byte	0x1
 2786 0147 11       		.uleb128 0x11
 2787 0148 01       		.uleb128 0x1
 2788 0149 9542     		.uleb128 0x2115
 2789 014b 19       		.uleb128 0x19
 2790 014c 31       		.uleb128 0x31
 2791 014d 13       		.uleb128 0x13
 2792 014e 00       		.byte	0
 2793 014f 00       		.byte	0
 2794 0150 1C       		.uleb128 0x1c
 2795 0151 2E       		.uleb128 0x2e
 2796 0152 01       		.byte	0x1
 2797 0153 03       		.uleb128 0x3
 2798 0154 0E       		.uleb128 0xe
 2799 0155 3A       		.uleb128 0x3a
 2800 0156 0B       		.uleb128 0xb
 2801 0157 3B       		.uleb128 0x3b
 2802 0158 0B       		.uleb128 0xb
 2803 0159 27       		.uleb128 0x27
 2804 015a 19       		.uleb128 0x19
 2805 015b 49       		.uleb128 0x49
 2806 015c 13       		.uleb128 0x13
 2807 015d 11       		.uleb128 0x11
 2808 015e 01       		.uleb128 0x1
 2809 015f 12       		.uleb128 0x12
 2810 0160 06       		.uleb128 0x6
 2811 0161 40       		.uleb128 0x40
 2812 0162 18       		.uleb128 0x18
 2813 0163 9742     		.uleb128 0x2117
 2814 0165 19       		.uleb128 0x19
 2815 0166 01       		.uleb128 0x1
 2816 0167 13       		.uleb128 0x13
 2817 0168 00       		.byte	0
 2818 0169 00       		.byte	0
 2819 016a 1D       		.uleb128 0x1d
 2820 016b 05       		.uleb128 0x5
 2821 016c 00       		.byte	0
 2822 016d 03       		.uleb128 0x3
 2823 016e 08       		.uleb128 0x8
 2824 016f 3A       		.uleb128 0x3a
 2825 0170 0B       		.uleb128 0xb
 2826 0171 3B       		.uleb128 0x3b
 2827 0172 0B       		.uleb128 0xb
 2828 0173 49       		.uleb128 0x49
 2829 0174 13       		.uleb128 0x13
 2830 0175 02       		.uleb128 0x2
 2831 0176 17       		.uleb128 0x17
 2832 0177 00       		.byte	0
ARM GAS  /tmp/ccR4KGij.s 			page 51


 2833 0178 00       		.byte	0
 2834 0179 1E       		.uleb128 0x1e
 2835 017a 0B       		.uleb128 0xb
 2836 017b 01       		.byte	0x1
 2837 017c 55       		.uleb128 0x55
 2838 017d 17       		.uleb128 0x17
 2839 017e 01       		.uleb128 0x1
 2840 017f 13       		.uleb128 0x13
 2841 0180 00       		.byte	0
 2842 0181 00       		.byte	0
 2843 0182 1F       		.uleb128 0x1f
 2844 0183 34       		.uleb128 0x34
 2845 0184 00       		.byte	0
 2846 0185 03       		.uleb128 0x3
 2847 0186 08       		.uleb128 0x8
 2848 0187 3A       		.uleb128 0x3a
 2849 0188 0B       		.uleb128 0xb
 2850 0189 3B       		.uleb128 0x3b
 2851 018a 0B       		.uleb128 0xb
 2852 018b 49       		.uleb128 0x49
 2853 018c 13       		.uleb128 0x13
 2854 018d 02       		.uleb128 0x2
 2855 018e 18       		.uleb128 0x18
 2856 018f 00       		.byte	0
 2857 0190 00       		.byte	0
 2858 0191 20       		.uleb128 0x20
 2859 0192 0B       		.uleb128 0xb
 2860 0193 01       		.byte	0x1
 2861 0194 11       		.uleb128 0x11
 2862 0195 01       		.uleb128 0x1
 2863 0196 12       		.uleb128 0x12
 2864 0197 06       		.uleb128 0x6
 2865 0198 01       		.uleb128 0x1
 2866 0199 13       		.uleb128 0x13
 2867 019a 00       		.byte	0
 2868 019b 00       		.byte	0
 2869 019c 21       		.uleb128 0x21
 2870 019d 34       		.uleb128 0x34
 2871 019e 00       		.byte	0
 2872 019f 03       		.uleb128 0x3
 2873 01a0 0E       		.uleb128 0xe
 2874 01a1 3A       		.uleb128 0x3a
 2875 01a2 0B       		.uleb128 0xb
 2876 01a3 3B       		.uleb128 0x3b
 2877 01a4 0B       		.uleb128 0xb
 2878 01a5 49       		.uleb128 0x49
 2879 01a6 13       		.uleb128 0x13
 2880 01a7 02       		.uleb128 0x2
 2881 01a8 18       		.uleb128 0x18
 2882 01a9 00       		.byte	0
 2883 01aa 00       		.byte	0
 2884 01ab 22       		.uleb128 0x22
 2885 01ac 34       		.uleb128 0x34
 2886 01ad 00       		.byte	0
 2887 01ae 03       		.uleb128 0x3
 2888 01af 08       		.uleb128 0x8
 2889 01b0 3A       		.uleb128 0x3a
ARM GAS  /tmp/ccR4KGij.s 			page 52


 2890 01b1 0B       		.uleb128 0xb
 2891 01b2 3B       		.uleb128 0x3b
 2892 01b3 0B       		.uleb128 0xb
 2893 01b4 49       		.uleb128 0x49
 2894 01b5 13       		.uleb128 0x13
 2895 01b6 02       		.uleb128 0x2
 2896 01b7 17       		.uleb128 0x17
 2897 01b8 00       		.byte	0
 2898 01b9 00       		.byte	0
 2899 01ba 23       		.uleb128 0x23
 2900 01bb 2E       		.uleb128 0x2e
 2901 01bc 01       		.byte	0x1
 2902 01bd 31       		.uleb128 0x31
 2903 01be 13       		.uleb128 0x13
 2904 01bf 11       		.uleb128 0x11
 2905 01c0 01       		.uleb128 0x1
 2906 01c1 12       		.uleb128 0x12
 2907 01c2 06       		.uleb128 0x6
 2908 01c3 40       		.uleb128 0x40
 2909 01c4 18       		.uleb128 0x18
 2910 01c5 9742     		.uleb128 0x2117
 2911 01c7 19       		.uleb128 0x19
 2912 01c8 01       		.uleb128 0x1
 2913 01c9 13       		.uleb128 0x13
 2914 01ca 00       		.byte	0
 2915 01cb 00       		.byte	0
 2916 01cc 24       		.uleb128 0x24
 2917 01cd 34       		.uleb128 0x34
 2918 01ce 00       		.byte	0
 2919 01cf 31       		.uleb128 0x31
 2920 01d0 13       		.uleb128 0x13
 2921 01d1 02       		.uleb128 0x2
 2922 01d2 17       		.uleb128 0x17
 2923 01d3 00       		.byte	0
 2924 01d4 00       		.byte	0
 2925 01d5 25       		.uleb128 0x25
 2926 01d6 898201   		.uleb128 0x4109
 2927 01d9 01       		.byte	0x1
 2928 01da 11       		.uleb128 0x11
 2929 01db 01       		.uleb128 0x1
 2930 01dc 31       		.uleb128 0x31
 2931 01dd 13       		.uleb128 0x13
 2932 01de 00       		.byte	0
 2933 01df 00       		.byte	0
 2934 01e0 26       		.uleb128 0x26
 2935 01e1 34       		.uleb128 0x34
 2936 01e2 00       		.byte	0
 2937 01e3 03       		.uleb128 0x3
 2938 01e4 0E       		.uleb128 0xe
 2939 01e5 3A       		.uleb128 0x3a
 2940 01e6 0B       		.uleb128 0xb
 2941 01e7 3B       		.uleb128 0x3b
 2942 01e8 0B       		.uleb128 0xb
 2943 01e9 49       		.uleb128 0x49
 2944 01ea 13       		.uleb128 0x13
 2945 01eb 3F       		.uleb128 0x3f
 2946 01ec 19       		.uleb128 0x19
ARM GAS  /tmp/ccR4KGij.s 			page 53


 2947 01ed 3C       		.uleb128 0x3c
 2948 01ee 19       		.uleb128 0x19
 2949 01ef 00       		.byte	0
 2950 01f0 00       		.byte	0
 2951 01f1 27       		.uleb128 0x27
 2952 01f2 01       		.uleb128 0x1
 2953 01f3 01       		.byte	0x1
 2954 01f4 49       		.uleb128 0x49
 2955 01f5 13       		.uleb128 0x13
 2956 01f6 01       		.uleb128 0x1
 2957 01f7 13       		.uleb128 0x13
 2958 01f8 00       		.byte	0
 2959 01f9 00       		.byte	0
 2960 01fa 28       		.uleb128 0x28
 2961 01fb 21       		.uleb128 0x21
 2962 01fc 00       		.byte	0
 2963 01fd 49       		.uleb128 0x49
 2964 01fe 13       		.uleb128 0x13
 2965 01ff 2F       		.uleb128 0x2f
 2966 0200 0B       		.uleb128 0xb
 2967 0201 00       		.byte	0
 2968 0202 00       		.byte	0
 2969 0203 29       		.uleb128 0x29
 2970 0204 21       		.uleb128 0x21
 2971 0205 00       		.byte	0
 2972 0206 00       		.byte	0
 2973 0207 00       		.byte	0
 2974 0208 2A       		.uleb128 0x2a
 2975 0209 34       		.uleb128 0x34
 2976 020a 00       		.byte	0
 2977 020b 03       		.uleb128 0x3
 2978 020c 08       		.uleb128 0x8
 2979 020d 3A       		.uleb128 0x3a
 2980 020e 0B       		.uleb128 0xb
 2981 020f 3B       		.uleb128 0x3b
 2982 0210 0B       		.uleb128 0xb
 2983 0211 49       		.uleb128 0x49
 2984 0212 13       		.uleb128 0x13
 2985 0213 3F       		.uleb128 0x3f
 2986 0214 19       		.uleb128 0x19
 2987 0215 3C       		.uleb128 0x3c
 2988 0216 19       		.uleb128 0x19
 2989 0217 00       		.byte	0
 2990 0218 00       		.byte	0
 2991 0219 2B       		.uleb128 0x2b
 2992 021a 34       		.uleb128 0x34
 2993 021b 00       		.byte	0
 2994 021c 03       		.uleb128 0x3
 2995 021d 0E       		.uleb128 0xe
 2996 021e 3A       		.uleb128 0x3a
 2997 021f 0B       		.uleb128 0xb
 2998 0220 3B       		.uleb128 0x3b
 2999 0221 0B       		.uleb128 0xb
 3000 0222 49       		.uleb128 0x49
 3001 0223 13       		.uleb128 0x13
 3002 0224 3F       		.uleb128 0x3f
 3003 0225 19       		.uleb128 0x19
ARM GAS  /tmp/ccR4KGij.s 			page 54


 3004 0226 02       		.uleb128 0x2
 3005 0227 18       		.uleb128 0x18
 3006 0228 00       		.byte	0
 3007 0229 00       		.byte	0
 3008 022a 2C       		.uleb128 0x2c
 3009 022b 2E       		.uleb128 0x2e
 3010 022c 01       		.byte	0x1
 3011 022d 3F       		.uleb128 0x3f
 3012 022e 19       		.uleb128 0x19
 3013 022f 03       		.uleb128 0x3
 3014 0230 0E       		.uleb128 0xe
 3015 0231 3A       		.uleb128 0x3a
 3016 0232 0B       		.uleb128 0xb
 3017 0233 3B       		.uleb128 0x3b
 3018 0234 05       		.uleb128 0x5
 3019 0235 27       		.uleb128 0x27
 3020 0236 19       		.uleb128 0x19
 3021 0237 49       		.uleb128 0x49
 3022 0238 13       		.uleb128 0x13
 3023 0239 3C       		.uleb128 0x3c
 3024 023a 19       		.uleb128 0x19
 3025 023b 01       		.uleb128 0x1
 3026 023c 13       		.uleb128 0x13
 3027 023d 00       		.byte	0
 3028 023e 00       		.byte	0
 3029 023f 2D       		.uleb128 0x2d
 3030 0240 2E       		.uleb128 0x2e
 3031 0241 00       		.byte	0
 3032 0242 3F       		.uleb128 0x3f
 3033 0243 19       		.uleb128 0x19
 3034 0244 03       		.uleb128 0x3
 3035 0245 0E       		.uleb128 0xe
 3036 0246 3A       		.uleb128 0x3a
 3037 0247 0B       		.uleb128 0xb
 3038 0248 3B       		.uleb128 0x3b
 3039 0249 0B       		.uleb128 0xb
 3040 024a 27       		.uleb128 0x27
 3041 024b 19       		.uleb128 0x19
 3042 024c 3C       		.uleb128 0x3c
 3043 024d 19       		.uleb128 0x19
 3044 024e 00       		.byte	0
 3045 024f 00       		.byte	0
 3046 0250 2E       		.uleb128 0x2e
 3047 0251 2E       		.uleb128 0x2e
 3048 0252 01       		.byte	0x1
 3049 0253 3F       		.uleb128 0x3f
 3050 0254 19       		.uleb128 0x19
 3051 0255 03       		.uleb128 0x3
 3052 0256 0E       		.uleb128 0xe
 3053 0257 3A       		.uleb128 0x3a
 3054 0258 0B       		.uleb128 0xb
 3055 0259 3B       		.uleb128 0x3b
 3056 025a 0B       		.uleb128 0xb
 3057 025b 27       		.uleb128 0x27
 3058 025c 19       		.uleb128 0x19
 3059 025d 49       		.uleb128 0x49
 3060 025e 13       		.uleb128 0x13
ARM GAS  /tmp/ccR4KGij.s 			page 55


 3061 025f 3C       		.uleb128 0x3c
 3062 0260 19       		.uleb128 0x19
 3063 0261 01       		.uleb128 0x1
 3064 0262 13       		.uleb128 0x13
 3065 0263 00       		.byte	0
 3066 0264 00       		.byte	0
 3067 0265 2F       		.uleb128 0x2f
 3068 0266 2E       		.uleb128 0x2e
 3069 0267 01       		.byte	0x1
 3070 0268 3F       		.uleb128 0x3f
 3071 0269 19       		.uleb128 0x19
 3072 026a 03       		.uleb128 0x3
 3073 026b 0E       		.uleb128 0xe
 3074 026c 3A       		.uleb128 0x3a
 3075 026d 0B       		.uleb128 0xb
 3076 026e 3B       		.uleb128 0x3b
 3077 026f 0B       		.uleb128 0xb
 3078 0270 27       		.uleb128 0x27
 3079 0271 19       		.uleb128 0x19
 3080 0272 3C       		.uleb128 0x3c
 3081 0273 19       		.uleb128 0x19
 3082 0274 01       		.uleb128 0x1
 3083 0275 13       		.uleb128 0x13
 3084 0276 00       		.byte	0
 3085 0277 00       		.byte	0
 3086 0278 30       		.uleb128 0x30
 3087 0279 2E       		.uleb128 0x2e
 3088 027a 01       		.byte	0x1
 3089 027b 3F       		.uleb128 0x3f
 3090 027c 19       		.uleb128 0x19
 3091 027d 03       		.uleb128 0x3
 3092 027e 0E       		.uleb128 0xe
 3093 027f 3A       		.uleb128 0x3a
 3094 0280 0B       		.uleb128 0xb
 3095 0281 3B       		.uleb128 0x3b
 3096 0282 05       		.uleb128 0x5
 3097 0283 27       		.uleb128 0x27
 3098 0284 19       		.uleb128 0x19
 3099 0285 3C       		.uleb128 0x3c
 3100 0286 19       		.uleb128 0x19
 3101 0287 01       		.uleb128 0x1
 3102 0288 13       		.uleb128 0x13
 3103 0289 00       		.byte	0
 3104 028a 00       		.byte	0
 3105 028b 31       		.uleb128 0x31
 3106 028c 2E       		.uleb128 0x2e
 3107 028d 00       		.byte	0
 3108 028e 3F       		.uleb128 0x3f
 3109 028f 19       		.uleb128 0x19
 3110 0290 03       		.uleb128 0x3
 3111 0291 0E       		.uleb128 0xe
 3112 0292 3A       		.uleb128 0x3a
 3113 0293 0B       		.uleb128 0xb
 3114 0294 3B       		.uleb128 0x3b
 3115 0295 0B       		.uleb128 0xb
 3116 0296 27       		.uleb128 0x27
 3117 0297 19       		.uleb128 0x19
ARM GAS  /tmp/ccR4KGij.s 			page 56


 3118 0298 49       		.uleb128 0x49
 3119 0299 13       		.uleb128 0x13
 3120 029a 3C       		.uleb128 0x3c
 3121 029b 19       		.uleb128 0x19
 3122 029c 00       		.byte	0
 3123 029d 00       		.byte	0
 3124 029e 00       		.byte	0
 3125              		.section	.debug_loc,"",%progbits
 3126              	.Ldebug_loc0:
 3127              	.LLST0:
 3128 0000 00000000 		.4byte	.LVL7
 3129 0004 04000000 		.4byte	.LVL8
 3130 0008 0100     		.2byte	0x1
 3131 000a 50       		.byte	0x50
 3132 000b 04000000 		.4byte	.LVL8
 3133 000f 0C000000 		.4byte	.LFE7
 3134 0013 0400     		.2byte	0x4
 3135 0015 F3       		.byte	0xf3
 3136 0016 01       		.uleb128 0x1
 3137 0017 50       		.byte	0x50
 3138 0018 9F       		.byte	0x9f
 3139 0019 00000000 		.4byte	0
 3140 001d 00000000 		.4byte	0
 3141              	.LLST1:
 3142 0021 1A000000 		.4byte	.LVL22
 3143 0025 20000000 		.4byte	.LVL23
 3144 0029 0100     		.2byte	0x1
 3145 002b 50       		.byte	0x50
 3146 002c 20000000 		.4byte	.LVL23
 3147 0030 26000000 		.4byte	.LVL25
 3148 0034 0100     		.2byte	0x1
 3149 0036 57       		.byte	0x57
 3150 0037 28000000 		.4byte	.LVL26
 3151 003b 48000000 		.4byte	.LVL28
 3152 003f 0100     		.2byte	0x1
 3153 0041 57       		.byte	0x57
 3154 0042 48000000 		.4byte	.LVL28
 3155 0046 4A000000 		.4byte	.LVL29
 3156 004a 0100     		.2byte	0x1
 3157 004c 50       		.byte	0x50
 3158 004d A4000000 		.4byte	.LVL35
 3159 0051 B2000000 		.4byte	.LVL36
 3160 0055 0100     		.2byte	0x1
 3161 0057 50       		.byte	0x50
 3162 0058 F0000000 		.4byte	.LVL40
 3163 005c F2000000 		.4byte	.LVL41
 3164 0060 0100     		.2byte	0x1
 3165 0062 50       		.byte	0x50
 3166 0063 00000000 		.4byte	0
 3167 0067 00000000 		.4byte	0
 3168              	.LLST2:
 3169 006b 0A000000 		.4byte	.LVL48
 3170 006f 20000000 		.4byte	.LVL51
 3171 0073 0100     		.2byte	0x1
 3172 0075 54       		.byte	0x54
 3173 0076 22000000 		.4byte	.LVL52
 3174 007a 3E000000 		.4byte	.LVL56
ARM GAS  /tmp/ccR4KGij.s 			page 57


 3175 007e 0100     		.2byte	0x1
 3176 0080 54       		.byte	0x54
 3177 0081 00000000 		.4byte	0
 3178 0085 00000000 		.4byte	0
 3179              	.LLST3:
 3180 0089 3E000000 		.4byte	.LVL56
 3181 008d 5A000000 		.4byte	.LVL59
 3182 0091 0100     		.2byte	0x1
 3183 0093 54       		.byte	0x54
 3184 0094 5E000000 		.4byte	.LVL60
 3185 0098 70000000 		.4byte	.LVL62
 3186 009c 0100     		.2byte	0x1
 3187 009e 55       		.byte	0x55
 3188 009f 70000000 		.4byte	.LVL62
 3189 00a3 73000000 		.4byte	.LVL63-1
 3190 00a7 0100     		.2byte	0x1
 3191 00a9 51       		.byte	0x51
 3192 00aa 00000000 		.4byte	0
 3193 00ae 00000000 		.4byte	0
 3194              		.section	.debug_aranges,"",%progbits
 3195 0000 3C000000 		.4byte	0x3c
 3196 0004 0200     		.2byte	0x2
 3197 0006 00000000 		.4byte	.Ldebug_info0
 3198 000a 04       		.byte	0x4
 3199 000b 00       		.byte	0
 3200 000c 0000     		.2byte	0
 3201 000e 0000     		.2byte	0
 3202 0010 00000000 		.4byte	.LFB8
 3203 0014 C8000000 		.4byte	.LFE8-.LFB8
 3204 0018 00000000 		.4byte	.LFB7
 3205 001c 0C000000 		.4byte	.LFE7-.LFB7
 3206 0020 00000000 		.4byte	.LFB9
 3207 0024 E0000000 		.4byte	.LFE9-.LFB9
 3208 0028 00000000 		.4byte	.LFB10
 3209 002c 4C010000 		.4byte	.LFE10-.LFB10
 3210 0030 00000000 		.4byte	.LFB11
 3211 0034 78000000 		.4byte	.LFE11-.LFB11
 3212 0038 00000000 		.4byte	0
 3213 003c 00000000 		.4byte	0
 3214              		.section	.debug_ranges,"",%progbits
 3215              	.Ldebug_ranges0:
 3216 0000 70000000 		.4byte	.LBB2
 3217 0004 72000000 		.4byte	.LBE2
 3218 0008 74000000 		.4byte	.LBB3
 3219 000c 78000000 		.4byte	.LBE3
 3220 0010 00000000 		.4byte	0
 3221 0014 00000000 		.4byte	0
 3222 0018 3C000000 		.4byte	.LBB12
 3223 001c 6C000000 		.4byte	.LBE12
 3224 0020 70000000 		.4byte	.LBB13
 3225 0024 78000000 		.4byte	.LBE13
 3226 0028 00000000 		.4byte	0
 3227 002c 00000000 		.4byte	0
 3228 0030 00000000 		.4byte	.LFB8
 3229 0034 C8000000 		.4byte	.LFE8
 3230 0038 00000000 		.4byte	.LFB7
 3231 003c 0C000000 		.4byte	.LFE7
ARM GAS  /tmp/ccR4KGij.s 			page 58


 3232 0040 00000000 		.4byte	.LFB9
 3233 0044 E0000000 		.4byte	.LFE9
 3234 0048 00000000 		.4byte	.LFB10
 3235 004c 4C010000 		.4byte	.LFE10
 3236 0050 00000000 		.4byte	.LFB11
 3237 0054 78000000 		.4byte	.LFE11
 3238 0058 00000000 		.4byte	0
 3239 005c 00000000 		.4byte	0
 3240              		.section	.debug_line,"",%progbits
 3241              	.Ldebug_line0:
 3242 0000 DC010000 		.section	.debug_str,"MS",%progbits,1
 3242      02003301 
 3242      00000201 
 3242      FB0E0D00 
 3242      01010101 
 3243              	.LASF77:
 3244 0000 7466756E 		.ascii	"tfunc_t\000"
 3244      635F7400 
 3245              	.LASF40:
 3246 0008 705F6D73 		.ascii	"p_msg\000"
 3246      6700
 3247              	.LASF2:
 3248 000e 73697A65 		.ascii	"size_t\000"
 3248      5F7400
 3249              	.LASF86:
 3250 0015 7072696F 		.ascii	"prio\000"
 3250      00
 3251              	.LASF72:
 3252 001a 7264796D 		.ascii	"rdymsg\000"
 3252      736700
 3253              	.LASF12:
 3254 0021 75696E74 		.ascii	"uint64_t\000"
 3254      36345F74 
 3254      00
 3255              	.LASF87:
 3256 002a 76746C69 		.ascii	"vtlist\000"
 3256      737400
 3257              	.LASF13:
 3258 0031 6C6F6E67 		.ascii	"long long unsigned int\000"
 3258      206C6F6E 
 3258      6720756E 
 3258      7369676E 
 3258      65642069 
 3259              	.LASF73:
 3260 0048 65786974 		.ascii	"exitcode\000"
 3260      636F6465 
 3260      00
 3261              	.LASF27:
 3262 0051 705F7072 		.ascii	"p_prio\000"
 3262      696F00
 3263              	.LASF11:
 3264 0058 6C6F6E67 		.ascii	"long long int\000"
 3264      206C6F6E 
 3264      6720696E 
 3264      7400
 3265              	.LASF1:
 3266 0066 7369676E 		.ascii	"signed char\000"
ARM GAS  /tmp/ccR4KGij.s 			page 59


 3266      65642063 
 3266      68617200 
 3267              	.LASF44:
 3268 0072 705F6D70 		.ascii	"p_mpool\000"
 3268      6F6F6C00 
 3269              	.LASF14:
 3270 007a 626F6F6C 		.ascii	"bool_t\000"
 3270      5F7400
 3271              	.LASF69:
 3272 0081 6D5F7175 		.ascii	"m_queue\000"
 3272      65756500 
 3273              	.LASF104:
 3274 0089 74657374 		.ascii	"test_emit_token\000"
 3274      5F656D69 
 3274      745F746F 
 3274      6B656E00 
 3275              	.LASF19:
 3276 0099 74736C69 		.ascii	"tslices_t\000"
 3276      6365735F 
 3276      7400
 3277              	.LASF99:
 3278 00a3 63685468 		.ascii	"chThdCreateI\000"
 3278      64437265 
 3278      61746549 
 3278      00
 3279              	.LASF8:
 3280 00b0 6C6F6E67 		.ascii	"long int\000"
 3280      20696E74 
 3280      00
 3281              	.LASF17:
 3282 00b9 74737461 		.ascii	"tstate_t\000"
 3282      74655F74 
 3282      00
 3283              	.LASF106:
 3284 00c2 5F746573 		.ascii	"_test_assert_time_window\000"
 3284      745F6173 
 3284      73657274 
 3284      5F74696D 
 3284      655F7769 
 3285              	.LASF29:
 3286 00db 705F6E65 		.ascii	"p_newer\000"
 3286      77657200 
 3287              	.LASF102:
 3288 00e3 63685468 		.ascii	"chThdSetPriority\000"
 3288      64536574 
 3288      5072696F 
 3288      72697479 
 3288      00
 3289              	.LASF64:
 3290 00f4 725F6E65 		.ascii	"r_newer\000"
 3290      77657200 
 3291              	.LASF47:
 3292 00fc 72656761 		.ascii	"regarm_t\000"
 3292      726D5F74 
 3292      00
 3293              	.LASF55:
 3294 0105 76745F70 		.ascii	"vt_prev\000"
ARM GAS  /tmp/ccR4KGij.s 			page 60


 3294      72657600 
 3295              	.LASF83:
 3296 010d 74686431 		.ascii	"thd1_execute\000"
 3296      5F657865 
 3296      63757465 
 3296      00
 3297              	.LASF32:
 3298 011a 705F7374 		.ascii	"p_stklimit\000"
 3298      6B6C696D 
 3298      697400
 3299              	.LASF0:
 3300 0125 756E7369 		.ascii	"unsigned int\000"
 3300      676E6564 
 3300      20696E74 
 3300      00
 3301              	.LASF54:
 3302 0132 76745F6E 		.ascii	"vt_next\000"
 3302      65787400 
 3303              	.LASF10:
 3304 013a 6C6F6E67 		.ascii	"long unsigned int\000"
 3304      20756E73 
 3304      69676E65 
 3304      6420696E 
 3304      7400
 3305              	.LASF81:
 3306 014c 74656172 		.ascii	"teardown\000"
 3306      646F776E 
 3306      00
 3307              	.LASF79:
 3308 0155 6E616D65 		.ascii	"name\000"
 3308      00
 3309              	.LASF50:
 3310 015a 636F6E74 		.ascii	"context\000"
 3310      65787400 
 3311              	.LASF6:
 3312 0162 73686F72 		.ascii	"short unsigned int\000"
 3312      7420756E 
 3312      7369676E 
 3312      65642069 
 3312      6E7400
 3313              	.LASF84:
 3314 0175 74686432 		.ascii	"thd2_execute\000"
 3314      5F657865 
 3314      63757465 
 3314      00
 3315              	.LASF21:
 3316 0182 6D73675F 		.ascii	"msg_t\000"
 3316      7400
 3317              	.LASF16:
 3318 0188 746D6F64 		.ascii	"tmode_t\000"
 3318      655F7400 
 3319              	.LASF46:
 3320 0190 54687265 		.ascii	"ThreadsList\000"
 3320      6164734C 
 3320      69737400 
 3321              	.LASF110:
 3322 019c 2F686F6D 		.ascii	"/home/john/git/ChibiOS-RT/testhal/STM32F30x/ADC\000"
ARM GAS  /tmp/ccR4KGij.s 			page 61


 3322      652F6A6F 
 3322      686E2F67 
 3322      69742F43 
 3322      68696269 
 3323              	.LASF22:
 3324 01cc 6576656E 		.ascii	"eventmask_t\000"
 3324      746D6173 
 3324      6B5F7400 
 3325              	.LASF68:
 3326 01d8 4D757465 		.ascii	"Mutex\000"
 3326      7800
 3327              	.LASF48:
 3328 01de 73746B61 		.ascii	"stkalign_t\000"
 3328      6C69676E 
 3328      5F7400
 3329              	.LASF95:
 3330 01e9 63685468 		.ascii	"chThdCreateStatic\000"
 3330      64437265 
 3330      61746553 
 3330      74617469 
 3330      6300
 3331              	.LASF56:
 3332 01fb 76745F74 		.ascii	"vt_time\000"
 3332      696D6500 
 3333              	.LASF51:
 3334 0203 73697A65 		.ascii	"sizetype\000"
 3334      74797065 
 3334      00
 3335              	.LASF90:
 3336 020c 74657374 		.ascii	"testthd1\000"
 3336      74686431 
 3336      00
 3337              	.LASF91:
 3338 0215 74657374 		.ascii	"testthd2\000"
 3338      74686432 
 3338      00
 3339              	.LASF92:
 3340 021e 74657374 		.ascii	"testthd3\000"
 3340      74686433 
 3340      00
 3341              	.LASF93:
 3342 0227 74657374 		.ascii	"testthd4\000"
 3342      74686434 
 3342      00
 3343              	.LASF57:
 3344 0230 76745F66 		.ascii	"vt_func\000"
 3344      756E6300 
 3345              	.LASF98:
 3346 0238 6462675F 		.ascii	"dbg_check_lock\000"
 3346      63686563 
 3346      6B5F6C6F 
 3346      636B00
 3347              	.LASF101:
 3348 0247 63685468 		.ascii	"chThdResume\000"
 3348      64526573 
 3348      756D6500 
 3349              	.LASF97:
ARM GAS  /tmp/ccR4KGij.s 			page 62


 3350 0253 74657374 		.ascii	"test_wait_threads\000"
 3350      5F776169 
 3350      745F7468 
 3350      72656164 
 3350      7300
 3351              	.LASF30:
 3352 0265 705F6F6C 		.ascii	"p_older\000"
 3352      64657200 
 3353              	.LASF63:
 3354 026d 725F6374 		.ascii	"r_ctx\000"
 3354      7800
 3355              	.LASF45:
 3356 0273 54687265 		.ascii	"ThreadsQueue\000"
 3356      61647351 
 3356      75657565 
 3356      00
 3357              	.LASF80:
 3358 0280 73657475 		.ascii	"setup\000"
 3358      7000
 3359              	.LASF96:
 3360 0286 5F746573 		.ascii	"_test_assert_sequence\000"
 3360      745F6173 
 3360      73657274 
 3360      5F736571 
 3360      75656E63 
 3361              	.LASF112:
 3362 029c 74696D65 		.ascii	"time\000"
 3362      00
 3363              	.LASF66:
 3364 02a1 725F6375 		.ascii	"r_current\000"
 3364      7272656E 
 3364      7400
 3365              	.LASF65:
 3366 02ab 725F6F6C 		.ascii	"r_older\000"
 3366      64657200 
 3367              	.LASF100:
 3368 02b3 6462675F 		.ascii	"dbg_check_unlock\000"
 3368      63686563 
 3368      6B5F756E 
 3368      6C6F636B 
 3368      00
 3369              	.LASF107:
 3370 02c4 63685468 		.ascii	"chThdSleepUntil\000"
 3370      64536C65 
 3370      6570556E 
 3370      74696C00 
 3371              	.LASF18:
 3372 02d4 74726566 		.ascii	"trefs_t\000"
 3372      735F7400 
 3373              	.LASF85:
 3374 02dc 74686433 		.ascii	"thd3_execute\000"
 3374      5F657865 
 3374      63757465 
 3374      00
 3375              	.LASF26:
 3376 02e9 705F7072 		.ascii	"p_prev\000"
 3376      657600
ARM GAS  /tmp/ccR4KGij.s 			page 63


 3377              	.LASF82:
 3378 02f0 65786563 		.ascii	"execute\000"
 3378      75746500 
 3379              	.LASF20:
 3380 02f8 74707269 		.ascii	"tprio_t\000"
 3380      6F5F7400 
 3381              	.LASF108:
 3382 0300 474E5520 		.ascii	"GNU C 4.8.3 20131129 (release) [ARM/embedded-4_8-br"
 3382      4320342E 
 3382      382E3320 
 3382      32303133 
 3382      31313239 
 3383 0333 616E6368 		.ascii	"anch revision 205641] -mcpu=cortex-m4 -mno-thumb-in"
 3383      20726576 
 3383      6973696F 
 3383      6E203230 
 3383      35363431 
 3384 0366 74657277 		.ascii	"terwork -mthumb -ggdb -O2 -fomit-frame-pointer -fal"
 3384      6F726B20 
 3384      2D6D7468 
 3384      756D6220 
 3384      2D676764 
 3385 0399 69676E2D 		.ascii	"ign-functions=16 -ffunction-sections -fdata-section"
 3385      66756E63 
 3385      74696F6E 
 3385      733D3136 
 3385      202D6666 
 3386 03cc 73202D66 		.ascii	"s -fno-common\000"
 3386      6E6F2D63 
 3386      6F6D6D6F 
 3386      6E00
 3387              	.LASF113:
 3388 03da 74687265 		.ascii	"thread\000"
 3388      616400
 3389              	.LASF15:
 3390 03e1 5F426F6F 		.ascii	"_Bool\000"
 3390      6C00
 3391              	.LASF7:
 3392 03e7 696E7433 		.ascii	"int32_t\000"
 3392      325F7400 
 3393              	.LASF4:
 3394 03ef 756E7369 		.ascii	"unsigned char\000"
 3394      676E6564 
 3394      20636861 
 3394      7200
 3395              	.LASF114:
 3396 03fd 74657374 		.ascii	"test_wait_tick\000"
 3396      5F776169 
 3396      745F7469 
 3396      636B00
 3397              	.LASF42:
 3398 040c 705F6D74 		.ascii	"p_mtxlist\000"
 3398      786C6973 
 3398      7400
 3399              	.LASF5:
 3400 0416 73686F72 		.ascii	"short int\000"
 3400      7420696E 
ARM GAS  /tmp/ccR4KGij.s 			page 64


 3400      7400
 3401              	.LASF33:
 3402 0420 705F7374 		.ascii	"p_state\000"
 3402      61746500 
 3403              	.LASF36:
 3404 0428 705F7072 		.ascii	"p_preempt\000"
 3404      65656D70 
 3404      7400
 3405              	.LASF89:
 3406 0432 74687265 		.ascii	"threads\000"
 3406      61647300 
 3407              	.LASF62:
 3408 043a 725F7072 		.ascii	"r_prio\000"
 3408      696F00
 3409              	.LASF75:
 3410 0441 65776D61 		.ascii	"ewmask\000"
 3410      736B00
 3411              	.LASF25:
 3412 0448 705F6E65 		.ascii	"p_next\000"
 3412      787400
 3413              	.LASF34:
 3414 044f 705F666C 		.ascii	"p_flags\000"
 3414      61677300 
 3415              	.LASF24:
 3416 0457 54687265 		.ascii	"Thread\000"
 3416      616400
 3417              	.LASF78:
 3418 045e 74657374 		.ascii	"testcase\000"
 3418      63617365 
 3418      00
 3419              	.LASF41:
 3420 0467 705F6570 		.ascii	"p_epending\000"
 3420      656E6469 
 3420      6E6700
 3421              	.LASF109:
 3422 0472 2E2E2F2E 		.ascii	"../../../test/testthd.c\000"
 3422      2E2F2E2E 
 3422      2F746573 
 3422      742F7465 
 3422      73747468 
 3423              	.LASF61:
 3424 048a 725F7175 		.ascii	"r_queue\000"
 3424      65756500 
 3425              	.LASF53:
 3426 0492 56697274 		.ascii	"VirtualTimer\000"
 3426      75616C54 
 3426      696D6572 
 3426      00
 3427              	.LASF76:
 3428 049f 63686172 		.ascii	"char\000"
 3428      00
 3429              	.LASF111:
 3430 04a4 74686434 		.ascii	"thd4_execute\000"
 3430      5F657865 
 3430      63757465 
 3430      00
 3431              	.LASF94:
ARM GAS  /tmp/ccR4KGij.s 			page 65


 3432 04b1 70617474 		.ascii	"patternthd\000"
 3432      65726E74 
 3432      686400
 3433              	.LASF71:
 3434 04bc 6D5F6E65 		.ascii	"m_next\000"
 3434      787400
 3435              	.LASF23:
 3436 04c3 73797374 		.ascii	"systime_t\000"
 3436      696D655F 
 3436      7400
 3437              	.LASF43:
 3438 04cd 705F7265 		.ascii	"p_realprio\000"
 3438      616C7072 
 3438      696F00
 3439              	.LASF52:
 3440 04d8 76746675 		.ascii	"vtfunc_t\000"
 3440      6E635F74 
 3440      00
 3441              	.LASF37:
 3442 04e1 705F7469 		.ascii	"p_time\000"
 3442      6D6500
 3443              	.LASF49:
 3444 04e8 696E7463 		.ascii	"intctx\000"
 3444      747800
 3445              	.LASF39:
 3446 04ef 705F6D73 		.ascii	"p_msgqueue\000"
 3446      67717565 
 3446      756500
 3447              	.LASF58:
 3448 04fa 76745F70 		.ascii	"vt_par\000"
 3448      617200
 3449              	.LASF9:
 3450 0501 75696E74 		.ascii	"uint32_t\000"
 3450      33325F74 
 3450      00
 3451              	.LASF105:
 3452 050a 63685468 		.ascii	"chThdSleep\000"
 3452      64536C65 
 3452      657000
 3453              	.LASF35:
 3454 0515 705F7265 		.ascii	"p_refs\000"
 3454      667300
 3455              	.LASF67:
 3456 051c 52656164 		.ascii	"ReadyList\000"
 3456      794C6973 
 3456      7400
 3457              	.LASF88:
 3458 0526 726C6973 		.ascii	"rlist\000"
 3458      7400
 3459              	.LASF3:
 3460 052c 75696E74 		.ascii	"uint8_t\000"
 3460      385F7400 
 3461              	.LASF74:
 3462 0534 77746F62 		.ascii	"wtobjp\000"
 3462      6A7000
 3463              	.LASF31:
 3464 053b 705F6E61 		.ascii	"p_name\000"
ARM GAS  /tmp/ccR4KGij.s 			page 66


 3464      6D6500
 3465              	.LASF103:
 3466 0542 5F746573 		.ascii	"_test_assert\000"
 3466      745F6173 
 3466      73657274 
 3466      00
 3467              	.LASF59:
 3468 054f 76745F73 		.ascii	"vt_systime\000"
 3468      79737469 
 3468      6D6500
 3469              	.LASF60:
 3470 055a 56544C69 		.ascii	"VTList\000"
 3470      737400
 3471              	.LASF70:
 3472 0561 6D5F6F77 		.ascii	"m_owner\000"
 3472      6E657200 
 3473              	.LASF28:
 3474 0569 705F6374 		.ascii	"p_ctx\000"
 3474      7800
 3475              	.LASF38:
 3476 056f 705F7761 		.ascii	"p_waiting\000"
 3476      6974696E 
 3476      6700
 3477              		.ident	"GCC: (GNU Tools for ARM Embedded Processors) 4.8.3 20131129 (release) [ARM/embedded-4_8-br
ARM GAS  /tmp/ccR4KGij.s 			page 67


DEFINED SYMBOLS
                            *ABS*:0000000000000000 testthd.c
     /tmp/ccR4KGij.s:19     .text.thd1_execute:0000000000000000 $t
     /tmp/ccR4KGij.s:24     .text.thd1_execute:0000000000000000 thd1_execute
     /tmp/ccR4KGij.s:134    .text.thd1_execute:00000000000000a0 $d
     /tmp/ccR4KGij.s:153    .text.thread:0000000000000000 thread
     /tmp/ccR4KGij.s:148    .text.thread:0000000000000000 $t
     /tmp/ccR4KGij.s:176    .text.thd2_execute:0000000000000000 $t
     /tmp/ccR4KGij.s:181    .text.thd2_execute:0000000000000000 thd2_execute
     /tmp/ccR4KGij.s:315    .text.thd2_execute:00000000000000b8 $d
     /tmp/ccR4KGij.s:329    .text.thd3_execute:0000000000000000 $t
     /tmp/ccR4KGij.s:334    .text.thd3_execute:0000000000000000 thd3_execute
     /tmp/ccR4KGij.s:550    .text.thd3_execute:0000000000000148 $d
     /tmp/ccR4KGij.s:556    .text.thd4_execute:0000000000000000 $t
     /tmp/ccR4KGij.s:561    .text.thd4_execute:0000000000000000 thd4_execute
     /tmp/ccR4KGij.s:655    .text.thd4_execute:0000000000000074 $d
     /tmp/ccR4KGij.s:706    .rodata.patternthd:0000000000000000 patternthd
     /tmp/ccR4KGij.s:697    .rodata.testthd4:0000000000000000 testthd4
     /tmp/ccR4KGij.s:688    .rodata.testthd3:0000000000000000 testthd3
     /tmp/ccR4KGij.s:679    .rodata.testthd2:0000000000000000 testthd2
     /tmp/ccR4KGij.s:670    .rodata.testthd1:0000000000000000 testthd1
     /tmp/ccR4KGij.s:667    .rodata.testthd1:0000000000000000 $d
     /tmp/ccR4KGij.s:676    .rodata.testthd2:0000000000000000 $d
     /tmp/ccR4KGij.s:685    .rodata.testthd3:0000000000000000 $d
     /tmp/ccR4KGij.s:694    .rodata.testthd4:0000000000000000 $d
     /tmp/ccR4KGij.s:703    .rodata.patternthd:0000000000000000 $d
     /tmp/ccR4KGij.s:713    .rodata.str1.4:0000000000000000 $d
                     .debug_frame:0000000000000010 $d
     /tmp/ccR4KGij.s:147    .text.thd1_execute:00000000000000c8 $t
     /tmp/ccR4KGij.s:555    .text.thd3_execute:000000000000014c $t
     /tmp/ccR4KGij.s:666    .text.thd4_execute:0000000000000078 $t

UNDEFINED SYMBOLS
chThdCreateStatic
test_wait_threads
_test_assert_sequence
rlist
wa
threads
test_emit_token
dbg_check_lock
chThdCreateI
dbg_check_unlock
chThdResume
chThdSetPriority
_test_assert
test_wait_tick
chThdSleep
_test_assert_time_window
chThdSleepUntil
vtlist
