ARM GAS  /tmp/ccOSbeko.s 			page 1


   1              		.syntax unified
   2              		.cpu cortex-m4
   3              		.fpu softvfp
   4              		.eabi_attribute 20, 1
   5              		.eabi_attribute 21, 1
   6              		.eabi_attribute 23, 3
   7              		.eabi_attribute 24, 1
   8              		.eabi_attribute 25, 1
   9              		.eabi_attribute 26, 1
  10              		.eabi_attribute 30, 2
  11              		.eabi_attribute 34, 1
  12              		.eabi_attribute 18, 4
  13              		.thumb
  14              		.file	"testsem.c"
  15              		.text
  16              	.Ltext0:
  17              		.cfi_sections	.debug_frame
  18              		.section	.text.sem1_execute,"ax",%progbits
  19              		.align	2
  20              		.p2align 4,,15
  21              		.thumb
  22              		.thumb_func
  23              		.type	sem1_execute, %function
  24              	sem1_execute:
  25              	.LFB9:
  26              		.file 1 "../../../test/testsem.c"
  27              		.loc 1 84 0
  28              		.cfi_startproc
  29              		@ args = 0, pretend = 0, frame = 0
  30              		@ frame_needed = 0, uses_anonymous_args = 0
  31 0000 2DE9F041 		push	{r4, r5, r6, r7, r8, lr}
  32              		.cfi_def_cfa_offset 24
  33              		.cfi_offset 4, -24
  34              		.cfi_offset 5, -20
  35              		.cfi_offset 6, -16
  36              		.cfi_offset 7, -12
  37              		.cfi_offset 8, -8
  38              		.cfi_offset 14, -4
  39              		.loc 1 86 0
  40 0004 434D     		ldr	r5, .L5
  41 0006 444E     		ldr	r6, .L5+4
  42 0008 AB69     		ldr	r3, [r5, #24]
  43 000a D6F80080 		ldr	r8, [r6]
  44 000e 9A68     		ldr	r2, [r3, #8]
  45 0010 424F     		ldr	r7, .L5+8
  46 0012 434B     		ldr	r3, .L5+12
  47 0014 434C     		ldr	r4, .L5+16
  48              		.loc 1 84 0
  49 0016 82B0     		sub	sp, sp, #8
  50              		.cfi_def_cfa_offset 32
  51              		.loc 1 86 0
  52 0018 0532     		adds	r2, r2, #5
  53 001a 4FF49871 		mov	r1, #304
  54 001e 0097     		str	r7, [sp]
  55 0020 4046     		mov	r0, r8
  56 0022 FFF7FEFF 		bl	chThdCreateStatic
  57              	.LVL0:
ARM GAS  /tmp/ccOSbeko.s 			page 2


  58              		.loc 1 87 0
  59 0026 AA69     		ldr	r2, [r5, #24]
  60 0028 7368     		ldr	r3, [r6, #4]
  61 002a 9268     		ldr	r2, [r2, #8]
  62 002c 3E49     		ldr	r1, .L5+20
  63              		.loc 1 86 0
  64 002e 2060     		str	r0, [r4]
  65              		.loc 1 87 0
  66 0030 0132     		adds	r2, r2, #1
  67 0032 1846     		mov	r0, r3
  68 0034 0091     		str	r1, [sp]
  69 0036 3A4B     		ldr	r3, .L5+12
  70 0038 4FF49871 		mov	r1, #304
  71 003c FFF7FEFF 		bl	chThdCreateStatic
  72              	.LVL1:
  73              		.loc 1 88 0
  74 0040 AA69     		ldr	r2, [r5, #24]
  75 0042 B368     		ldr	r3, [r6, #8]
  76 0044 9268     		ldr	r2, [r2, #8]
  77 0046 3949     		ldr	r1, .L5+24
  78              		.loc 1 87 0
  79 0048 6060     		str	r0, [r4, #4]
  80              		.loc 1 88 0
  81 004a 0332     		adds	r2, r2, #3
  82 004c 1846     		mov	r0, r3
  83 004e 0091     		str	r1, [sp]
  84 0050 334B     		ldr	r3, .L5+12
  85 0052 4FF49871 		mov	r1, #304
  86 0056 FFF7FEFF 		bl	chThdCreateStatic
  87              	.LVL2:
  88              		.loc 1 89 0
  89 005a AA69     		ldr	r2, [r5, #24]
  90 005c F368     		ldr	r3, [r6, #12]
  91 005e 9268     		ldr	r2, [r2, #8]
  92 0060 3349     		ldr	r1, .L5+28
  93              		.loc 1 88 0
  94 0062 A060     		str	r0, [r4, #8]
  95              		.loc 1 89 0
  96 0064 0432     		adds	r2, r2, #4
  97 0066 1846     		mov	r0, r3
  98 0068 0091     		str	r1, [sp]
  99 006a 2D4B     		ldr	r3, .L5+12
 100 006c 4FF49871 		mov	r1, #304
 101 0070 FFF7FEFF 		bl	chThdCreateStatic
 102              	.LVL3:
 103              		.loc 1 90 0
 104 0074 AA69     		ldr	r2, [r5, #24]
 105 0076 3369     		ldr	r3, [r6, #16]
 106 0078 9268     		ldr	r2, [r2, #8]
 107 007a 2E49     		ldr	r1, .L5+32
 108              		.loc 1 89 0
 109 007c E060     		str	r0, [r4, #12]
 110              		.loc 1 90 0
 111 007e 0232     		adds	r2, r2, #2
 112 0080 1846     		mov	r0, r3
 113 0082 0091     		str	r1, [sp]
 114 0084 264B     		ldr	r3, .L5+12
ARM GAS  /tmp/ccOSbeko.s 			page 3


 115 0086 4FF49871 		mov	r1, #304
 116 008a FFF7FEFF 		bl	chThdCreateStatic
 117              	.LVL4:
 118 008e 2061     		str	r0, [r4, #16]
 119              		.loc 1 91 0
 120 0090 2948     		ldr	r0, .L5+36
 121 0092 FFF7FEFF 		bl	chSemSignal
 122              	.LVL5:
 123              		.loc 1 92 0
 124 0096 2848     		ldr	r0, .L5+36
 125 0098 FFF7FEFF 		bl	chSemSignal
 126              	.LVL6:
 127              		.loc 1 93 0
 128 009c 2648     		ldr	r0, .L5+36
 129 009e FFF7FEFF 		bl	chSemSignal
 130              	.LVL7:
 131              		.loc 1 94 0
 132 00a2 2548     		ldr	r0, .L5+36
 133 00a4 FFF7FEFF 		bl	chSemSignal
 134              	.LVL8:
 135              		.loc 1 95 0
 136 00a8 2348     		ldr	r0, .L5+36
 137 00aa FFF7FEFF 		bl	chSemSignal
 138              	.LVL9:
 139              		.loc 1 96 0
 140 00ae FFF7FEFF 		bl	test_wait_threads
 141              	.LVL10:
 142              		.loc 1 100 0
 143 00b2 0120     		movs	r0, #1
 144 00b4 2149     		ldr	r1, .L5+40
 145 00b6 FFF7FEFF 		bl	_test_assert_sequence
 146              	.LVL11:
 147 00ba 10B1     		cbz	r0, .L4
 148              		.loc 1 109 0
 149 00bc 02B0     		add	sp, sp, #8
 150              		@ sp needed
 151 00be BDE8F081 		pop	{r4, r5, r6, r7, r8, pc}
 152              	.L4:
 153              		.loc 1 102 0
 154 00c2 AA69     		ldr	r2, [r5, #24]
 155 00c4 164B     		ldr	r3, .L5+12
 156 00c6 9268     		ldr	r2, [r2, #8]
 157 00c8 0097     		str	r7, [sp]
 158 00ca 0532     		adds	r2, r2, #5
 159 00cc 4046     		mov	r0, r8
 160 00ce 4FF49871 		mov	r1, #304
 161 00d2 FFF7FEFF 		bl	chThdCreateStatic
 162              	.LVL12:
 163              	.LBB2:
 164              		.loc 1 103 0
 165 00d6 2023     		movs	r3, #32
 166              	.LBE2:
 167              		.loc 1 102 0
 168 00d8 2060     		str	r0, [r4]
 169              	.LBB3:
 170              		.loc 1 103 0
 171              	@ 103 "../../../test/testsem.c" 1
ARM GAS  /tmp/ccOSbeko.s 			page 4


 172 00da 83F31188 		msr     BASEPRI, r3
 173              	@ 0 "" 2
 174              		.thumb
 175              	.LBE3:
 176 00de FFF7FEFF 		bl	dbg_check_lock
 177              	.LVL13:
 178              		.loc 1 104 0
 179 00e2 1548     		ldr	r0, .L5+36
 180 00e4 0221     		movs	r1, #2
 181 00e6 FFF7FEFF 		bl	chSemAddCounterI
 182              	.LVL14:
 183              		.loc 1 105 0
 184 00ea FFF7FEFF 		bl	chSchRescheduleS
 185              	.LVL15:
 186              		.loc 1 106 0
 187 00ee FFF7FEFF 		bl	dbg_check_unlock
 188              	.LVL16:
 189              	.LBB4:
 190 00f2 0023     		movs	r3, #0
 191              	@ 106 "../../../test/testsem.c" 1
 192 00f4 83F31188 		msr     BASEPRI, r3
 193              	@ 0 "" 2
 194              		.thumb
 195              	.LBE4:
 196              		.loc 1 107 0
 197 00f8 FFF7FEFF 		bl	test_wait_threads
 198              	.LVL17:
 199              		.loc 1 108 0
 200 00fc 0E4B     		ldr	r3, .L5+36
 201 00fe 9968     		ldr	r1, [r3, #8]
 202 0100 4B1E     		subs	r3, r1, #1
 203 0102 5942     		rsbs	r1, r3, #0
 204 0104 4FF00200 		mov	r0, #2
 205 0108 5941     		adcs	r1, r1, r3
 206              		.loc 1 109 0
 207 010a 02B0     		add	sp, sp, #8
 208              		@ sp needed
 209 010c BDE8F041 		pop	{r4, r5, r6, r7, r8, lr}
 210              		.loc 1 108 0
 211 0110 FFF7FEBF 		b	_test_assert
 212              	.LVL18:
 213              	.L6:
 214              		.align	2
 215              	.L5:
 216 0114 00000000 		.word	rlist
 217 0118 00000000 		.word	wa
 218 011c 00000000 		.word	.LC0
 219 0120 00000000 		.word	thread1
 220 0124 00000000 		.word	threads
 221 0128 04000000 		.word	.LC1
 222 012c 08000000 		.word	.LC2
 223 0130 0C000000 		.word	.LC3
 224 0134 10000000 		.word	.LC4
 225 0138 00000000 		.word	.LANCHOR0
 226 013c 14000000 		.word	.LC5
 227              		.cfi_endproc
 228              	.LFE9:
ARM GAS  /tmp/ccOSbeko.s 			page 5


 229              		.size	sem1_execute, .-sem1_execute
 230              		.section	.text.thread3,"ax",%progbits
 231              		.align	2
 232              		.p2align 4,,15
 233              		.thumb
 234              		.thumb_func
 235              		.type	thread3, %function
 236              	thread3:
 237              	.LFB14:
 238              		.loc 1 210 0
 239              		.cfi_startproc
 240              		@ args = 0, pretend = 0, frame = 0
 241              		@ frame_needed = 0, uses_anonymous_args = 0
 242              	.LVL19:
 243 0000 10B5     		push	{r4, lr}
 244              		.cfi_def_cfa_offset 8
 245              		.cfi_offset 4, -8
 246              		.cfi_offset 14, -4
 247              		.loc 1 213 0
 248 0002 044C     		ldr	r4, .L8
 249 0004 2046     		mov	r0, r4
 250              	.LVL20:
 251 0006 FFF7FEFF 		bl	chSemWait
 252              	.LVL21:
 253              		.loc 1 214 0
 254 000a 2046     		mov	r0, r4
 255 000c FFF7FEFF 		bl	chSemSignal
 256              	.LVL22:
 257              		.loc 1 216 0
 258 0010 0020     		movs	r0, #0
 259 0012 10BD     		pop	{r4, pc}
 260              	.L9:
 261              		.align	2
 262              	.L8:
 263 0014 00000000 		.word	.LANCHOR0
 264              		.cfi_endproc
 265              	.LFE14:
 266              		.size	thread3, .-thread3
 267 0018 AFF30080 		.section	.text.thread1,"ax",%progbits
 267      AFF30080 
 268              		.align	2
 269              		.p2align 4,,15
 270              		.thumb
 271              		.thumb_func
 272              		.type	thread1, %function
 273              	thread1:
 274              	.LFB8:
 275              		.loc 1 77 0
 276              		.cfi_startproc
 277              		@ args = 0, pretend = 0, frame = 0
 278              		@ frame_needed = 0, uses_anonymous_args = 0
 279              	.LVL23:
 280 0000 10B5     		push	{r4, lr}
 281              		.cfi_def_cfa_offset 8
 282              		.cfi_offset 4, -8
 283              		.cfi_offset 14, -4
 284              		.loc 1 77 0
ARM GAS  /tmp/ccOSbeko.s 			page 6


 285 0002 0446     		mov	r4, r0
 286              		.loc 1 79 0
 287 0004 0348     		ldr	r0, .L11
 288              	.LVL24:
 289 0006 FFF7FEFF 		bl	chSemWait
 290              	.LVL25:
 291              		.loc 1 80 0
 292 000a 2078     		ldrb	r0, [r4]	@ zero_extendqisi2
 293 000c FFF7FEFF 		bl	test_emit_token
 294              	.LVL26:
 295              		.loc 1 82 0
 296 0010 0020     		movs	r0, #0
 297 0012 10BD     		pop	{r4, pc}
 298              	.LVL27:
 299              	.L12:
 300              		.align	2
 301              	.L11:
 302 0014 00000000 		.word	.LANCHOR0
 303              		.cfi_endproc
 304              	.LFE8:
 305              		.size	thread1, .-thread1
 306 0018 AFF30080 		.section	.text.sem1_setup,"ax",%progbits
 306      AFF30080 
 307              		.align	2
 308              		.p2align 4,,15
 309              		.thumb
 310              		.thumb_func
 311              		.type	sem1_setup, %function
 312              	sem1_setup:
 313              	.LFB7:
 314              		.loc 1 72 0
 315              		.cfi_startproc
 316              		@ args = 0, pretend = 0, frame = 0
 317              		@ frame_needed = 0, uses_anonymous_args = 0
 318              		@ link register save eliminated.
 319              		.loc 1 74 0
 320 0000 0148     		ldr	r0, .L14
 321 0002 0021     		movs	r1, #0
 322 0004 FFF7FEBF 		b	chSemInit
 323              	.LVL28:
 324              	.L15:
 325              		.align	2
 326              	.L14:
 327 0008 00000000 		.word	.LANCHOR0
 328              		.cfi_endproc
 329              	.LFE7:
 330              		.size	sem1_setup, .-sem1_setup
 331 000c AFF30080 		.section	.text.sem2_setup,"ax",%progbits
 332              		.align	2
 333              		.p2align 4,,15
 334              		.thumb
 335              		.thumb_func
 336              		.type	sem2_setup, %function
 337              	sem2_setup:
 338              	.LFB10:
 339              		.loc 1 129 0
 340              		.cfi_startproc
ARM GAS  /tmp/ccOSbeko.s 			page 7


 341              		@ args = 0, pretend = 0, frame = 0
 342              		@ frame_needed = 0, uses_anonymous_args = 0
 343              		@ link register save eliminated.
 344              		.loc 1 131 0
 345 0000 0148     		ldr	r0, .L17
 346 0002 0021     		movs	r1, #0
 347 0004 FFF7FEBF 		b	chSemInit
 348              	.LVL29:
 349              	.L18:
 350              		.align	2
 351              	.L17:
 352 0008 00000000 		.word	.LANCHOR0
 353              		.cfi_endproc
 354              	.LFE10:
 355              		.size	sem2_setup, .-sem2_setup
 356 000c AFF30080 		.section	.text.sem3_setup,"ax",%progbits
 357              		.align	2
 358              		.p2align 4,,15
 359              		.thumb
 360              		.thumb_func
 361              		.type	sem3_setup, %function
 362              	sem3_setup:
 363              	.LFB13:
 364              		.loc 1 205 0
 365              		.cfi_startproc
 366              		@ args = 0, pretend = 0, frame = 0
 367              		@ frame_needed = 0, uses_anonymous_args = 0
 368              		@ link register save eliminated.
 369              		.loc 1 207 0
 370 0000 0148     		ldr	r0, .L20
 371 0002 0021     		movs	r1, #0
 372 0004 FFF7FEBF 		b	chSemInit
 373              	.LVL30:
 374              	.L21:
 375              		.align	2
 376              	.L20:
 377 0008 00000000 		.word	.LANCHOR0
 378              		.cfi_endproc
 379              	.LFE13:
 380              		.size	sem3_setup, .-sem3_setup
 381 000c AFF30080 		.section	.text.thread2,"ax",%progbits
 382              		.align	2
 383              		.p2align 4,,15
 384              		.thumb
 385              		.thumb_func
 386              		.type	thread2, %function
 387              	thread2:
 388              	.LFB11:
 389              		.loc 1 134 0
 390              		.cfi_startproc
 391              		@ args = 0, pretend = 0, frame = 0
 392              		@ frame_needed = 0, uses_anonymous_args = 0
 393              	.LVL31:
 394 0000 08B5     		push	{r3, lr}
 395              		.cfi_def_cfa_offset 8
 396              		.cfi_offset 3, -8
 397              		.cfi_offset 14, -4
ARM GAS  /tmp/ccOSbeko.s 			page 8


 398              		.loc 1 137 0
 399 0002 3220     		movs	r0, #50
 400              	.LVL32:
 401 0004 FFF7FEFF 		bl	chThdSleep
 402              	.LVL33:
 403              	.LBB5:
 404              		.loc 1 138 0
 405 0008 2023     		movs	r3, #32
 406              	@ 138 "../../../test/testsem.c" 1
 407 000a 83F31188 		msr     BASEPRI, r3
 408              	@ 0 "" 2
 409              		.thumb
 410              	.LBE5:
 411 000e FFF7FEFF 		bl	dbg_check_lock
 412              	.LVL34:
 413              		.loc 1 139 0
 414 0012 0648     		ldr	r0, .L23
 415 0014 FFF7FEFF 		bl	chSemSignalI
 416              	.LVL35:
 417              		.loc 1 140 0
 418 0018 FFF7FEFF 		bl	chSchRescheduleS
 419              	.LVL36:
 420              		.loc 1 141 0
 421 001c FFF7FEFF 		bl	dbg_check_unlock
 422              	.LVL37:
 423              	.LBB6:
 424 0020 0023     		movs	r3, #0
 425              	@ 141 "../../../test/testsem.c" 1
 426 0022 83F31188 		msr     BASEPRI, r3
 427              	@ 0 "" 2
 428              		.thumb
 429              	.LBE6:
 430              		.loc 1 143 0
 431 0026 0020     		movs	r0, #0
 432 0028 08BD     		pop	{r3, pc}
 433              	.L24:
 434 002a 00BF     		.align	2
 435              	.L23:
 436 002c 00000000 		.word	.LANCHOR0
 437              		.cfi_endproc
 438              	.LFE11:
 439              		.size	thread2, .-thread2
 440              		.section	.text.thread4,"ax",%progbits
 441              		.align	2
 442              		.p2align 4,,15
 443              		.thumb
 444              		.thumb_func
 445              		.type	thread4, %function
 446              	thread4:
 447              	.LFB16:
 448              		.loc 1 246 0
 449              		.cfi_startproc
 450              		@ args = 0, pretend = 0, frame = 0
 451              		@ frame_needed = 0, uses_anonymous_args = 0
 452              	.LVL38:
 453 0000 10B5     		push	{r4, lr}
 454              		.cfi_def_cfa_offset 8
ARM GAS  /tmp/ccOSbeko.s 			page 9


 455              		.cfi_offset 4, -8
 456              		.cfi_offset 14, -4
 457              	.LBB7:
 458              		.loc 1 248 0
 459 0002 2023     		movs	r3, #32
 460              	.LBE7:
 461              		.loc 1 246 0
 462 0004 0446     		mov	r4, r0
 463              	.LBB8:
 464              		.loc 1 248 0
 465              	@ 248 "../../../test/testsem.c" 1
 466 0006 83F31188 		msr     BASEPRI, r3
 467              	@ 0 "" 2
 468              		.thumb
 469              	.LBE8:
 470 000a FFF7FEFF 		bl	dbg_check_lock
 471              	.LVL39:
 472 000e A368     		ldr	r3, [r4, #8]
 473 0010 002B     		cmp	r3, #0
 474 0012 08DD     		ble	.L27
 475              	.L26:
 476              		.loc 1 248 0 is_stmt 0 discriminator 2
 477 0014 FFF7FEFF 		bl	chSchRescheduleS
 478              	.LVL40:
 479 0018 FFF7FEFF 		bl	dbg_check_unlock
 480              	.LVL41:
 481              	.LBB9:
 482 001c 0023     		movs	r3, #0
 483              	@ 248 "../../../test/testsem.c" 1
 484 001e 83F31188 		msr     BASEPRI, r3
 485              	@ 0 "" 2
 486              		.thumb
 487              	.LBE9:
 488              		.loc 1 250 0 is_stmt 1 discriminator 2
 489 0022 0020     		movs	r0, #0
 490 0024 10BD     		pop	{r4, pc}
 491              	.LVL42:
 492              	.L27:
 493              		.loc 1 248 0 discriminator 1
 494 0026 2046     		mov	r0, r4
 495 0028 FFF7FEFF 		bl	chSemSignalI
 496              	.LVL43:
 497 002c F2E7     		b	.L26
 498              		.cfi_endproc
 499              	.LFE16:
 500              		.size	thread4, .-thread4
 501 002e 00BF     		.section	.text.sem4_execute,"ax",%progbits
 502              		.align	2
 503              		.p2align 4,,15
 504              		.thumb
 505              		.thumb_func
 506              		.type	sem4_execute, %function
 507              	sem4_execute:
 508              	.LFB17:
 509              		.loc 1 252 0
 510              		.cfi_startproc
 511              		@ args = 0, pretend = 0, frame = 16
ARM GAS  /tmp/ccOSbeko.s 			page 10


 512              		@ frame_needed = 0, uses_anonymous_args = 0
 513 0000 00B5     		push	{lr}
 514              		.cfi_def_cfa_offset 4
 515              		.cfi_offset 14, -4
 516 0002 87B0     		sub	sp, sp, #28
 517              		.cfi_def_cfa_offset 32
 518              		.loc 1 256 0
 519 0004 03A8     		add	r0, sp, #12
 520 0006 0021     		movs	r1, #0
 521 0008 FFF7FEFF 		bl	chSemInit
 522              	.LVL44:
 523              		.loc 1 257 0
 524 000c 03A8     		add	r0, sp, #12
 525 000e 0021     		movs	r1, #0
 526 0010 FFF7FEFF 		bl	chSemReset
 527              	.LVL45:
 528              		.loc 1 258 0
 529 0014 0599     		ldr	r1, [sp, #20]
 530 0016 0029     		cmp	r1, #0
 531 0018 CCBF     		ite	gt
 532 001a 0021     		movgt	r1, #0
 533 001c 0121     		movle	r1, #1
 534 001e 0120     		movs	r0, #1
 535 0020 FFF7FEFF 		bl	_test_assert
 536              	.LVL46:
 537 0024 10B1     		cbz	r0, .L33
 538              	.L28:
 539              		.loc 1 280 0
 540 0026 07B0     		add	sp, sp, #28
 541              		@ sp needed
 542 0028 5DF804FB 		ldr	pc, [sp], #4
 543              	.L33:
 544              		.loc 1 262 0
 545 002c 334B     		ldr	r3, .L36
 546              		.loc 1 261 0
 547 002e 344A     		ldr	r2, .L36+4
 548              		.loc 1 262 0
 549 0030 9B69     		ldr	r3, [r3, #24]
 550              		.loc 1 261 0
 551 0032 1068     		ldr	r0, [r2]
 552 0034 9A68     		ldr	r2, [r3, #8]
 553 0036 334B     		ldr	r3, .L36+8
 554 0038 03A9     		add	r1, sp, #12
 555 003a 0091     		str	r1, [sp]
 556 003c 013A     		subs	r2, r2, #1
 557 003e 4FF49871 		mov	r1, #304
 558 0042 FFF7FEFF 		bl	chThdCreateStatic
 559              	.LVL47:
 560 0046 304B     		ldr	r3, .L36+12
 561 0048 1860     		str	r0, [r3]
 562              		.loc 1 265 0
 563 004a 03A8     		add	r0, sp, #12
 564 004c FFF7FEFF 		bl	chSemWait
 565              	.LVL48:
 566              		.loc 1 268 0
 567 0050 0599     		ldr	r1, [sp, #20]
 568 0052 0029     		cmp	r1, #0
ARM GAS  /tmp/ccOSbeko.s 			page 11


 569 0054 CCBF     		ite	gt
 570 0056 0021     		movgt	r1, #0
 571 0058 0121     		movle	r1, #1
 572 005a 0220     		movs	r0, #2
 573 005c FFF7FEFF 		bl	_test_assert
 574              	.LVL49:
 575 0060 0028     		cmp	r0, #0
 576 0062 E0D1     		bne	.L28
 577              	.LBB10:
 578              		.loc 1 272 0
 579 0064 2023     		movs	r3, #32
 580              	@ 272 "../../../test/testsem.c" 1
 581 0066 83F31188 		msr     BASEPRI, r3
 582              	@ 0 "" 2
 583              		.thumb
 584              	.LBE10:
 585 006a FFF7FEFF 		bl	dbg_check_lock
 586              	.LVL50:
 587 006e 059B     		ldr	r3, [sp, #20]
 588 0070 002B     		cmp	r3, #0
 589 0072 3ADD     		ble	.L34
 590              	.L30:
 591              		.loc 1 272 0 is_stmt 0 discriminator 2
 592 0074 FFF7FEFF 		bl	chSchRescheduleS
 593              	.LVL51:
 594 0078 FFF7FEFF 		bl	dbg_check_unlock
 595              	.LVL52:
 596              	.LBB11:
 597 007c 0023     		movs	r3, #0
 598              	@ 272 "../../../test/testsem.c" 1
 599 007e 83F31188 		msr     BASEPRI, r3
 600              	@ 0 "" 2
 601              		.thumb
 602              	.LBE11:
 603              		.loc 1 273 0 is_stmt 1 discriminator 2
 604 0082 0599     		ldr	r1, [sp, #20]
 605 0084 0029     		cmp	r1, #0
 606 0086 D4BF     		ite	le
 607 0088 0021     		movle	r1, #0
 608 008a 0121     		movgt	r1, #1
 609 008c 0320     		movs	r0, #3
 610 008e FFF7FEFF 		bl	_test_assert
 611              	.LVL53:
 612 0092 0028     		cmp	r0, #0
 613 0094 C7D1     		bne	.L28
 614              		.loc 1 274 0
 615 0096 0599     		ldr	r1, [sp, #20]
 616 0098 4A1E     		subs	r2, r1, #1
 617 009a 5142     		rsbs	r1, r2, #0
 618 009c 5141     		adcs	r1, r1, r2
 619 009e 0420     		movs	r0, #4
 620 00a0 FFF7FEFF 		bl	_test_assert
 621              	.LVL54:
 622 00a4 0028     		cmp	r0, #0
 623 00a6 BED1     		bne	.L28
 624              	.LBB12:
 625              		.loc 1 277 0
ARM GAS  /tmp/ccOSbeko.s 			page 12


 626 00a8 2023     		movs	r3, #32
 627              	@ 277 "../../../test/testsem.c" 1
 628 00aa 83F31188 		msr     BASEPRI, r3
 629              	@ 0 "" 2
 630              		.thumb
 631              	.LBE12:
 632 00ae FFF7FEFF 		bl	dbg_check_lock
 633              	.LVL55:
 634 00b2 059B     		ldr	r3, [sp, #20]
 635 00b4 002B     		cmp	r3, #0
 636 00b6 1CDD     		ble	.L35
 637              	.L31:
 638              		.loc 1 277 0 is_stmt 0 discriminator 2
 639 00b8 FFF7FEFF 		bl	chSchRescheduleS
 640              	.LVL56:
 641 00bc FFF7FEFF 		bl	dbg_check_unlock
 642              	.LVL57:
 643              	.LBB13:
 644 00c0 0023     		movs	r3, #0
 645              	@ 277 "../../../test/testsem.c" 1
 646 00c2 83F31188 		msr     BASEPRI, r3
 647              	@ 0 "" 2
 648              		.thumb
 649              	.LBE13:
 650              		.loc 1 278 0 is_stmt 1 discriminator 2
 651 00c6 0599     		ldr	r1, [sp, #20]
 652 00c8 0029     		cmp	r1, #0
 653 00ca D4BF     		ite	le
 654 00cc 0021     		movle	r1, #0
 655 00ce 0121     		movgt	r1, #1
 656 00d0 0320     		movs	r0, #3
 657 00d2 FFF7FEFF 		bl	_test_assert
 658              	.LVL58:
 659 00d6 0028     		cmp	r0, #0
 660 00d8 A5D1     		bne	.L28
 661              		.loc 1 279 0
 662 00da 0599     		ldr	r1, [sp, #20]
 663 00dc 4B1E     		subs	r3, r1, #1
 664 00de 5942     		rsbs	r1, r3, #0
 665 00e0 5941     		adcs	r1, r1, r3
 666 00e2 0520     		movs	r0, #5
 667 00e4 FFF7FEFF 		bl	_test_assert
 668              	.LVL59:
 669 00e8 9DE7     		b	.L28
 670              	.L34:
 671              		.loc 1 272 0 discriminator 1
 672 00ea 03A8     		add	r0, sp, #12
 673 00ec FFF7FEFF 		bl	chSemSignalI
 674              	.LVL60:
 675 00f0 C0E7     		b	.L30
 676              	.L35:
 677              		.loc 1 277 0 discriminator 1
 678 00f2 03A8     		add	r0, sp, #12
 679 00f4 FFF7FEFF 		bl	chSemSignalI
 680              	.LVL61:
 681 00f8 DEE7     		b	.L31
 682              	.L37:
ARM GAS  /tmp/ccOSbeko.s 			page 13


 683 00fa 00BF     		.align	2
 684              	.L36:
 685 00fc 00000000 		.word	rlist
 686 0100 00000000 		.word	wa
 687 0104 00000000 		.word	thread4
 688 0108 00000000 		.word	threads
 689              		.cfi_endproc
 690              	.LFE17:
 691              		.size	sem4_execute, .-sem4_execute
 692 010c AFF30080 		.section	.text.sem2_execute,"ax",%progbits
 693              		.align	2
 694              		.p2align 4,,15
 695              		.thumb
 696              		.thumb_func
 697              		.type	sem2_execute, %function
 698              	sem2_execute:
 699              	.LFB12:
 700              		.loc 1 145 0
 701              		.cfi_startproc
 702              		@ args = 0, pretend = 0, frame = 0
 703              		@ frame_needed = 0, uses_anonymous_args = 0
 704 0000 70B5     		push	{r4, r5, r6, lr}
 705              		.cfi_def_cfa_offset 16
 706              		.cfi_offset 4, -16
 707              		.cfi_offset 5, -12
 708              		.cfi_offset 6, -8
 709              		.cfi_offset 14, -4
 710              		.loc 1 153 0
 711 0002 4B4C     		ldr	r4, .L45
 712              		.loc 1 145 0
 713 0004 82B0     		sub	sp, sp, #8
 714              		.cfi_def_cfa_offset 24
 715              		.loc 1 153 0
 716 0006 0021     		movs	r1, #0
 717 0008 2046     		mov	r0, r4
 718 000a FFF7FEFF 		bl	chSemWaitTimeout
 719              	.LVL62:
 720              		.loc 1 154 0
 721 000e B0F1FF3E 		subs	lr, r0, #-1
 722 0012 DEF10001 		rsbs	r1, lr, #0
 723 0016 51EB0E01 		adcs	r1, r1, lr
 724 001a 0120     		movs	r0, #1
 725              	.LVL63:
 726 001c FFF7FEFF 		bl	_test_assert
 727              	.LVL64:
 728 0020 08B1     		cbz	r0, .L44
 729              	.L38:
 730              		.loc 1 183 0
 731 0022 02B0     		add	sp, sp, #8
 732              		@ sp needed
 733 0024 70BD     		pop	{r4, r5, r6, pc}
 734              	.L44:
 735              		.loc 1 155 0
 736 0026 2168     		ldr	r1, [r4]
 737 0028 0E1B     		subs	r6, r1, r4
 738 002a 7142     		rsbs	r1, r6, #0
 739 002c 7141     		adcs	r1, r1, r6
ARM GAS  /tmp/ccOSbeko.s 			page 14


 740 002e 0220     		movs	r0, #2
 741 0030 FFF7FEFF 		bl	_test_assert
 742              	.LVL65:
 743 0034 0028     		cmp	r0, #0
 744 0036 F4D1     		bne	.L38
 745              		.loc 1 156 0
 746 0038 A168     		ldr	r1, [r4, #8]
 747 003a D1F10101 		rsbs	r1, r1, #1
 748 003e 38BF     		it	cc
 749 0040 0021     		movcc	r1, #0
 750 0042 0320     		movs	r0, #3
 751 0044 FFF7FEFF 		bl	_test_assert
 752              	.LVL66:
 753 0048 0028     		cmp	r0, #0
 754 004a EAD1     		bne	.L38
 755              	.LBB16:
 756              	.LBB17:
 757              		.loc 1 161 0
 758 004c 394B     		ldr	r3, .L45+4
 759 004e 3A4A     		ldr	r2, .L45+8
 760 0050 9B69     		ldr	r3, [r3, #24]
 761 0052 1168     		ldr	r1, [r2]
 762 0054 9A68     		ldr	r2, [r3, #8]
 763 0056 394B     		ldr	r3, .L45+12
 764 0058 0090     		str	r0, [sp]
 765 005a 013A     		subs	r2, r2, #1
 766 005c 0846     		mov	r0, r1
 767 005e 4FF49871 		mov	r1, #304
 768 0062 FFF7FEFF 		bl	chThdCreateStatic
 769              	.LVL67:
 770 0066 364B     		ldr	r3, .L45+16
 771              		.loc 1 163 0
 772 0068 4FF4FA71 		mov	r1, #500
 773              		.loc 1 161 0
 774 006c 1860     		str	r0, [r3]
 775              		.loc 1 163 0
 776 006e 2046     		mov	r0, r4
 777 0070 FFF7FEFF 		bl	chSemWaitTimeout
 778              	.LVL68:
 779 0074 0546     		mov	r5, r0
 780              	.LVL69:
 781              		.loc 1 164 0
 782 0076 FFF7FEFF 		bl	test_wait_threads
 783              	.LVL70:
 784              		.loc 1 165 0
 785 007a D5F10101 		rsbs	r1, r5, #1
 786 007e 38BF     		it	cc
 787 0080 0021     		movcc	r1, #0
 788 0082 0420     		movs	r0, #4
 789 0084 FFF7FEFF 		bl	_test_assert
 790              	.LVL71:
 791 0088 0028     		cmp	r0, #0
 792 008a CAD1     		bne	.L38
 793              		.loc 1 166 0
 794 008c 2168     		ldr	r1, [r4]
 795 008e 0D1B     		subs	r5, r1, r4
 796              	.LVL72:
ARM GAS  /tmp/ccOSbeko.s 			page 15


 797 0090 6942     		rsbs	r1, r5, #0
 798 0092 6941     		adcs	r1, r1, r5
 799 0094 0520     		movs	r0, #5
 800 0096 FFF7FEFF 		bl	_test_assert
 801              	.LVL73:
 802 009a 0028     		cmp	r0, #0
 803 009c C1D1     		bne	.L38
 804              		.loc 1 167 0
 805 009e A168     		ldr	r1, [r4, #8]
 806 00a0 D1F10101 		rsbs	r1, r1, #1
 807 00a4 38BF     		it	cc
 808 00a6 0021     		movcc	r1, #0
 809 00a8 0620     		movs	r0, #6
 810 00aa FFF7FEFF 		bl	_test_assert
 811              	.LVL74:
 812 00ae 0028     		cmp	r0, #0
 813 00b0 B7D1     		bne	.L38
 814              		.loc 1 172 0
 815 00b2 FFF7FEFF 		bl	test_wait_tick
 816              	.LVL75:
 817              		.loc 1 173 0
 818 00b6 234B     		ldr	r3, .L45+20
 819 00b8 DE68     		ldr	r6, [r3, #12]
 820              	.LVL76:
 821 00ba 4125     		movs	r5, #65
 822              	.LVL77:
 823              	.L43:
 824              		.loc 1 175 0
 825 00bc 2846     		mov	r0, r5
 826 00be FFF7FEFF 		bl	test_emit_token
 827              	.LVL78:
 828              		.loc 1 176 0
 829 00c2 4FF4FA71 		mov	r1, #500
 830 00c6 1A48     		ldr	r0, .L45
 831 00c8 FFF7FEFF 		bl	chSemWaitTimeout
 832              	.LVL79:
 833              		.loc 1 177 0
 834 00cc B0F1FF32 		subs	r2, r0, #-1
 835 00d0 5142     		rsbs	r1, r2, #0
 836 00d2 5141     		adcs	r1, r1, r2
 837 00d4 0720     		movs	r0, #7
 838              	.LVL80:
 839 00d6 FFF7FEFF 		bl	_test_assert
 840              	.LVL81:
 841 00da 0028     		cmp	r0, #0
 842 00dc A1D1     		bne	.L38
 843              		.loc 1 178 0
 844 00de 2168     		ldr	r1, [r4]
 845 00e0 0B1B     		subs	r3, r1, r4
 846 00e2 5942     		rsbs	r1, r3, #0
 847 00e4 5941     		adcs	r1, r1, r3
 848 00e6 0820     		movs	r0, #8
 849 00e8 FFF7FEFF 		bl	_test_assert
 850              	.LVL82:
 851 00ec 0028     		cmp	r0, #0
 852 00ee 98D1     		bne	.L38
 853              		.loc 1 179 0
ARM GAS  /tmp/ccOSbeko.s 			page 16


 854 00f0 A168     		ldr	r1, [r4, #8]
 855 00f2 D1F10101 		rsbs	r1, r1, #1
 856 00f6 4FF00900 		mov	r0, #9
 857 00fa 38BF     		it	cc
 858 00fc 0021     		movcc	r1, #0
 859 00fe FFF7FEFF 		bl	_test_assert
 860              	.LVL83:
 861 0102 0135     		adds	r5, r5, #1
 862 0104 EDB2     		uxtb	r5, r5
 863 0106 0028     		cmp	r0, #0
 864 0108 8BD1     		bne	.L38
 865              		.loc 1 174 0
 866 010a 462D     		cmp	r5, #70
 867 010c D6D1     		bne	.L43
 868              		.loc 1 181 0
 869 010e 0A20     		movs	r0, #10
 870 0110 0D49     		ldr	r1, .L45+24
 871 0112 FFF7FEFF 		bl	_test_assert_sequence
 872              	.LVL84:
 873 0116 0028     		cmp	r0, #0
 874 0118 83D1     		bne	.L38
 875              		.loc 1 182 0
 876 011a 0B20     		movs	r0, #11
 877 011c 06F6C411 		addw	r1, r6, #2500
 878 0120 06F6C912 		addw	r2, r6, #2505
 879              	.LBE17:
 880              	.LBE16:
 881              		.loc 1 183 0
 882 0124 02B0     		add	sp, sp, #8
 883              		@ sp needed
 884 0126 BDE87040 		pop	{r4, r5, r6, lr}
 885              	.LVL85:
 886              	.LBB19:
 887              	.LBB18:
 888              		.loc 1 182 0
 889 012a FFF7FEBF 		b	_test_assert_time_window
 890              	.LVL86:
 891              	.L46:
 892 012e 00BF     		.align	2
 893              	.L45:
 894 0130 00000000 		.word	.LANCHOR0
 895 0134 00000000 		.word	rlist
 896 0138 00000000 		.word	wa
 897 013c 00000000 		.word	thread2
 898 0140 00000000 		.word	threads
 899 0144 00000000 		.word	vtlist
 900 0148 14000000 		.word	.LC5
 901              	.LBE18:
 902              	.LBE19:
 903              		.cfi_endproc
 904              	.LFE12:
 905              		.size	sem2_execute, .-sem2_execute
 906 014c AFF30080 		.section	.text.sem3_execute,"ax",%progbits
 907              		.align	2
 908              		.p2align 4,,15
 909              		.thumb
 910              		.thumb_func
ARM GAS  /tmp/ccOSbeko.s 			page 17


 911              		.type	sem3_execute, %function
 912              	sem3_execute:
 913              	.LFB15:
 914              		.loc 1 218 0
 915              		.cfi_startproc
 916              		@ args = 0, pretend = 0, frame = 0
 917              		@ frame_needed = 0, uses_anonymous_args = 0
 918 0000 10B5     		push	{r4, lr}
 919              		.cfi_def_cfa_offset 8
 920              		.cfi_offset 4, -8
 921              		.cfi_offset 14, -4
 922              		.loc 1 220 0
 923 0002 214B     		ldr	r3, .L52
 924 0004 214A     		ldr	r2, .L52+4
 925 0006 9B69     		ldr	r3, [r3, #24]
 926 0008 1068     		ldr	r0, [r2]
 927 000a 9A68     		ldr	r2, [r3, #8]
 928 000c 204B     		ldr	r3, .L52+8
 929              		.loc 1 221 0
 930 000e 214C     		ldr	r4, .L52+12
 931              		.loc 1 218 0
 932 0010 82B0     		sub	sp, sp, #8
 933              		.cfi_def_cfa_offset 16
 934              		.loc 1 220 0
 935 0012 0021     		movs	r1, #0
 936 0014 0132     		adds	r2, r2, #1
 937 0016 0091     		str	r1, [sp]
 938 0018 4FF49871 		mov	r1, #304
 939 001c FFF7FEFF 		bl	chThdCreateStatic
 940              	.LVL87:
 941 0020 1D4B     		ldr	r3, .L52+16
 942              		.loc 1 221 0
 943 0022 2146     		mov	r1, r4
 944              		.loc 1 220 0
 945 0024 1860     		str	r0, [r3]
 946              		.loc 1 221 0
 947 0026 2046     		mov	r0, r4
 948 0028 FFF7FEFF 		bl	chSemSignalWait
 949              	.LVL88:
 950              		.loc 1 222 0
 951 002c 2168     		ldr	r1, [r4]
 952 002e 0A1B     		subs	r2, r1, r4
 953 0030 5142     		rsbs	r1, r2, #0
 954 0032 5141     		adcs	r1, r1, r2
 955 0034 0120     		movs	r0, #1
 956 0036 FFF7FEFF 		bl	_test_assert
 957              	.LVL89:
 958 003a 08B1     		cbz	r0, .L51
 959              	.L47:
 960              		.loc 1 228 0
 961 003c 02B0     		add	sp, sp, #8
 962              		@ sp needed
 963 003e 10BD     		pop	{r4, pc}
 964              	.L51:
 965              		.loc 1 223 0
 966 0040 A168     		ldr	r1, [r4, #8]
 967 0042 D1F10101 		rsbs	r1, r1, #1
ARM GAS  /tmp/ccOSbeko.s 			page 18


 968 0046 38BF     		it	cc
 969 0048 0021     		movcc	r1, #0
 970 004a 0220     		movs	r0, #2
 971 004c FFF7FEFF 		bl	_test_assert
 972              	.LVL90:
 973 0050 0028     		cmp	r0, #0
 974 0052 F3D1     		bne	.L47
 975              	.LBB22:
 976              	.LBB23:
 977              		.loc 1 225 0
 978 0054 2146     		mov	r1, r4
 979 0056 2046     		mov	r0, r4
 980 0058 FFF7FEFF 		bl	chSemSignalWait
 981              	.LVL91:
 982              		.loc 1 226 0
 983 005c 2168     		ldr	r1, [r4]
 984 005e 0B1B     		subs	r3, r1, r4
 985 0060 5942     		rsbs	r1, r3, #0
 986 0062 5941     		adcs	r1, r1, r3
 987 0064 0320     		movs	r0, #3
 988 0066 FFF7FEFF 		bl	_test_assert
 989              	.LVL92:
 990 006a 0028     		cmp	r0, #0
 991 006c E6D1     		bne	.L47
 992              		.loc 1 227 0
 993 006e A168     		ldr	r1, [r4, #8]
 994 0070 D1F10101 		rsbs	r1, r1, #1
 995 0074 4FF00400 		mov	r0, #4
 996 0078 38BF     		it	cc
 997 007a 0021     		movcc	r1, #0
 998              	.LBE23:
 999              	.LBE22:
 1000              		.loc 1 228 0
 1001 007c 02B0     		add	sp, sp, #8
 1002              		@ sp needed
 1003 007e BDE81040 		pop	{r4, lr}
 1004              	.LBB25:
 1005              	.LBB24:
 1006              		.loc 1 227 0
 1007 0082 FFF7FEBF 		b	_test_assert
 1008              	.LVL93:
 1009              	.L53:
 1010 0086 00BF     		.align	2
 1011              	.L52:
 1012 0088 00000000 		.word	rlist
 1013 008c 00000000 		.word	wa
 1014 0090 00000000 		.word	thread3
 1015 0094 00000000 		.word	.LANCHOR0
 1016 0098 00000000 		.word	threads
 1017              	.LBE24:
 1018              	.LBE25:
 1019              		.cfi_endproc
 1020              	.LFE15:
 1021              		.size	sem3_execute, .-sem3_execute
 1022              		.global	patternsem
 1023              		.global	testsem4
 1024              		.global	testsem3
ARM GAS  /tmp/ccOSbeko.s 			page 19


 1025              		.global	testsem2
 1026              		.global	testsem1
 1027 009c AFF30080 		.section	.rodata.testsem1,"a",%progbits
 1028              		.align	2
 1029              		.type	testsem1, %object
 1030              		.size	testsem1, 16
 1031              	testsem1:
 1032 0000 74000000 		.word	.LC9
 1033 0004 00000000 		.word	sem1_setup
 1034 0008 00000000 		.word	0
 1035 000c 00000000 		.word	sem1_execute
 1036              		.section	.rodata.testsem2,"a",%progbits
 1037              		.align	2
 1038              		.type	testsem2, %object
 1039              		.size	testsem2, 16
 1040              	testsem2:
 1041 0000 60000000 		.word	.LC8
 1042 0004 00000000 		.word	sem2_setup
 1043 0008 00000000 		.word	0
 1044 000c 00000000 		.word	sem2_execute
 1045              		.section	.rodata.testsem3,"a",%progbits
 1046              		.align	2
 1047              		.type	testsem3, %object
 1048              		.size	testsem3, 16
 1049              	testsem3:
 1050 0000 40000000 		.word	.LC7
 1051 0004 00000000 		.word	sem3_setup
 1052 0008 00000000 		.word	0
 1053 000c 00000000 		.word	sem3_execute
 1054              		.section	.rodata.testsem4,"a",%progbits
 1055              		.align	2
 1056              		.type	testsem4, %object
 1057              		.size	testsem4, 16
 1058              	testsem4:
 1059 0000 1C000000 		.word	.LC6
 1060 0004 00000000 		.word	0
 1061 0008 00000000 		.word	0
 1062 000c 00000000 		.word	sem4_execute
 1063              		.section	.data.sem1,"aw",%progbits
 1064              		.align	2
 1065              		.set	.LANCHOR0,. + 0
 1066              		.type	sem1, %object
 1067              		.size	sem1, 12
 1068              	sem1:
 1069 0000 00000000 		.word	sem1
 1070 0004 00000000 		.word	sem1
 1071 0008 00000000 		.word	0
 1072              		.section	.rodata.patternsem,"a",%progbits
 1073              		.align	2
 1074              		.type	patternsem, %object
 1075              		.size	patternsem, 20
 1076              	patternsem:
 1077 0000 00000000 		.word	testsem1
 1078 0004 00000000 		.word	testsem2
 1079 0008 00000000 		.word	testsem3
 1080 000c 00000000 		.word	testsem4
 1081 0010 00000000 		.word	0
ARM GAS  /tmp/ccOSbeko.s 			page 20


 1082              		.section	.rodata.str1.4,"aMS",%progbits,1
 1083              		.align	2
 1084              	.LC0:
 1085 0000 4100     		.ascii	"A\000"
 1086 0002 0000     		.space	2
 1087              	.LC1:
 1088 0004 4200     		.ascii	"B\000"
 1089 0006 0000     		.space	2
 1090              	.LC2:
 1091 0008 4300     		.ascii	"C\000"
 1092 000a 0000     		.space	2
 1093              	.LC3:
 1094 000c 4400     		.ascii	"D\000"
 1095 000e 0000     		.space	2
 1096              	.LC4:
 1097 0010 4500     		.ascii	"E\000"
 1098 0012 0000     		.space	2
 1099              	.LC5:
 1100 0014 41424344 		.ascii	"ABCDE\000"
 1100      4500
 1101 001a 0000     		.space	2
 1102              	.LC6:
 1103 001c 42696E61 		.ascii	"Binary Semaphores, functionality\000"
 1103      72792053 
 1103      656D6170 
 1103      686F7265 
 1103      732C2066 
 1104 003d 000000   		.space	3
 1105              	.LC7:
 1106 0040 53656D61 		.ascii	"Semaphores, atomic signal-wait\000"
 1106      70686F72 
 1106      65732C20 
 1106      61746F6D 
 1106      69632073 
 1107 005f 00       		.space	1
 1108              	.LC8:
 1109 0060 53656D61 		.ascii	"Semaphores, timeout\000"
 1109      70686F72 
 1109      65732C20 
 1109      74696D65 
 1109      6F757400 
 1110              	.LC9:
 1111 0074 53656D61 		.ascii	"Semaphores, enqueuing\000"
 1111      70686F72 
 1111      65732C20 
 1111      656E7175 
 1111      6575696E 
 1112 008a 0000     		.text
 1113              	.Letext0:
 1114              		.file 2 "/usr/lib/gcc/arm-none-eabi/4.8.3/include/stddef.h"
 1115              		.file 3 "/usr/arm-none-eabi/include/stdint.h"
 1116              		.file 4 "../../../os/ports/GCC/ARMCMx/chtypes.h"
 1117              		.file 5 "../../../os/kernel/include/chlists.h"
 1118              		.file 6 "../../../os/kernel/include/chthreads.h"
 1119              		.file 7 "../../../os/ports/GCC/ARMCMx/chcore_v7m.h"
 1120              		.file 8 "../../../os/kernel/include/chvt.h"
 1121              		.file 9 "../../../os/kernel/include/chschd.h"
ARM GAS  /tmp/ccOSbeko.s 			page 21


 1122              		.file 10 "../../../os/kernel/include/chsem.h"
 1123              		.file 11 "../../../os/kernel/include/chbsem.h"
 1124              		.file 12 "../../../os/kernel/include/chmtx.h"
 1125              		.file 13 "../../../test/test.h"
 1126              		.file 14 "../../../os/kernel/include/chdebug.h"
 1127              		.section	.debug_info,"",%progbits
 1128              	.Ldebug_info0:
 1129 0000 FB100000 		.4byte	0x10fb
 1130 0004 0400     		.2byte	0x4
 1131 0006 00000000 		.4byte	.Ldebug_abbrev0
 1132 000a 04       		.byte	0x4
 1133 000b 01       		.uleb128 0x1
 1134 000c 9B030000 		.4byte	.LASF127
 1135 0010 01       		.byte	0x1
 1136 0011 68050000 		.4byte	.LASF128
 1137 0015 4E020000 		.4byte	.LASF129
 1138 0019 48000000 		.4byte	.Ldebug_ranges0+0x48
 1139 001d 00000000 		.4byte	0
 1140 0021 00000000 		.4byte	.Ldebug_line0
 1141 0025 02       		.uleb128 0x2
 1142 0026 04       		.byte	0x4
 1143 0027 05       		.byte	0x5
 1144 0028 696E7400 		.ascii	"int\000"
 1145 002c 03       		.uleb128 0x3
 1146 002d 1B000000 		.4byte	.LASF2
 1147 0031 02       		.byte	0x2
 1148 0032 D4       		.byte	0xd4
 1149 0033 37000000 		.4byte	0x37
 1150 0037 04       		.uleb128 0x4
 1151 0038 04       		.byte	0x4
 1152 0039 07       		.byte	0x7
 1153 003a 8C010000 		.4byte	.LASF0
 1154 003e 04       		.uleb128 0x4
 1155 003f 01       		.byte	0x1
 1156 0040 06       		.byte	0x6
 1157 0041 8C000000 		.4byte	.LASF1
 1158 0045 03       		.uleb128 0x3
 1159 0046 D7050000 		.4byte	.LASF3
 1160 004a 03       		.byte	0x3
 1161 004b 2A       		.byte	0x2a
 1162 004c 50000000 		.4byte	0x50
 1163 0050 04       		.uleb128 0x4
 1164 0051 01       		.byte	0x1
 1165 0052 08       		.byte	0x8
 1166 0053 83040000 		.4byte	.LASF4
 1167 0057 04       		.uleb128 0x4
 1168 0058 02       		.byte	0x2
 1169 0059 05       		.byte	0x5
 1170 005a AA040000 		.4byte	.LASF5
 1171 005e 04       		.uleb128 0x4
 1172 005f 02       		.byte	0x2
 1173 0060 07       		.byte	0x7
 1174 0061 11020000 		.4byte	.LASF6
 1175 0065 03       		.uleb128 0x3
 1176 0066 7B040000 		.4byte	.LASF7
 1177 006a 03       		.byte	0x3
 1178 006b 4F       		.byte	0x4f
ARM GAS  /tmp/ccOSbeko.s 			page 22


 1179 006c 70000000 		.4byte	0x70
 1180 0070 04       		.uleb128 0x4
 1181 0071 04       		.byte	0x4
 1182 0072 05       		.byte	0x5
 1183 0073 EE000000 		.4byte	.LASF8
 1184 0077 03       		.uleb128 0x3
 1185 0078 06050000 		.4byte	.LASF9
 1186 007c 03       		.byte	0x3
 1187 007d 50       		.byte	0x50
 1188 007e 82000000 		.4byte	0x82
 1189 0082 04       		.uleb128 0x4
 1190 0083 04       		.byte	0x4
 1191 0084 07       		.byte	0x7
 1192 0085 E3010000 		.4byte	.LASF10
 1193 0089 04       		.uleb128 0x4
 1194 008a 08       		.byte	0x8
 1195 008b 05       		.byte	0x5
 1196 008c 7E000000 		.4byte	.LASF11
 1197 0090 03       		.uleb128 0x3
 1198 0091 36000000 		.4byte	.LASF12
 1199 0095 03       		.byte	0x3
 1200 0096 78       		.byte	0x78
 1201 0097 9B000000 		.4byte	0x9b
 1202 009b 04       		.uleb128 0x4
 1203 009c 08       		.byte	0x8
 1204 009d 07       		.byte	0x7
 1205 009e 46000000 		.4byte	.LASF13
 1206 00a2 03       		.uleb128 0x3
 1207 00a3 B0000000 		.4byte	.LASF14
 1208 00a7 04       		.byte	0x4
 1209 00a8 24       		.byte	0x24
 1210 00a9 AD000000 		.4byte	0xad
 1211 00ad 04       		.uleb128 0x4
 1212 00ae 01       		.byte	0x1
 1213 00af 02       		.byte	0x2
 1214 00b0 75040000 		.4byte	.LASF15
 1215 00b4 03       		.uleb128 0x3
 1216 00b5 3A020000 		.4byte	.LASF16
 1217 00b9 04       		.byte	0x4
 1218 00ba 25       		.byte	0x25
 1219 00bb 45000000 		.4byte	0x45
 1220 00bf 03       		.uleb128 0x3
 1221 00c0 03010000 		.4byte	.LASF17
 1222 00c4 04       		.byte	0x4
 1223 00c5 26       		.byte	0x26
 1224 00c6 45000000 		.4byte	0x45
 1225 00ca 03       		.uleb128 0x3
 1226 00cb 7C030000 		.4byte	.LASF18
 1227 00cf 04       		.byte	0x4
 1228 00d0 27       		.byte	0x27
 1229 00d1 45000000 		.4byte	0x45
 1230 00d5 03       		.uleb128 0x3
 1231 00d6 D7000000 		.4byte	.LASF19
 1232 00da 04       		.byte	0x4
 1233 00db 28       		.byte	0x28
 1234 00dc 45000000 		.4byte	0x45
 1235 00e0 03       		.uleb128 0x3
ARM GAS  /tmp/ccOSbeko.s 			page 23


 1236 00e1 93030000 		.4byte	.LASF20
 1237 00e5 04       		.byte	0x4
 1238 00e6 29       		.byte	0x29
 1239 00e7 77000000 		.4byte	0x77
 1240 00eb 03       		.uleb128 0x3
 1241 00ec 34020000 		.4byte	.LASF21
 1242 00f0 04       		.byte	0x4
 1243 00f1 2A       		.byte	0x2a
 1244 00f2 65000000 		.4byte	0x65
 1245 00f6 03       		.uleb128 0x3
 1246 00f7 7E020000 		.4byte	.LASF22
 1247 00fb 04       		.byte	0x4
 1248 00fc 2C       		.byte	0x2c
 1249 00fd 77000000 		.4byte	0x77
 1250 0101 03       		.uleb128 0x3
 1251 0102 40050000 		.4byte	.LASF23
 1252 0106 04       		.byte	0x4
 1253 0107 2E       		.byte	0x2e
 1254 0108 77000000 		.4byte	0x77
 1255 010c 03       		.uleb128 0x3
 1256 010d 7B010000 		.4byte	.LASF24
 1257 0111 04       		.byte	0x4
 1258 0112 2F       		.byte	0x2f
 1259 0113 65000000 		.4byte	0x65
 1260 0117 03       		.uleb128 0x3
 1261 0118 EB040000 		.4byte	.LASF25
 1262 011c 05       		.byte	0x5
 1263 011d 23       		.byte	0x23
 1264 011e 22010000 		.4byte	0x122
 1265 0122 05       		.uleb128 0x5
 1266 0123 EB040000 		.4byte	.LASF25
 1267 0127 4C       		.byte	0x4c
 1268 0128 06       		.byte	0x6
 1269 0129 57       		.byte	0x57
 1270 012a 2B020000 		.4byte	0x22b
 1271 012e 06       		.uleb128 0x6
 1272 012f DC040000 		.4byte	.LASF26
 1273 0133 06       		.byte	0x6
 1274 0134 58       		.byte	0x58
 1275 0135 4C020000 		.4byte	0x24c
 1276 0139 00       		.byte	0
 1277 013a 06       		.uleb128 0x6
 1278 013b 84030000 		.4byte	.LASF27
 1279 013f 06       		.byte	0x6
 1280 0140 5A       		.byte	0x5a
 1281 0141 4C020000 		.4byte	0x24c
 1282 0145 04       		.byte	0x4
 1283 0146 06       		.uleb128 0x6
 1284 0147 77000000 		.4byte	.LASF28
 1285 014b 06       		.byte	0x6
 1286 014c 5C       		.byte	0x5c
 1287 014d E0000000 		.4byte	0xe0
 1288 0151 08       		.byte	0x8
 1289 0152 06       		.uleb128 0x6
 1290 0153 1B060000 		.4byte	.LASF29
 1291 0157 06       		.byte	0x6
 1292 0158 5D       		.byte	0x5d
ARM GAS  /tmp/ccOSbeko.s 			page 24


 1293 0159 11030000 		.4byte	0x311
 1294 015d 0C       		.byte	0xc
 1295 015e 06       		.uleb128 0x6
 1296 015f 31010000 		.4byte	.LASF30
 1297 0163 06       		.byte	0x6
 1298 0164 5F       		.byte	0x5f
 1299 0165 4C020000 		.4byte	0x24c
 1300 0169 10       		.byte	0x10
 1301 016a 06       		.uleb128 0x6
 1302 016b FF020000 		.4byte	.LASF31
 1303 016f 06       		.byte	0x6
 1304 0170 60       		.byte	0x60
 1305 0171 4C020000 		.4byte	0x24c
 1306 0175 14       		.byte	0x14
 1307 0176 06       		.uleb128 0x6
 1308 0177 E6050000 		.4byte	.LASF32
 1309 017b 06       		.byte	0x6
 1310 017c 67       		.byte	0x67
 1311 017d 1B050000 		.4byte	0x51b
 1312 0181 18       		.byte	0x18
 1313 0182 06       		.uleb128 0x6
 1314 0183 81010000 		.4byte	.LASF33
 1315 0187 06       		.byte	0x6
 1316 0188 6D       		.byte	0x6d
 1317 0189 2D050000 		.4byte	0x52d
 1318 018d 1C       		.byte	0x1c
 1319 018e 06       		.uleb128 0x6
 1320 018f B4040000 		.4byte	.LASF34
 1321 0193 06       		.byte	0x6
 1322 0194 72       		.byte	0x72
 1323 0195 BF000000 		.4byte	0xbf
 1324 0199 20       		.byte	0x20
 1325 019a 06       		.uleb128 0x6
 1326 019b E3040000 		.4byte	.LASF35
 1327 019f 06       		.byte	0x6
 1328 01a0 76       		.byte	0x76
 1329 01a1 B4000000 		.4byte	0xb4
 1330 01a5 21       		.byte	0x21
 1331 01a6 06       		.uleb128 0x6
 1332 01a7 C0050000 		.4byte	.LASF36
 1333 01ab 06       		.byte	0x6
 1334 01ac 7B       		.byte	0x7b
 1335 01ad CA000000 		.4byte	0xca
 1336 01b1 22       		.byte	0x22
 1337 01b2 06       		.uleb128 0x6
 1338 01b3 BC040000 		.4byte	.LASF37
 1339 01b7 06       		.byte	0x6
 1340 01b8 81       		.byte	0x81
 1341 01b9 D5000000 		.4byte	0xd5
 1342 01bd 23       		.byte	0x23
 1343 01be 06       		.uleb128 0x6
 1344 01bf 80050000 		.4byte	.LASF38
 1345 01c3 06       		.byte	0x6
 1346 01c4 88       		.byte	0x88
 1347 01c5 E8030000 		.4byte	0x3e8
 1348 01c9 24       		.byte	0x24
 1349 01ca 07       		.uleb128 0x7
ARM GAS  /tmp/ccOSbeko.s 			page 25


 1350 01cb 705F7500 		.ascii	"p_u\000"
 1351 01cf 06       		.byte	0x6
 1352 01d0 AD       		.byte	0xad
 1353 01d1 E6040000 		.4byte	0x4e6
 1354 01d5 28       		.byte	0x28
 1355 01d6 06       		.uleb128 0x6
 1356 01d7 21060000 		.4byte	.LASF39
 1357 01db 06       		.byte	0x6
 1358 01dc B2       		.byte	0xb2
 1359 01dd 72020000 		.4byte	0x272
 1360 01e1 2C       		.byte	0x2c
 1361 01e2 06       		.uleb128 0x6
 1362 01e3 8E050000 		.4byte	.LASF40
 1363 01e7 06       		.byte	0x6
 1364 01e8 B8       		.byte	0xb8
 1365 01e9 52020000 		.4byte	0x252
 1366 01ed 30       		.byte	0x30
 1367 01ee 06       		.uleb128 0x6
 1368 01ef 08000000 		.4byte	.LASF41
 1369 01f3 06       		.byte	0x6
 1370 01f4 BC       		.byte	0xbc
 1371 01f5 EB000000 		.4byte	0xeb
 1372 01f9 38       		.byte	0x38
 1373 01fa 06       		.uleb128 0x6
 1374 01fb FB040000 		.4byte	.LASF42
 1375 01ff 06       		.byte	0x6
 1376 0200 C2       		.byte	0xc2
 1377 0201 F6000000 		.4byte	0xf6
 1378 0205 3C       		.byte	0x3c
 1379 0206 06       		.uleb128 0x6
 1380 0207 A0040000 		.4byte	.LASF43
 1381 020b 06       		.byte	0x6
 1382 020c C9       		.byte	0xc9
 1383 020d 33050000 		.4byte	0x533
 1384 0211 40       		.byte	0x40
 1385 0212 06       		.uleb128 0x6
 1386 0213 4A050000 		.4byte	.LASF44
 1387 0217 06       		.byte	0x6
 1388 0218 CD       		.byte	0xcd
 1389 0219 E0000000 		.4byte	0xe0
 1390 021d 44       		.byte	0x44
 1391 021e 06       		.uleb128 0x6
 1392 021f A8000000 		.4byte	.LASF45
 1393 0223 06       		.byte	0x6
 1394 0224 D3       		.byte	0xd3
 1395 0225 88020000 		.4byte	0x288
 1396 0229 48       		.byte	0x48
 1397 022a 00       		.byte	0
 1398 022b 08       		.uleb128 0x8
 1399 022c 08       		.byte	0x8
 1400 022d 05       		.byte	0x5
 1401 022e 5A       		.byte	0x5a
 1402 022f 4C020000 		.4byte	0x24c
 1403 0233 06       		.uleb128 0x6
 1404 0234 DC040000 		.4byte	.LASF26
 1405 0238 05       		.byte	0x5
 1406 0239 5B       		.byte	0x5b
ARM GAS  /tmp/ccOSbeko.s 			page 26


 1407 023a 4C020000 		.4byte	0x24c
 1408 023e 00       		.byte	0
 1409 023f 06       		.uleb128 0x6
 1410 0240 84030000 		.4byte	.LASF27
 1411 0244 05       		.byte	0x5
 1412 0245 5D       		.byte	0x5d
 1413 0246 4C020000 		.4byte	0x24c
 1414 024a 04       		.byte	0x4
 1415 024b 00       		.byte	0
 1416 024c 09       		.uleb128 0x9
 1417 024d 04       		.byte	0x4
 1418 024e 17010000 		.4byte	0x117
 1419 0252 03       		.uleb128 0x3
 1420 0253 25030000 		.4byte	.LASF46
 1421 0257 05       		.byte	0x5
 1422 0258 5F       		.byte	0x5f
 1423 0259 2B020000 		.4byte	0x22b
 1424 025d 08       		.uleb128 0x8
 1425 025e 04       		.byte	0x4
 1426 025f 05       		.byte	0x5
 1427 0260 64       		.byte	0x64
 1428 0261 72020000 		.4byte	0x272
 1429 0265 06       		.uleb128 0x6
 1430 0266 DC040000 		.4byte	.LASF26
 1431 026a 05       		.byte	0x5
 1432 026b 66       		.byte	0x66
 1433 026c 4C020000 		.4byte	0x24c
 1434 0270 00       		.byte	0
 1435 0271 00       		.byte	0
 1436 0272 03       		.uleb128 0x3
 1437 0273 42020000 		.4byte	.LASF47
 1438 0277 05       		.byte	0x5
 1439 0278 69       		.byte	0x69
 1440 0279 5D020000 		.4byte	0x25d
 1441 027d 03       		.uleb128 0x3
 1442 027e 5A010000 		.4byte	.LASF48
 1443 0282 07       		.byte	0x7
 1444 0283 DE       		.byte	0xde
 1445 0284 88020000 		.4byte	0x288
 1446 0288 0A       		.uleb128 0xa
 1447 0289 04       		.byte	0x4
 1448 028a 03       		.uleb128 0x3
 1449 028b 90020000 		.4byte	.LASF49
 1450 028f 07       		.byte	0x7
 1451 0290 E4       		.byte	0xe4
 1452 0291 90000000 		.4byte	0x90
 1453 0295 0B       		.uleb128 0xb
 1454 0296 87050000 		.4byte	.LASF50
 1455 029a 24       		.byte	0x24
 1456 029b 07       		.byte	0x7
 1457 029c 0501     		.2byte	0x105
 1458 029e 11030000 		.4byte	0x311
 1459 02a2 0C       		.uleb128 0xc
 1460 02a3 723400   		.ascii	"r4\000"
 1461 02a6 07       		.byte	0x7
 1462 02a7 1801     		.2byte	0x118
 1463 02a9 7D020000 		.4byte	0x27d
ARM GAS  /tmp/ccOSbeko.s 			page 27


 1464 02ad 00       		.byte	0
 1465 02ae 0C       		.uleb128 0xc
 1466 02af 723500   		.ascii	"r5\000"
 1467 02b2 07       		.byte	0x7
 1468 02b3 1901     		.2byte	0x119
 1469 02b5 7D020000 		.4byte	0x27d
 1470 02b9 04       		.byte	0x4
 1471 02ba 0C       		.uleb128 0xc
 1472 02bb 723600   		.ascii	"r6\000"
 1473 02be 07       		.byte	0x7
 1474 02bf 1A01     		.2byte	0x11a
 1475 02c1 7D020000 		.4byte	0x27d
 1476 02c5 08       		.byte	0x8
 1477 02c6 0C       		.uleb128 0xc
 1478 02c7 723700   		.ascii	"r7\000"
 1479 02ca 07       		.byte	0x7
 1480 02cb 1B01     		.2byte	0x11b
 1481 02cd 7D020000 		.4byte	0x27d
 1482 02d1 0C       		.byte	0xc
 1483 02d2 0C       		.uleb128 0xc
 1484 02d3 723800   		.ascii	"r8\000"
 1485 02d6 07       		.byte	0x7
 1486 02d7 1C01     		.2byte	0x11c
 1487 02d9 7D020000 		.4byte	0x27d
 1488 02dd 10       		.byte	0x10
 1489 02de 0C       		.uleb128 0xc
 1490 02df 723900   		.ascii	"r9\000"
 1491 02e2 07       		.byte	0x7
 1492 02e3 1D01     		.2byte	0x11d
 1493 02e5 7D020000 		.4byte	0x27d
 1494 02e9 14       		.byte	0x14
 1495 02ea 0C       		.uleb128 0xc
 1496 02eb 72313000 		.ascii	"r10\000"
 1497 02ef 07       		.byte	0x7
 1498 02f0 1E01     		.2byte	0x11e
 1499 02f2 7D020000 		.4byte	0x27d
 1500 02f6 18       		.byte	0x18
 1501 02f7 0C       		.uleb128 0xc
 1502 02f8 72313100 		.ascii	"r11\000"
 1503 02fc 07       		.byte	0x7
 1504 02fd 1F01     		.2byte	0x11f
 1505 02ff 7D020000 		.4byte	0x27d
 1506 0303 1C       		.byte	0x1c
 1507 0304 0C       		.uleb128 0xc
 1508 0305 6C7200   		.ascii	"lr\000"
 1509 0308 07       		.byte	0x7
 1510 0309 2001     		.2byte	0x120
 1511 030b 7D020000 		.4byte	0x27d
 1512 030f 20       		.byte	0x20
 1513 0310 00       		.byte	0
 1514 0311 0B       		.uleb128 0xb
 1515 0312 09020000 		.4byte	.LASF51
 1516 0316 04       		.byte	0x4
 1517 0317 07       		.byte	0x7
 1518 0318 2A01     		.2byte	0x12a
 1519 031a 2C030000 		.4byte	0x32c
 1520 031e 0C       		.uleb128 0xc
ARM GAS  /tmp/ccOSbeko.s 			page 28


 1521 031f 72313300 		.ascii	"r13\000"
 1522 0323 07       		.byte	0x7
 1523 0324 2B01     		.2byte	0x12b
 1524 0326 2C030000 		.4byte	0x32c
 1525 032a 00       		.byte	0
 1526 032b 00       		.byte	0
 1527 032c 09       		.uleb128 0x9
 1528 032d 04       		.byte	0x4
 1529 032e 95020000 		.4byte	0x295
 1530 0332 04       		.uleb128 0x4
 1531 0333 04       		.byte	0x4
 1532 0334 07       		.byte	0x7
 1533 0335 C2020000 		.4byte	.LASF52
 1534 0339 03       		.uleb128 0x3
 1535 033a 55050000 		.4byte	.LASF53
 1536 033e 08       		.byte	0x8
 1537 033f 51       		.byte	0x51
 1538 0340 44030000 		.4byte	0x344
 1539 0344 09       		.uleb128 0x9
 1540 0345 04       		.byte	0x4
 1541 0346 4A030000 		.4byte	0x34a
 1542 034a 0D       		.uleb128 0xd
 1543 034b 55030000 		.4byte	0x355
 1544 034f 0E       		.uleb128 0xe
 1545 0350 88020000 		.4byte	0x288
 1546 0354 00       		.byte	0
 1547 0355 03       		.uleb128 0x3
 1548 0356 17050000 		.4byte	.LASF54
 1549 035a 08       		.byte	0x8
 1550 035b 56       		.byte	0x56
 1551 035c 60030000 		.4byte	0x360
 1552 0360 05       		.uleb128 0x5
 1553 0361 17050000 		.4byte	.LASF54
 1554 0365 14       		.byte	0x14
 1555 0366 08       		.byte	0x8
 1556 0367 5D       		.byte	0x5d
 1557 0368 A9030000 		.4byte	0x3a9
 1558 036c 06       		.uleb128 0x6
 1559 036d AA010000 		.4byte	.LASF55
 1560 0371 08       		.byte	0x8
 1561 0372 5E       		.byte	0x5e
 1562 0373 A9030000 		.4byte	0x3a9
 1563 0377 00       		.byte	0
 1564 0378 06       		.uleb128 0x6
 1565 0379 63010000 		.4byte	.LASF56
 1566 037d 08       		.byte	0x8
 1567 037e 60       		.byte	0x60
 1568 037f A9030000 		.4byte	0x3a9
 1569 0383 04       		.byte	0x4
 1570 0384 06       		.uleb128 0x6
 1571 0385 BA020000 		.4byte	.LASF57
 1572 0389 08       		.byte	0x8
 1573 038a 62       		.byte	0x62
 1574 038b 01010000 		.4byte	0x101
 1575 038f 08       		.byte	0x8
 1576 0390 06       		.uleb128 0x6
 1577 0391 CB020000 		.4byte	.LASF58
ARM GAS  /tmp/ccOSbeko.s 			page 29


 1578 0395 08       		.byte	0x8
 1579 0396 63       		.byte	0x63
 1580 0397 39030000 		.4byte	0x339
 1581 039b 0C       		.byte	0xc
 1582 039c 06       		.uleb128 0x6
 1583 039d 99050000 		.4byte	.LASF59
 1584 03a1 08       		.byte	0x8
 1585 03a2 65       		.byte	0x65
 1586 03a3 88020000 		.4byte	0x288
 1587 03a7 10       		.byte	0x10
 1588 03a8 00       		.byte	0
 1589 03a9 09       		.uleb128 0x9
 1590 03aa 04       		.byte	0x4
 1591 03ab 55030000 		.4byte	0x355
 1592 03af 08       		.uleb128 0x8
 1593 03b0 10       		.byte	0x10
 1594 03b1 08       		.byte	0x8
 1595 03b2 6F       		.byte	0x6f
 1596 03b3 E8030000 		.4byte	0x3e8
 1597 03b7 06       		.uleb128 0x6
 1598 03b8 AA010000 		.4byte	.LASF55
 1599 03bc 08       		.byte	0x8
 1600 03bd 70       		.byte	0x70
 1601 03be A9030000 		.4byte	0x3a9
 1602 03c2 00       		.byte	0
 1603 03c3 06       		.uleb128 0x6
 1604 03c4 63010000 		.4byte	.LASF56
 1605 03c8 08       		.byte	0x8
 1606 03c9 72       		.byte	0x72
 1607 03ca A9030000 		.4byte	0x3a9
 1608 03ce 04       		.byte	0x4
 1609 03cf 06       		.uleb128 0x6
 1610 03d0 BA020000 		.4byte	.LASF57
 1611 03d4 08       		.byte	0x8
 1612 03d5 74       		.byte	0x74
 1613 03d6 01010000 		.4byte	0x101
 1614 03da 08       		.byte	0x8
 1615 03db 06       		.uleb128 0x6
 1616 03dc FA050000 		.4byte	.LASF60
 1617 03e0 08       		.byte	0x8
 1618 03e1 75       		.byte	0x75
 1619 03e2 E8030000 		.4byte	0x3e8
 1620 03e6 0C       		.byte	0xc
 1621 03e7 00       		.byte	0
 1622 03e8 0F       		.uleb128 0xf
 1623 03e9 01010000 		.4byte	0x101
 1624 03ed 03       		.uleb128 0x3
 1625 03ee 0C060000 		.4byte	.LASF61
 1626 03f2 08       		.byte	0x8
 1627 03f3 76       		.byte	0x76
 1628 03f4 AF030000 		.4byte	0x3af
 1629 03f8 08       		.uleb128 0x8
 1630 03f9 1C       		.byte	0x1c
 1631 03fa 09       		.byte	0x9
 1632 03fb 57       		.byte	0x57
 1633 03fc 49040000 		.4byte	0x449
 1634 0400 06       		.uleb128 0x6
ARM GAS  /tmp/ccOSbeko.s 			page 30


 1635 0401 0F050000 		.4byte	.LASF62
 1636 0405 09       		.byte	0x9
 1637 0406 58       		.byte	0x58
 1638 0407 52020000 		.4byte	0x252
 1639 040b 00       		.byte	0
 1640 040c 06       		.uleb128 0x6
 1641 040d CE040000 		.4byte	.LASF63
 1642 0411 09       		.byte	0x9
 1643 0412 59       		.byte	0x59
 1644 0413 E0000000 		.4byte	0xe0
 1645 0417 08       		.byte	0x8
 1646 0418 06       		.uleb128 0x6
 1647 0419 17030000 		.4byte	.LASF64
 1648 041d 09       		.byte	0x9
 1649 041e 5B       		.byte	0x5b
 1650 041f 11030000 		.4byte	0x311
 1651 0423 0C       		.byte	0xc
 1652 0424 06       		.uleb128 0x6
 1653 0425 52010000 		.4byte	.LASF65
 1654 0429 09       		.byte	0x9
 1655 042a 5E       		.byte	0x5e
 1656 042b 4C020000 		.4byte	0x24c
 1657 042f 10       		.byte	0x10
 1658 0430 06       		.uleb128 0x6
 1659 0431 58030000 		.4byte	.LASF66
 1660 0435 09       		.byte	0x9
 1661 0436 5F       		.byte	0x5f
 1662 0437 4C020000 		.4byte	0x24c
 1663 043b 14       		.byte	0x14
 1664 043c 06       		.uleb128 0x6
 1665 043d 4E030000 		.4byte	.LASF67
 1666 0441 09       		.byte	0x9
 1667 0442 62       		.byte	0x62
 1668 0443 4C020000 		.4byte	0x24c
 1669 0447 18       		.byte	0x18
 1670 0448 00       		.byte	0
 1671 0449 03       		.uleb128 0x3
 1672 044a C7050000 		.4byte	.LASF68
 1673 044e 09       		.byte	0x9
 1674 044f 64       		.byte	0x64
 1675 0450 F8030000 		.4byte	0x3f8
 1676 0454 05       		.uleb128 0x5
 1677 0455 A0050000 		.4byte	.LASF69
 1678 0459 0C       		.byte	0xc
 1679 045a 0A       		.byte	0xa
 1680 045b 25       		.byte	0x25
 1681 045c 79040000 		.4byte	0x479
 1682 0460 06       		.uleb128 0x6
 1683 0461 39010000 		.4byte	.LASF70
 1684 0465 0A       		.byte	0xa
 1685 0466 26       		.byte	0x26
 1686 0467 52020000 		.4byte	0x252
 1687 046b 00       		.byte	0
 1688 046c 06       		.uleb128 0x6
 1689 046d 03020000 		.4byte	.LASF71
 1690 0471 0A       		.byte	0xa
 1691 0472 28       		.byte	0x28
ARM GAS  /tmp/ccOSbeko.s 			page 31


 1692 0473 0C010000 		.4byte	0x10c
 1693 0477 08       		.byte	0x8
 1694 0478 00       		.byte	0
 1695 0479 03       		.uleb128 0x3
 1696 047a A0050000 		.4byte	.LASF69
 1697 047e 0A       		.byte	0xa
 1698 047f 29       		.byte	0x29
 1699 0480 54040000 		.4byte	0x454
 1700 0484 08       		.uleb128 0x8
 1701 0485 0C       		.byte	0xc
 1702 0486 0B       		.byte	0xb
 1703 0487 3D       		.byte	0x3d
 1704 0488 99040000 		.4byte	0x499
 1705 048c 06       		.uleb128 0x6
 1706 048d 05060000 		.4byte	.LASF72
 1707 0491 0B       		.byte	0xb
 1708 0492 3E       		.byte	0x3e
 1709 0493 79040000 		.4byte	0x479
 1710 0497 00       		.byte	0
 1711 0498 00       		.byte	0
 1712 0499 03       		.uleb128 0x3
 1713 049a 29050000 		.4byte	.LASF73
 1714 049e 0B       		.byte	0xb
 1715 049f 3F       		.byte	0x3f
 1716 04a0 84040000 		.4byte	0x484
 1717 04a4 05       		.uleb128 0x5
 1718 04a5 8A020000 		.4byte	.LASF74
 1719 04a9 10       		.byte	0x10
 1720 04aa 0C       		.byte	0xc
 1721 04ab 25       		.byte	0x25
 1722 04ac D5040000 		.4byte	0x4d5
 1723 04b0 06       		.uleb128 0x6
 1724 04b1 B7000000 		.4byte	.LASF75
 1725 04b5 0C       		.byte	0xc
 1726 04b6 26       		.byte	0x26
 1727 04b7 52020000 		.4byte	0x252
 1728 04bb 00       		.byte	0
 1729 04bc 06       		.uleb128 0x6
 1730 04bd 13060000 		.4byte	.LASF76
 1731 04c1 0C       		.byte	0xc
 1732 04c2 28       		.byte	0x28
 1733 04c3 4C020000 		.4byte	0x24c
 1734 04c7 08       		.byte	0x8
 1735 04c8 06       		.uleb128 0x6
 1736 04c9 39050000 		.4byte	.LASF77
 1737 04cd 0C       		.byte	0xc
 1738 04ce 2A       		.byte	0x2a
 1739 04cf D5040000 		.4byte	0x4d5
 1740 04d3 0C       		.byte	0xc
 1741 04d4 00       		.byte	0
 1742 04d5 09       		.uleb128 0x9
 1743 04d6 04       		.byte	0x4
 1744 04d7 A4040000 		.4byte	0x4a4
 1745 04db 03       		.uleb128 0x3
 1746 04dc 8A020000 		.4byte	.LASF74
 1747 04e0 0C       		.byte	0xc
 1748 04e1 2C       		.byte	0x2c
ARM GAS  /tmp/ccOSbeko.s 			page 32


 1749 04e2 A4040000 		.4byte	0x4a4
 1750 04e6 10       		.uleb128 0x10
 1751 04e7 04       		.byte	0x4
 1752 04e8 06       		.byte	0x6
 1753 04e9 8F       		.byte	0x8f
 1754 04ea 1B050000 		.4byte	0x51b
 1755 04ee 11       		.uleb128 0x11
 1756 04ef 22000000 		.4byte	.LASF78
 1757 04f3 06       		.byte	0x6
 1758 04f4 96       		.byte	0x96
 1759 04f5 EB000000 		.4byte	0xeb
 1760 04f9 11       		.uleb128 0x11
 1761 04fa 5D000000 		.4byte	.LASF79
 1762 04fe 06       		.byte	0x6
 1763 04ff 9D       		.byte	0x9d
 1764 0500 EB000000 		.4byte	0xeb
 1765 0504 11       		.uleb128 0x11
 1766 0505 DF050000 		.4byte	.LASF80
 1767 0509 06       		.byte	0x6
 1768 050a A4       		.byte	0xa4
 1769 050b 88020000 		.4byte	0x288
 1770 050f 11       		.uleb128 0x11
 1771 0510 D5040000 		.4byte	.LASF81
 1772 0514 06       		.byte	0x6
 1773 0515 AB       		.byte	0xab
 1774 0516 F6000000 		.4byte	0xf6
 1775 051a 00       		.byte	0
 1776 051b 09       		.uleb128 0x9
 1777 051c 04       		.byte	0x4
 1778 051d 21050000 		.4byte	0x521
 1779 0521 12       		.uleb128 0x12
 1780 0522 26050000 		.4byte	0x526
 1781 0526 04       		.uleb128 0x4
 1782 0527 01       		.byte	0x1
 1783 0528 08       		.byte	0x8
 1784 0529 24050000 		.4byte	.LASF82
 1785 052d 09       		.uleb128 0x9
 1786 052e 04       		.byte	0x4
 1787 052f 8A020000 		.4byte	0x28a
 1788 0533 09       		.uleb128 0x9
 1789 0534 04       		.byte	0x4
 1790 0535 DB040000 		.4byte	0x4db
 1791 0539 03       		.uleb128 0x3
 1792 053a 00000000 		.4byte	.LASF83
 1793 053e 06       		.byte	0x6
 1794 053f DE       		.byte	0xde
 1795 0540 44050000 		.4byte	0x544
 1796 0544 09       		.uleb128 0x9
 1797 0545 04       		.byte	0x4
 1798 0546 4A050000 		.4byte	0x54a
 1799 054a 13       		.uleb128 0x13
 1800 054b EB000000 		.4byte	0xeb
 1801 054f 59050000 		.4byte	0x559
 1802 0553 0E       		.uleb128 0xe
 1803 0554 88020000 		.4byte	0x288
 1804 0558 00       		.byte	0
 1805 0559 05       		.uleb128 0x5
ARM GAS  /tmp/ccOSbeko.s 			page 33


 1806 055a F2040000 		.4byte	.LASF84
 1807 055e 10       		.byte	0x10
 1808 055f 0D       		.byte	0xd
 1809 0560 3B       		.byte	0x3b
 1810 0561 96050000 		.4byte	0x596
 1811 0565 06       		.uleb128 0x6
 1812 0566 FE010000 		.4byte	.LASF85
 1813 056a 0D       		.byte	0xd
 1814 056b 3C       		.byte	0x3c
 1815 056c 1B050000 		.4byte	0x51b
 1816 0570 00       		.byte	0
 1817 0571 06       		.uleb128 0x6
 1818 0572 32030000 		.4byte	.LASF86
 1819 0576 0D       		.byte	0xd
 1820 0577 3D       		.byte	0x3d
 1821 0578 97050000 		.4byte	0x597
 1822 057c 04       		.byte	0x4
 1823 057d 06       		.uleb128 0x6
 1824 057e F5010000 		.4byte	.LASF87
 1825 0582 0D       		.byte	0xd
 1826 0583 3E       		.byte	0x3e
 1827 0584 97050000 		.4byte	0x597
 1828 0588 08       		.byte	0x8
 1829 0589 06       		.uleb128 0x6
 1830 058a 8B030000 		.4byte	.LASF88
 1831 058e 0D       		.byte	0xd
 1832 058f 3F       		.byte	0x3f
 1833 0590 97050000 		.4byte	0x597
 1834 0594 0C       		.byte	0xc
 1835 0595 00       		.byte	0
 1836 0596 14       		.uleb128 0x14
 1837 0597 09       		.uleb128 0x9
 1838 0598 04       		.byte	0x4
 1839 0599 96050000 		.4byte	0x596
 1840 059d 15       		.uleb128 0x15
 1841 059e E1000000 		.4byte	.LASF130
 1842 05a2 01       		.byte	0x1
 1843 05a3 91       		.byte	0x91
 1844 05a4 01       		.byte	0x1
 1845 05a5 C9050000 		.4byte	0x5c9
 1846 05a9 16       		.uleb128 0x16
 1847 05aa 6900     		.ascii	"i\000"
 1848 05ac 01       		.byte	0x1
 1849 05ad 92       		.byte	0x92
 1850 05ae 25000000 		.4byte	0x25
 1851 05b2 17       		.uleb128 0x17
 1852 05b3 F7000000 		.4byte	.LASF89
 1853 05b7 01       		.byte	0x1
 1854 05b8 93       		.byte	0x93
 1855 05b9 01010000 		.4byte	0x101
 1856 05bd 16       		.uleb128 0x16
 1857 05be 6D736700 		.ascii	"msg\000"
 1858 05c2 01       		.byte	0x1
 1859 05c3 94       		.byte	0x94
 1860 05c4 EB000000 		.4byte	0xeb
 1861 05c8 00       		.byte	0
 1862 05c9 18       		.uleb128 0x18
ARM GAS  /tmp/ccOSbeko.s 			page 34


 1863 05ca B2010000 		.4byte	.LASF131
 1864 05ce 01       		.byte	0x1
 1865 05cf DA       		.byte	0xda
 1866 05d0 01       		.byte	0x1
 1867 05d1 19       		.uleb128 0x19
 1868 05d2 29000000 		.4byte	.LASF92
 1869 05d6 01       		.byte	0x1
 1870 05d7 54       		.byte	0x54
 1871 05d8 00000000 		.4byte	.LFB9
 1872 05dc 40010000 		.4byte	.LFE9-.LFB9
 1873 05e0 01       		.uleb128 0x1
 1874 05e1 9C       		.byte	0x9c
 1875 05e2 12080000 		.4byte	0x812
 1876 05e6 1A       		.uleb128 0x1a
 1877 05e7 00000000 		.4byte	.Ldebug_ranges0+0
 1878 05eb FD050000 		.4byte	0x5fd
 1879 05ef 1B       		.uleb128 0x1b
 1880 05f0 746D7000 		.ascii	"tmp\000"
 1881 05f4 01       		.byte	0x1
 1882 05f5 67       		.byte	0x67
 1883 05f6 77000000 		.4byte	0x77
 1884 05fa 01       		.uleb128 0x1
 1885 05fb 53       		.byte	0x53
 1886 05fc 00       		.byte	0
 1887 05fd 1C       		.uleb128 0x1c
 1888 05fe F2000000 		.4byte	.LBB4
 1889 0602 06000000 		.4byte	.LBE4-.LBB4
 1890 0606 18060000 		.4byte	0x618
 1891 060a 1B       		.uleb128 0x1b
 1892 060b 746D7000 		.ascii	"tmp\000"
 1893 060f 01       		.byte	0x1
 1894 0610 6A       		.byte	0x6a
 1895 0611 77000000 		.4byte	0x77
 1896 0615 01       		.uleb128 0x1
 1897 0616 53       		.byte	0x53
 1898 0617 00       		.byte	0
 1899 0618 1D       		.uleb128 0x1d
 1900 0619 26000000 		.4byte	.LVL0
 1901 061d 820F0000 		.4byte	0xf82
 1902 0621 43060000 		.4byte	0x643
 1903 0625 1E       		.uleb128 0x1e
 1904 0626 01       		.uleb128 0x1
 1905 0627 53       		.byte	0x53
 1906 0628 05       		.uleb128 0x5
 1907 0629 03       		.byte	0x3
 1908 062a 00000000 		.4byte	thread1
 1909 062e 1E       		.uleb128 0x1e
 1910 062f 01       		.uleb128 0x1
 1911 0630 51       		.byte	0x51
 1912 0631 03       		.uleb128 0x3
 1913 0632 0A       		.byte	0xa
 1914 0633 3001     		.2byte	0x130
 1915 0635 1E       		.uleb128 0x1e
 1916 0636 01       		.uleb128 0x1
 1917 0637 50       		.byte	0x50
 1918 0638 02       		.uleb128 0x2
 1919 0639 78       		.byte	0x78
ARM GAS  /tmp/ccOSbeko.s 			page 35


 1920 063a 00       		.sleb128 0
 1921 063b 1E       		.uleb128 0x1e
 1922 063c 02       		.uleb128 0x2
 1923 063d 7D       		.byte	0x7d
 1924 063e 00       		.sleb128 0
 1925 063f 02       		.uleb128 0x2
 1926 0640 77       		.byte	0x77
 1927 0641 00       		.sleb128 0
 1928 0642 00       		.byte	0
 1929 0643 1D       		.uleb128 0x1d
 1930 0644 40000000 		.4byte	.LVL1
 1931 0648 820F0000 		.4byte	0xf82
 1932 064c 72060000 		.4byte	0x672
 1933 0650 1E       		.uleb128 0x1e
 1934 0651 01       		.uleb128 0x1
 1935 0652 53       		.byte	0x53
 1936 0653 05       		.uleb128 0x5
 1937 0654 03       		.byte	0x3
 1938 0655 00000000 		.4byte	thread1
 1939 0659 1E       		.uleb128 0x1e
 1940 065a 01       		.uleb128 0x1
 1941 065b 51       		.byte	0x51
 1942 065c 03       		.uleb128 0x3
 1943 065d 0A       		.byte	0xa
 1944 065e 3001     		.2byte	0x130
 1945 0660 1E       		.uleb128 0x1e
 1946 0661 01       		.uleb128 0x1
 1947 0662 50       		.byte	0x50
 1948 0663 03       		.uleb128 0x3
 1949 0664 76       		.byte	0x76
 1950 0665 04       		.sleb128 4
 1951 0666 06       		.byte	0x6
 1952 0667 1E       		.uleb128 0x1e
 1953 0668 02       		.uleb128 0x2
 1954 0669 7D       		.byte	0x7d
 1955 066a 00       		.sleb128 0
 1956 066b 05       		.uleb128 0x5
 1957 066c 03       		.byte	0x3
 1958 066d 04000000 		.4byte	.LC1
 1959 0671 00       		.byte	0
 1960 0672 1D       		.uleb128 0x1d
 1961 0673 5A000000 		.4byte	.LVL2
 1962 0677 820F0000 		.4byte	0xf82
 1963 067b A1060000 		.4byte	0x6a1
 1964 067f 1E       		.uleb128 0x1e
 1965 0680 01       		.uleb128 0x1
 1966 0681 53       		.byte	0x53
 1967 0682 05       		.uleb128 0x5
 1968 0683 03       		.byte	0x3
 1969 0684 00000000 		.4byte	thread1
 1970 0688 1E       		.uleb128 0x1e
 1971 0689 01       		.uleb128 0x1
 1972 068a 51       		.byte	0x51
 1973 068b 03       		.uleb128 0x3
 1974 068c 0A       		.byte	0xa
 1975 068d 3001     		.2byte	0x130
 1976 068f 1E       		.uleb128 0x1e
ARM GAS  /tmp/ccOSbeko.s 			page 36


 1977 0690 01       		.uleb128 0x1
 1978 0691 50       		.byte	0x50
 1979 0692 03       		.uleb128 0x3
 1980 0693 76       		.byte	0x76
 1981 0694 08       		.sleb128 8
 1982 0695 06       		.byte	0x6
 1983 0696 1E       		.uleb128 0x1e
 1984 0697 02       		.uleb128 0x2
 1985 0698 7D       		.byte	0x7d
 1986 0699 00       		.sleb128 0
 1987 069a 05       		.uleb128 0x5
 1988 069b 03       		.byte	0x3
 1989 069c 08000000 		.4byte	.LC2
 1990 06a0 00       		.byte	0
 1991 06a1 1D       		.uleb128 0x1d
 1992 06a2 74000000 		.4byte	.LVL3
 1993 06a6 820F0000 		.4byte	0xf82
 1994 06aa D0060000 		.4byte	0x6d0
 1995 06ae 1E       		.uleb128 0x1e
 1996 06af 01       		.uleb128 0x1
 1997 06b0 53       		.byte	0x53
 1998 06b1 05       		.uleb128 0x5
 1999 06b2 03       		.byte	0x3
 2000 06b3 00000000 		.4byte	thread1
 2001 06b7 1E       		.uleb128 0x1e
 2002 06b8 01       		.uleb128 0x1
 2003 06b9 51       		.byte	0x51
 2004 06ba 03       		.uleb128 0x3
 2005 06bb 0A       		.byte	0xa
 2006 06bc 3001     		.2byte	0x130
 2007 06be 1E       		.uleb128 0x1e
 2008 06bf 01       		.uleb128 0x1
 2009 06c0 50       		.byte	0x50
 2010 06c1 03       		.uleb128 0x3
 2011 06c2 76       		.byte	0x76
 2012 06c3 0C       		.sleb128 12
 2013 06c4 06       		.byte	0x6
 2014 06c5 1E       		.uleb128 0x1e
 2015 06c6 02       		.uleb128 0x2
 2016 06c7 7D       		.byte	0x7d
 2017 06c8 00       		.sleb128 0
 2018 06c9 05       		.uleb128 0x5
 2019 06ca 03       		.byte	0x3
 2020 06cb 0C000000 		.4byte	.LC3
 2021 06cf 00       		.byte	0
 2022 06d0 1D       		.uleb128 0x1d
 2023 06d1 8E000000 		.4byte	.LVL4
 2024 06d5 820F0000 		.4byte	0xf82
 2025 06d9 FF060000 		.4byte	0x6ff
 2026 06dd 1E       		.uleb128 0x1e
 2027 06de 01       		.uleb128 0x1
 2028 06df 53       		.byte	0x53
 2029 06e0 05       		.uleb128 0x5
 2030 06e1 03       		.byte	0x3
 2031 06e2 00000000 		.4byte	thread1
 2032 06e6 1E       		.uleb128 0x1e
 2033 06e7 01       		.uleb128 0x1
ARM GAS  /tmp/ccOSbeko.s 			page 37


 2034 06e8 51       		.byte	0x51
 2035 06e9 03       		.uleb128 0x3
 2036 06ea 0A       		.byte	0xa
 2037 06eb 3001     		.2byte	0x130
 2038 06ed 1E       		.uleb128 0x1e
 2039 06ee 01       		.uleb128 0x1
 2040 06ef 50       		.byte	0x50
 2041 06f0 03       		.uleb128 0x3
 2042 06f1 76       		.byte	0x76
 2043 06f2 10       		.sleb128 16
 2044 06f3 06       		.byte	0x6
 2045 06f4 1E       		.uleb128 0x1e
 2046 06f5 02       		.uleb128 0x2
 2047 06f6 7D       		.byte	0x7d
 2048 06f7 00       		.sleb128 0
 2049 06f8 05       		.uleb128 0x5
 2050 06f9 03       		.byte	0x3
 2051 06fa 10000000 		.4byte	.LC4
 2052 06fe 00       		.byte	0
 2053 06ff 1D       		.uleb128 0x1d
 2054 0700 96000000 		.4byte	.LVL5
 2055 0704 AC0F0000 		.4byte	0xfac
 2056 0708 16070000 		.4byte	0x716
 2057 070c 1E       		.uleb128 0x1e
 2058 070d 01       		.uleb128 0x1
 2059 070e 50       		.byte	0x50
 2060 070f 05       		.uleb128 0x5
 2061 0710 03       		.byte	0x3
 2062 0711 00000000 		.4byte	.LANCHOR0
 2063 0715 00       		.byte	0
 2064 0716 1D       		.uleb128 0x1d
 2065 0717 9C000000 		.4byte	.LVL6
 2066 071b AC0F0000 		.4byte	0xfac
 2067 071f 2D070000 		.4byte	0x72d
 2068 0723 1E       		.uleb128 0x1e
 2069 0724 01       		.uleb128 0x1
 2070 0725 50       		.byte	0x50
 2071 0726 05       		.uleb128 0x5
 2072 0727 03       		.byte	0x3
 2073 0728 00000000 		.4byte	.LANCHOR0
 2074 072c 00       		.byte	0
 2075 072d 1D       		.uleb128 0x1d
 2076 072e A2000000 		.4byte	.LVL7
 2077 0732 AC0F0000 		.4byte	0xfac
 2078 0736 44070000 		.4byte	0x744
 2079 073a 1E       		.uleb128 0x1e
 2080 073b 01       		.uleb128 0x1
 2081 073c 50       		.byte	0x50
 2082 073d 05       		.uleb128 0x5
 2083 073e 03       		.byte	0x3
 2084 073f 00000000 		.4byte	.LANCHOR0
 2085 0743 00       		.byte	0
 2086 0744 1D       		.uleb128 0x1d
 2087 0745 A8000000 		.4byte	.LVL8
 2088 0749 AC0F0000 		.4byte	0xfac
 2089 074d 5B070000 		.4byte	0x75b
 2090 0751 1E       		.uleb128 0x1e
ARM GAS  /tmp/ccOSbeko.s 			page 38


 2091 0752 01       		.uleb128 0x1
 2092 0753 50       		.byte	0x50
 2093 0754 05       		.uleb128 0x5
 2094 0755 03       		.byte	0x3
 2095 0756 00000000 		.4byte	.LANCHOR0
 2096 075a 00       		.byte	0
 2097 075b 1D       		.uleb128 0x1d
 2098 075c AE000000 		.4byte	.LVL9
 2099 0760 AC0F0000 		.4byte	0xfac
 2100 0764 72070000 		.4byte	0x772
 2101 0768 1E       		.uleb128 0x1e
 2102 0769 01       		.uleb128 0x1
 2103 076a 50       		.byte	0x50
 2104 076b 05       		.uleb128 0x5
 2105 076c 03       		.byte	0x3
 2106 076d 00000000 		.4byte	.LANCHOR0
 2107 0771 00       		.byte	0
 2108 0772 1F       		.uleb128 0x1f
 2109 0773 B2000000 		.4byte	.LVL10
 2110 0777 C30F0000 		.4byte	0xfc3
 2111 077b 1D       		.uleb128 0x1d
 2112 077c BA000000 		.4byte	.LVL11
 2113 0780 CA0F0000 		.4byte	0xfca
 2114 0784 97070000 		.4byte	0x797
 2115 0788 1E       		.uleb128 0x1e
 2116 0789 01       		.uleb128 0x1
 2117 078a 51       		.byte	0x51
 2118 078b 05       		.uleb128 0x5
 2119 078c 03       		.byte	0x3
 2120 078d 14000000 		.4byte	.LC5
 2121 0791 1E       		.uleb128 0x1e
 2122 0792 01       		.uleb128 0x1
 2123 0793 50       		.byte	0x50
 2124 0794 01       		.uleb128 0x1
 2125 0795 31       		.byte	0x31
 2126 0796 00       		.byte	0
 2127 0797 1D       		.uleb128 0x1d
 2128 0798 D6000000 		.4byte	.LVL12
 2129 079c 820F0000 		.4byte	0xf82
 2130 07a0 C2070000 		.4byte	0x7c2
 2131 07a4 1E       		.uleb128 0x1e
 2132 07a5 01       		.uleb128 0x1
 2133 07a6 53       		.byte	0x53
 2134 07a7 05       		.uleb128 0x5
 2135 07a8 03       		.byte	0x3
 2136 07a9 00000000 		.4byte	thread1
 2137 07ad 1E       		.uleb128 0x1e
 2138 07ae 01       		.uleb128 0x1
 2139 07af 51       		.byte	0x51
 2140 07b0 03       		.uleb128 0x3
 2141 07b1 0A       		.byte	0xa
 2142 07b2 3001     		.2byte	0x130
 2143 07b4 1E       		.uleb128 0x1e
 2144 07b5 01       		.uleb128 0x1
 2145 07b6 50       		.byte	0x50
 2146 07b7 02       		.uleb128 0x2
 2147 07b8 78       		.byte	0x78
ARM GAS  /tmp/ccOSbeko.s 			page 39


 2148 07b9 00       		.sleb128 0
 2149 07ba 1E       		.uleb128 0x1e
 2150 07bb 02       		.uleb128 0x2
 2151 07bc 7D       		.byte	0x7d
 2152 07bd 00       		.sleb128 0
 2153 07be 02       		.uleb128 0x2
 2154 07bf 77       		.byte	0x77
 2155 07c0 00       		.sleb128 0
 2156 07c1 00       		.byte	0
 2157 07c2 1F       		.uleb128 0x1f
 2158 07c3 E2000000 		.4byte	.LVL13
 2159 07c7 EA0F0000 		.4byte	0xfea
 2160 07cb 1D       		.uleb128 0x1d
 2161 07cc EA000000 		.4byte	.LVL14
 2162 07d0 F10F0000 		.4byte	0xff1
 2163 07d4 E7070000 		.4byte	0x7e7
 2164 07d8 1E       		.uleb128 0x1e
 2165 07d9 01       		.uleb128 0x1
 2166 07da 51       		.byte	0x51
 2167 07db 01       		.uleb128 0x1
 2168 07dc 32       		.byte	0x32
 2169 07dd 1E       		.uleb128 0x1e
 2170 07de 01       		.uleb128 0x1
 2171 07df 50       		.byte	0x50
 2172 07e0 05       		.uleb128 0x5
 2173 07e1 03       		.byte	0x3
 2174 07e2 00000000 		.4byte	.LANCHOR0
 2175 07e6 00       		.byte	0
 2176 07e7 1F       		.uleb128 0x1f
 2177 07e8 EE000000 		.4byte	.LVL15
 2178 07ec 07100000 		.4byte	0x1007
 2179 07f0 1F       		.uleb128 0x1f
 2180 07f1 F2000000 		.4byte	.LVL16
 2181 07f5 0E100000 		.4byte	0x100e
 2182 07f9 1F       		.uleb128 0x1f
 2183 07fa FC000000 		.4byte	.LVL17
 2184 07fe C30F0000 		.4byte	0xfc3
 2185 0802 20       		.uleb128 0x20
 2186 0803 14010000 		.4byte	.LVL18
 2187 0807 15100000 		.4byte	0x1015
 2188 080b 1E       		.uleb128 0x1e
 2189 080c 01       		.uleb128 0x1
 2190 080d 50       		.byte	0x50
 2191 080e 01       		.uleb128 0x1
 2192 080f 32       		.byte	0x32
 2193 0810 00       		.byte	0
 2194 0811 00       		.byte	0
 2195 0812 21       		.uleb128 0x21
 2196 0813 BF000000 		.4byte	.LASF90
 2197 0817 01       		.byte	0x1
 2198 0818 D2       		.byte	0xd2
 2199 0819 EB000000 		.4byte	0xeb
 2200 081d 00000000 		.4byte	.LFB14
 2201 0821 18000000 		.4byte	.LFE14-.LFB14
 2202 0825 01       		.uleb128 0x1
 2203 0826 9C       		.byte	0x9c
 2204 0827 5D080000 		.4byte	0x85d
ARM GAS  /tmp/ccOSbeko.s 			page 40


 2205 082b 22       		.uleb128 0x22
 2206 082c 7000     		.ascii	"p\000"
 2207 082e 01       		.byte	0x1
 2208 082f D2       		.byte	0xd2
 2209 0830 88020000 		.4byte	0x288
 2210 0834 00000000 		.4byte	.LLST0
 2211 0838 1D       		.uleb128 0x1d
 2212 0839 0A000000 		.4byte	.LVL21
 2213 083d 2F100000 		.4byte	0x102f
 2214 0841 4C080000 		.4byte	0x84c
 2215 0845 1E       		.uleb128 0x1e
 2216 0846 01       		.uleb128 0x1
 2217 0847 50       		.byte	0x50
 2218 0848 02       		.uleb128 0x2
 2219 0849 74       		.byte	0x74
 2220 084a 00       		.sleb128 0
 2221 084b 00       		.byte	0
 2222 084c 23       		.uleb128 0x23
 2223 084d 10000000 		.4byte	.LVL22
 2224 0851 AC0F0000 		.4byte	0xfac
 2225 0855 1E       		.uleb128 0x1e
 2226 0856 01       		.uleb128 0x1
 2227 0857 50       		.byte	0x50
 2228 0858 02       		.uleb128 0x2
 2229 0859 74       		.byte	0x74
 2230 085a 00       		.sleb128 0
 2231 085b 00       		.byte	0
 2232 085c 00       		.byte	0
 2233 085d 21       		.uleb128 0x21
 2234 085e 07030000 		.4byte	.LASF91
 2235 0862 01       		.byte	0x1
 2236 0863 4D       		.byte	0x4d
 2237 0864 EB000000 		.4byte	0xeb
 2238 0868 00000000 		.4byte	.LFB8
 2239 086c 18000000 		.4byte	.LFE8-.LFB8
 2240 0870 01       		.uleb128 0x1
 2241 0871 9C       		.byte	0x9c
 2242 0872 A4080000 		.4byte	0x8a4
 2243 0876 22       		.uleb128 0x22
 2244 0877 7000     		.ascii	"p\000"
 2245 0879 01       		.byte	0x1
 2246 087a 4D       		.byte	0x4d
 2247 087b 88020000 		.4byte	0x288
 2248 087f 21000000 		.4byte	.LLST1
 2249 0883 1D       		.uleb128 0x1d
 2250 0884 0A000000 		.4byte	.LVL25
 2251 0888 2F100000 		.4byte	0x102f
 2252 088c 9A080000 		.4byte	0x89a
 2253 0890 1E       		.uleb128 0x1e
 2254 0891 01       		.uleb128 0x1
 2255 0892 50       		.byte	0x50
 2256 0893 05       		.uleb128 0x5
 2257 0894 03       		.byte	0x3
 2258 0895 00000000 		.4byte	.LANCHOR0
 2259 0899 00       		.byte	0
 2260 089a 1F       		.uleb128 0x1f
 2261 089b 10000000 		.4byte	.LVL26
ARM GAS  /tmp/ccOSbeko.s 			page 41


 2262 089f 44100000 		.4byte	0x1044
 2263 08a3 00       		.byte	0
 2264 08a4 19       		.uleb128 0x19
 2265 08a5 E2020000 		.4byte	.LASF93
 2266 08a9 01       		.byte	0x1
 2267 08aa 48       		.byte	0x48
 2268 08ab 00000000 		.4byte	.LFB7
 2269 08af 0C000000 		.4byte	.LFE7-.LFB7
 2270 08b3 01       		.uleb128 0x1
 2271 08b4 9C       		.byte	0x9c
 2272 08b5 D2080000 		.4byte	0x8d2
 2273 08b9 20       		.uleb128 0x20
 2274 08ba 08000000 		.4byte	.LVL28
 2275 08be 55100000 		.4byte	0x1055
 2276 08c2 1E       		.uleb128 0x1e
 2277 08c3 01       		.uleb128 0x1
 2278 08c4 51       		.byte	0x51
 2279 08c5 01       		.uleb128 0x1
 2280 08c6 30       		.byte	0x30
 2281 08c7 1E       		.uleb128 0x1e
 2282 08c8 01       		.uleb128 0x1
 2283 08c9 50       		.byte	0x50
 2284 08ca 05       		.uleb128 0x5
 2285 08cb 03       		.byte	0x3
 2286 08cc 00000000 		.4byte	.LANCHOR0
 2287 08d0 00       		.byte	0
 2288 08d1 00       		.byte	0
 2289 08d2 19       		.uleb128 0x19
 2290 08d3 6B010000 		.4byte	.LASF94
 2291 08d7 01       		.byte	0x1
 2292 08d8 81       		.byte	0x81
 2293 08d9 00000000 		.4byte	.LFB10
 2294 08dd 0C000000 		.4byte	.LFE10-.LFB10
 2295 08e1 01       		.uleb128 0x1
 2296 08e2 9C       		.byte	0x9c
 2297 08e3 00090000 		.4byte	0x900
 2298 08e7 20       		.uleb128 0x20
 2299 08e8 08000000 		.4byte	.LVL29
 2300 08ec 55100000 		.4byte	0x1055
 2301 08f0 1E       		.uleb128 0x1e
 2302 08f1 01       		.uleb128 0x1
 2303 08f2 51       		.byte	0x51
 2304 08f3 01       		.uleb128 0x1
 2305 08f4 30       		.byte	0x30
 2306 08f5 1E       		.uleb128 0x1e
 2307 08f6 01       		.uleb128 0x1
 2308 08f7 50       		.byte	0x50
 2309 08f8 05       		.uleb128 0x5
 2310 08f9 03       		.byte	0x3
 2311 08fa 00000000 		.4byte	.LANCHOR0
 2312 08fe 00       		.byte	0
 2313 08ff 00       		.byte	0
 2314 0900 19       		.uleb128 0x19
 2315 0901 AA050000 		.4byte	.LASF95
 2316 0905 01       		.byte	0x1
 2317 0906 CD       		.byte	0xcd
 2318 0907 00000000 		.4byte	.LFB13
ARM GAS  /tmp/ccOSbeko.s 			page 42


 2319 090b 0C000000 		.4byte	.LFE13-.LFB13
 2320 090f 01       		.uleb128 0x1
 2321 0910 9C       		.byte	0x9c
 2322 0911 2E090000 		.4byte	0x92e
 2323 0915 20       		.uleb128 0x20
 2324 0916 08000000 		.4byte	.LVL30
 2325 091a 55100000 		.4byte	0x1055
 2326 091e 1E       		.uleb128 0x1e
 2327 091f 01       		.uleb128 0x1
 2328 0920 51       		.byte	0x51
 2329 0921 01       		.uleb128 0x1
 2330 0922 30       		.byte	0x30
 2331 0923 1E       		.uleb128 0x1e
 2332 0924 01       		.uleb128 0x1
 2333 0925 50       		.byte	0x50
 2334 0926 05       		.uleb128 0x5
 2335 0927 03       		.byte	0x3
 2336 0928 00000000 		.4byte	.LANCHOR0
 2337 092c 00       		.byte	0
 2338 092d 00       		.byte	0
 2339 092e 21       		.uleb128 0x21
 2340 092f 0F030000 		.4byte	.LASF96
 2341 0933 01       		.byte	0x1
 2342 0934 86       		.byte	0x86
 2343 0935 EB000000 		.4byte	0xeb
 2344 0939 00000000 		.4byte	.LFB11
 2345 093d 30000000 		.4byte	.LFE11-.LFB11
 2346 0941 01       		.uleb128 0x1
 2347 0942 9C       		.byte	0x9c
 2348 0943 D1090000 		.4byte	0x9d1
 2349 0947 22       		.uleb128 0x22
 2350 0948 7000     		.ascii	"p\000"
 2351 094a 01       		.byte	0x1
 2352 094b 86       		.byte	0x86
 2353 094c 88020000 		.4byte	0x288
 2354 0950 4D000000 		.4byte	.LLST2
 2355 0954 1C       		.uleb128 0x1c
 2356 0955 08000000 		.4byte	.LBB5
 2357 0959 06000000 		.4byte	.LBE5-.LBB5
 2358 095d 6F090000 		.4byte	0x96f
 2359 0961 1B       		.uleb128 0x1b
 2360 0962 746D7000 		.ascii	"tmp\000"
 2361 0966 01       		.byte	0x1
 2362 0967 8A       		.byte	0x8a
 2363 0968 77000000 		.4byte	0x77
 2364 096c 01       		.uleb128 0x1
 2365 096d 53       		.byte	0x53
 2366 096e 00       		.byte	0
 2367 096f 1C       		.uleb128 0x1c
 2368 0970 20000000 		.4byte	.LBB6
 2369 0974 06000000 		.4byte	.LBE6-.LBB6
 2370 0978 8A090000 		.4byte	0x98a
 2371 097c 1B       		.uleb128 0x1b
 2372 097d 746D7000 		.ascii	"tmp\000"
 2373 0981 01       		.byte	0x1
 2374 0982 8D       		.byte	0x8d
 2375 0983 77000000 		.4byte	0x77
ARM GAS  /tmp/ccOSbeko.s 			page 43


 2376 0987 01       		.uleb128 0x1
 2377 0988 53       		.byte	0x53
 2378 0989 00       		.byte	0
 2379 098a 1D       		.uleb128 0x1d
 2380 098b 08000000 		.4byte	.LVL33
 2381 098f 6B100000 		.4byte	0x106b
 2382 0993 9E090000 		.4byte	0x99e
 2383 0997 1E       		.uleb128 0x1e
 2384 0998 01       		.uleb128 0x1
 2385 0999 50       		.byte	0x50
 2386 099a 02       		.uleb128 0x2
 2387 099b 08       		.byte	0x8
 2388 099c 32       		.byte	0x32
 2389 099d 00       		.byte	0
 2390 099e 1F       		.uleb128 0x1f
 2391 099f 12000000 		.4byte	.LVL34
 2392 09a3 EA0F0000 		.4byte	0xfea
 2393 09a7 1D       		.uleb128 0x1d
 2394 09a8 18000000 		.4byte	.LVL35
 2395 09ac 7D100000 		.4byte	0x107d
 2396 09b0 BE090000 		.4byte	0x9be
 2397 09b4 1E       		.uleb128 0x1e
 2398 09b5 01       		.uleb128 0x1
 2399 09b6 50       		.byte	0x50
 2400 09b7 05       		.uleb128 0x5
 2401 09b8 03       		.byte	0x3
 2402 09b9 00000000 		.4byte	.LANCHOR0
 2403 09bd 00       		.byte	0
 2404 09be 1F       		.uleb128 0x1f
 2405 09bf 1C000000 		.4byte	.LVL36
 2406 09c3 07100000 		.4byte	0x1007
 2407 09c7 1F       		.uleb128 0x1f
 2408 09c8 20000000 		.4byte	.LVL37
 2409 09cc 0E100000 		.4byte	0x100e
 2410 09d0 00       		.byte	0
 2411 09d1 21       		.uleb128 0x21
 2412 09d2 1D030000 		.4byte	.LASF97
 2413 09d6 01       		.byte	0x1
 2414 09d7 F6       		.byte	0xf6
 2415 09d8 EB000000 		.4byte	0xeb
 2416 09dc 00000000 		.4byte	.LFB16
 2417 09e0 2E000000 		.4byte	.LFE16-.LFB16
 2418 09e4 01       		.uleb128 0x1
 2419 09e5 9C       		.byte	0x9c
 2420 09e6 550A0000 		.4byte	0xa55
 2421 09ea 22       		.uleb128 0x22
 2422 09eb 7000     		.ascii	"p\000"
 2423 09ed 01       		.byte	0x1
 2424 09ee F6       		.byte	0xf6
 2425 09ef 88020000 		.4byte	0x288
 2426 09f3 6E000000 		.4byte	.LLST3
 2427 09f7 1A       		.uleb128 0x1a
 2428 09f8 18000000 		.4byte	.Ldebug_ranges0+0x18
 2429 09fc 0E0A0000 		.4byte	0xa0e
 2430 0a00 1B       		.uleb128 0x1b
 2431 0a01 746D7000 		.ascii	"tmp\000"
 2432 0a05 01       		.byte	0x1
ARM GAS  /tmp/ccOSbeko.s 			page 44


 2433 0a06 F8       		.byte	0xf8
 2434 0a07 77000000 		.4byte	0x77
 2435 0a0b 01       		.uleb128 0x1
 2436 0a0c 53       		.byte	0x53
 2437 0a0d 00       		.byte	0
 2438 0a0e 1C       		.uleb128 0x1c
 2439 0a0f 1C000000 		.4byte	.LBB9
 2440 0a13 06000000 		.4byte	.LBE9-.LBB9
 2441 0a17 290A0000 		.4byte	0xa29
 2442 0a1b 1B       		.uleb128 0x1b
 2443 0a1c 746D7000 		.ascii	"tmp\000"
 2444 0a20 01       		.byte	0x1
 2445 0a21 F8       		.byte	0xf8
 2446 0a22 77000000 		.4byte	0x77
 2447 0a26 01       		.uleb128 0x1
 2448 0a27 53       		.byte	0x53
 2449 0a28 00       		.byte	0
 2450 0a29 1F       		.uleb128 0x1f
 2451 0a2a 0E000000 		.4byte	.LVL39
 2452 0a2e EA0F0000 		.4byte	0xfea
 2453 0a32 1F       		.uleb128 0x1f
 2454 0a33 18000000 		.4byte	.LVL40
 2455 0a37 07100000 		.4byte	0x1007
 2456 0a3b 1F       		.uleb128 0x1f
 2457 0a3c 1C000000 		.4byte	.LVL41
 2458 0a40 0E100000 		.4byte	0x100e
 2459 0a44 23       		.uleb128 0x23
 2460 0a45 2C000000 		.4byte	.LVL43
 2461 0a49 7D100000 		.4byte	0x107d
 2462 0a4d 1E       		.uleb128 0x1e
 2463 0a4e 01       		.uleb128 0x1
 2464 0a4f 50       		.byte	0x50
 2465 0a50 02       		.uleb128 0x2
 2466 0a51 74       		.byte	0x74
 2467 0a52 00       		.sleb128 0
 2468 0a53 00       		.byte	0
 2469 0a54 00       		.byte	0
 2470 0a55 19       		.uleb128 0x19
 2471 0a56 AD020000 		.4byte	.LASF98
 2472 0a5a 01       		.byte	0x1
 2473 0a5b FC       		.byte	0xfc
 2474 0a5c 00000000 		.4byte	.LFB17
 2475 0a60 0C010000 		.4byte	.LFE17-.LFB17
 2476 0a64 01       		.uleb128 0x1
 2477 0a65 9C       		.byte	0x9c
 2478 0a66 200C0000 		.4byte	0xc20
 2479 0a6a 24       		.uleb128 0x24
 2480 0a6b 2F020000 		.4byte	.LASF99
 2481 0a6f 01       		.byte	0x1
 2482 0a70 FD       		.byte	0xfd
 2483 0a71 99040000 		.4byte	0x499
 2484 0a75 02       		.uleb128 0x2
 2485 0a76 91       		.byte	0x91
 2486 0a77 6C       		.sleb128 -20
 2487 0a78 1C       		.uleb128 0x1c
 2488 0a79 64000000 		.4byte	.LBB10
 2489 0a7d 06000000 		.4byte	.LBE10-.LBB10
ARM GAS  /tmp/ccOSbeko.s 			page 45


 2490 0a81 940A0000 		.4byte	0xa94
 2491 0a85 25       		.uleb128 0x25
 2492 0a86 746D7000 		.ascii	"tmp\000"
 2493 0a8a 01       		.byte	0x1
 2494 0a8b 1001     		.2byte	0x110
 2495 0a8d 77000000 		.4byte	0x77
 2496 0a91 01       		.uleb128 0x1
 2497 0a92 53       		.byte	0x53
 2498 0a93 00       		.byte	0
 2499 0a94 1C       		.uleb128 0x1c
 2500 0a95 7C000000 		.4byte	.LBB11
 2501 0a99 06000000 		.4byte	.LBE11-.LBB11
 2502 0a9d B00A0000 		.4byte	0xab0
 2503 0aa1 25       		.uleb128 0x25
 2504 0aa2 746D7000 		.ascii	"tmp\000"
 2505 0aa6 01       		.byte	0x1
 2506 0aa7 1001     		.2byte	0x110
 2507 0aa9 77000000 		.4byte	0x77
 2508 0aad 01       		.uleb128 0x1
 2509 0aae 53       		.byte	0x53
 2510 0aaf 00       		.byte	0
 2511 0ab0 1C       		.uleb128 0x1c
 2512 0ab1 A8000000 		.4byte	.LBB12
 2513 0ab5 06000000 		.4byte	.LBE12-.LBB12
 2514 0ab9 CC0A0000 		.4byte	0xacc
 2515 0abd 25       		.uleb128 0x25
 2516 0abe 746D7000 		.ascii	"tmp\000"
 2517 0ac2 01       		.byte	0x1
 2518 0ac3 1501     		.2byte	0x115
 2519 0ac5 77000000 		.4byte	0x77
 2520 0ac9 01       		.uleb128 0x1
 2521 0aca 53       		.byte	0x53
 2522 0acb 00       		.byte	0
 2523 0acc 1C       		.uleb128 0x1c
 2524 0acd C0000000 		.4byte	.LBB13
 2525 0ad1 06000000 		.4byte	.LBE13-.LBB13
 2526 0ad5 E80A0000 		.4byte	0xae8
 2527 0ad9 25       		.uleb128 0x25
 2528 0ada 746D7000 		.ascii	"tmp\000"
 2529 0ade 01       		.byte	0x1
 2530 0adf 1501     		.2byte	0x115
 2531 0ae1 77000000 		.4byte	0x77
 2532 0ae5 01       		.uleb128 0x1
 2533 0ae6 53       		.byte	0x53
 2534 0ae7 00       		.byte	0
 2535 0ae8 1D       		.uleb128 0x1d
 2536 0ae9 0C000000 		.4byte	.LVL44
 2537 0aed 55100000 		.4byte	0x1055
 2538 0af1 010B0000 		.4byte	0xb01
 2539 0af5 1E       		.uleb128 0x1e
 2540 0af6 01       		.uleb128 0x1
 2541 0af7 51       		.byte	0x51
 2542 0af8 01       		.uleb128 0x1
 2543 0af9 30       		.byte	0x30
 2544 0afa 1E       		.uleb128 0x1e
 2545 0afb 01       		.uleb128 0x1
 2546 0afc 50       		.byte	0x50
ARM GAS  /tmp/ccOSbeko.s 			page 46


 2547 0afd 02       		.uleb128 0x2
 2548 0afe 91       		.byte	0x91
 2549 0aff 6C       		.sleb128 -20
 2550 0b00 00       		.byte	0
 2551 0b01 1D       		.uleb128 0x1d
 2552 0b02 14000000 		.4byte	.LVL45
 2553 0b06 8E100000 		.4byte	0x108e
 2554 0b0a 1A0B0000 		.4byte	0xb1a
 2555 0b0e 1E       		.uleb128 0x1e
 2556 0b0f 01       		.uleb128 0x1
 2557 0b10 51       		.byte	0x51
 2558 0b11 01       		.uleb128 0x1
 2559 0b12 30       		.byte	0x30
 2560 0b13 1E       		.uleb128 0x1e
 2561 0b14 01       		.uleb128 0x1
 2562 0b15 50       		.byte	0x50
 2563 0b16 02       		.uleb128 0x2
 2564 0b17 91       		.byte	0x91
 2565 0b18 6C       		.sleb128 -20
 2566 0b19 00       		.byte	0
 2567 0b1a 1D       		.uleb128 0x1d
 2568 0b1b 24000000 		.4byte	.LVL46
 2569 0b1f 15100000 		.4byte	0x1015
 2570 0b23 2D0B0000 		.4byte	0xb2d
 2571 0b27 1E       		.uleb128 0x1e
 2572 0b28 01       		.uleb128 0x1
 2573 0b29 50       		.byte	0x50
 2574 0b2a 01       		.uleb128 0x1
 2575 0b2b 31       		.byte	0x31
 2576 0b2c 00       		.byte	0
 2577 0b2d 1D       		.uleb128 0x1d
 2578 0b2e 46000000 		.4byte	.LVL47
 2579 0b32 820F0000 		.4byte	0xf82
 2580 0b36 520B0000 		.4byte	0xb52
 2581 0b3a 1E       		.uleb128 0x1e
 2582 0b3b 01       		.uleb128 0x1
 2583 0b3c 53       		.byte	0x53
 2584 0b3d 05       		.uleb128 0x5
 2585 0b3e 03       		.byte	0x3
 2586 0b3f 00000000 		.4byte	thread4
 2587 0b43 1E       		.uleb128 0x1e
 2588 0b44 01       		.uleb128 0x1
 2589 0b45 51       		.byte	0x51
 2590 0b46 03       		.uleb128 0x3
 2591 0b47 0A       		.byte	0xa
 2592 0b48 3001     		.2byte	0x130
 2593 0b4a 1E       		.uleb128 0x1e
 2594 0b4b 02       		.uleb128 0x2
 2595 0b4c 7D       		.byte	0x7d
 2596 0b4d 00       		.sleb128 0
 2597 0b4e 02       		.uleb128 0x2
 2598 0b4f 91       		.byte	0x91
 2599 0b50 6C       		.sleb128 -20
 2600 0b51 00       		.byte	0
 2601 0b52 1D       		.uleb128 0x1d
 2602 0b53 50000000 		.4byte	.LVL48
 2603 0b57 2F100000 		.4byte	0x102f
ARM GAS  /tmp/ccOSbeko.s 			page 47


 2604 0b5b 660B0000 		.4byte	0xb66
 2605 0b5f 1E       		.uleb128 0x1e
 2606 0b60 01       		.uleb128 0x1
 2607 0b61 50       		.byte	0x50
 2608 0b62 02       		.uleb128 0x2
 2609 0b63 91       		.byte	0x91
 2610 0b64 6C       		.sleb128 -20
 2611 0b65 00       		.byte	0
 2612 0b66 1D       		.uleb128 0x1d
 2613 0b67 60000000 		.4byte	.LVL49
 2614 0b6b 15100000 		.4byte	0x1015
 2615 0b6f 790B0000 		.4byte	0xb79
 2616 0b73 1E       		.uleb128 0x1e
 2617 0b74 01       		.uleb128 0x1
 2618 0b75 50       		.byte	0x50
 2619 0b76 01       		.uleb128 0x1
 2620 0b77 32       		.byte	0x32
 2621 0b78 00       		.byte	0
 2622 0b79 1F       		.uleb128 0x1f
 2623 0b7a 6E000000 		.4byte	.LVL50
 2624 0b7e EA0F0000 		.4byte	0xfea
 2625 0b82 1F       		.uleb128 0x1f
 2626 0b83 78000000 		.4byte	.LVL51
 2627 0b87 07100000 		.4byte	0x1007
 2628 0b8b 1F       		.uleb128 0x1f
 2629 0b8c 7C000000 		.4byte	.LVL52
 2630 0b90 0E100000 		.4byte	0x100e
 2631 0b94 1D       		.uleb128 0x1d
 2632 0b95 92000000 		.4byte	.LVL53
 2633 0b99 15100000 		.4byte	0x1015
 2634 0b9d A70B0000 		.4byte	0xba7
 2635 0ba1 1E       		.uleb128 0x1e
 2636 0ba2 01       		.uleb128 0x1
 2637 0ba3 50       		.byte	0x50
 2638 0ba4 01       		.uleb128 0x1
 2639 0ba5 33       		.byte	0x33
 2640 0ba6 00       		.byte	0
 2641 0ba7 1D       		.uleb128 0x1d
 2642 0ba8 A4000000 		.4byte	.LVL54
 2643 0bac 15100000 		.4byte	0x1015
 2644 0bb0 BA0B0000 		.4byte	0xbba
 2645 0bb4 1E       		.uleb128 0x1e
 2646 0bb5 01       		.uleb128 0x1
 2647 0bb6 50       		.byte	0x50
 2648 0bb7 01       		.uleb128 0x1
 2649 0bb8 34       		.byte	0x34
 2650 0bb9 00       		.byte	0
 2651 0bba 1F       		.uleb128 0x1f
 2652 0bbb B2000000 		.4byte	.LVL55
 2653 0bbf EA0F0000 		.4byte	0xfea
 2654 0bc3 1F       		.uleb128 0x1f
 2655 0bc4 BC000000 		.4byte	.LVL56
 2656 0bc8 07100000 		.4byte	0x1007
 2657 0bcc 1F       		.uleb128 0x1f
 2658 0bcd C0000000 		.4byte	.LVL57
 2659 0bd1 0E100000 		.4byte	0x100e
 2660 0bd5 1D       		.uleb128 0x1d
ARM GAS  /tmp/ccOSbeko.s 			page 48


 2661 0bd6 D6000000 		.4byte	.LVL58
 2662 0bda 15100000 		.4byte	0x1015
 2663 0bde E80B0000 		.4byte	0xbe8
 2664 0be2 1E       		.uleb128 0x1e
 2665 0be3 01       		.uleb128 0x1
 2666 0be4 50       		.byte	0x50
 2667 0be5 01       		.uleb128 0x1
 2668 0be6 33       		.byte	0x33
 2669 0be7 00       		.byte	0
 2670 0be8 1D       		.uleb128 0x1d
 2671 0be9 E8000000 		.4byte	.LVL59
 2672 0bed 15100000 		.4byte	0x1015
 2673 0bf1 FB0B0000 		.4byte	0xbfb
 2674 0bf5 1E       		.uleb128 0x1e
 2675 0bf6 01       		.uleb128 0x1
 2676 0bf7 50       		.byte	0x50
 2677 0bf8 01       		.uleb128 0x1
 2678 0bf9 35       		.byte	0x35
 2679 0bfa 00       		.byte	0
 2680 0bfb 1D       		.uleb128 0x1d
 2681 0bfc F0000000 		.4byte	.LVL60
 2682 0c00 7D100000 		.4byte	0x107d
 2683 0c04 0F0C0000 		.4byte	0xc0f
 2684 0c08 1E       		.uleb128 0x1e
 2685 0c09 01       		.uleb128 0x1
 2686 0c0a 50       		.byte	0x50
 2687 0c0b 02       		.uleb128 0x2
 2688 0c0c 91       		.byte	0x91
 2689 0c0d 6C       		.sleb128 -20
 2690 0c0e 00       		.byte	0
 2691 0c0f 23       		.uleb128 0x23
 2692 0c10 F8000000 		.4byte	.LVL61
 2693 0c14 7D100000 		.4byte	0x107d
 2694 0c18 1E       		.uleb128 0x1e
 2695 0c19 01       		.uleb128 0x1
 2696 0c1a 50       		.byte	0x50
 2697 0c1b 02       		.uleb128 0x2
 2698 0c1c 91       		.byte	0x91
 2699 0c1d 6C       		.sleb128 -20
 2700 0c1e 00       		.byte	0
 2701 0c1f 00       		.byte	0
 2702 0c20 26       		.uleb128 0x26
 2703 0c21 9D050000 		.4byte	0x59d
 2704 0c25 00000000 		.4byte	.LFB12
 2705 0c29 4C010000 		.4byte	.LFE12-.LFB12
 2706 0c2d 01       		.uleb128 0x1
 2707 0c2e 9C       		.byte	0x9c
 2708 0c2f FB0D0000 		.4byte	0xdfb
 2709 0c33 27       		.uleb128 0x27
 2710 0c34 A9050000 		.4byte	0x5a9
 2711 0c38 27       		.uleb128 0x27
 2712 0c39 B2050000 		.4byte	0x5b2
 2713 0c3d 28       		.uleb128 0x28
 2714 0c3e BD050000 		.4byte	0x5bd
 2715 0c42 8C000000 		.4byte	.LLST4
 2716 0c46 1A       		.uleb128 0x1a
 2717 0c47 30000000 		.4byte	.Ldebug_ranges0+0x30
ARM GAS  /tmp/ccOSbeko.s 			page 49


 2718 0c4b A40D0000 		.4byte	0xda4
 2719 0c4f 28       		.uleb128 0x28
 2720 0c50 A9050000 		.4byte	0x5a9
 2721 0c54 AC000000 		.4byte	.LLST5
 2722 0c58 28       		.uleb128 0x28
 2723 0c59 B2050000 		.4byte	0x5b2
 2724 0c5d C0000000 		.4byte	.LLST6
 2725 0c61 28       		.uleb128 0x28
 2726 0c62 BD050000 		.4byte	0x5bd
 2727 0c66 E3000000 		.4byte	.LLST7
 2728 0c6a 1D       		.uleb128 0x1d
 2729 0c6b 66000000 		.4byte	.LVL67
 2730 0c6f 820F0000 		.4byte	0xf82
 2731 0c73 880C0000 		.4byte	0xc88
 2732 0c77 1E       		.uleb128 0x1e
 2733 0c78 01       		.uleb128 0x1
 2734 0c79 53       		.byte	0x53
 2735 0c7a 05       		.uleb128 0x5
 2736 0c7b 03       		.byte	0x3
 2737 0c7c 00000000 		.4byte	thread2
 2738 0c80 1E       		.uleb128 0x1e
 2739 0c81 01       		.uleb128 0x1
 2740 0c82 51       		.byte	0x51
 2741 0c83 03       		.uleb128 0x3
 2742 0c84 0A       		.byte	0xa
 2743 0c85 3001     		.2byte	0x130
 2744 0c87 00       		.byte	0
 2745 0c88 1D       		.uleb128 0x1d
 2746 0c89 74000000 		.4byte	.LVL68
 2747 0c8d A4100000 		.4byte	0x10a4
 2748 0c91 A30C0000 		.4byte	0xca3
 2749 0c95 1E       		.uleb128 0x1e
 2750 0c96 01       		.uleb128 0x1
 2751 0c97 51       		.byte	0x51
 2752 0c98 03       		.uleb128 0x3
 2753 0c99 0A       		.byte	0xa
 2754 0c9a F401     		.2byte	0x1f4
 2755 0c9c 1E       		.uleb128 0x1e
 2756 0c9d 01       		.uleb128 0x1
 2757 0c9e 50       		.byte	0x50
 2758 0c9f 02       		.uleb128 0x2
 2759 0ca0 74       		.byte	0x74
 2760 0ca1 00       		.sleb128 0
 2761 0ca2 00       		.byte	0
 2762 0ca3 1F       		.uleb128 0x1f
 2763 0ca4 7A000000 		.4byte	.LVL70
 2764 0ca8 C30F0000 		.4byte	0xfc3
 2765 0cac 1D       		.uleb128 0x1d
 2766 0cad 88000000 		.4byte	.LVL71
 2767 0cb1 15100000 		.4byte	0x1015
 2768 0cb5 D90C0000 		.4byte	0xcd9
 2769 0cb9 1E       		.uleb128 0x1e
 2770 0cba 01       		.uleb128 0x1
 2771 0cbb 51       		.byte	0x51
 2772 0cbc 16       		.uleb128 0x16
 2773 0cbd 30       		.byte	0x30
 2774 0cbe 31       		.byte	0x31
ARM GAS  /tmp/ccOSbeko.s 			page 50


 2775 0cbf 75       		.byte	0x75
 2776 0cc0 00       		.sleb128 0
 2777 0cc1 1C       		.byte	0x1c
 2778 0cc2 31       		.byte	0x31
 2779 0cc3 40       		.byte	0x40
 2780 0cc4 4B       		.byte	0x4b
 2781 0cc5 24       		.byte	0x24
 2782 0cc6 22       		.byte	0x22
 2783 0cc7 75       		.byte	0x75
 2784 0cc8 00       		.sleb128 0
 2785 0cc9 40       		.byte	0x40
 2786 0cca 4B       		.byte	0x4b
 2787 0ccb 24       		.byte	0x24
 2788 0ccc 22       		.byte	0x22
 2789 0ccd 2D       		.byte	0x2d
 2790 0cce 28       		.byte	0x28
 2791 0ccf 0100     		.2byte	0x1
 2792 0cd1 16       		.byte	0x16
 2793 0cd2 13       		.byte	0x13
 2794 0cd3 1E       		.uleb128 0x1e
 2795 0cd4 01       		.uleb128 0x1
 2796 0cd5 50       		.byte	0x50
 2797 0cd6 01       		.uleb128 0x1
 2798 0cd7 34       		.byte	0x34
 2799 0cd8 00       		.byte	0
 2800 0cd9 1D       		.uleb128 0x1d
 2801 0cda 9A000000 		.4byte	.LVL73
 2802 0cde 15100000 		.4byte	0x1015
 2803 0ce2 F40C0000 		.4byte	0xcf4
 2804 0ce6 1E       		.uleb128 0x1e
 2805 0ce7 01       		.uleb128 0x1
 2806 0ce8 51       		.byte	0x51
 2807 0ce9 04       		.uleb128 0x4
 2808 0cea 75       		.byte	0x75
 2809 0ceb 00       		.sleb128 0
 2810 0cec 30       		.byte	0x30
 2811 0ced 29       		.byte	0x29
 2812 0cee 1E       		.uleb128 0x1e
 2813 0cef 01       		.uleb128 0x1
 2814 0cf0 50       		.byte	0x50
 2815 0cf1 01       		.uleb128 0x1
 2816 0cf2 35       		.byte	0x35
 2817 0cf3 00       		.byte	0
 2818 0cf4 1D       		.uleb128 0x1d
 2819 0cf5 AE000000 		.4byte	.LVL74
 2820 0cf9 15100000 		.4byte	0x1015
 2821 0cfd 070D0000 		.4byte	0xd07
 2822 0d01 1E       		.uleb128 0x1e
 2823 0d02 01       		.uleb128 0x1
 2824 0d03 50       		.byte	0x50
 2825 0d04 01       		.uleb128 0x1
 2826 0d05 36       		.byte	0x36
 2827 0d06 00       		.byte	0
 2828 0d07 1F       		.uleb128 0x1f
 2829 0d08 B6000000 		.4byte	.LVL75
 2830 0d0c BE100000 		.4byte	0x10be
 2831 0d10 1D       		.uleb128 0x1d
ARM GAS  /tmp/ccOSbeko.s 			page 51


 2832 0d11 C2000000 		.4byte	.LVL78
 2833 0d15 44100000 		.4byte	0x1044
 2834 0d19 240D0000 		.4byte	0xd24
 2835 0d1d 1E       		.uleb128 0x1e
 2836 0d1e 01       		.uleb128 0x1
 2837 0d1f 50       		.byte	0x50
 2838 0d20 02       		.uleb128 0x2
 2839 0d21 75       		.byte	0x75
 2840 0d22 00       		.sleb128 0
 2841 0d23 00       		.byte	0
 2842 0d24 1D       		.uleb128 0x1d
 2843 0d25 CC000000 		.4byte	.LVL79
 2844 0d29 A4100000 		.4byte	0x10a4
 2845 0d2d 3F0D0000 		.4byte	0xd3f
 2846 0d31 1E       		.uleb128 0x1e
 2847 0d32 01       		.uleb128 0x1
 2848 0d33 51       		.byte	0x51
 2849 0d34 03       		.uleb128 0x3
 2850 0d35 0A       		.byte	0xa
 2851 0d36 F401     		.2byte	0x1f4
 2852 0d38 1E       		.uleb128 0x1e
 2853 0d39 01       		.uleb128 0x1
 2854 0d3a 50       		.byte	0x50
 2855 0d3b 02       		.uleb128 0x2
 2856 0d3c 74       		.byte	0x74
 2857 0d3d 00       		.sleb128 0
 2858 0d3e 00       		.byte	0
 2859 0d3f 1D       		.uleb128 0x1d
 2860 0d40 DA000000 		.4byte	.LVL81
 2861 0d44 15100000 		.4byte	0x1015
 2862 0d48 520D0000 		.4byte	0xd52
 2863 0d4c 1E       		.uleb128 0x1e
 2864 0d4d 01       		.uleb128 0x1
 2865 0d4e 50       		.byte	0x50
 2866 0d4f 01       		.uleb128 0x1
 2867 0d50 37       		.byte	0x37
 2868 0d51 00       		.byte	0
 2869 0d52 1D       		.uleb128 0x1d
 2870 0d53 EC000000 		.4byte	.LVL82
 2871 0d57 15100000 		.4byte	0x1015
 2872 0d5b 650D0000 		.4byte	0xd65
 2873 0d5f 1E       		.uleb128 0x1e
 2874 0d60 01       		.uleb128 0x1
 2875 0d61 50       		.byte	0x50
 2876 0d62 01       		.uleb128 0x1
 2877 0d63 38       		.byte	0x38
 2878 0d64 00       		.byte	0
 2879 0d65 1D       		.uleb128 0x1d
 2880 0d66 02010000 		.4byte	.LVL83
 2881 0d6a 15100000 		.4byte	0x1015
 2882 0d6e 780D0000 		.4byte	0xd78
 2883 0d72 1E       		.uleb128 0x1e
 2884 0d73 01       		.uleb128 0x1
 2885 0d74 50       		.byte	0x50
 2886 0d75 01       		.uleb128 0x1
 2887 0d76 39       		.byte	0x39
 2888 0d77 00       		.byte	0
ARM GAS  /tmp/ccOSbeko.s 			page 52


 2889 0d78 1D       		.uleb128 0x1d
 2890 0d79 16010000 		.4byte	.LVL84
 2891 0d7d CA0F0000 		.4byte	0xfca
 2892 0d81 940D0000 		.4byte	0xd94
 2893 0d85 1E       		.uleb128 0x1e
 2894 0d86 01       		.uleb128 0x1
 2895 0d87 51       		.byte	0x51
 2896 0d88 05       		.uleb128 0x5
 2897 0d89 03       		.byte	0x3
 2898 0d8a 14000000 		.4byte	.LC5
 2899 0d8e 1E       		.uleb128 0x1e
 2900 0d8f 01       		.uleb128 0x1
 2901 0d90 50       		.byte	0x50
 2902 0d91 01       		.uleb128 0x1
 2903 0d92 3A       		.byte	0x3a
 2904 0d93 00       		.byte	0
 2905 0d94 20       		.uleb128 0x20
 2906 0d95 2E010000 		.4byte	.LVL86
 2907 0d99 C9100000 		.4byte	0x10c9
 2908 0d9d 1E       		.uleb128 0x1e
 2909 0d9e 01       		.uleb128 0x1
 2910 0d9f 50       		.byte	0x50
 2911 0da0 01       		.uleb128 0x1
 2912 0da1 3B       		.byte	0x3b
 2913 0da2 00       		.byte	0
 2914 0da3 00       		.byte	0
 2915 0da4 1D       		.uleb128 0x1d
 2916 0da5 0E000000 		.4byte	.LVL62
 2917 0da9 A4100000 		.4byte	0x10a4
 2918 0dad BD0D0000 		.4byte	0xdbd
 2919 0db1 1E       		.uleb128 0x1e
 2920 0db2 01       		.uleb128 0x1
 2921 0db3 51       		.byte	0x51
 2922 0db4 01       		.uleb128 0x1
 2923 0db5 30       		.byte	0x30
 2924 0db6 1E       		.uleb128 0x1e
 2925 0db7 01       		.uleb128 0x1
 2926 0db8 50       		.byte	0x50
 2927 0db9 02       		.uleb128 0x2
 2928 0dba 74       		.byte	0x74
 2929 0dbb 00       		.sleb128 0
 2930 0dbc 00       		.byte	0
 2931 0dbd 1D       		.uleb128 0x1d
 2932 0dbe 20000000 		.4byte	.LVL64
 2933 0dc2 15100000 		.4byte	0x1015
 2934 0dc6 D00D0000 		.4byte	0xdd0
 2935 0dca 1E       		.uleb128 0x1e
 2936 0dcb 01       		.uleb128 0x1
 2937 0dcc 50       		.byte	0x50
 2938 0dcd 01       		.uleb128 0x1
 2939 0dce 31       		.byte	0x31
 2940 0dcf 00       		.byte	0
 2941 0dd0 1D       		.uleb128 0x1d
 2942 0dd1 34000000 		.4byte	.LVL65
 2943 0dd5 15100000 		.4byte	0x1015
 2944 0dd9 EB0D0000 		.4byte	0xdeb
 2945 0ddd 1E       		.uleb128 0x1e
ARM GAS  /tmp/ccOSbeko.s 			page 53


 2946 0dde 01       		.uleb128 0x1
 2947 0ddf 51       		.byte	0x51
 2948 0de0 04       		.uleb128 0x4
 2949 0de1 76       		.byte	0x76
 2950 0de2 00       		.sleb128 0
 2951 0de3 30       		.byte	0x30
 2952 0de4 29       		.byte	0x29
 2953 0de5 1E       		.uleb128 0x1e
 2954 0de6 01       		.uleb128 0x1
 2955 0de7 50       		.byte	0x50
 2956 0de8 01       		.uleb128 0x1
 2957 0de9 32       		.byte	0x32
 2958 0dea 00       		.byte	0
 2959 0deb 23       		.uleb128 0x23
 2960 0dec 48000000 		.4byte	.LVL66
 2961 0df0 15100000 		.4byte	0x1015
 2962 0df4 1E       		.uleb128 0x1e
 2963 0df5 01       		.uleb128 0x1
 2964 0df6 50       		.byte	0x50
 2965 0df7 01       		.uleb128 0x1
 2966 0df8 33       		.byte	0x33
 2967 0df9 00       		.byte	0
 2968 0dfa 00       		.byte	0
 2969 0dfb 26       		.uleb128 0x26
 2970 0dfc C9050000 		.4byte	0x5c9
 2971 0e00 00000000 		.4byte	.LFB15
 2972 0e04 9C000000 		.4byte	.LFE15-.LFB15
 2973 0e08 01       		.uleb128 0x1
 2974 0e09 9C       		.byte	0x9c
 2975 0e0a AF0E0000 		.4byte	0xeaf
 2976 0e0e 1D       		.uleb128 0x1d
 2977 0e0f 20000000 		.4byte	.LVL87
 2978 0e13 820F0000 		.4byte	0xf82
 2979 0e17 320E0000 		.4byte	0xe32
 2980 0e1b 1E       		.uleb128 0x1e
 2981 0e1c 01       		.uleb128 0x1
 2982 0e1d 53       		.byte	0x53
 2983 0e1e 05       		.uleb128 0x5
 2984 0e1f 03       		.byte	0x3
 2985 0e20 00000000 		.4byte	thread3
 2986 0e24 1E       		.uleb128 0x1e
 2987 0e25 01       		.uleb128 0x1
 2988 0e26 51       		.byte	0x51
 2989 0e27 03       		.uleb128 0x3
 2990 0e28 0A       		.byte	0xa
 2991 0e29 3001     		.2byte	0x130
 2992 0e2b 1E       		.uleb128 0x1e
 2993 0e2c 02       		.uleb128 0x2
 2994 0e2d 7D       		.byte	0x7d
 2995 0e2e 00       		.sleb128 0
 2996 0e2f 01       		.uleb128 0x1
 2997 0e30 30       		.byte	0x30
 2998 0e31 00       		.byte	0
 2999 0e32 1D       		.uleb128 0x1d
 3000 0e33 2C000000 		.4byte	.LVL88
 3001 0e37 E8100000 		.4byte	0x10e8
 3002 0e3b 4C0E0000 		.4byte	0xe4c
ARM GAS  /tmp/ccOSbeko.s 			page 54


 3003 0e3f 1E       		.uleb128 0x1e
 3004 0e40 01       		.uleb128 0x1
 3005 0e41 51       		.byte	0x51
 3006 0e42 02       		.uleb128 0x2
 3007 0e43 74       		.byte	0x74
 3008 0e44 00       		.sleb128 0
 3009 0e45 1E       		.uleb128 0x1e
 3010 0e46 01       		.uleb128 0x1
 3011 0e47 50       		.byte	0x50
 3012 0e48 02       		.uleb128 0x2
 3013 0e49 74       		.byte	0x74
 3014 0e4a 00       		.sleb128 0
 3015 0e4b 00       		.byte	0
 3016 0e4c 1D       		.uleb128 0x1d
 3017 0e4d 3A000000 		.4byte	.LVL89
 3018 0e51 15100000 		.4byte	0x1015
 3019 0e55 5F0E0000 		.4byte	0xe5f
 3020 0e59 1E       		.uleb128 0x1e
 3021 0e5a 01       		.uleb128 0x1
 3022 0e5b 50       		.byte	0x50
 3023 0e5c 01       		.uleb128 0x1
 3024 0e5d 31       		.byte	0x31
 3025 0e5e 00       		.byte	0
 3026 0e5f 1D       		.uleb128 0x1d
 3027 0e60 50000000 		.4byte	.LVL90
 3028 0e64 15100000 		.4byte	0x1015
 3029 0e68 720E0000 		.4byte	0xe72
 3030 0e6c 1E       		.uleb128 0x1e
 3031 0e6d 01       		.uleb128 0x1
 3032 0e6e 50       		.byte	0x50
 3033 0e6f 01       		.uleb128 0x1
 3034 0e70 32       		.byte	0x32
 3035 0e71 00       		.byte	0
 3036 0e72 1D       		.uleb128 0x1d
 3037 0e73 5C000000 		.4byte	.LVL91
 3038 0e77 E8100000 		.4byte	0x10e8
 3039 0e7b 8C0E0000 		.4byte	0xe8c
 3040 0e7f 1E       		.uleb128 0x1e
 3041 0e80 01       		.uleb128 0x1
 3042 0e81 51       		.byte	0x51
 3043 0e82 02       		.uleb128 0x2
 3044 0e83 74       		.byte	0x74
 3045 0e84 00       		.sleb128 0
 3046 0e85 1E       		.uleb128 0x1e
 3047 0e86 01       		.uleb128 0x1
 3048 0e87 50       		.byte	0x50
 3049 0e88 02       		.uleb128 0x2
 3050 0e89 74       		.byte	0x74
 3051 0e8a 00       		.sleb128 0
 3052 0e8b 00       		.byte	0
 3053 0e8c 1D       		.uleb128 0x1d
 3054 0e8d 6A000000 		.4byte	.LVL92
 3055 0e91 15100000 		.4byte	0x1015
 3056 0e95 9F0E0000 		.4byte	0xe9f
 3057 0e99 1E       		.uleb128 0x1e
 3058 0e9a 01       		.uleb128 0x1
 3059 0e9b 50       		.byte	0x50
ARM GAS  /tmp/ccOSbeko.s 			page 55


 3060 0e9c 01       		.uleb128 0x1
 3061 0e9d 33       		.byte	0x33
 3062 0e9e 00       		.byte	0
 3063 0e9f 20       		.uleb128 0x20
 3064 0ea0 86000000 		.4byte	.LVL93
 3065 0ea4 15100000 		.4byte	0x1015
 3066 0ea8 1E       		.uleb128 0x1e
 3067 0ea9 01       		.uleb128 0x1
 3068 0eaa 50       		.byte	0x50
 3069 0eab 01       		.uleb128 0x1
 3070 0eac 34       		.byte	0x34
 3071 0ead 00       		.byte	0
 3072 0eae 00       		.byte	0
 3073 0eaf 24       		.uleb128 0x24
 3074 0eb0 76010000 		.4byte	.LASF100
 3075 0eb4 01       		.byte	0x1
 3076 0eb5 3B       		.byte	0x3b
 3077 0eb6 79040000 		.4byte	0x479
 3078 0eba 05       		.uleb128 0x5
 3079 0ebb 03       		.byte	0x3
 3080 0ebc 00000000 		.4byte	sem1
 3081 0ec0 29       		.uleb128 0x29
 3082 0ec1 3F000000 		.4byte	.LASF101
 3083 0ec5 08       		.byte	0x8
 3084 0ec6 EE       		.byte	0xee
 3085 0ec7 ED030000 		.4byte	0x3ed
 3086 0ecb 29       		.uleb128 0x29
 3087 0ecc D1050000 		.4byte	.LASF102
 3088 0ed0 09       		.byte	0x9
 3089 0ed1 68       		.byte	0x68
 3090 0ed2 49040000 		.4byte	0x449
 3091 0ed6 2A       		.uleb128 0x2a
 3092 0ed7 4C020000 		.4byte	0x24c
 3093 0edb E60E0000 		.4byte	0xee6
 3094 0edf 2B       		.uleb128 0x2b
 3095 0ee0 32030000 		.4byte	0x332
 3096 0ee4 04       		.byte	0x4
 3097 0ee5 00       		.byte	0
 3098 0ee6 29       		.uleb128 0x29
 3099 0ee7 C6040000 		.4byte	.LASF103
 3100 0eeb 0D       		.byte	0xd
 3101 0eec A5       		.byte	0xa5
 3102 0eed D60E0000 		.4byte	0xed6
 3103 0ef1 2A       		.uleb128 0x2a
 3104 0ef2 88020000 		.4byte	0x288
 3105 0ef6 FC0E0000 		.4byte	0xefc
 3106 0efa 2C       		.uleb128 0x2c
 3107 0efb 00       		.byte	0
 3108 0efc 2D       		.uleb128 0x2d
 3109 0efd 776100   		.ascii	"wa\000"
 3110 0f00 0D       		.byte	0xd
 3111 0f01 A7       		.byte	0xa7
 3112 0f02 060F0000 		.4byte	0xf06
 3113 0f06 12       		.uleb128 0x12
 3114 0f07 F10E0000 		.4byte	0xef1
 3115 0f0b 2E       		.uleb128 0x2e
 3116 0f0c BF010000 		.4byte	.LASF104
ARM GAS  /tmp/ccOSbeko.s 			page 56


 3117 0f10 01       		.byte	0x1
 3118 0f11 6F       		.byte	0x6f
 3119 0f12 1C0F0000 		.4byte	0xf1c
 3120 0f16 05       		.uleb128 0x5
 3121 0f17 03       		.byte	0x3
 3122 0f18 00000000 		.4byte	testsem1
 3123 0f1c 12       		.uleb128 0x12
 3124 0f1d 59050000 		.4byte	0x559
 3125 0f21 2E       		.uleb128 0x2e
 3126 0f22 C8010000 		.4byte	.LASF105
 3127 0f26 01       		.byte	0x1
 3128 0f27 B9       		.byte	0xb9
 3129 0f28 1C0F0000 		.4byte	0xf1c
 3130 0f2c 05       		.uleb128 0x5
 3131 0f2d 03       		.byte	0x3
 3132 0f2e 00000000 		.4byte	testsem2
 3133 0f32 2E       		.uleb128 0x2e
 3134 0f33 D1010000 		.4byte	.LASF106
 3135 0f37 01       		.byte	0x1
 3136 0f38 E6       		.byte	0xe6
 3137 0f39 1C0F0000 		.4byte	0xf1c
 3138 0f3d 05       		.uleb128 0x5
 3139 0f3e 03       		.byte	0x3
 3140 0f3f 00000000 		.4byte	testsem3
 3141 0f43 2F       		.uleb128 0x2f
 3142 0f44 DA010000 		.4byte	.LASF107
 3143 0f48 01       		.byte	0x1
 3144 0f49 1A01     		.2byte	0x11a
 3145 0f4b 1C0F0000 		.4byte	0xf1c
 3146 0f4f 05       		.uleb128 0x5
 3147 0f50 03       		.byte	0x3
 3148 0f51 00000000 		.4byte	testsem4
 3149 0f55 2A       		.uleb128 0x2a
 3150 0f56 650F0000 		.4byte	0xf65
 3151 0f5a 650F0000 		.4byte	0xf65
 3152 0f5e 2B       		.uleb128 0x2b
 3153 0f5f 32030000 		.4byte	0x332
 3154 0f63 04       		.byte	0x4
 3155 0f64 00       		.byte	0
 3156 0f65 09       		.uleb128 0x9
 3157 0f66 04       		.byte	0x4
 3158 0f67 1C0F0000 		.4byte	0xf1c
 3159 0f6b 2F       		.uleb128 0x2f
 3160 0f6c 71030000 		.4byte	.LASF108
 3161 0f70 01       		.byte	0x1
 3162 0f71 2501     		.2byte	0x125
 3163 0f73 7D0F0000 		.4byte	0xf7d
 3164 0f77 05       		.uleb128 0x5
 3165 0f78 03       		.byte	0x3
 3166 0f79 00000000 		.4byte	patternsem
 3167 0f7d 12       		.uleb128 0x12
 3168 0f7e 550F0000 		.4byte	0xf55
 3169 0f82 30       		.uleb128 0x30
 3170 0f83 9B020000 		.4byte	.LASF109
 3171 0f87 06       		.byte	0x6
 3172 0f88 6901     		.2byte	0x169
 3173 0f8a 4C020000 		.4byte	0x24c
ARM GAS  /tmp/ccOSbeko.s 			page 57


 3174 0f8e AC0F0000 		.4byte	0xfac
 3175 0f92 0E       		.uleb128 0xe
 3176 0f93 88020000 		.4byte	0x288
 3177 0f97 0E       		.uleb128 0xe
 3178 0f98 2C000000 		.4byte	0x2c
 3179 0f9c 0E       		.uleb128 0xe
 3180 0f9d E0000000 		.4byte	0xe0
 3181 0fa1 0E       		.uleb128 0xe
 3182 0fa2 39050000 		.4byte	0x539
 3183 0fa6 0E       		.uleb128 0xe
 3184 0fa7 88020000 		.4byte	0x288
 3185 0fab 00       		.byte	0
 3186 0fac 31       		.uleb128 0x31
 3187 0fad 25010000 		.4byte	.LASF113
 3188 0fb1 0A       		.byte	0xa
 3189 0fb2 35       		.byte	0x35
 3190 0fb3 BD0F0000 		.4byte	0xfbd
 3191 0fb7 0E       		.uleb128 0xe
 3192 0fb8 BD0F0000 		.4byte	0xfbd
 3193 0fbc 00       		.byte	0
 3194 0fbd 09       		.uleb128 0x9
 3195 0fbe 04       		.byte	0x4
 3196 0fbf 79040000 		.4byte	0x479
 3197 0fc3 32       		.uleb128 0x32
 3198 0fc4 ED020000 		.4byte	.LASF111
 3199 0fc8 0D       		.byte	0xd
 3200 0fc9 5C       		.byte	0x5c
 3201 0fca 33       		.uleb128 0x33
 3202 0fcb 38030000 		.4byte	.LASF110
 3203 0fcf 0D       		.byte	0xd
 3204 0fd0 59       		.byte	0x59
 3205 0fd1 A2000000 		.4byte	0xa2
 3206 0fd5 E40F0000 		.4byte	0xfe4
 3207 0fd9 0E       		.uleb128 0xe
 3208 0fda 37000000 		.4byte	0x37
 3209 0fde 0E       		.uleb128 0xe
 3210 0fdf E40F0000 		.4byte	0xfe4
 3211 0fe3 00       		.byte	0
 3212 0fe4 09       		.uleb128 0x9
 3213 0fe5 04       		.byte	0x4
 3214 0fe6 26050000 		.4byte	0x526
 3215 0fea 32       		.uleb128 0x32
 3216 0feb D3020000 		.4byte	.LASF112
 3217 0fef 0E       		.byte	0xe
 3218 0ff0 E0       		.byte	0xe0
 3219 0ff1 31       		.uleb128 0x31
 3220 0ff2 66000000 		.4byte	.LASF114
 3221 0ff6 0A       		.byte	0xa
 3222 0ff7 37       		.byte	0x37
 3223 0ff8 07100000 		.4byte	0x1007
 3224 0ffc 0E       		.uleb128 0xe
 3225 0ffd BD0F0000 		.4byte	0xfbd
 3226 1001 0E       		.uleb128 0xe
 3227 1002 0C010000 		.4byte	0x10c
 3228 1006 00       		.byte	0
 3229 1007 32       		.uleb128 0x32
 3230 1008 41010000 		.4byte	.LASF115
ARM GAS  /tmp/ccOSbeko.s 			page 58


 3231 100c 09       		.byte	0x9
 3232 100d 95       		.byte	0x95
 3233 100e 32       		.uleb128 0x32
 3234 100f 60030000 		.4byte	.LASF116
 3235 1013 0E       		.byte	0xe
 3236 1014 E1       		.byte	0xe1
 3237 1015 33       		.uleb128 0x33
 3238 1016 ED050000 		.4byte	.LASF117
 3239 101a 0D       		.byte	0xd
 3240 101b 58       		.byte	0x58
 3241 101c A2000000 		.4byte	0xa2
 3242 1020 2F100000 		.4byte	0x102f
 3243 1024 0E       		.uleb128 0xe
 3244 1025 37000000 		.4byte	0x37
 3245 1029 0E       		.uleb128 0xe
 3246 102a A2000000 		.4byte	0xa2
 3247 102e 00       		.byte	0
 3248 102f 33       		.uleb128 0x33
 3249 1030 5E050000 		.4byte	.LASF118
 3250 1034 0A       		.byte	0xa
 3251 1035 31       		.byte	0x31
 3252 1036 EB000000 		.4byte	0xeb
 3253 103a 44100000 		.4byte	0x1044
 3254 103e 0E       		.uleb128 0xe
 3255 103f BD0F0000 		.4byte	0xfbd
 3256 1043 00       		.byte	0
 3257 1044 31       		.uleb128 0x31
 3258 1045 C7000000 		.4byte	.LASF119
 3259 1049 0D       		.byte	0xd
 3260 104a 56       		.byte	0x56
 3261 104b 55100000 		.4byte	0x1055
 3262 104f 0E       		.uleb128 0xe
 3263 1050 26050000 		.4byte	0x526
 3264 1054 00       		.byte	0
 3265 1055 31       		.uleb128 0x31
 3266 1056 2B060000 		.4byte	.LASF120
 3267 105a 0A       		.byte	0xa
 3268 105b 2E       		.byte	0x2e
 3269 105c 6B100000 		.4byte	0x106b
 3270 1060 0E       		.uleb128 0xe
 3271 1061 BD0F0000 		.4byte	0xfbd
 3272 1065 0E       		.uleb128 0xe
 3273 1066 0C010000 		.4byte	0x10c
 3274 106a 00       		.byte	0
 3275 106b 34       		.uleb128 0x34
 3276 106c B5050000 		.4byte	.LASF121
 3277 1070 06       		.byte	0x6
 3278 1071 6E01     		.2byte	0x16e
 3279 1073 7D100000 		.4byte	0x107d
 3280 1077 0E       		.uleb128 0xe
 3281 1078 01010000 		.4byte	0x101
 3282 107c 00       		.byte	0
 3283 107d 31       		.uleb128 0x31
 3284 107e 0E000000 		.4byte	.LASF122
 3285 1082 0A       		.byte	0xa
 3286 1083 36       		.byte	0x36
 3287 1084 8E100000 		.4byte	0x108e
ARM GAS  /tmp/ccOSbeko.s 			page 59


 3288 1088 0E       		.uleb128 0xe
 3289 1089 BD0F0000 		.4byte	0xfbd
 3290 108d 00       		.byte	0
 3291 108e 31       		.uleb128 0x31
 3292 108f 24020000 		.4byte	.LASF123
 3293 1093 0A       		.byte	0xa
 3294 1094 2F       		.byte	0x2f
 3295 1095 A4100000 		.4byte	0x10a4
 3296 1099 0E       		.uleb128 0xe
 3297 109a BD0F0000 		.4byte	0xfbd
 3298 109e 0E       		.uleb128 0xe
 3299 109f 0C010000 		.4byte	0x10c
 3300 10a3 00       		.byte	0
 3301 10a4 33       		.uleb128 0x33
 3302 10a5 99010000 		.4byte	.LASF124
 3303 10a9 0A       		.byte	0xa
 3304 10aa 33       		.byte	0x33
 3305 10ab EB000000 		.4byte	0xeb
 3306 10af BE100000 		.4byte	0x10be
 3307 10b3 0E       		.uleb128 0xe
 3308 10b4 BD0F0000 		.4byte	0xfbd
 3309 10b8 0E       		.uleb128 0xe
 3310 10b9 01010000 		.4byte	0x101
 3311 10bd 00       		.byte	0
 3312 10be 35       		.uleb128 0x35
 3313 10bf 91040000 		.4byte	.LASF132
 3314 10c3 0D       		.byte	0xd
 3315 10c4 5D       		.byte	0x5d
 3316 10c5 01010000 		.4byte	0x101
 3317 10c9 33       		.uleb128 0x33
 3318 10ca 0C010000 		.4byte	.LASF125
 3319 10ce 0D       		.byte	0xd
 3320 10cf 5A       		.byte	0x5a
 3321 10d0 A2000000 		.4byte	0xa2
 3322 10d4 E8100000 		.4byte	0x10e8
 3323 10d8 0E       		.uleb128 0xe
 3324 10d9 37000000 		.4byte	0x37
 3325 10dd 0E       		.uleb128 0xe
 3326 10de 01010000 		.4byte	0x101
 3327 10e2 0E       		.uleb128 0xe
 3328 10e3 01010000 		.4byte	0x101
 3329 10e7 00       		.byte	0
 3330 10e8 36       		.uleb128 0x36
 3331 10e9 98000000 		.4byte	.LASF126
 3332 10ed 0A       		.byte	0xa
 3333 10ee 39       		.byte	0x39
 3334 10ef EB000000 		.4byte	0xeb
 3335 10f3 0E       		.uleb128 0xe
 3336 10f4 BD0F0000 		.4byte	0xfbd
 3337 10f8 0E       		.uleb128 0xe
 3338 10f9 BD0F0000 		.4byte	0xfbd
 3339 10fd 00       		.byte	0
 3340 10fe 00       		.byte	0
 3341              		.section	.debug_abbrev,"",%progbits
 3342              	.Ldebug_abbrev0:
 3343 0000 01       		.uleb128 0x1
 3344 0001 11       		.uleb128 0x11
ARM GAS  /tmp/ccOSbeko.s 			page 60


 3345 0002 01       		.byte	0x1
 3346 0003 25       		.uleb128 0x25
 3347 0004 0E       		.uleb128 0xe
 3348 0005 13       		.uleb128 0x13
 3349 0006 0B       		.uleb128 0xb
 3350 0007 03       		.uleb128 0x3
 3351 0008 0E       		.uleb128 0xe
 3352 0009 1B       		.uleb128 0x1b
 3353 000a 0E       		.uleb128 0xe
 3354 000b 55       		.uleb128 0x55
 3355 000c 17       		.uleb128 0x17
 3356 000d 11       		.uleb128 0x11
 3357 000e 01       		.uleb128 0x1
 3358 000f 10       		.uleb128 0x10
 3359 0010 17       		.uleb128 0x17
 3360 0011 00       		.byte	0
 3361 0012 00       		.byte	0
 3362 0013 02       		.uleb128 0x2
 3363 0014 24       		.uleb128 0x24
 3364 0015 00       		.byte	0
 3365 0016 0B       		.uleb128 0xb
 3366 0017 0B       		.uleb128 0xb
 3367 0018 3E       		.uleb128 0x3e
 3368 0019 0B       		.uleb128 0xb
 3369 001a 03       		.uleb128 0x3
 3370 001b 08       		.uleb128 0x8
 3371 001c 00       		.byte	0
 3372 001d 00       		.byte	0
 3373 001e 03       		.uleb128 0x3
 3374 001f 16       		.uleb128 0x16
 3375 0020 00       		.byte	0
 3376 0021 03       		.uleb128 0x3
 3377 0022 0E       		.uleb128 0xe
 3378 0023 3A       		.uleb128 0x3a
 3379 0024 0B       		.uleb128 0xb
 3380 0025 3B       		.uleb128 0x3b
 3381 0026 0B       		.uleb128 0xb
 3382 0027 49       		.uleb128 0x49
 3383 0028 13       		.uleb128 0x13
 3384 0029 00       		.byte	0
 3385 002a 00       		.byte	0
 3386 002b 04       		.uleb128 0x4
 3387 002c 24       		.uleb128 0x24
 3388 002d 00       		.byte	0
 3389 002e 0B       		.uleb128 0xb
 3390 002f 0B       		.uleb128 0xb
 3391 0030 3E       		.uleb128 0x3e
 3392 0031 0B       		.uleb128 0xb
 3393 0032 03       		.uleb128 0x3
 3394 0033 0E       		.uleb128 0xe
 3395 0034 00       		.byte	0
 3396 0035 00       		.byte	0
 3397 0036 05       		.uleb128 0x5
 3398 0037 13       		.uleb128 0x13
 3399 0038 01       		.byte	0x1
 3400 0039 03       		.uleb128 0x3
 3401 003a 0E       		.uleb128 0xe
ARM GAS  /tmp/ccOSbeko.s 			page 61


 3402 003b 0B       		.uleb128 0xb
 3403 003c 0B       		.uleb128 0xb
 3404 003d 3A       		.uleb128 0x3a
 3405 003e 0B       		.uleb128 0xb
 3406 003f 3B       		.uleb128 0x3b
 3407 0040 0B       		.uleb128 0xb
 3408 0041 01       		.uleb128 0x1
 3409 0042 13       		.uleb128 0x13
 3410 0043 00       		.byte	0
 3411 0044 00       		.byte	0
 3412 0045 06       		.uleb128 0x6
 3413 0046 0D       		.uleb128 0xd
 3414 0047 00       		.byte	0
 3415 0048 03       		.uleb128 0x3
 3416 0049 0E       		.uleb128 0xe
 3417 004a 3A       		.uleb128 0x3a
 3418 004b 0B       		.uleb128 0xb
 3419 004c 3B       		.uleb128 0x3b
 3420 004d 0B       		.uleb128 0xb
 3421 004e 49       		.uleb128 0x49
 3422 004f 13       		.uleb128 0x13
 3423 0050 38       		.uleb128 0x38
 3424 0051 0B       		.uleb128 0xb
 3425 0052 00       		.byte	0
 3426 0053 00       		.byte	0
 3427 0054 07       		.uleb128 0x7
 3428 0055 0D       		.uleb128 0xd
 3429 0056 00       		.byte	0
 3430 0057 03       		.uleb128 0x3
 3431 0058 08       		.uleb128 0x8
 3432 0059 3A       		.uleb128 0x3a
 3433 005a 0B       		.uleb128 0xb
 3434 005b 3B       		.uleb128 0x3b
 3435 005c 0B       		.uleb128 0xb
 3436 005d 49       		.uleb128 0x49
 3437 005e 13       		.uleb128 0x13
 3438 005f 38       		.uleb128 0x38
 3439 0060 0B       		.uleb128 0xb
 3440 0061 00       		.byte	0
 3441 0062 00       		.byte	0
 3442 0063 08       		.uleb128 0x8
 3443 0064 13       		.uleb128 0x13
 3444 0065 01       		.byte	0x1
 3445 0066 0B       		.uleb128 0xb
 3446 0067 0B       		.uleb128 0xb
 3447 0068 3A       		.uleb128 0x3a
 3448 0069 0B       		.uleb128 0xb
 3449 006a 3B       		.uleb128 0x3b
 3450 006b 0B       		.uleb128 0xb
 3451 006c 01       		.uleb128 0x1
 3452 006d 13       		.uleb128 0x13
 3453 006e 00       		.byte	0
 3454 006f 00       		.byte	0
 3455 0070 09       		.uleb128 0x9
 3456 0071 0F       		.uleb128 0xf
 3457 0072 00       		.byte	0
 3458 0073 0B       		.uleb128 0xb
ARM GAS  /tmp/ccOSbeko.s 			page 62


 3459 0074 0B       		.uleb128 0xb
 3460 0075 49       		.uleb128 0x49
 3461 0076 13       		.uleb128 0x13
 3462 0077 00       		.byte	0
 3463 0078 00       		.byte	0
 3464 0079 0A       		.uleb128 0xa
 3465 007a 0F       		.uleb128 0xf
 3466 007b 00       		.byte	0
 3467 007c 0B       		.uleb128 0xb
 3468 007d 0B       		.uleb128 0xb
 3469 007e 00       		.byte	0
 3470 007f 00       		.byte	0
 3471 0080 0B       		.uleb128 0xb
 3472 0081 13       		.uleb128 0x13
 3473 0082 01       		.byte	0x1
 3474 0083 03       		.uleb128 0x3
 3475 0084 0E       		.uleb128 0xe
 3476 0085 0B       		.uleb128 0xb
 3477 0086 0B       		.uleb128 0xb
 3478 0087 3A       		.uleb128 0x3a
 3479 0088 0B       		.uleb128 0xb
 3480 0089 3B       		.uleb128 0x3b
 3481 008a 05       		.uleb128 0x5
 3482 008b 01       		.uleb128 0x1
 3483 008c 13       		.uleb128 0x13
 3484 008d 00       		.byte	0
 3485 008e 00       		.byte	0
 3486 008f 0C       		.uleb128 0xc
 3487 0090 0D       		.uleb128 0xd
 3488 0091 00       		.byte	0
 3489 0092 03       		.uleb128 0x3
 3490 0093 08       		.uleb128 0x8
 3491 0094 3A       		.uleb128 0x3a
 3492 0095 0B       		.uleb128 0xb
 3493 0096 3B       		.uleb128 0x3b
 3494 0097 05       		.uleb128 0x5
 3495 0098 49       		.uleb128 0x49
 3496 0099 13       		.uleb128 0x13
 3497 009a 38       		.uleb128 0x38
 3498 009b 0B       		.uleb128 0xb
 3499 009c 00       		.byte	0
 3500 009d 00       		.byte	0
 3501 009e 0D       		.uleb128 0xd
 3502 009f 15       		.uleb128 0x15
 3503 00a0 01       		.byte	0x1
 3504 00a1 27       		.uleb128 0x27
 3505 00a2 19       		.uleb128 0x19
 3506 00a3 01       		.uleb128 0x1
 3507 00a4 13       		.uleb128 0x13
 3508 00a5 00       		.byte	0
 3509 00a6 00       		.byte	0
 3510 00a7 0E       		.uleb128 0xe
 3511 00a8 05       		.uleb128 0x5
 3512 00a9 00       		.byte	0
 3513 00aa 49       		.uleb128 0x49
 3514 00ab 13       		.uleb128 0x13
 3515 00ac 00       		.byte	0
ARM GAS  /tmp/ccOSbeko.s 			page 63


 3516 00ad 00       		.byte	0
 3517 00ae 0F       		.uleb128 0xf
 3518 00af 35       		.uleb128 0x35
 3519 00b0 00       		.byte	0
 3520 00b1 49       		.uleb128 0x49
 3521 00b2 13       		.uleb128 0x13
 3522 00b3 00       		.byte	0
 3523 00b4 00       		.byte	0
 3524 00b5 10       		.uleb128 0x10
 3525 00b6 17       		.uleb128 0x17
 3526 00b7 01       		.byte	0x1
 3527 00b8 0B       		.uleb128 0xb
 3528 00b9 0B       		.uleb128 0xb
 3529 00ba 3A       		.uleb128 0x3a
 3530 00bb 0B       		.uleb128 0xb
 3531 00bc 3B       		.uleb128 0x3b
 3532 00bd 0B       		.uleb128 0xb
 3533 00be 01       		.uleb128 0x1
 3534 00bf 13       		.uleb128 0x13
 3535 00c0 00       		.byte	0
 3536 00c1 00       		.byte	0
 3537 00c2 11       		.uleb128 0x11
 3538 00c3 0D       		.uleb128 0xd
 3539 00c4 00       		.byte	0
 3540 00c5 03       		.uleb128 0x3
 3541 00c6 0E       		.uleb128 0xe
 3542 00c7 3A       		.uleb128 0x3a
 3543 00c8 0B       		.uleb128 0xb
 3544 00c9 3B       		.uleb128 0x3b
 3545 00ca 0B       		.uleb128 0xb
 3546 00cb 49       		.uleb128 0x49
 3547 00cc 13       		.uleb128 0x13
 3548 00cd 00       		.byte	0
 3549 00ce 00       		.byte	0
 3550 00cf 12       		.uleb128 0x12
 3551 00d0 26       		.uleb128 0x26
 3552 00d1 00       		.byte	0
 3553 00d2 49       		.uleb128 0x49
 3554 00d3 13       		.uleb128 0x13
 3555 00d4 00       		.byte	0
 3556 00d5 00       		.byte	0
 3557 00d6 13       		.uleb128 0x13
 3558 00d7 15       		.uleb128 0x15
 3559 00d8 01       		.byte	0x1
 3560 00d9 27       		.uleb128 0x27
 3561 00da 19       		.uleb128 0x19
 3562 00db 49       		.uleb128 0x49
 3563 00dc 13       		.uleb128 0x13
 3564 00dd 01       		.uleb128 0x1
 3565 00de 13       		.uleb128 0x13
 3566 00df 00       		.byte	0
 3567 00e0 00       		.byte	0
 3568 00e1 14       		.uleb128 0x14
 3569 00e2 15       		.uleb128 0x15
 3570 00e3 00       		.byte	0
 3571 00e4 27       		.uleb128 0x27
 3572 00e5 19       		.uleb128 0x19
ARM GAS  /tmp/ccOSbeko.s 			page 64


 3573 00e6 00       		.byte	0
 3574 00e7 00       		.byte	0
 3575 00e8 15       		.uleb128 0x15
 3576 00e9 2E       		.uleb128 0x2e
 3577 00ea 01       		.byte	0x1
 3578 00eb 03       		.uleb128 0x3
 3579 00ec 0E       		.uleb128 0xe
 3580 00ed 3A       		.uleb128 0x3a
 3581 00ee 0B       		.uleb128 0xb
 3582 00ef 3B       		.uleb128 0x3b
 3583 00f0 0B       		.uleb128 0xb
 3584 00f1 27       		.uleb128 0x27
 3585 00f2 19       		.uleb128 0x19
 3586 00f3 20       		.uleb128 0x20
 3587 00f4 0B       		.uleb128 0xb
 3588 00f5 01       		.uleb128 0x1
 3589 00f6 13       		.uleb128 0x13
 3590 00f7 00       		.byte	0
 3591 00f8 00       		.byte	0
 3592 00f9 16       		.uleb128 0x16
 3593 00fa 34       		.uleb128 0x34
 3594 00fb 00       		.byte	0
 3595 00fc 03       		.uleb128 0x3
 3596 00fd 08       		.uleb128 0x8
 3597 00fe 3A       		.uleb128 0x3a
 3598 00ff 0B       		.uleb128 0xb
 3599 0100 3B       		.uleb128 0x3b
 3600 0101 0B       		.uleb128 0xb
 3601 0102 49       		.uleb128 0x49
 3602 0103 13       		.uleb128 0x13
 3603 0104 00       		.byte	0
 3604 0105 00       		.byte	0
 3605 0106 17       		.uleb128 0x17
 3606 0107 34       		.uleb128 0x34
 3607 0108 00       		.byte	0
 3608 0109 03       		.uleb128 0x3
 3609 010a 0E       		.uleb128 0xe
 3610 010b 3A       		.uleb128 0x3a
 3611 010c 0B       		.uleb128 0xb
 3612 010d 3B       		.uleb128 0x3b
 3613 010e 0B       		.uleb128 0xb
 3614 010f 49       		.uleb128 0x49
 3615 0110 13       		.uleb128 0x13
 3616 0111 00       		.byte	0
 3617 0112 00       		.byte	0
 3618 0113 18       		.uleb128 0x18
 3619 0114 2E       		.uleb128 0x2e
 3620 0115 00       		.byte	0
 3621 0116 03       		.uleb128 0x3
 3622 0117 0E       		.uleb128 0xe
 3623 0118 3A       		.uleb128 0x3a
 3624 0119 0B       		.uleb128 0xb
 3625 011a 3B       		.uleb128 0x3b
 3626 011b 0B       		.uleb128 0xb
 3627 011c 27       		.uleb128 0x27
 3628 011d 19       		.uleb128 0x19
 3629 011e 20       		.uleb128 0x20
ARM GAS  /tmp/ccOSbeko.s 			page 65


 3630 011f 0B       		.uleb128 0xb
 3631 0120 00       		.byte	0
 3632 0121 00       		.byte	0
 3633 0122 19       		.uleb128 0x19
 3634 0123 2E       		.uleb128 0x2e
 3635 0124 01       		.byte	0x1
 3636 0125 03       		.uleb128 0x3
 3637 0126 0E       		.uleb128 0xe
 3638 0127 3A       		.uleb128 0x3a
 3639 0128 0B       		.uleb128 0xb
 3640 0129 3B       		.uleb128 0x3b
 3641 012a 0B       		.uleb128 0xb
 3642 012b 27       		.uleb128 0x27
 3643 012c 19       		.uleb128 0x19
 3644 012d 11       		.uleb128 0x11
 3645 012e 01       		.uleb128 0x1
 3646 012f 12       		.uleb128 0x12
 3647 0130 06       		.uleb128 0x6
 3648 0131 40       		.uleb128 0x40
 3649 0132 18       		.uleb128 0x18
 3650 0133 9742     		.uleb128 0x2117
 3651 0135 19       		.uleb128 0x19
 3652 0136 01       		.uleb128 0x1
 3653 0137 13       		.uleb128 0x13
 3654 0138 00       		.byte	0
 3655 0139 00       		.byte	0
 3656 013a 1A       		.uleb128 0x1a
 3657 013b 0B       		.uleb128 0xb
 3658 013c 01       		.byte	0x1
 3659 013d 55       		.uleb128 0x55
 3660 013e 17       		.uleb128 0x17
 3661 013f 01       		.uleb128 0x1
 3662 0140 13       		.uleb128 0x13
 3663 0141 00       		.byte	0
 3664 0142 00       		.byte	0
 3665 0143 1B       		.uleb128 0x1b
 3666 0144 34       		.uleb128 0x34
 3667 0145 00       		.byte	0
 3668 0146 03       		.uleb128 0x3
 3669 0147 08       		.uleb128 0x8
 3670 0148 3A       		.uleb128 0x3a
 3671 0149 0B       		.uleb128 0xb
 3672 014a 3B       		.uleb128 0x3b
 3673 014b 0B       		.uleb128 0xb
 3674 014c 49       		.uleb128 0x49
 3675 014d 13       		.uleb128 0x13
 3676 014e 02       		.uleb128 0x2
 3677 014f 18       		.uleb128 0x18
 3678 0150 00       		.byte	0
 3679 0151 00       		.byte	0
 3680 0152 1C       		.uleb128 0x1c
 3681 0153 0B       		.uleb128 0xb
 3682 0154 01       		.byte	0x1
 3683 0155 11       		.uleb128 0x11
 3684 0156 01       		.uleb128 0x1
 3685 0157 12       		.uleb128 0x12
 3686 0158 06       		.uleb128 0x6
ARM GAS  /tmp/ccOSbeko.s 			page 66


 3687 0159 01       		.uleb128 0x1
 3688 015a 13       		.uleb128 0x13
 3689 015b 00       		.byte	0
 3690 015c 00       		.byte	0
 3691 015d 1D       		.uleb128 0x1d
 3692 015e 898201   		.uleb128 0x4109
 3693 0161 01       		.byte	0x1
 3694 0162 11       		.uleb128 0x11
 3695 0163 01       		.uleb128 0x1
 3696 0164 31       		.uleb128 0x31
 3697 0165 13       		.uleb128 0x13
 3698 0166 01       		.uleb128 0x1
 3699 0167 13       		.uleb128 0x13
 3700 0168 00       		.byte	0
 3701 0169 00       		.byte	0
 3702 016a 1E       		.uleb128 0x1e
 3703 016b 8A8201   		.uleb128 0x410a
 3704 016e 00       		.byte	0
 3705 016f 02       		.uleb128 0x2
 3706 0170 18       		.uleb128 0x18
 3707 0171 9142     		.uleb128 0x2111
 3708 0173 18       		.uleb128 0x18
 3709 0174 00       		.byte	0
 3710 0175 00       		.byte	0
 3711 0176 1F       		.uleb128 0x1f
 3712 0177 898201   		.uleb128 0x4109
 3713 017a 00       		.byte	0
 3714 017b 11       		.uleb128 0x11
 3715 017c 01       		.uleb128 0x1
 3716 017d 31       		.uleb128 0x31
 3717 017e 13       		.uleb128 0x13
 3718 017f 00       		.byte	0
 3719 0180 00       		.byte	0
 3720 0181 20       		.uleb128 0x20
 3721 0182 898201   		.uleb128 0x4109
 3722 0185 01       		.byte	0x1
 3723 0186 11       		.uleb128 0x11
 3724 0187 01       		.uleb128 0x1
 3725 0188 9542     		.uleb128 0x2115
 3726 018a 19       		.uleb128 0x19
 3727 018b 31       		.uleb128 0x31
 3728 018c 13       		.uleb128 0x13
 3729 018d 00       		.byte	0
 3730 018e 00       		.byte	0
 3731 018f 21       		.uleb128 0x21
 3732 0190 2E       		.uleb128 0x2e
 3733 0191 01       		.byte	0x1
 3734 0192 03       		.uleb128 0x3
 3735 0193 0E       		.uleb128 0xe
 3736 0194 3A       		.uleb128 0x3a
 3737 0195 0B       		.uleb128 0xb
 3738 0196 3B       		.uleb128 0x3b
 3739 0197 0B       		.uleb128 0xb
 3740 0198 27       		.uleb128 0x27
 3741 0199 19       		.uleb128 0x19
 3742 019a 49       		.uleb128 0x49
 3743 019b 13       		.uleb128 0x13
ARM GAS  /tmp/ccOSbeko.s 			page 67


 3744 019c 11       		.uleb128 0x11
 3745 019d 01       		.uleb128 0x1
 3746 019e 12       		.uleb128 0x12
 3747 019f 06       		.uleb128 0x6
 3748 01a0 40       		.uleb128 0x40
 3749 01a1 18       		.uleb128 0x18
 3750 01a2 9742     		.uleb128 0x2117
 3751 01a4 19       		.uleb128 0x19
 3752 01a5 01       		.uleb128 0x1
 3753 01a6 13       		.uleb128 0x13
 3754 01a7 00       		.byte	0
 3755 01a8 00       		.byte	0
 3756 01a9 22       		.uleb128 0x22
 3757 01aa 05       		.uleb128 0x5
 3758 01ab 00       		.byte	0
 3759 01ac 03       		.uleb128 0x3
 3760 01ad 08       		.uleb128 0x8
 3761 01ae 3A       		.uleb128 0x3a
 3762 01af 0B       		.uleb128 0xb
 3763 01b0 3B       		.uleb128 0x3b
 3764 01b1 0B       		.uleb128 0xb
 3765 01b2 49       		.uleb128 0x49
 3766 01b3 13       		.uleb128 0x13
 3767 01b4 02       		.uleb128 0x2
 3768 01b5 17       		.uleb128 0x17
 3769 01b6 00       		.byte	0
 3770 01b7 00       		.byte	0
 3771 01b8 23       		.uleb128 0x23
 3772 01b9 898201   		.uleb128 0x4109
 3773 01bc 01       		.byte	0x1
 3774 01bd 11       		.uleb128 0x11
 3775 01be 01       		.uleb128 0x1
 3776 01bf 31       		.uleb128 0x31
 3777 01c0 13       		.uleb128 0x13
 3778 01c1 00       		.byte	0
 3779 01c2 00       		.byte	0
 3780 01c3 24       		.uleb128 0x24
 3781 01c4 34       		.uleb128 0x34
 3782 01c5 00       		.byte	0
 3783 01c6 03       		.uleb128 0x3
 3784 01c7 0E       		.uleb128 0xe
 3785 01c8 3A       		.uleb128 0x3a
 3786 01c9 0B       		.uleb128 0xb
 3787 01ca 3B       		.uleb128 0x3b
 3788 01cb 0B       		.uleb128 0xb
 3789 01cc 49       		.uleb128 0x49
 3790 01cd 13       		.uleb128 0x13
 3791 01ce 02       		.uleb128 0x2
 3792 01cf 18       		.uleb128 0x18
 3793 01d0 00       		.byte	0
 3794 01d1 00       		.byte	0
 3795 01d2 25       		.uleb128 0x25
 3796 01d3 34       		.uleb128 0x34
 3797 01d4 00       		.byte	0
 3798 01d5 03       		.uleb128 0x3
 3799 01d6 08       		.uleb128 0x8
 3800 01d7 3A       		.uleb128 0x3a
ARM GAS  /tmp/ccOSbeko.s 			page 68


 3801 01d8 0B       		.uleb128 0xb
 3802 01d9 3B       		.uleb128 0x3b
 3803 01da 05       		.uleb128 0x5
 3804 01db 49       		.uleb128 0x49
 3805 01dc 13       		.uleb128 0x13
 3806 01dd 02       		.uleb128 0x2
 3807 01de 18       		.uleb128 0x18
 3808 01df 00       		.byte	0
 3809 01e0 00       		.byte	0
 3810 01e1 26       		.uleb128 0x26
 3811 01e2 2E       		.uleb128 0x2e
 3812 01e3 01       		.byte	0x1
 3813 01e4 31       		.uleb128 0x31
 3814 01e5 13       		.uleb128 0x13
 3815 01e6 11       		.uleb128 0x11
 3816 01e7 01       		.uleb128 0x1
 3817 01e8 12       		.uleb128 0x12
 3818 01e9 06       		.uleb128 0x6
 3819 01ea 40       		.uleb128 0x40
 3820 01eb 18       		.uleb128 0x18
 3821 01ec 9742     		.uleb128 0x2117
 3822 01ee 19       		.uleb128 0x19
 3823 01ef 01       		.uleb128 0x1
 3824 01f0 13       		.uleb128 0x13
 3825 01f1 00       		.byte	0
 3826 01f2 00       		.byte	0
 3827 01f3 27       		.uleb128 0x27
 3828 01f4 34       		.uleb128 0x34
 3829 01f5 00       		.byte	0
 3830 01f6 31       		.uleb128 0x31
 3831 01f7 13       		.uleb128 0x13
 3832 01f8 00       		.byte	0
 3833 01f9 00       		.byte	0
 3834 01fa 28       		.uleb128 0x28
 3835 01fb 34       		.uleb128 0x34
 3836 01fc 00       		.byte	0
 3837 01fd 31       		.uleb128 0x31
 3838 01fe 13       		.uleb128 0x13
 3839 01ff 02       		.uleb128 0x2
 3840 0200 17       		.uleb128 0x17
 3841 0201 00       		.byte	0
 3842 0202 00       		.byte	0
 3843 0203 29       		.uleb128 0x29
 3844 0204 34       		.uleb128 0x34
 3845 0205 00       		.byte	0
 3846 0206 03       		.uleb128 0x3
 3847 0207 0E       		.uleb128 0xe
 3848 0208 3A       		.uleb128 0x3a
 3849 0209 0B       		.uleb128 0xb
 3850 020a 3B       		.uleb128 0x3b
 3851 020b 0B       		.uleb128 0xb
 3852 020c 49       		.uleb128 0x49
 3853 020d 13       		.uleb128 0x13
 3854 020e 3F       		.uleb128 0x3f
 3855 020f 19       		.uleb128 0x19
 3856 0210 3C       		.uleb128 0x3c
 3857 0211 19       		.uleb128 0x19
ARM GAS  /tmp/ccOSbeko.s 			page 69


 3858 0212 00       		.byte	0
 3859 0213 00       		.byte	0
 3860 0214 2A       		.uleb128 0x2a
 3861 0215 01       		.uleb128 0x1
 3862 0216 01       		.byte	0x1
 3863 0217 49       		.uleb128 0x49
 3864 0218 13       		.uleb128 0x13
 3865 0219 01       		.uleb128 0x1
 3866 021a 13       		.uleb128 0x13
 3867 021b 00       		.byte	0
 3868 021c 00       		.byte	0
 3869 021d 2B       		.uleb128 0x2b
 3870 021e 21       		.uleb128 0x21
 3871 021f 00       		.byte	0
 3872 0220 49       		.uleb128 0x49
 3873 0221 13       		.uleb128 0x13
 3874 0222 2F       		.uleb128 0x2f
 3875 0223 0B       		.uleb128 0xb
 3876 0224 00       		.byte	0
 3877 0225 00       		.byte	0
 3878 0226 2C       		.uleb128 0x2c
 3879 0227 21       		.uleb128 0x21
 3880 0228 00       		.byte	0
 3881 0229 00       		.byte	0
 3882 022a 00       		.byte	0
 3883 022b 2D       		.uleb128 0x2d
 3884 022c 34       		.uleb128 0x34
 3885 022d 00       		.byte	0
 3886 022e 03       		.uleb128 0x3
 3887 022f 08       		.uleb128 0x8
 3888 0230 3A       		.uleb128 0x3a
 3889 0231 0B       		.uleb128 0xb
 3890 0232 3B       		.uleb128 0x3b
 3891 0233 0B       		.uleb128 0xb
 3892 0234 49       		.uleb128 0x49
 3893 0235 13       		.uleb128 0x13
 3894 0236 3F       		.uleb128 0x3f
 3895 0237 19       		.uleb128 0x19
 3896 0238 3C       		.uleb128 0x3c
 3897 0239 19       		.uleb128 0x19
 3898 023a 00       		.byte	0
 3899 023b 00       		.byte	0
 3900 023c 2E       		.uleb128 0x2e
 3901 023d 34       		.uleb128 0x34
 3902 023e 00       		.byte	0
 3903 023f 03       		.uleb128 0x3
 3904 0240 0E       		.uleb128 0xe
 3905 0241 3A       		.uleb128 0x3a
 3906 0242 0B       		.uleb128 0xb
 3907 0243 3B       		.uleb128 0x3b
 3908 0244 0B       		.uleb128 0xb
 3909 0245 49       		.uleb128 0x49
 3910 0246 13       		.uleb128 0x13
 3911 0247 3F       		.uleb128 0x3f
 3912 0248 19       		.uleb128 0x19
 3913 0249 02       		.uleb128 0x2
 3914 024a 18       		.uleb128 0x18
ARM GAS  /tmp/ccOSbeko.s 			page 70


 3915 024b 00       		.byte	0
 3916 024c 00       		.byte	0
 3917 024d 2F       		.uleb128 0x2f
 3918 024e 34       		.uleb128 0x34
 3919 024f 00       		.byte	0
 3920 0250 03       		.uleb128 0x3
 3921 0251 0E       		.uleb128 0xe
 3922 0252 3A       		.uleb128 0x3a
 3923 0253 0B       		.uleb128 0xb
 3924 0254 3B       		.uleb128 0x3b
 3925 0255 05       		.uleb128 0x5
 3926 0256 49       		.uleb128 0x49
 3927 0257 13       		.uleb128 0x13
 3928 0258 3F       		.uleb128 0x3f
 3929 0259 19       		.uleb128 0x19
 3930 025a 02       		.uleb128 0x2
 3931 025b 18       		.uleb128 0x18
 3932 025c 00       		.byte	0
 3933 025d 00       		.byte	0
 3934 025e 30       		.uleb128 0x30
 3935 025f 2E       		.uleb128 0x2e
 3936 0260 01       		.byte	0x1
 3937 0261 3F       		.uleb128 0x3f
 3938 0262 19       		.uleb128 0x19
 3939 0263 03       		.uleb128 0x3
 3940 0264 0E       		.uleb128 0xe
 3941 0265 3A       		.uleb128 0x3a
 3942 0266 0B       		.uleb128 0xb
 3943 0267 3B       		.uleb128 0x3b
 3944 0268 05       		.uleb128 0x5
 3945 0269 27       		.uleb128 0x27
 3946 026a 19       		.uleb128 0x19
 3947 026b 49       		.uleb128 0x49
 3948 026c 13       		.uleb128 0x13
 3949 026d 3C       		.uleb128 0x3c
 3950 026e 19       		.uleb128 0x19
 3951 026f 01       		.uleb128 0x1
 3952 0270 13       		.uleb128 0x13
 3953 0271 00       		.byte	0
 3954 0272 00       		.byte	0
 3955 0273 31       		.uleb128 0x31
 3956 0274 2E       		.uleb128 0x2e
 3957 0275 01       		.byte	0x1
 3958 0276 3F       		.uleb128 0x3f
 3959 0277 19       		.uleb128 0x19
 3960 0278 03       		.uleb128 0x3
 3961 0279 0E       		.uleb128 0xe
 3962 027a 3A       		.uleb128 0x3a
 3963 027b 0B       		.uleb128 0xb
 3964 027c 3B       		.uleb128 0x3b
 3965 027d 0B       		.uleb128 0xb
 3966 027e 27       		.uleb128 0x27
 3967 027f 19       		.uleb128 0x19
 3968 0280 3C       		.uleb128 0x3c
 3969 0281 19       		.uleb128 0x19
 3970 0282 01       		.uleb128 0x1
 3971 0283 13       		.uleb128 0x13
ARM GAS  /tmp/ccOSbeko.s 			page 71


 3972 0284 00       		.byte	0
 3973 0285 00       		.byte	0
 3974 0286 32       		.uleb128 0x32
 3975 0287 2E       		.uleb128 0x2e
 3976 0288 00       		.byte	0
 3977 0289 3F       		.uleb128 0x3f
 3978 028a 19       		.uleb128 0x19
 3979 028b 03       		.uleb128 0x3
 3980 028c 0E       		.uleb128 0xe
 3981 028d 3A       		.uleb128 0x3a
 3982 028e 0B       		.uleb128 0xb
 3983 028f 3B       		.uleb128 0x3b
 3984 0290 0B       		.uleb128 0xb
 3985 0291 27       		.uleb128 0x27
 3986 0292 19       		.uleb128 0x19
 3987 0293 3C       		.uleb128 0x3c
 3988 0294 19       		.uleb128 0x19
 3989 0295 00       		.byte	0
 3990 0296 00       		.byte	0
 3991 0297 33       		.uleb128 0x33
 3992 0298 2E       		.uleb128 0x2e
 3993 0299 01       		.byte	0x1
 3994 029a 3F       		.uleb128 0x3f
 3995 029b 19       		.uleb128 0x19
 3996 029c 03       		.uleb128 0x3
 3997 029d 0E       		.uleb128 0xe
 3998 029e 3A       		.uleb128 0x3a
 3999 029f 0B       		.uleb128 0xb
 4000 02a0 3B       		.uleb128 0x3b
 4001 02a1 0B       		.uleb128 0xb
 4002 02a2 27       		.uleb128 0x27
 4003 02a3 19       		.uleb128 0x19
 4004 02a4 49       		.uleb128 0x49
 4005 02a5 13       		.uleb128 0x13
 4006 02a6 3C       		.uleb128 0x3c
 4007 02a7 19       		.uleb128 0x19
 4008 02a8 01       		.uleb128 0x1
 4009 02a9 13       		.uleb128 0x13
 4010 02aa 00       		.byte	0
 4011 02ab 00       		.byte	0
 4012 02ac 34       		.uleb128 0x34
 4013 02ad 2E       		.uleb128 0x2e
 4014 02ae 01       		.byte	0x1
 4015 02af 3F       		.uleb128 0x3f
 4016 02b0 19       		.uleb128 0x19
 4017 02b1 03       		.uleb128 0x3
 4018 02b2 0E       		.uleb128 0xe
 4019 02b3 3A       		.uleb128 0x3a
 4020 02b4 0B       		.uleb128 0xb
 4021 02b5 3B       		.uleb128 0x3b
 4022 02b6 05       		.uleb128 0x5
 4023 02b7 27       		.uleb128 0x27
 4024 02b8 19       		.uleb128 0x19
 4025 02b9 3C       		.uleb128 0x3c
 4026 02ba 19       		.uleb128 0x19
 4027 02bb 01       		.uleb128 0x1
 4028 02bc 13       		.uleb128 0x13
ARM GAS  /tmp/ccOSbeko.s 			page 72


 4029 02bd 00       		.byte	0
 4030 02be 00       		.byte	0
 4031 02bf 35       		.uleb128 0x35
 4032 02c0 2E       		.uleb128 0x2e
 4033 02c1 00       		.byte	0
 4034 02c2 3F       		.uleb128 0x3f
 4035 02c3 19       		.uleb128 0x19
 4036 02c4 03       		.uleb128 0x3
 4037 02c5 0E       		.uleb128 0xe
 4038 02c6 3A       		.uleb128 0x3a
 4039 02c7 0B       		.uleb128 0xb
 4040 02c8 3B       		.uleb128 0x3b
 4041 02c9 0B       		.uleb128 0xb
 4042 02ca 27       		.uleb128 0x27
 4043 02cb 19       		.uleb128 0x19
 4044 02cc 49       		.uleb128 0x49
 4045 02cd 13       		.uleb128 0x13
 4046 02ce 3C       		.uleb128 0x3c
 4047 02cf 19       		.uleb128 0x19
 4048 02d0 00       		.byte	0
 4049 02d1 00       		.byte	0
 4050 02d2 36       		.uleb128 0x36
 4051 02d3 2E       		.uleb128 0x2e
 4052 02d4 01       		.byte	0x1
 4053 02d5 3F       		.uleb128 0x3f
 4054 02d6 19       		.uleb128 0x19
 4055 02d7 03       		.uleb128 0x3
 4056 02d8 0E       		.uleb128 0xe
 4057 02d9 3A       		.uleb128 0x3a
 4058 02da 0B       		.uleb128 0xb
 4059 02db 3B       		.uleb128 0x3b
 4060 02dc 0B       		.uleb128 0xb
 4061 02dd 27       		.uleb128 0x27
 4062 02de 19       		.uleb128 0x19
 4063 02df 49       		.uleb128 0x49
 4064 02e0 13       		.uleb128 0x13
 4065 02e1 3C       		.uleb128 0x3c
 4066 02e2 19       		.uleb128 0x19
 4067 02e3 00       		.byte	0
 4068 02e4 00       		.byte	0
 4069 02e5 00       		.byte	0
 4070              		.section	.debug_loc,"",%progbits
 4071              	.Ldebug_loc0:
 4072              	.LLST0:
 4073 0000 00000000 		.4byte	.LVL19
 4074 0004 06000000 		.4byte	.LVL20
 4075 0008 0100     		.2byte	0x1
 4076 000a 50       		.byte	0x50
 4077 000b 06000000 		.4byte	.LVL20
 4078 000f 18000000 		.4byte	.LFE14
 4079 0013 0400     		.2byte	0x4
 4080 0015 F3       		.byte	0xf3
 4081 0016 01       		.uleb128 0x1
 4082 0017 50       		.byte	0x50
 4083 0018 9F       		.byte	0x9f
 4084 0019 00000000 		.4byte	0
 4085 001d 00000000 		.4byte	0
ARM GAS  /tmp/ccOSbeko.s 			page 73


 4086              	.LLST1:
 4087 0021 00000000 		.4byte	.LVL23
 4088 0025 06000000 		.4byte	.LVL24
 4089 0029 0100     		.2byte	0x1
 4090 002b 50       		.byte	0x50
 4091 002c 06000000 		.4byte	.LVL24
 4092 0030 14000000 		.4byte	.LVL27
 4093 0034 0100     		.2byte	0x1
 4094 0036 54       		.byte	0x54
 4095 0037 14000000 		.4byte	.LVL27
 4096 003b 18000000 		.4byte	.LFE8
 4097 003f 0400     		.2byte	0x4
 4098 0041 F3       		.byte	0xf3
 4099 0042 01       		.uleb128 0x1
 4100 0043 50       		.byte	0x50
 4101 0044 9F       		.byte	0x9f
 4102 0045 00000000 		.4byte	0
 4103 0049 00000000 		.4byte	0
 4104              	.LLST2:
 4105 004d 00000000 		.4byte	.LVL31
 4106 0051 04000000 		.4byte	.LVL32
 4107 0055 0100     		.2byte	0x1
 4108 0057 50       		.byte	0x50
 4109 0058 04000000 		.4byte	.LVL32
 4110 005c 30000000 		.4byte	.LFE11
 4111 0060 0400     		.2byte	0x4
 4112 0062 F3       		.byte	0xf3
 4113 0063 01       		.uleb128 0x1
 4114 0064 50       		.byte	0x50
 4115 0065 9F       		.byte	0x9f
 4116 0066 00000000 		.4byte	0
 4117 006a 00000000 		.4byte	0
 4118              	.LLST3:
 4119 006e 00000000 		.4byte	.LVL38
 4120 0072 0D000000 		.4byte	.LVL39-1
 4121 0076 0100     		.2byte	0x1
 4122 0078 50       		.byte	0x50
 4123 0079 0D000000 		.4byte	.LVL39-1
 4124 007d 2E000000 		.4byte	.LFE16
 4125 0081 0100     		.2byte	0x1
 4126 0083 54       		.byte	0x54
 4127 0084 00000000 		.4byte	0
 4128 0088 00000000 		.4byte	0
 4129              	.LLST4:
 4130 008c 0E000000 		.4byte	.LVL62
 4131 0090 1C000000 		.4byte	.LVL63
 4132 0094 0100     		.2byte	0x1
 4133 0096 50       		.byte	0x50
 4134 0097 1C000000 		.4byte	.LVL63
 4135 009b 1F000000 		.4byte	.LVL64-1
 4136 009f 0300     		.2byte	0x3
 4137 00a1 7E       		.byte	0x7e
 4138 00a2 7F       		.sleb128 -1
 4139 00a3 9F       		.byte	0x9f
 4140 00a4 00000000 		.4byte	0
 4141 00a8 00000000 		.4byte	0
 4142              	.LLST5:
ARM GAS  /tmp/ccOSbeko.s 			page 74


 4143 00ac BA000000 		.4byte	.LVL76
 4144 00b0 BC000000 		.4byte	.LVL77
 4145 00b4 0200     		.2byte	0x2
 4146 00b6 30       		.byte	0x30
 4147 00b7 9F       		.byte	0x9f
 4148 00b8 00000000 		.4byte	0
 4149 00bc 00000000 		.4byte	0
 4150              	.LLST6:
 4151 00c0 BA000000 		.4byte	.LVL76
 4152 00c4 2A010000 		.4byte	.LVL85
 4153 00c8 0400     		.2byte	0x4
 4154 00ca 76       		.byte	0x76
 4155 00cb C413     		.sleb128 2500
 4156 00cd 9F       		.byte	0x9f
 4157 00ce 2A010000 		.4byte	.LVL85
 4158 00d2 2D010000 		.4byte	.LVL86-1
 4159 00d6 0300     		.2byte	0x3
 4160 00d8 72       		.byte	0x72
 4161 00d9 7B       		.sleb128 -5
 4162 00da 9F       		.byte	0x9f
 4163 00db 00000000 		.4byte	0
 4164 00df 00000000 		.4byte	0
 4165              	.LLST7:
 4166 00e3 76000000 		.4byte	.LVL69
 4167 00e7 79000000 		.4byte	.LVL70-1
 4168 00eb 0100     		.2byte	0x1
 4169 00ed 50       		.byte	0x50
 4170 00ee 79000000 		.4byte	.LVL70-1
 4171 00f2 90000000 		.4byte	.LVL72
 4172 00f6 0100     		.2byte	0x1
 4173 00f8 55       		.byte	0x55
 4174 00f9 CC000000 		.4byte	.LVL79
 4175 00fd D6000000 		.4byte	.LVL80
 4176 0101 0100     		.2byte	0x1
 4177 0103 50       		.byte	0x50
 4178 0104 D6000000 		.4byte	.LVL80
 4179 0108 D9000000 		.4byte	.LVL81-1
 4180 010c 0300     		.2byte	0x3
 4181 010e 72       		.byte	0x72
 4182 010f 7F       		.sleb128 -1
 4183 0110 9F       		.byte	0x9f
 4184 0111 00000000 		.4byte	0
 4185 0115 00000000 		.4byte	0
 4186              		.section	.debug_aranges,"",%progbits
 4187 0000 6C000000 		.4byte	0x6c
 4188 0004 0200     		.2byte	0x2
 4189 0006 00000000 		.4byte	.Ldebug_info0
 4190 000a 04       		.byte	0x4
 4191 000b 00       		.byte	0
 4192 000c 0000     		.2byte	0
 4193 000e 0000     		.2byte	0
 4194 0010 00000000 		.4byte	.LFB9
 4195 0014 40010000 		.4byte	.LFE9-.LFB9
 4196 0018 00000000 		.4byte	.LFB14
 4197 001c 18000000 		.4byte	.LFE14-.LFB14
 4198 0020 00000000 		.4byte	.LFB8
 4199 0024 18000000 		.4byte	.LFE8-.LFB8
ARM GAS  /tmp/ccOSbeko.s 			page 75


 4200 0028 00000000 		.4byte	.LFB7
 4201 002c 0C000000 		.4byte	.LFE7-.LFB7
 4202 0030 00000000 		.4byte	.LFB10
 4203 0034 0C000000 		.4byte	.LFE10-.LFB10
 4204 0038 00000000 		.4byte	.LFB13
 4205 003c 0C000000 		.4byte	.LFE13-.LFB13
 4206 0040 00000000 		.4byte	.LFB11
 4207 0044 30000000 		.4byte	.LFE11-.LFB11
 4208 0048 00000000 		.4byte	.LFB16
 4209 004c 2E000000 		.4byte	.LFE16-.LFB16
 4210 0050 00000000 		.4byte	.LFB17
 4211 0054 0C010000 		.4byte	.LFE17-.LFB17
 4212 0058 00000000 		.4byte	.LFB12
 4213 005c 4C010000 		.4byte	.LFE12-.LFB12
 4214 0060 00000000 		.4byte	.LFB15
 4215 0064 9C000000 		.4byte	.LFE15-.LFB15
 4216 0068 00000000 		.4byte	0
 4217 006c 00000000 		.4byte	0
 4218              		.section	.debug_ranges,"",%progbits
 4219              	.Ldebug_ranges0:
 4220 0000 D6000000 		.4byte	.LBB2
 4221 0004 D8000000 		.4byte	.LBE2
 4222 0008 DA000000 		.4byte	.LBB3
 4223 000c DE000000 		.4byte	.LBE3
 4224 0010 00000000 		.4byte	0
 4225 0014 00000000 		.4byte	0
 4226 0018 02000000 		.4byte	.LBB7
 4227 001c 04000000 		.4byte	.LBE7
 4228 0020 06000000 		.4byte	.LBB8
 4229 0024 0A000000 		.4byte	.LBE8
 4230 0028 00000000 		.4byte	0
 4231 002c 00000000 		.4byte	0
 4232 0030 4C000000 		.4byte	.LBB17
 4233 0034 24010000 		.4byte	.LBE17
 4234 0038 2A010000 		.4byte	.LBB18
 4235 003c 4C010000 		.4byte	.LBE18
 4236 0040 00000000 		.4byte	0
 4237 0044 00000000 		.4byte	0
 4238 0048 00000000 		.4byte	.LFB9
 4239 004c 40010000 		.4byte	.LFE9
 4240 0050 00000000 		.4byte	.LFB14
 4241 0054 18000000 		.4byte	.LFE14
 4242 0058 00000000 		.4byte	.LFB8
 4243 005c 18000000 		.4byte	.LFE8
 4244 0060 00000000 		.4byte	.LFB7
 4245 0064 0C000000 		.4byte	.LFE7
 4246 0068 00000000 		.4byte	.LFB10
 4247 006c 0C000000 		.4byte	.LFE10
 4248 0070 00000000 		.4byte	.LFB13
 4249 0074 0C000000 		.4byte	.LFE13
 4250 0078 00000000 		.4byte	.LFB11
 4251 007c 30000000 		.4byte	.LFE11
 4252 0080 00000000 		.4byte	.LFB16
 4253 0084 2E000000 		.4byte	.LFE16
 4254 0088 00000000 		.4byte	.LFB17
 4255 008c 0C010000 		.4byte	.LFE17
 4256 0090 00000000 		.4byte	.LFB12
ARM GAS  /tmp/ccOSbeko.s 			page 76


 4257 0094 4C010000 		.4byte	.LFE12
 4258 0098 00000000 		.4byte	.LFB15
 4259 009c 9C000000 		.4byte	.LFE15
 4260 00a0 00000000 		.4byte	0
 4261 00a4 00000000 		.4byte	0
 4262              		.section	.debug_line,"",%progbits
 4263              	.Ldebug_line0:
 4264 0000 AF020000 		.section	.debug_str,"MS",%progbits,1
 4264      02004A01 
 4264      00000201 
 4264      FB0E0D00 
 4264      01010101 
 4265              	.LASF83:
 4266 0000 7466756E 		.ascii	"tfunc_t\000"
 4266      635F7400 
 4267              	.LASF41:
 4268 0008 705F6D73 		.ascii	"p_msg\000"
 4268      6700
 4269              	.LASF122:
 4270 000e 63685365 		.ascii	"chSemSignalI\000"
 4270      6D536967 
 4270      6E616C49 
 4270      00
 4271              	.LASF2:
 4272 001b 73697A65 		.ascii	"size_t\000"
 4272      5F7400
 4273              	.LASF78:
 4274 0022 7264796D 		.ascii	"rdymsg\000"
 4274      736700
 4275              	.LASF92:
 4276 0029 73656D31 		.ascii	"sem1_execute\000"
 4276      5F657865 
 4276      63757465 
 4276      00
 4277              	.LASF12:
 4278 0036 75696E74 		.ascii	"uint64_t\000"
 4278      36345F74 
 4278      00
 4279              	.LASF101:
 4280 003f 76746C69 		.ascii	"vtlist\000"
 4280      737400
 4281              	.LASF13:
 4282 0046 6C6F6E67 		.ascii	"long long unsigned int\000"
 4282      206C6F6E 
 4282      6720756E 
 4282      7369676E 
 4282      65642069 
 4283              	.LASF79:
 4284 005d 65786974 		.ascii	"exitcode\000"
 4284      636F6465 
 4284      00
 4285              	.LASF114:
 4286 0066 63685365 		.ascii	"chSemAddCounterI\000"
 4286      6D416464 
 4286      436F756E 
 4286      74657249 
 4286      00
ARM GAS  /tmp/ccOSbeko.s 			page 77


 4287              	.LASF28:
 4288 0077 705F7072 		.ascii	"p_prio\000"
 4288      696F00
 4289              	.LASF11:
 4290 007e 6C6F6E67 		.ascii	"long long int\000"
 4290      206C6F6E 
 4290      6720696E 
 4290      7400
 4291              	.LASF1:
 4292 008c 7369676E 		.ascii	"signed char\000"
 4292      65642063 
 4292      68617200 
 4293              	.LASF126:
 4294 0098 63685365 		.ascii	"chSemSignalWait\000"
 4294      6D536967 
 4294      6E616C57 
 4294      61697400 
 4295              	.LASF45:
 4296 00a8 705F6D70 		.ascii	"p_mpool\000"
 4296      6F6F6C00 
 4297              	.LASF14:
 4298 00b0 626F6F6C 		.ascii	"bool_t\000"
 4298      5F7400
 4299              	.LASF75:
 4300 00b7 6D5F7175 		.ascii	"m_queue\000"
 4300      65756500 
 4301              	.LASF90:
 4302 00bf 74687265 		.ascii	"thread3\000"
 4302      61643300 
 4303              	.LASF119:
 4304 00c7 74657374 		.ascii	"test_emit_token\000"
 4304      5F656D69 
 4304      745F746F 
 4304      6B656E00 
 4305              	.LASF19:
 4306 00d7 74736C69 		.ascii	"tslices_t\000"
 4306      6365735F 
 4306      7400
 4307              	.LASF130:
 4308 00e1 73656D32 		.ascii	"sem2_execute\000"
 4308      5F657865 
 4308      63757465 
 4308      00
 4309              	.LASF8:
 4310 00ee 6C6F6E67 		.ascii	"long int\000"
 4310      20696E74 
 4310      00
 4311              	.LASF89:
 4312 00f7 74617267 		.ascii	"target_time\000"
 4312      65745F74 
 4312      696D6500 
 4313              	.LASF17:
 4314 0103 74737461 		.ascii	"tstate_t\000"
 4314      74655F74 
 4314      00
 4315              	.LASF125:
 4316 010c 5F746573 		.ascii	"_test_assert_time_window\000"
ARM GAS  /tmp/ccOSbeko.s 			page 78


 4316      745F6173 
 4316      73657274 
 4316      5F74696D 
 4316      655F7769 
 4317              	.LASF113:
 4318 0125 63685365 		.ascii	"chSemSignal\000"
 4318      6D536967 
 4318      6E616C00 
 4319              	.LASF30:
 4320 0131 705F6E65 		.ascii	"p_newer\000"
 4320      77657200 
 4321              	.LASF70:
 4322 0139 735F7175 		.ascii	"s_queue\000"
 4322      65756500 
 4323              	.LASF115:
 4324 0141 63685363 		.ascii	"chSchRescheduleS\000"
 4324      68526573 
 4324      63686564 
 4324      756C6553 
 4324      00
 4325              	.LASF65:
 4326 0152 725F6E65 		.ascii	"r_newer\000"
 4326      77657200 
 4327              	.LASF48:
 4328 015a 72656761 		.ascii	"regarm_t\000"
 4328      726D5F74 
 4328      00
 4329              	.LASF56:
 4330 0163 76745F70 		.ascii	"vt_prev\000"
 4330      72657600 
 4331              	.LASF94:
 4332 016b 73656D32 		.ascii	"sem2_setup\000"
 4332      5F736574 
 4332      757000
 4333              	.LASF100:
 4334 0176 73656D31 		.ascii	"sem1\000"
 4334      00
 4335              	.LASF24:
 4336 017b 636E745F 		.ascii	"cnt_t\000"
 4336      7400
 4337              	.LASF33:
 4338 0181 705F7374 		.ascii	"p_stklimit\000"
 4338      6B6C696D 
 4338      697400
 4339              	.LASF0:
 4340 018c 756E7369 		.ascii	"unsigned int\000"
 4340      676E6564 
 4340      20696E74 
 4340      00
 4341              	.LASF124:
 4342 0199 63685365 		.ascii	"chSemWaitTimeout\000"
 4342      6D576169 
 4342      7454696D 
 4342      656F7574 
 4342      00
 4343              	.LASF55:
 4344 01aa 76745F6E 		.ascii	"vt_next\000"
ARM GAS  /tmp/ccOSbeko.s 			page 79


 4344      65787400 
 4345              	.LASF131:
 4346 01b2 73656D33 		.ascii	"sem3_execute\000"
 4346      5F657865 
 4346      63757465 
 4346      00
 4347              	.LASF104:
 4348 01bf 74657374 		.ascii	"testsem1\000"
 4348      73656D31 
 4348      00
 4349              	.LASF105:
 4350 01c8 74657374 		.ascii	"testsem2\000"
 4350      73656D32 
 4350      00
 4351              	.LASF106:
 4352 01d1 74657374 		.ascii	"testsem3\000"
 4352      73656D33 
 4352      00
 4353              	.LASF107:
 4354 01da 74657374 		.ascii	"testsem4\000"
 4354      73656D34 
 4354      00
 4355              	.LASF10:
 4356 01e3 6C6F6E67 		.ascii	"long unsigned int\000"
 4356      20756E73 
 4356      69676E65 
 4356      6420696E 
 4356      7400
 4357              	.LASF87:
 4358 01f5 74656172 		.ascii	"teardown\000"
 4358      646F776E 
 4358      00
 4359              	.LASF85:
 4360 01fe 6E616D65 		.ascii	"name\000"
 4360      00
 4361              	.LASF71:
 4362 0203 735F636E 		.ascii	"s_cnt\000"
 4362      7400
 4363              	.LASF51:
 4364 0209 636F6E74 		.ascii	"context\000"
 4364      65787400 
 4365              	.LASF6:
 4366 0211 73686F72 		.ascii	"short unsigned int\000"
 4366      7420756E 
 4366      7369676E 
 4366      65642069 
 4366      6E7400
 4367              	.LASF123:
 4368 0224 63685365 		.ascii	"chSemReset\000"
 4368      6D526573 
 4368      657400
 4369              	.LASF99:
 4370 022f 6273656D 		.ascii	"bsem\000"
 4370      00
 4371              	.LASF21:
 4372 0234 6D73675F 		.ascii	"msg_t\000"
 4372      7400
ARM GAS  /tmp/ccOSbeko.s 			page 80


 4373              	.LASF16:
 4374 023a 746D6F64 		.ascii	"tmode_t\000"
 4374      655F7400 
 4375              	.LASF47:
 4376 0242 54687265 		.ascii	"ThreadsList\000"
 4376      6164734C 
 4376      69737400 
 4377              	.LASF129:
 4378 024e 2F686F6D 		.ascii	"/home/john/git/ChibiOS-RT/testhal/STM32F30x/ADC\000"
 4378      652F6A6F 
 4378      686E2F67 
 4378      69742F43 
 4378      68696269 
 4379              	.LASF22:
 4380 027e 6576656E 		.ascii	"eventmask_t\000"
 4380      746D6173 
 4380      6B5F7400 
 4381              	.LASF74:
 4382 028a 4D757465 		.ascii	"Mutex\000"
 4382      7800
 4383              	.LASF49:
 4384 0290 73746B61 		.ascii	"stkalign_t\000"
 4384      6C69676E 
 4384      5F7400
 4385              	.LASF109:
 4386 029b 63685468 		.ascii	"chThdCreateStatic\000"
 4386      64437265 
 4386      61746553 
 4386      74617469 
 4386      6300
 4387              	.LASF98:
 4388 02ad 73656D34 		.ascii	"sem4_execute\000"
 4388      5F657865 
 4388      63757465 
 4388      00
 4389              	.LASF57:
 4390 02ba 76745F74 		.ascii	"vt_time\000"
 4390      696D6500 
 4391              	.LASF52:
 4392 02c2 73697A65 		.ascii	"sizetype\000"
 4392      74797065 
 4392      00
 4393              	.LASF58:
 4394 02cb 76745F66 		.ascii	"vt_func\000"
 4394      756E6300 
 4395              	.LASF112:
 4396 02d3 6462675F 		.ascii	"dbg_check_lock\000"
 4396      63686563 
 4396      6B5F6C6F 
 4396      636B00
 4397              	.LASF93:
 4398 02e2 73656D31 		.ascii	"sem1_setup\000"
 4398      5F736574 
 4398      757000
 4399              	.LASF111:
 4400 02ed 74657374 		.ascii	"test_wait_threads\000"
 4400      5F776169 
ARM GAS  /tmp/ccOSbeko.s 			page 81


 4400      745F7468 
 4400      72656164 
 4400      7300
 4401              	.LASF31:
 4402 02ff 705F6F6C 		.ascii	"p_older\000"
 4402      64657200 
 4403              	.LASF91:
 4404 0307 74687265 		.ascii	"thread1\000"
 4404      61643100 
 4405              	.LASF96:
 4406 030f 74687265 		.ascii	"thread2\000"
 4406      61643200 
 4407              	.LASF64:
 4408 0317 725F6374 		.ascii	"r_ctx\000"
 4408      7800
 4409              	.LASF97:
 4410 031d 74687265 		.ascii	"thread4\000"
 4410      61643400 
 4411              	.LASF46:
 4412 0325 54687265 		.ascii	"ThreadsQueue\000"
 4412      61647351 
 4412      75657565 
 4412      00
 4413              	.LASF86:
 4414 0332 73657475 		.ascii	"setup\000"
 4414      7000
 4415              	.LASF110:
 4416 0338 5F746573 		.ascii	"_test_assert_sequence\000"
 4416      745F6173 
 4416      73657274 
 4416      5F736571 
 4416      75656E63 
 4417              	.LASF67:
 4418 034e 725F6375 		.ascii	"r_current\000"
 4418      7272656E 
 4418      7400
 4419              	.LASF66:
 4420 0358 725F6F6C 		.ascii	"r_older\000"
 4420      64657200 
 4421              	.LASF116:
 4422 0360 6462675F 		.ascii	"dbg_check_unlock\000"
 4422      63686563 
 4422      6B5F756E 
 4422      6C6F636B 
 4422      00
 4423              	.LASF108:
 4424 0371 70617474 		.ascii	"patternsem\000"
 4424      65726E73 
 4424      656D00
 4425              	.LASF18:
 4426 037c 74726566 		.ascii	"trefs_t\000"
 4426      735F7400 
 4427              	.LASF27:
 4428 0384 705F7072 		.ascii	"p_prev\000"
 4428      657600
 4429              	.LASF88:
 4430 038b 65786563 		.ascii	"execute\000"
ARM GAS  /tmp/ccOSbeko.s 			page 82


 4430      75746500 
 4431              	.LASF20:
 4432 0393 74707269 		.ascii	"tprio_t\000"
 4432      6F5F7400 
 4433              	.LASF127:
 4434 039b 474E5520 		.ascii	"GNU C 4.8.3 20131129 (release) [ARM/embedded-4_8-br"
 4434      4320342E 
 4434      382E3320 
 4434      32303133 
 4434      31313239 
 4435 03ce 616E6368 		.ascii	"anch revision 205641] -mcpu=cortex-m4 -mno-thumb-in"
 4435      20726576 
 4435      6973696F 
 4435      6E203230 
 4435      35363431 
 4436 0401 74657277 		.ascii	"terwork -mthumb -ggdb -O2 -fomit-frame-pointer -fal"
 4436      6F726B20 
 4436      2D6D7468 
 4436      756D6220 
 4436      2D676764 
 4437 0434 69676E2D 		.ascii	"ign-functions=16 -ffunction-sections -fdata-section"
 4437      66756E63 
 4437      74696F6E 
 4437      733D3136 
 4437      202D6666 
 4438 0467 73202D66 		.ascii	"s -fno-common\000"
 4438      6E6F2D63 
 4438      6F6D6D6F 
 4438      6E00
 4439              	.LASF15:
 4440 0475 5F426F6F 		.ascii	"_Bool\000"
 4440      6C00
 4441              	.LASF7:
 4442 047b 696E7433 		.ascii	"int32_t\000"
 4442      325F7400 
 4443              	.LASF4:
 4444 0483 756E7369 		.ascii	"unsigned char\000"
 4444      676E6564 
 4444      20636861 
 4444      7200
 4445              	.LASF132:
 4446 0491 74657374 		.ascii	"test_wait_tick\000"
 4446      5F776169 
 4446      745F7469 
 4446      636B00
 4447              	.LASF43:
 4448 04a0 705F6D74 		.ascii	"p_mtxlist\000"
 4448      786C6973 
 4448      7400
 4449              	.LASF5:
 4450 04aa 73686F72 		.ascii	"short int\000"
 4450      7420696E 
 4450      7400
 4451              	.LASF34:
 4452 04b4 705F7374 		.ascii	"p_state\000"
 4452      61746500 
 4453              	.LASF37:
ARM GAS  /tmp/ccOSbeko.s 			page 83


 4454 04bc 705F7072 		.ascii	"p_preempt\000"
 4454      65656D70 
 4454      7400
 4455              	.LASF103:
 4456 04c6 74687265 		.ascii	"threads\000"
 4456      61647300 
 4457              	.LASF63:
 4458 04ce 725F7072 		.ascii	"r_prio\000"
 4458      696F00
 4459              	.LASF81:
 4460 04d5 65776D61 		.ascii	"ewmask\000"
 4460      736B00
 4461              	.LASF26:
 4462 04dc 705F6E65 		.ascii	"p_next\000"
 4462      787400
 4463              	.LASF35:
 4464 04e3 705F666C 		.ascii	"p_flags\000"
 4464      61677300 
 4465              	.LASF25:
 4466 04eb 54687265 		.ascii	"Thread\000"
 4466      616400
 4467              	.LASF84:
 4468 04f2 74657374 		.ascii	"testcase\000"
 4468      63617365 
 4468      00
 4469              	.LASF42:
 4470 04fb 705F6570 		.ascii	"p_epending\000"
 4470      656E6469 
 4470      6E6700
 4471              	.LASF9:
 4472 0506 75696E74 		.ascii	"uint32_t\000"
 4472      33325F74 
 4472      00
 4473              	.LASF62:
 4474 050f 725F7175 		.ascii	"r_queue\000"
 4474      65756500 
 4475              	.LASF54:
 4476 0517 56697274 		.ascii	"VirtualTimer\000"
 4476      75616C54 
 4476      696D6572 
 4476      00
 4477              	.LASF82:
 4478 0524 63686172 		.ascii	"char\000"
 4478      00
 4479              	.LASF73:
 4480 0529 42696E61 		.ascii	"BinarySemaphore\000"
 4480      72795365 
 4480      6D617068 
 4480      6F726500 
 4481              	.LASF77:
 4482 0539 6D5F6E65 		.ascii	"m_next\000"
 4482      787400
 4483              	.LASF23:
 4484 0540 73797374 		.ascii	"systime_t\000"
 4484      696D655F 
 4484      7400
 4485              	.LASF44:
ARM GAS  /tmp/ccOSbeko.s 			page 84


 4486 054a 705F7265 		.ascii	"p_realprio\000"
 4486      616C7072 
 4486      696F00
 4487              	.LASF53:
 4488 0555 76746675 		.ascii	"vtfunc_t\000"
 4488      6E635F74 
 4488      00
 4489              	.LASF118:
 4490 055e 63685365 		.ascii	"chSemWait\000"
 4490      6D576169 
 4490      7400
 4491              	.LASF128:
 4492 0568 2E2E2F2E 		.ascii	"../../../test/testsem.c\000"
 4492      2E2F2E2E 
 4492      2F746573 
 4492      742F7465 
 4492      73747365 
 4493              	.LASF38:
 4494 0580 705F7469 		.ascii	"p_time\000"
 4494      6D6500
 4495              	.LASF50:
 4496 0587 696E7463 		.ascii	"intctx\000"
 4496      747800
 4497              	.LASF40:
 4498 058e 705F6D73 		.ascii	"p_msgqueue\000"
 4498      67717565 
 4498      756500
 4499              	.LASF59:
 4500 0599 76745F70 		.ascii	"vt_par\000"
 4500      617200
 4501              	.LASF69:
 4502 05a0 53656D61 		.ascii	"Semaphore\000"
 4502      70686F72 
 4502      6500
 4503              	.LASF95:
 4504 05aa 73656D33 		.ascii	"sem3_setup\000"
 4504      5F736574 
 4504      757000
 4505              	.LASF121:
 4506 05b5 63685468 		.ascii	"chThdSleep\000"
 4506      64536C65 
 4506      657000
 4507              	.LASF36:
 4508 05c0 705F7265 		.ascii	"p_refs\000"
 4508      667300
 4509              	.LASF68:
 4510 05c7 52656164 		.ascii	"ReadyList\000"
 4510      794C6973 
 4510      7400
 4511              	.LASF102:
 4512 05d1 726C6973 		.ascii	"rlist\000"
 4512      7400
 4513              	.LASF3:
 4514 05d7 75696E74 		.ascii	"uint8_t\000"
 4514      385F7400 
 4515              	.LASF80:
 4516 05df 77746F62 		.ascii	"wtobjp\000"
ARM GAS  /tmp/ccOSbeko.s 			page 85


 4516      6A7000
 4517              	.LASF32:
 4518 05e6 705F6E61 		.ascii	"p_name\000"
 4518      6D6500
 4519              	.LASF117:
 4520 05ed 5F746573 		.ascii	"_test_assert\000"
 4520      745F6173 
 4520      73657274 
 4520      00
 4521              	.LASF60:
 4522 05fa 76745F73 		.ascii	"vt_systime\000"
 4522      79737469 
 4522      6D6500
 4523              	.LASF72:
 4524 0605 62735F73 		.ascii	"bs_sem\000"
 4524      656D00
 4525              	.LASF61:
 4526 060c 56544C69 		.ascii	"VTList\000"
 4526      737400
 4527              	.LASF76:
 4528 0613 6D5F6F77 		.ascii	"m_owner\000"
 4528      6E657200 
 4529              	.LASF29:
 4530 061b 705F6374 		.ascii	"p_ctx\000"
 4530      7800
 4531              	.LASF39:
 4532 0621 705F7761 		.ascii	"p_waiting\000"
 4532      6974696E 
 4532      6700
 4533              	.LASF120:
 4534 062b 63685365 		.ascii	"chSemInit\000"
 4534      6D496E69 
 4534      7400
 4535              		.ident	"GCC: (GNU Tools for ARM Embedded Processors) 4.8.3 20131129 (release) [ARM/embedded-4_8-br
ARM GAS  /tmp/ccOSbeko.s 			page 86


DEFINED SYMBOLS
                            *ABS*:0000000000000000 testsem.c
     /tmp/ccOSbeko.s:19     .text.sem1_execute:0000000000000000 $t
     /tmp/ccOSbeko.s:24     .text.sem1_execute:0000000000000000 sem1_execute
     /tmp/ccOSbeko.s:216    .text.sem1_execute:0000000000000114 $d
     /tmp/ccOSbeko.s:273    .text.thread1:0000000000000000 thread1
     /tmp/ccOSbeko.s:231    .text.thread3:0000000000000000 $t
     /tmp/ccOSbeko.s:236    .text.thread3:0000000000000000 thread3
     /tmp/ccOSbeko.s:263    .text.thread3:0000000000000014 $d
     /tmp/ccOSbeko.s:268    .text.thread1:0000000000000000 $t
     /tmp/ccOSbeko.s:302    .text.thread1:0000000000000014 $d
     /tmp/ccOSbeko.s:307    .text.sem1_setup:0000000000000000 $t
     /tmp/ccOSbeko.s:312    .text.sem1_setup:0000000000000000 sem1_setup
     /tmp/ccOSbeko.s:327    .text.sem1_setup:0000000000000008 $d
     /tmp/ccOSbeko.s:332    .text.sem2_setup:0000000000000000 $t
     /tmp/ccOSbeko.s:337    .text.sem2_setup:0000000000000000 sem2_setup
     /tmp/ccOSbeko.s:352    .text.sem2_setup:0000000000000008 $d
     /tmp/ccOSbeko.s:357    .text.sem3_setup:0000000000000000 $t
     /tmp/ccOSbeko.s:362    .text.sem3_setup:0000000000000000 sem3_setup
     /tmp/ccOSbeko.s:377    .text.sem3_setup:0000000000000008 $d
     /tmp/ccOSbeko.s:382    .text.thread2:0000000000000000 $t
     /tmp/ccOSbeko.s:387    .text.thread2:0000000000000000 thread2
     /tmp/ccOSbeko.s:436    .text.thread2:000000000000002c $d
     /tmp/ccOSbeko.s:441    .text.thread4:0000000000000000 $t
     /tmp/ccOSbeko.s:446    .text.thread4:0000000000000000 thread4
     /tmp/ccOSbeko.s:502    .text.sem4_execute:0000000000000000 $t
     /tmp/ccOSbeko.s:507    .text.sem4_execute:0000000000000000 sem4_execute
     /tmp/ccOSbeko.s:685    .text.sem4_execute:00000000000000fc $d
     /tmp/ccOSbeko.s:693    .text.sem2_execute:0000000000000000 $t
     /tmp/ccOSbeko.s:698    .text.sem2_execute:0000000000000000 sem2_execute
     /tmp/ccOSbeko.s:894    .text.sem2_execute:0000000000000130 $d
     /tmp/ccOSbeko.s:907    .text.sem3_execute:0000000000000000 $t
     /tmp/ccOSbeko.s:912    .text.sem3_execute:0000000000000000 sem3_execute
     /tmp/ccOSbeko.s:1012   .text.sem3_execute:0000000000000088 $d
     /tmp/ccOSbeko.s:1076   .rodata.patternsem:0000000000000000 patternsem
     /tmp/ccOSbeko.s:1058   .rodata.testsem4:0000000000000000 testsem4
     /tmp/ccOSbeko.s:1049   .rodata.testsem3:0000000000000000 testsem3
     /tmp/ccOSbeko.s:1040   .rodata.testsem2:0000000000000000 testsem2
     /tmp/ccOSbeko.s:1031   .rodata.testsem1:0000000000000000 testsem1
     /tmp/ccOSbeko.s:1028   .rodata.testsem1:0000000000000000 $d
     /tmp/ccOSbeko.s:1037   .rodata.testsem2:0000000000000000 $d
     /tmp/ccOSbeko.s:1046   .rodata.testsem3:0000000000000000 $d
     /tmp/ccOSbeko.s:1055   .rodata.testsem4:0000000000000000 $d
     /tmp/ccOSbeko.s:1064   .data.sem1:0000000000000000 $d
     /tmp/ccOSbeko.s:1068   .data.sem1:0000000000000000 sem1
     /tmp/ccOSbeko.s:1073   .rodata.patternsem:0000000000000000 $d
     /tmp/ccOSbeko.s:1083   .rodata.str1.4:0000000000000000 $d
                     .debug_frame:0000000000000010 $d
     /tmp/ccOSbeko.s:267    .text.thread3:0000000000000018 $t
     /tmp/ccOSbeko.s:306    .text.thread1:0000000000000018 $t
     /tmp/ccOSbeko.s:331    .text.sem1_setup:000000000000000c $t
     /tmp/ccOSbeko.s:356    .text.sem2_setup:000000000000000c $t
     /tmp/ccOSbeko.s:381    .text.sem3_setup:000000000000000c $t
     /tmp/ccOSbeko.s:692    .text.sem4_execute:000000000000010c $t
     /tmp/ccOSbeko.s:906    .text.sem2_execute:000000000000014c $t
     /tmp/ccOSbeko.s:1027   .text.sem3_execute:000000000000009c $t

ARM GAS  /tmp/ccOSbeko.s 			page 87


UNDEFINED SYMBOLS
chThdCreateStatic
chSemSignal
test_wait_threads
_test_assert_sequence
dbg_check_lock
chSemAddCounterI
chSchRescheduleS
dbg_check_unlock
_test_assert
rlist
wa
threads
chSemWait
test_emit_token
chSemInit
chThdSleep
chSemSignalI
chSemReset
chSemWaitTimeout
test_wait_tick
_test_assert_time_window
vtlist
chSemSignalWait
