ARM GAS  /tmp/ccOSbeko.s 			page 1


   1              		.syntax unified
   2              		.cpu cortex-m4
   3              		.fpu softvfp
   4              		.eabi_attribute 20, 1
   5              		.eabi_attribute 21, 1
   6              		.eabi_attribute 23, 3
   7              		.eabi_attribute 24, 1
   8              		.eabi_attribute 25, 1
   9              		.eabi_attribute 26, 1
  10              		.eabi_attribute 30, 2
  11              		.eabi_attribute 34, 1
  12              		.eabi_attribute 18, 4
  13              		.thumb
  14              		.file	"testsem.c"
  15              		.text
  16              	.Ltext0:
  17              		.cfi_sections	.debug_frame
  18              		.section	.text.sem1_execute,"ax",%progbits
  19              		.align	2
  20              		.p2align 4,,15
  21              		.thumb
  22              		.thumb_func
  23              		.type	sem1_execute, %function
  24              	sem1_execute:
  25              	.LFB9:
  26              		.file 1 "../../../test/testsem.c"
  27              		.loc 1 84 0
  28              		.cfi_startproc
  29              		@ args = 0, pretend = 0, frame = 0
  30              		@ frame_needed = 0, uses_anonymous_args = 0
  31 0000 2DE9F041 		push	{r4, r5, r6, r7, r8, lr}
  32              		.cfi_def_cfa_offset 24
  33              		.cfi_offset 4, -24
  34              		.cfi_offset 5, -20
  35              		.cfi_offset 6, -16
  36              		.cfi_offset 7, -12
  37              		.cfi_offset 8, -8
  38              		.cfi_offset 14, -4
  39              		.loc 1 86 0
  40 0004 434D     		ldr	r5, .L5
  41 0006 444E     		ldr	r6, .L5+4
  42 0008 AB69     		ldr	r3, [r5, #24]
  43 000a D6F80080 		ldr	r8, [r6]
  44 000e 9A68     		ldr	r2, [r3, #8]
  45 0010 424F     		ldr	r7, .L5+8
  46 0012 434B     		ldr	r3, .L5+12
  47 0014 434C     		ldr	r4, .L5+16
  48              		.loc 1 84 0
  49 0016 82B0     		sub	sp, sp, #8
  50              		.cfi_def_cfa_offset 32
  51              		.loc 1 86 0
  52 0018 0532     		adds	r2, r2, #5
  53 001a 4FF49871 		mov	r1, #304
  54 001e 0097     		str	r7, [sp]
  55 0020 4046     		mov	r0, r8
  56 0022 FFF7FEFF 		bl	chThdCreateStatic
  57              	.LVL0:
ARM GAS  /tmp/ccOSbeko.s 			page 2


  58              		.loc 1 87 0
  59 0026 AA69     		ldr	r2, [r5, #24]
  60 0028 7368     		ldr	r3, [r6, #4]
  61 002a 9268     		ldr	r2, [r2, #8]
  62 002c 3E49     		ldr	r1, .L5+20
  63              		.loc 1 86 0
  64 002e 2060     		str	r0, [r4]
  65              		.loc 1 87 0
  66 0030 0132     		adds	r2, r2, #1
  67 0032 1846     		mov	r0, r3
  68 0034 0091     		str	r1, [sp]
  69 0036 3A4B     		ldr	r3, .L5+12
  70 0038 4FF49871 		mov	r1, #304
  71 003c FFF7FEFF 		bl	chThdCreateStatic
  72              	.LVL1:
  73              		.loc 1 88 0
  74 0040 AA69     		ldr	r2, [r5, #24]
  75 0042 B368     		ldr	r3, [r6, #8]
  76 0044 9268     		ldr	r2, [r2, #8]
  77 0046 3949     		ldr	r1, .L5+24
  78              		.loc 1 87 0
  79 0048 6060     		str	r0, [r4, #4]
  80              		.loc 1 88 0
  81 004a 0332     		adds	r2, r2, #3
  82 004c 1846     		mov	r0, r3
  83 004e 0091     		str	r1, [sp]
  84 0050 334B     		ldr	r3, .L5+12
  85 0052 4FF49871 		mov	r1, #304
  86 0056 FFF7FEFF 		bl	chThdCreateStatic
  87              	.LVL2:
  88              		.loc 1 89 0
  89 005a AA69     		ldr	r2, [r5, #24]
  90 005c F368     		ldr	r3, [r6, #12]
  91 005e 9268     		ldr	r2, [r2, #8]
  92 0060 3349     		ldr	r1, .L5+28
  93              		.loc 1 88 0
  94 0062 A060     		str	r0, [r4, #8]
  95              		.loc 1 89 0
  96 0064 0432     		adds	r2, r2, #4
  97 0066 1846     		mov	r0, r3
  98 0068 0091     		str	r1, [sp]
  99 006a 2D4B     		ldr	r3, .L5+12
 100 006c 4FF49871 		mov	r1, #304
 101 0070 FFF7FEFF 		bl	chThdCreateStatic
 102              	.LVL3:
 103              		.loc 1 90 0
 104 0074 AA69     		ldr	r2, [r5, #24]
 105 0076 3369     		ldr	r3, [r6, #16]
 106 0078 9268     		ldr	r2, [r2, #8]
 107 007a 2E49     		ldr	r1, .L5+32
 108              		.loc 1 89 0
 109 007c E060     		str	r0, [r4, #12]
 110              		.loc 1 90 0
 111 007e 0232     		adds	r2, r2, #2
 112 0080 1846     		mov	r0, r3
 113 0082 0091     		str	r1, [sp]
 114 0084 264B     		ldr	r3, .L5+12
ARM GAS  /tmp/ccOSbeko.s 			page 3


 115 0086 4FF49871 		mov	r1, #304
 116 008a FFF7FEFF 		bl	chThdCreateStatic
 117              	.LVL4:
 118 008e 2061     		str	r0, [r4, #16]
 119              		.loc 1 91 0
 120 0090 2948     		ldr	r0, .L5+36
 121 0092 FFF7FEFF 		bl	chSemSignal
 122              	.LVL5:
 123              		.loc 1 92 0
 124 0096 2848     		ldr	r0, .L5+36
 125 0098 FFF7FEFF 		bl	chSemSignal
 126              	.LVL6:
 127              		.loc 1 93 0
 128 009c 2648     		ldr	r0, .L5+36
 129 009e FFF7FEFF 		bl	chSemSignal
 130              	.LVL7:
 131              		.loc 1 94 0
 132 00a2 2548     		ldr	r0, .L5+36
 133 00a4 FFF7FEFF 		bl	chSemSignal
 134              	.LVL8:
 135              		.loc 1 95 0
 136 00a8 2348     		ldr	r0, .L5+36
 137 00aa FFF7FEFF 		bl	chSemSignal
 138              	.LVL9:
 139              		.loc 1 96 0
 140 00ae FFF7FEFF 		bl	test_wait_threads
 141              	.LVL10:
 142              		.loc 1 100 0
 143 00b2 0120     		movs	r0, #1
 144 00b4 2149     		ldr	r1, .L5+40
 145 00b6 FFF7FEFF 		bl	_test_assert_sequence
 146              	.LVL11:
 147 00ba 10B1     		cbz	r0, .L4
 148              		.loc 1 109 0
 149 00bc 02B0     		add	sp, sp, #8
 150              		@ sp needed
 151 00be BDE8F081 		pop	{r4, r5, r6, r7, r8, pc}
 152              	.L4:
 153              		.loc 1 102 0
 154 00c2 AA69     		ldr	r2, [r5, #24]
 155 00c4 164B     		ldr	r3, .L5+12
 156 00c6 9268     		ldr	r2, [r2, #8]
 157 00c8 0097     		str	r7, [sp]
 158 00ca 0532     		adds	r2, r2, #5
 159 00cc 4046     		mov	r0, r8
 160 00ce 4FF49871 		mov	r1, #304
 161 00d2 FFF7FEFF 		bl	chThdCreateStatic
 162              	.LVL12:
 163              	.LBB2:
 164              		.loc 1 103 0
 165 00d6 2023     		movs	r3, #32
 166              	.LBE2:
 167              		.loc 1 102 0
 168 00d8 2060     		str	r0, [r4]
 169              	.LBB3:
 170              		.loc 1 103 0
 171              	@ 103 "../../../test/testsem.c" 1
ARM GAS  /tmp/ccOSbeko.s 			page 4


 172 00da 83F31188 		msr     BASEPRI, r3
 173              	@ 0 "" 2
 174              		.thumb
 175              	.LBE3:
 176 00de FFF7FEFF 		bl	dbg_check_lock
 177              	.LVL13:
 178              		.loc 1 104 0
 179 00e2 1548     		ldr	r0, .L5+36
 180 00e4 0221     		movs	r1, #2
 181 00e6 FFF7FEFF 		bl	chSemAddCounterI
 182              	.LVL14:
 183              		.loc 1 105 0
 184 00ea FFF7FEFF 		bl	chSchRescheduleS
 185              	.LVL15:
 186              		.loc 1 106 0
 187 00ee FFF7FEFF 		bl	dbg_check_unlock
 188              	.LVL16:
 189              	.LBB4:
 190 00f2 0023     		movs	r3, #0
 191              	@ 106 "../../../test/testsem.c" 1
 192 00f4 83F31188 		msr     BASEPRI, r3
 193              	@ 0 "" 2
 194              		.thumb
 195              	.LBE4:
 196              		.loc 1 107 0
 197 00f8 FFF7FEFF 		bl	test_wait_threads
 198              	.LVL17:
 199              		.loc 1 108 0
 200 00fc 0E4B     		ldr	r3, .L5+36
 201 00fe 9968     		ldr	r1, [r3, #8]
 202 0100 4B1E     		subs	r3, r1, #1
 203 0102 5942     		rsbs	r1, r3, #0
 204 0104 4FF00200 		mov	r0, #2
 205 0108 5941     		adcs	r1, r1, r3
 206              		.loc 1 109 0
 207 010a 02B0     		add	sp, sp, #8
 208              		@ sp needed
 209 010c BDE8F041 		pop	{r4, r5, r6, r7, r8, lr}
 210              		.loc 1 108 0
 211 0110 FFF7FEBF 		b	_test_assert
 212              	.LVL18:
 213              	.L6:
 214              		.align	2
 215              	.L5:
 216 0114 00000000 		.word	rlist
 217 0118 00000000 		.word	wa
 218 011c 00000000 		.word	.LC0
 219 0120 00000000 		.word	thread1
 220 0124 00000000 		.word	threads
 221 0128 04000000 		.word	.LC1
 222 012c 08000000 		.word	.LC2
 223 0130 0C000000 		.word	.LC3
 224 0134 10000000 		.word	.LC4
 225 0138 00000000 		.word	.LANCHOR0
 226 013c 14000000 		.word	.LC5
 227              		.cfi_endproc
 228              	.LFE9:
ARM GAS  /tmp/ccOSbeko.s 			page 5


 229              		.size	sem1_execute, .-sem1_execute
 230              		.section	.text.thread3,"ax",%progbits
 231              		.align	2
 232              		.p2align 4,,15
 233              		.thumb
 234              		.thumb_func
 235              		.type	thread3, %function
 236              	thread3:
 237              	.LFB14:
 238              		.loc 1 210 0
 239              		.cfi_startproc
 240              		@ args = 0, pretend = 0, frame = 0
 241              		@ frame_needed = 0, uses_anonymous_args = 0
 242              	.LVL19:
 243 0000 10B5     		push	{r4, lr}
 244              		.cfi_def_cfa_offset 8
 245              		.cfi_offset 4, -8
 246              		.cfi_offset 14, -4
 247              		.loc 1 213 0
 248 0002 044C     		ldr	r4, .L8
 249 0004 2046     		mov	r0, r4
 250              	.LVL20:
 251 0006 FFF7FEFF 		bl	chSemWait
 252              	.LVL21:
 253              		.loc 1 214 0
 254 000a 2046     		mov	r0, r4
 255 000c FFF7FEFF 		bl	chSemSignal
 256              	.LVL22:
 257              		.loc 1 216 0
 258 0010 0020     		movs	r0, #0
 259 0012 10BD     		pop	{r4, pc}
 260              	.L9:
 261              		.align	2
 262              	.L8:
 263 0014 00000000 		.word	.LANCHOR0
 264              		.cfi_endproc
 265              	.LFE14:
 266              		.size	thread3, .-thread3
 267 0018 AFF30080 		.section	.text.thread1,"ax",%progbits
 267      AFF30080 
 268              		.align	2
 269              		.p2align 4,,15
 270              		.thumb
 271              		.thumb_func
 272              		.type	thread1, %function
 273              	thread1:
 274              	.LFB8:
 275              		.loc 1 77 0
 276              		.cfi_startproc
 277              		@ args = 0, pretend = 0, frame = 0
 278              		@ frame_needed = 0, uses_anonymous_args = 0
 279              	.LVL23:
 280 0000 10B5     		push	{r4, lr}
 281              		.cfi_def_cfa_offset 8
 282              		.cfi_offset 4, -8
 283              		.cfi_offset 14, -4
 284              		.loc 1 77 0
ARM GAS  /tmp/ccOSbeko.s 			page 6


 285 0002 0446     		mov	r4, r0
 286              		.loc 1 79 0
 287 0004 0348     		ldr	r0, .L11
 288              	.LVL24:
 289 0006 FFF7FEFF 		bl	chSemWait
 290              	.LVL25:
 291              		.loc 1 80 0
 292 000a 2078     		ldrb	r0, [r4]	@ zero_extendqisi2
 293 000c FFF7FEFF 		bl	test_emit_token
 294              	.LVL26:
 295              		.loc 1 82 0
 296 0010 0020     		movs	r0, #0
 297 0012 10BD     		pop	{r4, pc}
 298              	.LVL27:
 299              	.L12:
 300              		.align	2
 301              	.L11:
 302 0014 00000000 		.word	.LANCHOR0
 303              		.cfi_endproc
 304              	.LFE8:
 305              		.size	thread1, .-thread1
 306 0018 AFF30080 		.section	.text.sem1_setup,"ax",%progbits
 306      AFF30080 
 307              		.align	2
 308              		.p2align 4,,15
 309              		.thumb
 310              		.thumb_func
 311              		.type	sem1_setup, %function
 312              	sem1_setup:
 313              	.LFB7:
 314              		.loc 1 72 0
 315              		.cfi_startproc
 316              		@ args = 0, pretend = 0, frame = 0
 317              		@ frame_needed = 0, uses_anonymous_args = 0
 318              		@ link register save eliminated.
 319              		.loc 1 74 0
 320 0000 0148     		ldr	r0, .L14
 321 0002 0021     		movs	r1, #0
 322 0004 FFF7FEBF 		b	chSemInit
 323              	.LVL28:
 324              	.L15:
 325              		.align	2
 326              	.L14:
 327 0008 00000000 		.word	.LANCHOR0
 328              		.cfi_endproc
 329              	.LFE7:
 330              		.size	sem1_setup, .-sem1_setup
 331 000c AFF30080 		.section	.text.sem2_setup,"ax",%progbits
 332              		.align	2
 333              		.p2align 4,,15
 334              		.thumb
 335              		.thumb_func
 336              		.type	sem2_setup, %function
 337              	sem2_setup:
 338              	.LFB10:
 339              		.loc 1 129 0
 340              		.cfi_startproc
ARM GAS  /tmp/ccOSbeko.s 			page 7


 341              		@ args = 0, pretend = 0, frame = 0
 342              		@ frame_needed = 0, uses_anonymous_args = 0
 343              		@ link register save eliminated.
 344              		.loc 1 131 0
 345 0000 0148     		ldr	r0, .L17
 346 0002 0021     		movs	r1, #0
 347 0004 FFF7FEBF 		b	chSemInit
 348              	.LVL29:
 349              	.L18:
 350              		.align	2
 351              	.L17:
 352 0008 00000000 		.word	.LANCHOR0
 353              		.cfi_endproc
 354              	.LFE10:
 355              		.size	sem2_setup, .-sem2_setup
 356 000c AFF30080 		.section	.text.sem3_setup,"ax",%progbits
 357              		.align	2
 358              		.p2align 4,,15
 359              		.thumb
 360              		.thumb_func
 361              		.type	sem3_setup, %function
 362              	sem3_setup:
 363              	.LFB13:
 364              		.loc 1 205 0
 365              		.cfi_startproc
 366              		@ args = 0, pretend = 0, frame = 0
 367              		@ frame_needed = 0, uses_anonymous_args = 0
 368              		@ link register save eliminated.
 369              		.loc 1 207 0
 370 0000 0148     		ldr	r0, .L20
 371 0002 0021     		movs	r1, #0
 372 0004 FFF7FEBF 		b	chSemInit
 373              	.LVL30:
 374              	.L21:
 375              		.align	2
 376              	.L20:
 377 0008 00000000 		.word	.LANCHOR0
 378              		.cfi_endproc
 379              	.LFE13:
 380              		.size	sem3_setup, .-sem3_setup
 381 000c AFF30080 		.section	.text.thread2,"ax",%progbits
 382              		.align	2
 383              		.p2align 4,,15
 384              		.thumb
 385              		.thumb_func
 386              		.type	thread2, %function
 387              	thread2:
 388              	.LFB11:
 389              		.loc 1 134 0
 390              		.cfi_startproc
 391              		@ args = 0, pretend = 0, frame = 0
 392              		@ frame_needed = 0, uses_anonymous_args = 0
 393              	.LVL31:
 394 0000 08B5     		push	{r3, lr}
 395              		.cfi_def_cfa_offset 8
 396              		.cfi_offset 3, -8
 397              		.cfi_offset 14, -4
ARM GAS  /tmp/ccOSbeko.s 			page 8


 398              		.loc 1 137 0
 399 0002 3220     		movs	r0, #50
 400              	.LVL32:
 401 0004 FFF7FEFF 		bl	chThdSleep
 402              	.LVL33:
 403              	.LBB5:
 404              		.loc 1 138 0
 405 0008 2023     		movs	r3, #32
 406              	@ 138 "../../../test/testsem.c" 1
 407 000a 83F31188 		msr     BASEPRI, r3
 408              	@ 0 "" 2
 409              		.thumb
 410              	.LBE5:
 411 000e FFF7FEFF 		bl	dbg_check_lock
 412              	.LVL34:
 413              		.loc 1 139 0
 414 0012 0648     		ldr	r0, .L23
 415 0014 FFF7FEFF 		bl	chSemSignalI
 416              	.LVL35:
 417              		.loc 1 140 0
 418 0018 FFF7FEFF 		bl	chSchRescheduleS
 419              	.LVL36:
 420              		.loc 1 141 0
 421 001c FFF7FEFF 		bl	dbg_check_unlock
 422              	.LVL37:
 423              	.LBB6:
 424 0020 0023     		movs	r3, #0
 425              	@ 141 "../../../test/testsem.c" 1
 426 0022 83F31188 		msr     BASEPRI, r3
 427              	@ 0 "" 2
 428              		.thumb
 429              	.LBE6:
 430              		.loc 1 143 0
 431 0026 0020     		movs	r0, #0
 432 0028 08BD     		pop	{r3, pc}
 433              	.L24:
 434 002a 00BF     		.align	2
 435              	.L23:
 436 002c 00000000 		.word	.LANCHOR0
 437              		.cfi_endproc
 438              	.LFE11:
 439              		.size	thread2, .-thread2
 440              		.section	.text.thread4,"ax",%progbits
 441              		.align	2
 442              		.p2align 4,,15
 443              		.thumb
 444              		.thumb_func
 445              		.type	thread4, %function
 446              	thread4:
 447              	.LFB16:
 448              		.loc 1 246 0
 449              		.cfi_startproc
 450              		@ args = 0, pretend = 0, frame = 0
 451              		@ frame_needed = 0, uses_anonymous_args = 0
 452              	.LVL38:
 453 0000 10B5     		push	{r4, lr}
 454              		.cfi_def_cfa_offset 8
ARM GAS  /tmp/ccOSbeko.s 			page 9


 455              		.cfi_offset 4, -8
 456              		.cfi_offset 14, -4
 457              	.LBB7:
 458              		.loc 1 248 0
 459 0002 2023     		movs	r3, #32
 460              	.LBE7:
 461              		.loc 1 246 0
 462 0004 0446     		mov	r4, r0
 463              	.LBB8:
 464              		.loc 1 248 0
 465              	@ 248 "../../../test/testsem.c" 1
 466 0006 83F31188 		msr     BASEPRI, r3
 467              	@ 0 "" 2
 468              		.thumb
 469              	.LBE8:
 470 000a FFF7FEFF 		bl	dbg_check_lock
 471              	.LVL39:
 472 000e A368     		ldr	r3, [r4, #8]
 473 0010 002B     		cmp	r3, #0
 474 0012 08DD     		ble	.L27
 475              	.L26:
 476              		.loc 1 248 0 is_stmt 0 discriminator 2
 477 0014 FFF7FEFF 		bl	chSchRescheduleS
 478              	.LVL40:
 479 0018 FFF7FEFF 		bl	dbg_check_unlock
 480              	.LVL41:
 481              	.LBB9:
 482 001c 0023     		movs	r3, #0
 483              	@ 248 "../../../test/testsem.c" 1
 484 001e 83F31188 		msr     BASEPRI, r3
 485              	@ 0 "" 2
 486              		.thumb
 487              	.LBE9:
 488              		.loc 1 250 0 is_stmt 1 discriminator 2
 489 0022 0020     		movs	r0, #0
 490 0024 10BD     		pop	{r4, pc}
 491              	.LVL42:
 492              	.L27:
 493              		.loc 1 248 0 discriminator 1
 494 0026 2046     		mov	r0, r4
 495 0028 FFF7FEFF 		bl	chSemSignalI
 496              	.LVL43:
 497 002c F2E7     		b	.L26
 498              		.cfi_endproc
 499              	.LFE16:
 500              		.size	thread4, .-thread4
 501 002e 00BF     		.section	.text.sem4_execute,"ax",%progbits
 502              		.align	2
 503              		.p2align 4,,15
 504              		.thumb
 505              		.thumb_func
 506              		.type	sem4_execute, %function
 507              	sem4_execute:
 508              	.LFB17:
 509              		.loc 1 252 0
 510              		.cfi_startproc
 511              		@ args = 0, pretend = 0, frame = 16
ARM GAS  /tmp/ccOSbeko.s 			page 10


 512              		@ frame_needed = 0, uses_anonymous_args = 0
 513 0000 00B5     		push	{lr}
 514              		.cfi_def_cfa_offset 4
 515              		.cfi_offset 14, -4
 516 0002 87B0     		sub	sp, sp, #28
 517              		.cfi_def_cfa_offset 32
 518              		.loc 1 256 0
 519 0004 03A8     		add	r0, sp, #12
 520 0006 0021     		movs	r1, #0
 521 0008 FFF7FEFF 		bl	chSemInit
 522              	.LVL44:
 523              		.loc 1 257 0
 524 000c 03A8     		add	r0, sp, #12
 525 000e 0021     		movs	r1, #0
 526 0010 FFF7FEFF 		bl	chSemReset
 527              	.LVL45:
 528              		.loc 1 258 0
 529 0014 0599     		ldr	r1, [sp, #20]
 530 0016 0029     		cmp	r1, #0
 531 0018 CCBF     		ite	gt
 532 001a 0021     		movgt	r1, #0
 533 001c 0121     		movle	r1, #1
 534 001e 0120     		movs	r0, #1
 535 0020 FFF7FEFF 		bl	_test_assert
 536              	.LVL46:
 537 0024 10B1     		cbz	r0, .L33
 538              	.L28:
 539              		.loc 1 280 0
 540 0026 07B0     		add	sp, sp, #28
 541              		@ sp needed
 542 0028 5DF804FB 		ldr	pc, [sp], #4
 543              	.L33:
 544              		.loc 1 262 0
 545 002c 334B     		ldr	r3, .L36
 546              		.loc 1 261 0
 547 002e 344A     		ldr	r2, .L36+4
 548              		.loc 1 262 0
 549 0030 9B69     		ldr	r3, [r3, #24]
 550              		.loc 1 261 0
 551 0032 1068     		ldr	r0, [r2]
 552 0034 9A68     		ldr	r2, [r3, #8]
 553 0036 334B     		ldr	r3, .L36+8
 554 0038 03A9     		add	r1, sp, #12
 555 003a 0091     		str	r1, [sp]
 556 003c 013A     		subs	r2, r2, #1
 557 003e 4FF49871 		mov	r1, #304
 558 0042 FFF7FEFF 		bl	chThdCreateStatic
 559              	.LVL47:
 560 0046 304B     		ldr	r3, .L36+12
 561 0048 1860     		str	r0, [r3]
 562              		.loc 1 265 0
 563 004a 03A8     		add	r0, sp, #12
 564 004c FFF7FEFF 		bl	chSemWait
 565              	.LVL48:
 566              		.loc 1 268 0
 567 0050 0599     		ldr	r1, [sp, #20]
 568 0052 0029     		cmp	r1, #0
ARM GAS  /tmp/ccOSbeko.s 			page 11


 569 0054 CCBF     		ite	gt
 570 0056 0021     		movgt	r1, #0
 571 0058 0121     		movle	r1, #1
 572 005a 0220     		movs	r0, #2
 573 005c FFF7FEFF 		bl	_test_assert
 574              	.LVL49:
 575 0060 0028     		cmp	r0, #0
 576 0062 E0D1     		bne	.L28
 577              	.LBB10:
 578              		.loc 1 272 0
 579 0064 2023     		movs	r3, #32
 580              	@ 272 "../../../test/testsem.c" 1
 581 0066 83F31188 		msr     BASEPRI, r3
 582              	@ 0 "" 2
 583              		.thumb
 584              	.LBE10:
 585 006a FFF7FEFF 		bl	dbg_check_lock
 586              	.LVL50:
 587 006e 059B     		ldr	r3, [sp, #20]
 588 0070 002B     		cmp	r3, #0
 589 0072 3ADD     		ble	.L34
 590              	.L30:
 591              		.loc 1 272 0 is_stmt 0 discriminator 2
 592 0074 FFF7FEFF 		bl	chSchRescheduleS
 593              	.LVL51:
 594 0078 FFF7FEFF 		bl	dbg_check_unlock
 595              	.LVL52:
 596              	.LBB11:
 597 007c 0023     		movs	r3, #0
 598              	@ 272 "../../../test/testsem.c" 1
 599 007e 83F31188 		msr     BASEPRI, r3
 600              	@ 0 "" 2
 601              		.thumb
 602              	.LBE11:
 603              		.loc 1 273 0 is_stmt 1 discriminator 2
 604 0082 0599     		ldr	r1, [sp, #20]
 605 0084 0029     		cmp	r1, #0
 606 0086 D4BF     		ite	le
 607 0088 0021     		movle	r1, #0
 608 008a 0121     		movgt	r1, #1
 609 008c 0320     		movs	r0, #3
 610 008e FFF7FEFF 		bl	_test_assert
 611              	.LVL53:
 612 0092 0028     		cmp	r0, #0
 613 0094 C7D1     		bne	.L28
 614              		.loc 1 274 0
 615 0096 0599     		ldr	r1, [sp, #20]
 616 0098 4A1E     		subs	r2, r1, #1
 617 009a 5142     		rsbs	r1, r2, #0
 618 009c 5141     		adcs	r1, r1, r2
 619 009e 0420     		movs	r0, #4
 620 00a0 FFF7FEFF 		bl	_test_assert
 621              	.LVL54:
 622 00a4 0028     		cmp	r0, #0
 623 00a6 BED1     		bne	.L28
 624              	.LBB12:
 625              		.loc 1 277 0
ARM GAS  /tmp/ccOSbeko.s 			page 12


 626 00a8 2023     		movs	r3, #32
 627              	@ 277 "../../../test/testsem.c" 1
 628 00aa 83F31188 		msr     BASEPRI, r3
 629              	@ 0 "" 2
 630              		.thumb
 631              	.LBE12:
 632 00ae FFF7FEFF 		bl	dbg_check_lock
 633              	.LVL55:
 634 00b2 059B     		ldr	r3, [sp, #20]
 635 00b4 002B     		cmp	r3, #0
 636 00b6 1CDD     		ble	.L35
 637              	.L31:
 638              		.loc 1 277 0 is_stmt 0 discriminator 2
 639 00b8 FFF7FEFF 		bl	chSchRescheduleS
 640              	.LVL56:
 641 00bc FFF7FEFF 		bl	dbg_check_unlock
 642              	.LVL57:
 643              	.LBB13:
 644 00c0 0023     		movs	r3, #0
 645              	@ 277 "../../../test/testsem.c" 1
 646 00c2 83F31188 		msr     BASEPRI, r3
 647              	@ 0 "" 2
 648              		.thumb
 649              	.LBE13:
 650              		.loc 1 278 0 is_stmt 1 discriminator 2
 651 00c6 0599     		ldr	r1, [sp, #20]
 652 00c8 0029     		cmp	r1, #0
 653 00ca D4BF     		ite	le
 654 00cc 0021     		movle	r1, #0
 655 00ce 0121     		movgt	r1, #1
 656 00d0 0320     		movs	r0, #3
 657 00d2 FFF7FEFF 		bl	_test_assert
 658              	.LVL58:
 659 00d6 0028     		cmp	r0, #0
 660 00d8 A5D1     		bne	.L28
 661              		.loc 1 279 0
 662 00da 0599     		ldr	r1, [sp, #20]
 663 00dc 4B1E     		subs	r3, r1, #1
 664 00de 5942     		rsbs	r1, r3, #0
 665 00e0 5941     		adcs	r1, r1, r3
 666 00e2 0520     		movs	r0, #5
 667 00e4 FFF7FEFF 		bl	_test_assert
 668              	.LVL59:
 669 00e8 9DE7     		b	.L28
 670              	.L34:
 671              		.loc 1 272 0 discriminator 1
 672 00ea 03A8     		add	r0, sp, #12
 673 00ec FFF7FEFF 		bl	chSemSignalI
 674              	.LVL60:
 675 00f0 C0E7     		b	.L30
 676              	.L35:
 677              		.loc 1 277 0 discriminator 1
 678 00f2 03A8     		add	r0, sp, #12
 679 00f4 FFF7FEFF 		bl	chSemSignalI
 680              	.LVL61:
 681 00f8 DEE7     		b	.L31
 682              	.L37:
ARM GAS  /tmp/ccOSbeko.s 			page 13


 683 00fa 00BF     		.align	2
 684              	.L36:
 685 00fc 00000000 		.word	rlist
 686 0100 00000000 		.word	wa
 687 0104 00000000 		.word	thread4
 688 0108 00000000 		.word	threads
 689              		.cfi_endproc
 690              	.LFE17:
 691              		.size	sem4_execute, .-sem4_execute
 692 010c AFF30080 		.section	.text.sem2_execute,"ax",%progbits
 693              		.align	2
 694              		.p2align 4,,15
 695              		.thumb
 696              		.thumb_func
 697              		.type	sem2_execute, %function
 698              	sem2_execute:
 699              	.LFB12:
 700              		.loc 1 145 0
 701              		.cfi_startproc
 702              		@ args = 0, pretend = 0, frame = 0
 703              		@ frame_needed = 0, uses_anonymous_args = 0
 704 0000 70B5     		push	{r4, r5, r6, lr}
 705              		.cfi_def_cfa_offset 16
 706              		.cfi_offset 4, -16
 707              		.cfi_offset 5, -12
 708              		.cfi_offset 6, -8
 709              		.cfi_offset 14, -4
 710              		.loc 1 153 0
 711 0002 4B4C     		ldr	r4, .L45
 712              		.loc 1 145 0
 713 0004 82B0     		sub	sp, sp, #8
 714              		.cfi_def_cfa_offset 24
 715              		.loc 1 153 0
 716 0006 0021     		movs	r1, #0
 717 0008 2046     		mov	r0, r4
 718 000a FFF7FEFF 		bl	chSemWaitTimeout
 719              	.LVL62:
 720              		.loc 1 154 0
 721 000e B0F1FF3E 		subs	lr, r0, #-1
 722 0012 DEF10001 		rsbs	r1, lr, #0
 723 0016 51EB0E01 		adcs	r1, r1, lr
 724 001a 0120     		movs	r0, #1
 725              	.LVL63:
 726 001c FFF7FEFF 		bl	_test_assert
 727              	.LVL64:
 728 0020 08B1     		cbz	r0, .L44
 729              	.L38:
 730              		.loc 1 183 0
 731 0022 02B0     		add	sp, sp, #8
 732              		@ sp needed
 733 0024 70BD     		pop	{r4, r5, r6, pc}
 734              	.L44:
 735              		.loc 1 155 0
 736 0026 2168     		ldr	r1, [r4]
 737 0028 0E1B     		subs	r6, r1, r4
 738 002a 7142     		rsbs	r1, r6, #0
 739 002c 7141     		adcs	r1, r1, r6
ARM GAS  /tmp/ccOSbeko.s 			page 14


 740 002e 0220     		movs	r0, #2
 741 0030 FFF7FEFF 		bl	_test_assert
 742              	.LVL65:
 743 0034 0028     		cmp	r0, #0
 744 0036 F4D1     		bne	.L38
 745              		.loc 1 156 0
 746 0038 A168     		ldr	r1, [r4, #8]
 747 003a D1F10101 		rsbs	r1, r1, #1
 748 003e 38BF     		it	cc
 749 0040 0021     		movcc	r1, #0
 750 0042 0320     		movs	r0, #3
 751 0044 FFF7FEFF 		bl	_test_assert
 752              	.LVL66:
 753 0048 0028     		cmp	r0, #0
 754 004a EAD1     		bne	.L38
 755              	.LBB16:
 756              	.LBB17:
 757              		.loc 1 161 0
 758 004c 394B     		ldr	r3, .L45+4
 759 004e 3A4A     		ldr	r2, .L45+8
 760 0050 9B69     		ldr	r3, [r3, #24]
 761 0052 1168     		ldr	r1, [r2]
 762 0054 9A68     		ldr	r2, [r3, #8]
 763 0056 394B     		ldr	r3, .L45+12
 764 0058 0090     		str	r0, [sp]
 765 005a 013A     		subs	r2, r2, #1
 766 005c 0846     		mov	r0, r1
 767 005e 4FF49871 		mov	r1, #304
 768 0062 FFF7FEFF 		bl	chThdCreateStatic
 769              	.LVL67:
 770 0066 364B     		ldr	r3, .L45+16
 771              		.loc 1 163 0
 772 0068 4FF4FA71 		mov	r1, #500
 773              		.loc 1 161 0
 774 006c 1860     		str	r0, [r3]
 775              		.loc 1 163 0
 776 006e 2046     		mov	r0, r4
 777 0070 FFF7FEFF 		bl	chSemWaitTimeout
 778              	.LVL68:
 779 0074 0546     		mov	r5, r0
 780              	.LVL69:
 781              		.loc 1 164 0
 782 0076 FFF7FEFF 		bl	test_wait_threads
 783              	.LVL70:
 784              		.loc 1 165 0
 785 007a D5F10101 		rsbs	r1, r5, #1
 786 007e 38BF     		it	cc
 787 0080 0021     		movcc	r1, #0
 788 0082 0420     		movs	r0, #4
 789 0084 FFF7FEFF 		bl	_test_assert
 790              	.LVL71:
 791 0088 0028     		cmp	r0, #0
 792 008a CAD1     		bne	.L38
 793              		.loc 1 166 0
 794 008c 2168     		ldr	r1, [r4]
 795 008e 0D1B     		subs	r5, r1, r4
 796              	.LVL72:
ARM GAS  /tmp/ccOSbeko.s 			page 15


 797 0090 6942     		rsbs	r1, r5, #0
 798 0092 6941     		adcs	r1, r1, r5
 799 0094 0520     		movs	r0, #5
 800 0096 FFF7FEFF 		bl	_test_assert
 801              	.LVL73:
 802 009a 0028     		cmp	r0, #0
 803 009c C1D1     		bne	.L38
 804              		.loc 1 167 0
 805 009e A168     		ldr	r1, [r4, #8]
 806 00a0 D1F10101 		rsbs	r1, r1, #1
 807 00a4 38BF     		it	cc
 808 00a6 0021     		movcc	r1, #0
 809 00a8 0620     		movs	r0, #6
 810 00aa FFF7FEFF 		bl	_test_assert
 811              	.LVL74:
 812 00ae 0028     		cmp	r0, #0
 813 00b0 B7D1     		bne	.L38
 814              		.loc 1 172 0
 815 00b2 FFF7FEFF 		bl	test_wait_tick
 816              	.LVL75:
 817              		.loc 1 173 0
 818 00b6 234B     		ldr	r3, .L45+20
 819 00b8 DE68     		ldr	r6, [r3, #12]
 820              	.LVL76:
 821 00ba 4125     		movs	r5, #65
 822              	.LVL77:
 823              	.L43:
 824              		.loc 1 175 0
 825 00bc 2846     		mov	r0, r5
 826 00be FFF7FEFF 		bl	test_emit_token
 827              	.LVL78:
 828              		.loc 1 176 0
 829 00c2 4FF4FA71 		mov	r1, #500
 830 00c6 1A48     		ldr	r0, .L45
 831 00c8 FFF7FEFF 		bl	chSemWaitTimeout
 832              	.LVL79:
 833              		.loc 1 177 0
 834 00cc B0F1FF32 		subs	r2, r0, #-1
 835 00d0 5142     		rsbs	r1, r2, #0
 836 00d2 5141     		adcs	r1, r1, r2
 837 00d4 0720     		movs	r0, #7
 838              	.LVL80:
 839 00d6 FFF7FEFF 		bl	_test_assert
 840              	.LVL81:
 841 00da 0028     		cmp	r0, #0
 842 00dc A1D1     		bne	.L38
 843              		.loc 1 178 0
 844 00de 2168     		ldr	r1, [r4]
 845 00e0 0B1B     		subs	r3, r1, r4
 846 00e2 5942     		rsbs	r1, r3, #0
 847 00e4 5941     		adcs	r1, r1, r3
 848 00e6 0820     		movs	r0, #8
 849 00e8 FFF7FEFF 		bl	_test_assert
 850              	.LVL82:
 851 00ec 0028     		cmp	r0, #0
 852 00ee 98D1     		bne	.L38
 853              		.loc 1 179 0
ARM GAS  /tmp/ccOSbeko.s 			page 16


 854 00f0 A168     		ldr	r1, [r4, #8]
 855 00f2 D1F10101 		rsbs	r1, r1, #1
 856 00f6 4FF00900 		mov	r0, #9
 857 00fa 38BF     		it	cc
 858 00fc 0021     		movcc	r1, #0
 859 00fe FFF7FEFF 		bl	_test_assert
 860              	.LVL83:
 861 0102 0135     		adds	r5, r5, #1
 862 0104 EDB2     		uxtb	r5, r5
 863 0106 0028     		cmp	r0, #0
 864 0108 8BD1     		bne	.L38
 865              		.loc 1 174 0
 866 010a 462D     		cmp	r5, #70
 867 010c D6D1     		bne	.L43
 868              		.loc 1 181 0
 869 010e 0A20     		movs	r0, #10
 870 0110 0D49     		ldr	r1, .L45+24
 871 0112 FFF7FEFF 		bl	_test_assert_sequence
 872              	.LVL84:
 873 0116 0028     		cmp	r0, #0
 874 0118 83D1     		bne	.L38
 875              		.loc 1 182 0
 876 011a 0B20     		movs	r0, #11
 877 011c 06F6C411 		addw	r1, r6, #2500
 878 0120 06F6C912 		addw	r2, r6, #2505
 879              	.LBE17:
 880              	.LBE16:
 881              		.loc 1 183 0
 882 0124 02B0     		add	sp, sp, #8
 883              		@ sp needed
 884 0126 BDE87040 		pop	{r4, r5, r6, lr}
 885              	.LVL85:
 886              	.LBB19:
 887              	.LBB18:
 888              		.loc 1 182 0
 889 012a FFF7FEBF 		b	_test_assert_time_window
 890              	.LVL86:
 891              	.L46:
 892 012e 00BF     		.align	2
 893              	.L45:
 894 0130 00000000 		.word	.LANCHOR0
 895 0134 00000000 		.word	rlist
 896 0138 00000000 		.word	wa
 897 013c 00000000 		.word	thread2
 898 0140 00000000 		.word	threads
 899 0144 00000000 		.word	vtlist
 900 0148 14000000 		.word	.LC5
 901              	.LBE18:
 902              	.LBE19:
 903              		.cfi_endproc
 904              	.LFE12:
 905              		.size	sem2_execute, .-sem2_execute
 906 014c AFF30080 		.section	.text.sem3_execute,"ax",%progbits
 907              		.align	2
 908              		.p2align 4,,15
 909              		.thumb
 910              		.thumb_func
ARM GAS  /tmp/ccOSbeko.s 			page 17


 911              		.type	sem3_execute, %function
 912              	sem3_execute:
 913              	.LFB15:
 914              		.loc 1 218 0
 915              		.cfi_startproc
 916              		@ args = 0, pretend = 0, frame = 0
 917              		@ frame_needed = 0, uses_anonymous_args = 0
 918 0000 10B5     		push	{r4, lr}
 919              		.cfi_def_cfa_offset 8
 920              		.cfi_offset 4, -8
 921              		.cfi_offset 14, -4
 922              		.loc 1 220 0
 923 0002 214B     		ldr	r3, .L52
 924 0004 214A     		ldr	r2, .L52+4
 925 0006 9B69     		ldr	r3, [r3, #24]
 926 0008 1068     		ldr	r0, [r2]
 927 000a 9A68     		ldr	r2, [r3, #8]
 928 000c 204B     		ldr	r3, .L52+8
 929              		.loc 1 221 0
 930 000e 214C     		ldr	r4, .L52+12
 931              		.loc 1 218 0
 932 0010 82B0     		sub	sp, sp, #8
 933              		.cfi_def_cfa_offset 16
 934              		.loc 1 220 0
 935 0012 0021     		movs	r1, #0
 936 0014 0132     		adds	r2, r2, #1
 937 0016 0091     		str	r1, [sp]
 938 0018 4FF49871 		mov	r1, #304
 939 001c FFF7FEFF 		bl	chThdCreateStatic
 940              	.LVL87:
 941 0020 1D4B     		ldr	r3, .L52+16
 942              		.loc 1 221 0
 943 0022 2146     		mov	r1, r4
 944              		.loc 1 220 0
 945 0024 1860     		str	r0, [r3]
 946              		.loc 1 221 0
 947 0026 2046     		mov	r0, r4
 948 0028 FFF7FEFF 		bl	chSemSignalWait
 949              	.LVL88:
 950              		.loc 1 222 0
 951 002c 2168     		ldr	r1, [r4]
 952 002e 0A1B     		subs	r2, r1, r4
 953 0030 5142     		rsbs	r1, r2, #0
 954 0032 5141     		adcs	r1, r1, r2
 955 0034 0120     		movs	r0, #1
 956 0036 FFF7FEFF 		bl	_test_assert
 957              	.LVL89:
 958 003a 08B1     		cbz	r0, .L51
 959              	.L47:
 960              		.loc 1 228 0
 961 003c 02B0     		add	sp, sp, #8
 962              		@ sp needed
 963 003e 10BD     		pop	{r4, pc}
 964              	.L51:
 965              		.loc 1 223 0
 966 0040 A168     		ldr	r1, [r4, #8]
 967 0042 D1F10101 		rsbs	r1, r1, #1
ARM GAS  /tmp/ccOSbeko.s 			page 18


 968 0046 38BF     		it	cc
 969 0048 0021     		movcc	r1, #0
 970 004a 0220     		movs	r0, #2
 971 004c FFF7FEFF 		bl	_test_assert
 972              	.LVL90:
 973 0050 0028     		cmp	r0, #0
 974 0052 F3D1     		bne	.L47
 975              	.LBB22:
 976              	.LBB23:
 977              		.loc 1 225 0
 978 0054 2146     		mov	r1, r4
 979 0056 2046     		mov	r0, r4
 980 0058 FFF7FEFF 		bl	chSemSignalWait
 981              	.LVL91:
 982              		.loc 1 226 0
 983 005c 2168     		ldr	r1, [r4]
 984 005e 0B1B     		subs	r3, r1, r4
 985 0060 5942     		rsbs	r1, r3, #0
 986 0062 5941     		adcs	r1, r1, r3
 987 0064 0320     		movs	r0, #3
 988 0066 FFF7FEFF 		bl	_test_assert
 989              	.LVL92:
 990 006a 0028     		cmp	r0, #0
 991 006c E6D1     		bne	.L47
 992              		.loc 1 227 0
 993 006e A168     		ldr	r1, [r4, #8]
 994 0070 D1F10101 		rsbs	r1, r1, #1
 995 0074 4FF00400 		mov	r0, #4
 996 0078 38BF     		it	cc
 997 007a 0021     		movcc	r1, #0
 998              	.LBE23:
 999              	.LBE22:
 1000              		.loc 1 228 0
 1001 007c 02B0     		add	sp, sp, #8
 1002              		@ sp needed
 1003 007e BDE81040 		pop	{r4, lr}
 1004              	.LBB25:
 1005              	.LBB24:
 1006              		.loc 1 227 0
 1007 0082 FFF7FEBF 		b	_test_assert
 1008              	.LVL93:
 1009              	.L53:
 1010 0086 00BF     		.align	2
 1011              	.L52:
 1012 0088 00000000 		.word	rlist
 1013 008c 00000000 		.word	wa
 1014 0090 00000000 		.word	thread3
 1015 0094 00000000 		.word	.LANCHOR0
 1016 0098 00000000 		.word	threads
 1017              	.LBE24:
 1018              	.LBE25:
 1019              		.cfi_endproc
 1020              	.LFE15:
 1021              		.size	sem3_execute, .-sem3_execute
 1022              		.global	patternsem
 1023              		.global	testsem4
 1024              		.global	testsem3
ARM GAS  /tmp/ccOSbeko.s 			page 19


 1025              		.global	testsem2
 1026              		.global	testsem1
 1027 009c AFF30080 		.section	.rodata.testsem1,"a",%progbits
 1028              		.align	2
 1029              		.type	testsem1, %object
 1030              		.size	testsem1, 16
 1031              	testsem1:
 1032 0000 74000000 		.word	.LC9
 1033 0004 00000000 		.word	sem1_setup
 1034 0008 00000000 		.word	0
 1035 000c 00000000 		.word	sem1_execute
 1036              		.section	.rodata.testsem2,"a",%progbits
 1037              		.align	2
 1038              		.type	testsem2, %object
 1039              		.size	testsem2, 16
 1040              	testsem2:
 1041 0000 60000000 		.word	.LC8
 1042 0004 00000000 		.word	sem2_setup
 1043 0008 00000000 		.word	0
 1044 000c 00000000 		.word	sem2_execute
 1045              		.section	.rodata.testsem3,"a",%progbits
 1046              		.align	2
 1047              		.type	testsem3, %object
 1048              		.size	testsem3, 16
 1049              	testsem3:
 1050 0000 40000000 		.word	.LC7
 1051 0004 00000000 		.word	sem3_setup
 1052 0008 00000000 		.word	0
 1053 000c 00000000 		.word	sem3_execute
 1054              		.section	.rodata.testsem4,"a",%progbits
 1055              		.align	2
 1056              		.type	testsem4, %object
 1057              		.size	testsem4, 16
 1058              	testsem4:
 1059 0000 1C000000 		.word	.LC6
 1060 0004 00000000 		.word	0
 1061 0008 00000000 		.word	0
 1062 000c 00000000 		.word	sem4_execute
 1063              		.section	.data.sem1,"aw",%progbits
 1064              		.align	2
 1065              		.set	.LANCHOR0,. + 0
 1066              		.type	sem1, %object
 1067              		.size	sem1, 12
 1068              	sem1:
 1069 0000 00000000 		.word	sem1
 1070 0004 00000000 		.word	sem1
 1071 0008 00000000 		.word	0
 1072              		.section	.rodata.patternsem,"a",%progbits
 1073              		.align	2
 1074              		.type	patternsem, %object
 1075              		.size	patternsem, 20
 1076              	patternsem:
 1077 0000 00000000 		.word	testsem1
 1078 0004 00000000 		.word	testsem2
 1079 0008 00000000 		.word	testsem3
 1080 000c 00000000 		.word	testsem4
 1081 0010 00000000 		.word	0
ARM GAS  /tmp/ccOSbeko.s 			page 20


 1082              		.section	.rodata.str1.4,"aMS",%progbits,1
 1083              		.align	2
 1084              	.LC0:
 1085 0000 4100     		.ascii	"A\000"
 1086 0002 0000     		.space	2
 1087              	.LC1:
 1088 0004 4200     		.ascii	"B\000"
 1089 0006 0000     		.space	2
 1090              	.LC2:
 1091 0008 4300     		.ascii	"C\000"
 1092 000a 0000     		.space	2
 1093              	.LC3:
 1094 000c 4400     		.ascii	"D\000"
 1095 000e 0000     		.space	2
 1096              	.LC4:
 1097 0010 4500     		.ascii	"E\000"
 1098 0012 0000     		.space	2
 1099              	.LC5:
 1100 0014 41424344 		.ascii	"ABCDE\000"
 1100      4500
 1101 001a 0000     		.space	2
 1102              	.LC6:
 1103 001c 42696E61 		.ascii	"Binary Semaphores, functionality\000"
 1103      72792053 
 1103      656D6170 
 1103      686F7265 
 1103      732C2066 
 1104 003d 000000   		.space	3
 1105              	.LC7:
 1106 0040 53656D61 		.ascii	"Semaphores, atomic signal-wait\000"
 1106      70686F72 
 1106      65732C20 
 1106      61746F6D 
 1106      69632073 
 1107 005f 00       		.space	1
 1108              	.LC8:
 1109 0060 53656D61 		.ascii	"Semaphores, timeout\000"
 1109      70686F72 
 1109      65732C20 
 1109      74696D65 
 1109      6F757400 
 1110              	.LC9:
 1111 0074 53656D61 		.ascii	"Semaphores, enqueuing\000"
 1111      70686F72 
 1111      65732C20 
 1111      656E7175 
 1111      6575696E 
 1112 008a 0000     		.text
 1113              	.Letext0:
 1114              		.file 2 "/usr/lib/gcc/arm-none-eabi/4.8.3/include/stddef.h"
 1115              		.file 3 "/usr/arm-none-eabi/include/stdint.h"
 1116              		.file 4 "../../../os/ports/GCC/ARMCMx/chtypes.h"
 1117              		.file 5 "../../../os/kernel/include/chlists.h"
 1118              		.file 6 "../../../os/kernel/include/chthreads.h"
 1119              		.file 7 "../../../os/ports/GCC/ARMCMx/chcore_v7m.h"
 1120              		.file 8 "../../../os/kernel/include/chvt.h"
 1121              		.file 9 "../../../os/kernel/include/chschd.h"
ARM GAS  /tmp/ccOSbeko.s 			page 21


 1122              		.file 10 "../../../os/kernel/include/chsem.h"
 1123              		.file 11 "../../../os/kernel/include/chbsem.h"
 1124              		.file 12 "../../../os/kernel/include/chmtx.h"
 1125              		.file 13 "../../../test/test.h"
 1126              		.file 14 "../../../os/kernel/include/chdebug.h"