ARM GAS  /tmp/ccAhl9xf.s 			page 1


   1              		.syntax unified
   2              		.cpu cortex-m4
   3              		.fpu softvfp
   4              		.eabi_attribute 20, 1
   5              		.eabi_attribute 21, 1
   6              		.eabi_attribute 23, 3
   7              		.eabi_attribute 24, 1
   8              		.eabi_attribute 25, 1
   9              		.eabi_attribute 26, 1
  10              		.eabi_attribute 30, 2
  11              		.eabi_attribute 34, 1
  12              		.eabi_attribute 18, 4
  13              		.thumb
  14              		.file	"adc.c"
  15              		.text
  16              	.Ltext0:
  17              		.cfi_sections	.debug_frame
  18              		.section	.text.adcInit,"ax",%progbits
  19              		.align	2
  20              		.p2align 4,,15
  21              		.global	adcInit
  22              		.thumb
  23              		.thumb_func
  24              		.type	adcInit, %function
  25              	adcInit:
  26              	.LFB118:
  27              		.file 1 "../../../os/hal/src/adc.c"
  28              		.loc 1 61 0
  29              		.cfi_startproc
  30              		@ args = 0, pretend = 0, frame = 0
  31              		@ frame_needed = 0, uses_anonymous_args = 0
  32              		@ link register save eliminated.
  33              		.loc 1 63 0
  34 0000 FFF7FEBF 		b	adc_lld_init
  35              	.LVL0:
  36              		.cfi_endproc
  37              	.LFE118:
  38              		.size	adcInit, .-adcInit
  39 0004 AFF30080 		.section	.text.adcObjectInit,"ax",%progbits
  39      AFF30080 
  39      AFF30080 
  40              		.align	2
  41              		.p2align 4,,15
  42              		.global	adcObjectInit
  43              		.thumb
  44              		.thumb_func
  45              		.type	adcObjectInit, %function
  46              	adcObjectInit:
  47              	.LFB119:
  48              		.loc 1 73 0
  49              		.cfi_startproc
  50              		@ args = 0, pretend = 0, frame = 0
  51              		@ frame_needed = 0, uses_anonymous_args = 0
  52              		@ link register save eliminated.
  53              	.LVL1:
  54              		.loc 1 76 0
  55 0000 0023     		movs	r3, #0
ARM GAS  /tmp/ccAhl9xf.s 			page 2


  56              		.loc 1 75 0
  57 0002 0122     		movs	r2, #1
  58 0004 0270     		strb	r2, [r0]
  59              		.loc 1 76 0
  60 0006 4360     		str	r3, [r0, #4]
  61              		.loc 1 77 0
  62 0008 8360     		str	r3, [r0, #8]
  63              		.loc 1 78 0
  64 000a C360     		str	r3, [r0, #12]
  65              		.loc 1 79 0
  66 000c 0361     		str	r3, [r0, #16]
  67              		.loc 1 81 0
  68 000e 4361     		str	r3, [r0, #20]
  69              		.loc 1 85 0
  70 0010 1830     		adds	r0, r0, #24
  71              	.LVL2:
  72 0012 FFF7FEBF 		b	chMtxInit
  73              	.LVL3:
  74              		.cfi_endproc
  75              	.LFE119:
  76              		.size	adcObjectInit, .-adcObjectInit
  77 0016 00BFAFF3 		.section	.text.adcStart,"ax",%progbits
  77      0080AFF3 
  77      0080
  78              		.align	2
  79              		.p2align 4,,15
  80              		.global	adcStart
  81              		.thumb
  82              		.thumb_func
  83              		.type	adcStart, %function
  84              	adcStart:
  85              	.LFB120:
  86              		.loc 1 104 0
  87              		.cfi_startproc
  88              		@ args = 0, pretend = 0, frame = 0
  89              		@ frame_needed = 0, uses_anonymous_args = 0
  90              	.LVL4:
  91 0000 38B5     		push	{r3, r4, r5, lr}
  92              		.cfi_def_cfa_offset 16
  93              		.cfi_offset 3, -16
  94              		.cfi_offset 4, -12
  95              		.cfi_offset 5, -8
  96              		.cfi_offset 14, -4
  97              		.loc 1 106 0
  98 0002 0446     		mov	r4, r0
  99              		.loc 1 104 0
 100 0004 0D46     		mov	r5, r1
 101              		.loc 1 106 0
 102 0006 C0B1     		cbz	r0, .L7
 103              	.LVL5:
 104              	.L4:
 105              	.LBB2:
 106              		.loc 1 108 0
 107 0008 2023     		movs	r3, #32
 108              	@ 108 "../../../os/hal/src/adc.c" 1
 109 000a 83F31188 		msr     BASEPRI, r3
 110              	@ 0 "" 2
ARM GAS  /tmp/ccAhl9xf.s 			page 3


 111              		.thumb
 112              	.LBE2:
 113 000e FFF7FEFF 		bl	dbg_check_lock
 114              	.LVL6:
 115              		.loc 1 109 0
 116 0012 2378     		ldrb	r3, [r4]	@ zero_extendqisi2
 117 0014 013B     		subs	r3, r3, #1
 118 0016 DBB2     		uxtb	r3, r3
 119 0018 012B     		cmp	r3, #1
 120 001a 02D9     		bls	.L5
 121              		.loc 1 109 0 is_stmt 0 discriminator 1
 122 001c 0948     		ldr	r0, .L8
 123 001e FFF7FEFF 		bl	chDbgPanic
 124              	.LVL7:
 125              	.L5:
 126              		.loc 1 112 0 is_stmt 1
 127 0022 2046     		mov	r0, r4
 128              		.loc 1 111 0
 129 0024 6560     		str	r5, [r4, #4]
 130              		.loc 1 112 0
 131 0026 FFF7FEFF 		bl	adc_lld_start
 132              	.LVL8:
 133              		.loc 1 113 0
 134 002a 0223     		movs	r3, #2
 135 002c 2370     		strb	r3, [r4]
 136              		.loc 1 114 0
 137 002e FFF7FEFF 		bl	dbg_check_unlock
 138              	.LVL9:
 139              	.LBB3:
 140 0032 0023     		movs	r3, #0
 141              	@ 114 "../../../os/hal/src/adc.c" 1
 142 0034 83F31188 		msr     BASEPRI, r3
 143              	@ 0 "" 2
 144              		.thumb
 145 0038 38BD     		pop	{r3, r4, r5, pc}
 146              	.LVL10:
 147              	.L7:
 148              	.LBE3:
 149              		.loc 1 106 0 discriminator 1
 150 003a 0348     		ldr	r0, .L8+4
 151              	.LVL11:
 152 003c FFF7FEFF 		bl	chDbgPanic
 153              	.LVL12:
 154 0040 E2E7     		b	.L4
 155              	.L9:
 156 0042 00BF     		.align	2
 157              	.L8:
 158 0044 10000000 		.word	.LC1
 159 0048 00000000 		.word	.LC0
 160              		.cfi_endproc
 161              	.LFE120:
 162              		.size	adcStart, .-adcStart
 163 004c AFF30080 		.section	.text.adcStop,"ax",%progbits
 164              		.align	2
 165              		.p2align 4,,15
 166              		.global	adcStop
 167              		.thumb
ARM GAS  /tmp/ccAhl9xf.s 			page 4


 168              		.thumb_func
 169              		.type	adcStop, %function
 170              	adcStop:
 171              	.LFB121:
 172              		.loc 1 124 0
 173              		.cfi_startproc
 174              		@ args = 0, pretend = 0, frame = 0
 175              		@ frame_needed = 0, uses_anonymous_args = 0
 176              	.LVL13:
 177 0000 10B5     		push	{r4, lr}
 178              		.cfi_def_cfa_offset 8
 179              		.cfi_offset 4, -8
 180              		.cfi_offset 14, -4
 181              		.loc 1 126 0
 182 0002 0446     		mov	r4, r0
 183 0004 B8B1     		cbz	r0, .L13
 184              	.LVL14:
 185              	.L11:
 186              	.LBB4:
 187              		.loc 1 128 0
 188 0006 2023     		movs	r3, #32
 189              	@ 128 "../../../os/hal/src/adc.c" 1
 190 0008 83F31188 		msr     BASEPRI, r3
 191              	@ 0 "" 2
 192              		.thumb
 193              	.LBE4:
 194 000c FFF7FEFF 		bl	dbg_check_lock
 195              	.LVL15:
 196              		.loc 1 129 0
 197 0010 2378     		ldrb	r3, [r4]	@ zero_extendqisi2
 198 0012 013B     		subs	r3, r3, #1
 199 0014 DBB2     		uxtb	r3, r3
 200 0016 012B     		cmp	r3, #1
 201 0018 02D9     		bls	.L12
 202              		.loc 1 129 0 is_stmt 0 discriminator 1
 203 001a 0948     		ldr	r0, .L14
 204 001c FFF7FEFF 		bl	chDbgPanic
 205              	.LVL16:
 206              	.L12:
 207              		.loc 1 131 0 is_stmt 1
 208 0020 2046     		mov	r0, r4
 209 0022 FFF7FEFF 		bl	adc_lld_stop
 210              	.LVL17:
 211              		.loc 1 132 0
 212 0026 0123     		movs	r3, #1
 213 0028 2370     		strb	r3, [r4]
 214              		.loc 1 133 0
 215 002a FFF7FEFF 		bl	dbg_check_unlock
 216              	.LVL18:
 217              	.LBB5:
 218 002e 0023     		movs	r3, #0
 219              	@ 133 "../../../os/hal/src/adc.c" 1
 220 0030 83F31188 		msr     BASEPRI, r3
 221              	@ 0 "" 2
 222              		.thumb
 223 0034 10BD     		pop	{r4, pc}
 224              	.LVL19:
ARM GAS  /tmp/ccAhl9xf.s 			page 5


 225              	.L13:
 226              	.LBE5:
 227              		.loc 1 126 0 discriminator 1
 228 0036 0348     		ldr	r0, .L14+4
 229              	.LVL20:
 230 0038 FFF7FEFF 		bl	chDbgPanic
 231              	.LVL21:
 232 003c E3E7     		b	.L11
 233              	.L15:
 234 003e 00BF     		.align	2
 235              	.L14:
 236 0040 2C000000 		.word	.LC3
 237 0044 20000000 		.word	.LC2
 238              		.cfi_endproc
 239              	.LFE121:
 240              		.size	adcStop, .-adcStop
 241 0048 AFF30080 		.section	.text.adcStartConversionI,"ax",%progbits
 241      AFF30080 
 242              		.align	2
 243              		.p2align 4,,15
 244              		.global	adcStartConversionI
 245              		.thumb
 246              		.thumb_func
 247              		.type	adcStartConversionI, %function
 248              	adcStartConversionI:
 249              	.LFB123:
 250              		.loc 1 183 0
 251              		.cfi_startproc
 252              		@ args = 0, pretend = 0, frame = 0
 253              		@ frame_needed = 0, uses_anonymous_args = 0
 254              	.LVL22:
 255 0000 F8B5     		push	{r3, r4, r5, r6, r7, lr}
 256              		.cfi_def_cfa_offset 24
 257              		.cfi_offset 3, -24
 258              		.cfi_offset 4, -20
 259              		.cfi_offset 5, -16
 260              		.cfi_offset 6, -12
 261              		.cfi_offset 7, -8
 262              		.cfi_offset 14, -4
 263              		.loc 1 183 0
 264 0002 0446     		mov	r4, r0
 265 0004 0E46     		mov	r6, r1
 266 0006 1746     		mov	r7, r2
 267 0008 1D46     		mov	r5, r3
 268              		.loc 1 185 0
 269 000a FFF7FEFF 		bl	chDbgCheckClassI
 270              	.LVL23:
 271              		.loc 1 186 0
 272 000e CCB1     		cbz	r4, .L17
 273              		.loc 1 186 0 is_stmt 0 discriminator 2
 274 0010 C6B1     		cbz	r6, .L17
 275              		.loc 1 186 0 discriminator 1
 276 0012 BFB1     		cbz	r7, .L17
 277 0014 012D     		cmp	r5, #1
 278 0016 01D0     		beq	.L18
 279 0018 EB07     		lsls	r3, r5, #31
 280 001a 13D4     		bmi	.L17
ARM GAS  /tmp/ccAhl9xf.s 			page 6


 281              	.L18:
 282              		.loc 1 189 0 is_stmt 1
 283 001c 2378     		ldrb	r3, [r4]	@ zero_extendqisi2
 284 001e 022B     		cmp	r3, #2
 285 0020 06D0     		beq	.L19
 286              		.loc 1 189 0 is_stmt 0 discriminator 1
 287 0022 043B     		subs	r3, r3, #4
 288 0024 DBB2     		uxtb	r3, r3
 289 0026 012B     		cmp	r3, #1
 290 0028 02D9     		bls	.L19
 291 002a 0848     		ldr	r0, .L38
 292 002c FFF7FEFF 		bl	chDbgPanic
 293              	.LVL24:
 294              	.L19:
 295              		.loc 1 197 0 is_stmt 1
 296 0030 0323     		movs	r3, #3
 297              		.loc 1 194 0
 298 0032 A760     		str	r7, [r4, #8]
 299              		.loc 1 195 0
 300 0034 E560     		str	r5, [r4, #12]
 301              		.loc 1 196 0
 302 0036 2661     		str	r6, [r4, #16]
 303              		.loc 1 197 0
 304 0038 2370     		strb	r3, [r4]
 305              		.loc 1 198 0
 306 003a 2046     		mov	r0, r4
 307              		.loc 1 199 0
 308 003c BDE8F840 		pop	{r3, r4, r5, r6, r7, lr}
 309              	.LVL25:
 310              		.loc 1 198 0
 311 0040 FFF7FEBF 		b	adc_lld_start_conversion
 312              	.LVL26:
 313              	.L17:
 314              		.loc 1 186 0 discriminator 1
 315 0044 0248     		ldr	r0, .L38+4
 316 0046 FFF7FEFF 		bl	chDbgPanic
 317              	.LVL27:
 318 004a E7E7     		b	.L18
 319              	.L39:
 320              		.align	2
 321              	.L38:
 322 004c 54000000 		.word	.LC5
 323 0050 3C000000 		.word	.LC4
 324              		.cfi_endproc
 325              	.LFE123:
 326              		.size	adcStartConversionI, .-adcStartConversionI
 327 0054 AFF30080 		.section	.text.adcStartConversion,"ax",%progbits
 327      AFF30080 
 327      AFF30080 
 328              		.align	2
 329              		.p2align 4,,15
 330              		.global	adcStartConversion
 331              		.thumb
 332              		.thumb_func
 333              		.type	adcStartConversion, %function
 334              	adcStartConversion:
 335              	.LFB122:
ARM GAS  /tmp/ccAhl9xf.s 			page 7


 336              		.loc 1 155 0
 337              		.cfi_startproc
 338              		@ args = 0, pretend = 0, frame = 0
 339              		@ frame_needed = 0, uses_anonymous_args = 0
 340              	.LVL28:
 341 0000 F8B5     		push	{r3, r4, r5, r6, r7, lr}
 342              		.cfi_def_cfa_offset 24
 343              		.cfi_offset 3, -24
 344              		.cfi_offset 4, -20
 345              		.cfi_offset 5, -16
 346              		.cfi_offset 6, -12
 347              		.cfi_offset 7, -8
 348              		.cfi_offset 14, -4
 349              		.loc 1 155 0
 350 0002 1C46     		mov	r4, r3
 351 0004 0746     		mov	r7, r0
 352 0006 0E46     		mov	r6, r1
 353 0008 1546     		mov	r5, r2
 354              	.LBB6:
 355              		.loc 1 157 0
 356 000a 2023     		movs	r3, #32
 357              	.LVL29:
 358              	@ 157 "../../../os/hal/src/adc.c" 1
 359 000c 83F31188 		msr     BASEPRI, r3
 360              	@ 0 "" 2
 361              		.thumb
 362              	.LBE6:
 363 0010 FFF7FEFF 		bl	dbg_check_lock
 364              	.LVL30:
 365              		.loc 1 158 0
 366 0014 2346     		mov	r3, r4
 367 0016 3846     		mov	r0, r7
 368 0018 3146     		mov	r1, r6
 369 001a 2A46     		mov	r2, r5
 370 001c FFF7FEFF 		bl	adcStartConversionI
 371              	.LVL31:
 372              		.loc 1 159 0
 373 0020 FFF7FEFF 		bl	dbg_check_unlock
 374              	.LVL32:
 375              	.LBB7:
 376 0024 0023     		movs	r3, #0
 377              	@ 159 "../../../os/hal/src/adc.c" 1
 378 0026 83F31188 		msr     BASEPRI, r3
 379              	@ 0 "" 2
 380              		.thumb
 381 002a F8BD     		pop	{r3, r4, r5, r6, r7, pc}
 382              	.LBE7:
 383              		.cfi_endproc
 384              	.LFE122:
 385              		.size	adcStartConversion, .-adcStartConversion
 386 002c AFF30080 		.section	.text.adcStopConversion,"ax",%progbits
 387              		.align	2
 388              		.p2align 4,,15
 389              		.global	adcStopConversion
 390              		.thumb
 391              		.thumb_func
 392              		.type	adcStopConversion, %function
ARM GAS  /tmp/ccAhl9xf.s 			page 8


 393              	adcStopConversion:
 394              	.LFB124:
 395              		.loc 1 211 0
 396              		.cfi_startproc
 397              		@ args = 0, pretend = 0, frame = 0
 398              		@ frame_needed = 0, uses_anonymous_args = 0
 399              	.LVL33:
 400 0000 10B5     		push	{r4, lr}
 401              		.cfi_def_cfa_offset 8
 402              		.cfi_offset 4, -8
 403              		.cfi_offset 14, -4
 404              		.loc 1 213 0
 405 0002 0446     		mov	r4, r0
 406 0004 18B3     		cbz	r0, .L50
 407              	.LVL34:
 408              	.L42:
 409              	.LBB8:
 410              		.loc 1 215 0
 411 0006 2023     		movs	r3, #32
 412              	@ 215 "../../../os/hal/src/adc.c" 1
 413 0008 83F31188 		msr     BASEPRI, r3
 414              	@ 0 "" 2
 415              		.thumb
 416              	.LBE8:
 417 000c FFF7FEFF 		bl	dbg_check_lock
 418              	.LVL35:
 419              		.loc 1 216 0
 420 0010 2378     		ldrb	r3, [r4]	@ zero_extendqisi2
 421 0012 9A1E     		subs	r2, r3, #2
 422 0014 D2B2     		uxtb	r2, r2
 423 0016 012A     		cmp	r2, #1
 424 0018 03D9     		bls	.L43
 425              		.loc 1 216 0 is_stmt 0 discriminator 1
 426 001a 0F48     		ldr	r0, .L51
 427 001c FFF7FEFF 		bl	chDbgPanic
 428              	.LVL36:
 429 0020 2378     		ldrb	r3, [r4]	@ zero_extendqisi2
 430              	.L43:
 431              		.loc 1 219 0 is_stmt 1
 432 0022 022B     		cmp	r3, #2
 433 0024 0DD0     		beq	.L45
 434              		.loc 1 220 0
 435 0026 2046     		mov	r0, r4
 436 0028 FFF7FEFF 		bl	adc_lld_stop_conversion
 437              	.LVL37:
 438              		.loc 1 223 0
 439 002c 6069     		ldr	r0, [r4, #20]
 440              		.loc 1 221 0
 441 002e 0023     		movs	r3, #0
 442              		.loc 1 222 0
 443 0030 0222     		movs	r2, #2
 444              		.loc 1 221 0
 445 0032 2361     		str	r3, [r4, #16]
 446              		.loc 1 222 0
 447 0034 2270     		strb	r2, [r4]
 448              		.loc 1 223 0
 449 0036 20B1     		cbz	r0, .L45
ARM GAS  /tmp/ccAhl9xf.s 			page 9


 450              	.LVL38:
 451              	.LBB9:
 452              		.loc 1 223 0 is_stmt 0 discriminator 1
 453 0038 6361     		str	r3, [r4, #20]
 454 003a 6FF00101 		mvn	r1, #1
 455 003e FFF7FEFF 		bl	chSchWakeupS
 456              	.LVL39:
 457              	.L45:
 458              	.LBE9:
 459              		.loc 1 225 0 is_stmt 1
 460 0042 FFF7FEFF 		bl	dbg_check_unlock
 461              	.LVL40:
 462              	.LBB10:
 463 0046 0023     		movs	r3, #0
 464              	@ 225 "../../../os/hal/src/adc.c" 1
 465 0048 83F31188 		msr     BASEPRI, r3
 466              	@ 0 "" 2
 467              		.thumb
 468 004c 10BD     		pop	{r4, pc}
 469              	.LVL41:
 470              	.L50:
 471              	.LBE10:
 472              		.loc 1 213 0 discriminator 1
 473 004e 0348     		ldr	r0, .L51+4
 474              	.LVL42:
 475 0050 FFF7FEFF 		bl	chDbgPanic
 476              	.LVL43:
 477 0054 D7E7     		b	.L42
 478              	.L52:
 479 0056 00BF     		.align	2
 480              	.L51:
 481 0058 88000000 		.word	.LC7
 482 005c 70000000 		.word	.LC6
 483              		.cfi_endproc
 484              	.LFE124:
 485              		.size	adcStopConversion, .-adcStopConversion
 486              		.section	.text.adcStopConversionI,"ax",%progbits
 487              		.align	2
 488              		.p2align 4,,15
 489              		.global	adcStopConversionI
 490              		.thumb
 491              		.thumb_func
 492              		.type	adcStopConversionI, %function
 493              	adcStopConversionI:
 494              	.LFB125:
 495              		.loc 1 238 0
 496              		.cfi_startproc
 497              		@ args = 0, pretend = 0, frame = 0
 498              		@ frame_needed = 0, uses_anonymous_args = 0
 499              	.LVL44:
 500 0000 10B5     		push	{r4, lr}
 501              		.cfi_def_cfa_offset 8
 502              		.cfi_offset 4, -8
 503              		.cfi_offset 14, -4
 504              		.loc 1 238 0
 505 0002 0446     		mov	r4, r0
 506              		.loc 1 240 0
ARM GAS  /tmp/ccAhl9xf.s 			page 10


 507 0004 FFF7FEFF 		bl	chDbgCheckClassI
 508              	.LVL45:
 509              		.loc 1 241 0
 510 0008 F4B1     		cbz	r4, .L62
 511              	.L54:
 512              		.loc 1 242 0
 513 000a 2378     		ldrb	r3, [r4]	@ zero_extendqisi2
 514 000c 9A1E     		subs	r2, r3, #2
 515 000e D2B2     		uxtb	r2, r2
 516 0010 022A     		cmp	r2, #2
 517 0012 14D8     		bhi	.L63
 518              	.L55:
 519              		.loc 1 247 0
 520 0014 022B     		cmp	r3, #2
 521 0016 11D0     		beq	.L53
 522              		.loc 1 248 0
 523 0018 2046     		mov	r0, r4
 524 001a FFF7FEFF 		bl	adc_lld_stop_conversion
 525              	.LVL46:
 526              		.loc 1 251 0
 527 001e 6369     		ldr	r3, [r4, #20]
 528              		.loc 1 249 0
 529 0020 0022     		movs	r2, #0
 530              		.loc 1 250 0
 531 0022 0221     		movs	r1, #2
 532              		.loc 1 249 0
 533 0024 2261     		str	r2, [r4, #16]
 534              		.loc 1 250 0
 535 0026 2170     		strb	r1, [r4]
 536              		.loc 1 251 0
 537 0028 43B1     		cbz	r3, .L53
 538              	.LVL47:
 539              	.LBB11:
 540              		.loc 1 251 0 is_stmt 0 discriminator 1
 541 002a 6FF00101 		mvn	r1, #1
 542 002e 6261     		str	r2, [r4, #20]
 543 0030 9962     		str	r1, [r3, #40]
 544 0032 1846     		mov	r0, r3
 545              	.LBE11:
 546              		.loc 1 253 0 is_stmt 1 discriminator 1
 547 0034 BDE81040 		pop	{r4, lr}
 548              	.LVL48:
 549              	.LBB12:
 550              		.loc 1 251 0 discriminator 1
 551 0038 FFF7FEBF 		b	chSchReadyI
 552              	.LVL49:
 553              	.L53:
 554 003c 10BD     		pop	{r4, pc}
 555              	.LVL50:
 556              	.L63:
 557              	.LBE12:
 558              		.loc 1 242 0 discriminator 1
 559 003e 0448     		ldr	r0, .L64
 560 0040 FFF7FEFF 		bl	chDbgPanic
 561              	.LVL51:
 562 0044 2378     		ldrb	r3, [r4]	@ zero_extendqisi2
 563 0046 E5E7     		b	.L55
ARM GAS  /tmp/ccAhl9xf.s 			page 11


 564              	.L62:
 565              		.loc 1 241 0 discriminator 1
 566 0048 0248     		ldr	r0, .L64+4
 567 004a FFF7FEFF 		bl	chDbgPanic
 568              	.LVL52:
 569 004e DCE7     		b	.L54
 570              	.L65:
 571              		.align	2
 572              	.L64:
 573 0050 B8000000 		.word	.LC9
 574 0054 A0000000 		.word	.LC8
 575              		.cfi_endproc
 576              	.LFE125:
 577              		.size	adcStopConversionI, .-adcStopConversionI
 578 0058 AFF30080 		.section	.text.adcConvert,"ax",%progbits
 578      AFF30080 
 579              		.align	2
 580              		.p2align 4,,15
 581              		.global	adcConvert
 582              		.thumb
 583              		.thumb_func
 584              		.type	adcConvert, %function
 585              	adcConvert:
 586              	.LFB126:
 587              		.loc 1 282 0
 588              		.cfi_startproc
 589              		@ args = 0, pretend = 0, frame = 0
 590              		@ frame_needed = 0, uses_anonymous_args = 0
 591              	.LVL53:
 592 0000 2DE9F041 		push	{r4, r5, r6, r7, r8, lr}
 593              		.cfi_def_cfa_offset 24
 594              		.cfi_offset 4, -24
 595              		.cfi_offset 5, -20
 596              		.cfi_offset 6, -16
 597              		.cfi_offset 7, -12
 598              		.cfi_offset 8, -8
 599              		.cfi_offset 14, -4
 600              		.loc 1 282 0
 601 0004 1E46     		mov	r6, r3
 602 0006 0446     		mov	r4, r0
 603 0008 8846     		mov	r8, r1
 604 000a 1746     		mov	r7, r2
 605              	.LBB13:
 606              		.loc 1 285 0
 607 000c 2023     		movs	r3, #32
 608              	.LVL54:
 609              	@ 285 "../../../os/hal/src/adc.c" 1
 610 000e 83F31188 		msr     BASEPRI, r3
 611              	@ 0 "" 2
 612              		.thumb
 613              	.LBE13:
 614 0012 FFF7FEFF 		bl	dbg_check_lock
 615              	.LVL55:
 616              		.loc 1 286 0
 617 0016 6369     		ldr	r3, [r4, #20]
 618 0018 13B1     		cbz	r3, .L67
 619              		.loc 1 286 0 is_stmt 0 discriminator 1
ARM GAS  /tmp/ccAhl9xf.s 			page 12


 620 001a 0C48     		ldr	r0, .L71
 621 001c FFF7FEFF 		bl	chDbgPanic
 622              	.LVL56:
 623              	.L67:
 624              		.loc 1 288 0 is_stmt 1
 625 0020 0B4D     		ldr	r5, .L71+4
 626              		.loc 1 287 0
 627 0022 4146     		mov	r1, r8
 628 0024 3A46     		mov	r2, r7
 629 0026 3346     		mov	r3, r6
 630 0028 2046     		mov	r0, r4
 631 002a FFF7FEFF 		bl	adcStartConversionI
 632              	.LVL57:
 633              		.loc 1 288 0
 634 002e AB69     		ldr	r3, [r5, #24]
 635 0030 6361     		str	r3, [r4, #20]
 636              		.loc 1 289 0
 637 0032 0220     		movs	r0, #2
 638 0034 FFF7FEFF 		bl	chSchGoSleepS
 639              	.LVL58:
 640              		.loc 1 290 0
 641 0038 AB69     		ldr	r3, [r5, #24]
 642 003a 9C6A     		ldr	r4, [r3, #40]
 643              	.LVL59:
 644              		.loc 1 291 0
 645 003c FFF7FEFF 		bl	dbg_check_unlock
 646              	.LVL60:
 647              	.LBB14:
 648 0040 0023     		movs	r3, #0
 649              	@ 291 "../../../os/hal/src/adc.c" 1
 650 0042 83F31188 		msr     BASEPRI, r3
 651              	@ 0 "" 2
 652              		.thumb
 653              	.LBE14:
 654              		.loc 1 293 0
 655 0046 2046     		mov	r0, r4
 656 0048 BDE8F081 		pop	{r4, r5, r6, r7, r8, pc}
 657              	.LVL61:
 658              	.L72:
 659              		.align	2
 660              	.L71:
 661 004c D4000000 		.word	.LC10
 662 0050 00000000 		.word	rlist
 663              		.cfi_endproc
 664              	.LFE126:
 665              		.size	adcConvert, .-adcConvert
 666 0054 AFF30080 		.section	.text.adcAcquireBus,"ax",%progbits
 666      AFF30080 
 666      AFF30080 
 667              		.align	2
 668              		.p2align 4,,15
 669              		.global	adcAcquireBus
 670              		.thumb
 671              		.thumb_func
 672              		.type	adcAcquireBus, %function
 673              	adcAcquireBus:
 674              	.LFB127:
ARM GAS  /tmp/ccAhl9xf.s 			page 13


 675              		.loc 1 308 0
 676              		.cfi_startproc
 677              		@ args = 0, pretend = 0, frame = 0
 678              		@ frame_needed = 0, uses_anonymous_args = 0
 679              	.LVL62:
 680 0000 10B5     		push	{r4, lr}
 681              		.cfi_def_cfa_offset 8
 682              		.cfi_offset 4, -8
 683              		.cfi_offset 14, -4
 684              		.loc 1 310 0
 685 0002 0446     		mov	r4, r0
 686 0004 28B1     		cbz	r0, .L75
 687              		.loc 1 313 0
 688 0006 04F11800 		add	r0, r4, #24
 689              	.LVL63:
 690              		.loc 1 317 0
 691 000a BDE81040 		pop	{r4, lr}
 692              	.LVL64:
 693              		.loc 1 313 0
 694 000e FFF7FEBF 		b	chMtxLock
 695              	.LVL65:
 696              	.L75:
 697              		.loc 1 310 0 discriminator 1
 698 0012 0448     		ldr	r0, .L76
 699              	.LVL66:
 700 0014 FFF7FEFF 		bl	chDbgPanic
 701              	.LVL67:
 702              		.loc 1 313 0 discriminator 1
 703 0018 04F11800 		add	r0, r4, #24
 704              		.loc 1 317 0 discriminator 1
 705 001c BDE81040 		pop	{r4, lr}
 706              	.LVL68:
 707              		.loc 1 313 0 discriminator 1
 708 0020 FFF7FEBF 		b	chMtxLock
 709              	.LVL69:
 710              	.L77:
 711              		.align	2
 712              	.L76:
 713 0024 E8000000 		.word	.LC11
 714              		.cfi_endproc
 715              	.LFE127:
 716              		.size	adcAcquireBus, .-adcAcquireBus
 717 0028 AFF30080 		.section	.text.adcReleaseBus,"ax",%progbits
 717      AFF30080 
 718              		.align	2
 719              		.p2align 4,,15
 720              		.global	adcReleaseBus
 721              		.thumb
 722              		.thumb_func
 723              		.type	adcReleaseBus, %function
 724              	adcReleaseBus:
 725              	.LFB128:
 726              		.loc 1 328 0
 727              		.cfi_startproc
 728              		@ args = 0, pretend = 0, frame = 0
 729              		@ frame_needed = 0, uses_anonymous_args = 0
 730              	.LVL70:
ARM GAS  /tmp/ccAhl9xf.s 			page 14


 731 0000 08B5     		push	{r3, lr}
 732              		.cfi_def_cfa_offset 8
 733              		.cfi_offset 3, -8
 734              		.cfi_offset 14, -4
 735              		.loc 1 330 0
 736 0002 18B1     		cbz	r0, .L80
 737              		.loc 1 338 0
 738 0004 BDE80840 		pop	{r3, lr}
 739              		.loc 1 334 0
 740 0008 FFF7FEBF 		b	chMtxUnlock
 741              	.LVL71:
 742              	.L80:
 743              		.loc 1 330 0 discriminator 1
 744 000c 0348     		ldr	r0, .L81
 745              	.LVL72:
 746 000e FFF7FEFF 		bl	chDbgPanic
 747              	.LVL73:
 748              		.loc 1 338 0 discriminator 1
 749 0012 BDE80840 		pop	{r3, lr}
 750              		.loc 1 334 0 discriminator 1
 751 0016 FFF7FEBF 		b	chMtxUnlock
 752              	.LVL74:
 753              	.L82:
 754 001a 00BF     		.align	2
 755              	.L81:
 756 001c FC000000 		.word	.LC12
 757              		.cfi_endproc
 758              	.LFE128:
 759              		.size	adcReleaseBus, .-adcReleaseBus
 760              		.section	.rodata.str1.4,"aMS",%progbits,1
 761              		.align	2
 762              	.LC0:
 763 0000 22616463 		.ascii	"\"adcStart\"()\000"
 763      53746172 
 763      74222829 
 763      00
 764 000d 000000   		.space	3
 765              	.LC1:
 766 0010 61646353 		.ascii	"adcStart(), #1\000"
 766      74617274 
 766      28292C20 
 766      233100
 767 001f 00       		.space	1
 768              	.LC2:
 769 0020 22616463 		.ascii	"\"adcStop\"()\000"
 769      53746F70 
 769      22282900 
 770              	.LC3:
 771 002c 61646353 		.ascii	"adcStop(), #1\000"
 771      746F7028 
 771      292C2023 
 771      3100
 772 003a 0000     		.space	2
 773              	.LC4:
 774 003c 22616463 		.ascii	"\"adcStartConversionI\"()\000"
 774      53746172 
 774      74436F6E 
ARM GAS  /tmp/ccAhl9xf.s 			page 15


 774      76657273 
 774      696F6E49 
 775              	.LC5:
 776 0054 61646353 		.ascii	"adcStartConversionI(), #1\000"
 776      74617274 
 776      436F6E76 
 776      65727369 
 776      6F6E4928 
 777 006e 0000     		.space	2
 778              	.LC6:
 779 0070 22616463 		.ascii	"\"adcStopConversion\"()\000"
 779      53746F70 
 779      436F6E76 
 779      65727369 
 779      6F6E2228 
 780 0086 0000     		.space	2
 781              	.LC7:
 782 0088 61646353 		.ascii	"adcStopConversion(), #1\000"
 782      746F7043 
 782      6F6E7665 
 782      7273696F 
 782      6E28292C 
 783              	.LC8:
 784 00a0 22616463 		.ascii	"\"adcStopConversionI\"()\000"
 784      53746F70 
 784      436F6E76 
 784      65727369 
 784      6F6E4922 
 785 00b7 00       		.space	1
 786              	.LC9:
 787 00b8 61646353 		.ascii	"adcStopConversionI(), #1\000"
 787      746F7043 
 787      6F6E7665 
 787      7273696F 
 787      6E492829 
 788 00d1 000000   		.space	3
 789              	.LC10:
 790 00d4 61646343 		.ascii	"adcConvert(), #1\000"
 790      6F6E7665 
 790      72742829 
 790      2C202331 
 790      00
 791 00e5 000000   		.space	3
 792              	.LC11:
 793 00e8 22616463 		.ascii	"\"adcAcquireBus\"()\000"
 793      41637175 
 793      69726542 
 793      75732228 
 793      2900
 794 00fa 0000     		.space	2
 795              	.LC12:
 796 00fc 22616463 		.ascii	"\"adcReleaseBus\"()\000"
 796      52656C65 
 796      61736542 
 796      75732228 
 796      2900
 797 010e 0000     		.text
ARM GAS  /tmp/ccAhl9xf.s 			page 16


 798              	.Letext0:
 799              		.file 2 "/usr/lib/gcc/arm-none-eabi/4.8.3/include/stddef.h"
 800              		.file 3 "/usr/arm-none-eabi/include/stdint.h"
 801              		.file 4 "../../../os/ports/GCC/ARMCMx/chtypes.h"
 802              		.file 5 "../../../os/kernel/include/chlists.h"
 803              		.file 6 "../../../os/kernel/include/chthreads.h"
 804              		.file 7 "../../../os/ports/GCC/ARMCMx/chcore_v7m.h"
 805              		.file 8 "../../../os/kernel/include/chschd.h"
 806              		.file 9 "../../../os/kernel/include/chmtx.h"
 807              		.file 10 "../../../os/hal/platforms/STM32F30x/stm32f30x.h"
 808              		.file 11 "../../../os/hal/platforms/STM32F30x/stm32_dma.h"
 809              		.file 12 "../../../os/hal/include/adc.h"
 810              		.file 13 "../../../os/hal/platforms/STM32F30x/adc_lld.h"
 811              		.file 14 "../../../os/ports/common/ARMCMx/CMSIS/include/core_cm4.h"
 812              		.file 15 "../../../os/kernel/include/chdebug.h"
 813              		.section	.debug_info,"",%progbits
 814              	.Ldebug_info0:
 815 0000 C5100000 		.4byte	0x10c5
 816 0004 0400     		.2byte	0x4
 817 0006 00000000 		.4byte	.Ldebug_abbrev0
 818 000a 04       		.byte	0x4
 819 000b 01       		.uleb128 0x1
 820 000c 8E040000 		.4byte	.LASF176
 821 0010 01       		.byte	0x1
 822 0011 A7000000 		.4byte	.LASF177
 823 0015 DF020000 		.4byte	.LASF178
 824 0019 18000000 		.4byte	.Ldebug_ranges0+0x18
 825 001d 00000000 		.4byte	0
 826 0021 00000000 		.4byte	.Ldebug_line0
 827 0025 02       		.uleb128 0x2
 828 0026 04       		.byte	0x4
 829 0027 05       		.byte	0x5
 830 0028 696E7400 		.ascii	"int\000"
 831 002c 03       		.uleb128 0x3
 832 002d 16000000 		.4byte	.LASF2
 833 0031 02       		.byte	0x2
 834 0032 D4       		.byte	0xd4
 835 0033 37000000 		.4byte	0x37
 836 0037 04       		.uleb128 0x4
 837 0038 04       		.byte	0x4
 838 0039 07       		.byte	0x7
 839 003a 50020000 		.4byte	.LASF0
 840 003e 04       		.uleb128 0x4
 841 003f 01       		.byte	0x1
 842 0040 06       		.byte	0x6
 843 0041 CD000000 		.4byte	.LASF1
 844 0045 03       		.uleb128 0x3
 845 0046 48070000 		.4byte	.LASF3
 846 004a 03       		.byte	0x3
 847 004b 2A       		.byte	0x2a
 848 004c 50000000 		.4byte	0x50
 849 0050 04       		.uleb128 0x4
 850 0051 01       		.byte	0x1
 851 0052 08       		.byte	0x8
 852 0053 7C050000 		.4byte	.LASF4
 853 0057 04       		.uleb128 0x4
 854 0058 02       		.byte	0x2
ARM GAS  /tmp/ccAhl9xf.s 			page 17


 855 0059 05       		.byte	0x5
 856 005a 33030000 		.4byte	.LASF5
 857 005e 03       		.uleb128 0x3
 858 005f B2010000 		.4byte	.LASF6
 859 0063 03       		.byte	0x3
 860 0064 36       		.byte	0x36
 861 0065 69000000 		.4byte	0x69
 862 0069 04       		.uleb128 0x4
 863 006a 02       		.byte	0x2
 864 006b 07       		.byte	0x7
 865 006c A5020000 		.4byte	.LASF7
 866 0070 03       		.uleb128 0x3
 867 0071 74050000 		.4byte	.LASF8
 868 0075 03       		.byte	0x3
 869 0076 4F       		.byte	0x4f
 870 0077 7B000000 		.4byte	0x7b
 871 007b 04       		.uleb128 0x4
 872 007c 04       		.byte	0x4
 873 007d 05       		.byte	0x5
 874 007e 4C010000 		.4byte	.LASF9
 875 0082 03       		.uleb128 0x3
 876 0083 0C070000 		.4byte	.LASF10
 877 0087 03       		.byte	0x3
 878 0088 50       		.byte	0x50
 879 0089 8D000000 		.4byte	0x8d
 880 008d 04       		.uleb128 0x4
 881 008e 04       		.byte	0x4
 882 008f 07       		.byte	0x7
 883 0090 70060000 		.4byte	.LASF11
 884 0094 04       		.uleb128 0x4
 885 0095 08       		.byte	0x8
 886 0096 05       		.byte	0x5
 887 0097 A4010000 		.4byte	.LASF12
 888 009b 03       		.uleb128 0x3
 889 009c 1D000000 		.4byte	.LASF13
 890 00a0 03       		.byte	0x3
 891 00a1 78       		.byte	0x78
 892 00a2 A6000000 		.4byte	0xa6
 893 00a6 04       		.uleb128 0x4
 894 00a7 08       		.byte	0x8
 895 00a8 07       		.byte	0x7
 896 00a9 55000000 		.4byte	.LASF14
 897 00ad 03       		.uleb128 0x3
 898 00ae E6000000 		.4byte	.LASF15
 899 00b2 04       		.byte	0x4
 900 00b3 24       		.byte	0x24
 901 00b4 B8000000 		.4byte	0xb8
 902 00b8 04       		.uleb128 0x4
 903 00b9 01       		.byte	0x1
 904 00ba 02       		.byte	0x2
 905 00bb 6E050000 		.4byte	.LASF16
 906 00bf 03       		.uleb128 0x3
 907 00c0 13030000 		.4byte	.LASF17
 908 00c4 04       		.byte	0x4
 909 00c5 25       		.byte	0x25
 910 00c6 45000000 		.4byte	0x45
 911 00ca 03       		.uleb128 0x3
ARM GAS  /tmp/ccAhl9xf.s 			page 18


 912 00cb 94010000 		.4byte	.LASF18
 913 00cf 04       		.byte	0x4
 914 00d0 26       		.byte	0x26
 915 00d1 45000000 		.4byte	0x45
 916 00d5 03       		.uleb128 0x3
 917 00d6 27040000 		.4byte	.LASF19
 918 00da 04       		.byte	0x4
 919 00db 27       		.byte	0x27
 920 00dc 45000000 		.4byte	0x45
 921 00e0 03       		.uleb128 0x3
 922 00e1 66060000 		.4byte	.LASF20
 923 00e5 04       		.byte	0x4
 924 00e6 28       		.byte	0x28
 925 00e7 45000000 		.4byte	0x45
 926 00eb 03       		.uleb128 0x3
 927 00ec 86040000 		.4byte	.LASF21
 928 00f0 04       		.byte	0x4
 929 00f1 29       		.byte	0x29
 930 00f2 82000000 		.4byte	0x82
 931 00f6 03       		.uleb128 0x3
 932 00f7 C8020000 		.4byte	.LASF22
 933 00fb 04       		.byte	0x4
 934 00fc 2A       		.byte	0x2a
 935 00fd 70000000 		.4byte	0x70
 936 0101 03       		.uleb128 0x3
 937 0102 27030000 		.4byte	.LASF23
 938 0106 04       		.byte	0x4
 939 0107 2C       		.byte	0x2c
 940 0108 82000000 		.4byte	0x82
 941 010c 03       		.uleb128 0x3
 942 010d A8060000 		.4byte	.LASF24
 943 0111 04       		.byte	0x4
 944 0112 2E       		.byte	0x2e
 945 0113 82000000 		.4byte	0x82
 946 0117 03       		.uleb128 0x3
 947 0118 22020000 		.4byte	.LASF25
 948 011c 05       		.byte	0x5
 949 011d 23       		.byte	0x23
 950 011e 22010000 		.4byte	0x122
 951 0122 05       		.uleb128 0x5
 952 0123 22020000 		.4byte	.LASF25
 953 0127 4C       		.byte	0x4c
 954 0128 06       		.byte	0x6
 955 0129 57       		.byte	0x57
 956 012a 2B020000 		.4byte	0x22b
 957 012e 06       		.uleb128 0x6
 958 012f FB050000 		.4byte	.LASF26
 959 0133 06       		.byte	0x6
 960 0134 58       		.byte	0x58
 961 0135 4C020000 		.4byte	0x24c
 962 0139 00       		.byte	0
 963 013a 06       		.uleb128 0x6
 964 013b 61040000 		.4byte	.LASF27
 965 013f 06       		.byte	0x6
 966 0140 5A       		.byte	0x5a
 967 0141 4C020000 		.4byte	0x24c
 968 0145 04       		.byte	0x4
ARM GAS  /tmp/ccAhl9xf.s 			page 19


 969 0146 06       		.uleb128 0x6
 970 0147 9B000000 		.4byte	.LASF28
 971 014b 06       		.byte	0x6
 972 014c 5C       		.byte	0x5c
 973 014d EB000000 		.4byte	0xeb
 974 0151 08       		.byte	0x8
 975 0152 06       		.uleb128 0x6
 976 0153 F8070000 		.4byte	.LASF29
 977 0157 06       		.byte	0x6
 978 0158 5D       		.byte	0x5d
 979 0159 11030000 		.4byte	0x311
 980 015d 0C       		.byte	0xc
 981 015e 06       		.uleb128 0x6
 982 015f CE010000 		.4byte	.LASF30
 983 0163 06       		.byte	0x6
 984 0164 5F       		.byte	0x5f
 985 0165 4C020000 		.4byte	0x24c
 986 0169 10       		.byte	0x10
 987 016a 06       		.uleb128 0x6
 988 016b A7030000 		.4byte	.LASF31
 989 016f 06       		.byte	0x6
 990 0170 60       		.byte	0x60
 991 0171 4C020000 		.4byte	0x24c
 992 0175 14       		.byte	0x14
 993 0176 06       		.uleb128 0x6
 994 0177 91070000 		.4byte	.LASF32
 995 017b 06       		.byte	0x6
 996 017c 67       		.byte	0x67
 997 017d 16040000 		.4byte	0x416
 998 0181 18       		.byte	0x18
 999 0182 06       		.uleb128 0x6
 1000 0183 45020000 		.4byte	.LASF33
 1001 0187 06       		.byte	0x6
 1002 0188 6D       		.byte	0x6d
 1003 0189 28040000 		.4byte	0x428
 1004 018d 1C       		.byte	0x1c
 1005 018e 06       		.uleb128 0x6
 1006 018f C9050000 		.4byte	.LASF34
 1007 0193 06       		.byte	0x6
 1008 0194 72       		.byte	0x72
 1009 0195 CA000000 		.4byte	0xca
 1010 0199 20       		.byte	0x20
 1011 019a 06       		.uleb128 0x6
 1012 019b 02060000 		.4byte	.LASF35
 1013 019f 06       		.byte	0x6
 1014 01a0 76       		.byte	0x76
 1015 01a1 BF000000 		.4byte	0xbf
 1016 01a5 21       		.byte	0x21
 1017 01a6 06       		.uleb128 0x6
 1018 01a7 2B070000 		.4byte	.LASF36
 1019 01ab 06       		.byte	0x6
 1020 01ac 7B       		.byte	0x7b
 1021 01ad D5000000 		.4byte	0xd5
 1022 01b1 22       		.byte	0x22
 1023 01b2 06       		.uleb128 0x6
 1024 01b3 D1050000 		.4byte	.LASF37
 1025 01b7 06       		.byte	0x6
ARM GAS  /tmp/ccAhl9xf.s 			page 20


 1026 01b8 81       		.byte	0x81
 1027 01b9 E0000000 		.4byte	0xe0
 1028 01bd 23       		.byte	0x23
 1029 01be 06       		.uleb128 0x6
 1030 01bf BB010000 		.4byte	.LASF38
 1031 01c3 06       		.byte	0x6
 1032 01c4 88       		.byte	0x88
 1033 01c5 3E030000 		.4byte	0x33e
 1034 01c9 24       		.byte	0x24
 1035 01ca 07       		.uleb128 0x7
 1036 01cb 705F7500 		.ascii	"p_u\000"
 1037 01cf 06       		.byte	0x6
 1038 01d0 AD       		.byte	0xad
 1039 01d1 E1030000 		.4byte	0x3e1
 1040 01d5 28       		.byte	0x28
 1041 01d6 06       		.uleb128 0x6
 1042 01d7 FE070000 		.4byte	.LASF39
 1043 01db 06       		.byte	0x6
 1044 01dc B2       		.byte	0xb2
 1045 01dd 72020000 		.4byte	0x272
 1046 01e1 2C       		.byte	0x2c
 1047 01e2 06       		.uleb128 0x6
 1048 01e3 70020000 		.4byte	.LASF40
 1049 01e7 06       		.byte	0x6
 1050 01e8 B8       		.byte	0xb8
 1051 01e9 52020000 		.4byte	0x252
 1052 01ed 30       		.byte	0x30
 1053 01ee 06       		.uleb128 0x6
 1054 01ef B5070000 		.4byte	.LASF41
 1055 01f3 06       		.byte	0x6
 1056 01f4 BC       		.byte	0xbc
 1057 01f5 F6000000 		.4byte	0xf6
 1058 01f9 38       		.byte	0x38
 1059 01fa 06       		.uleb128 0x6
 1060 01fb 20060000 		.4byte	.LASF42
 1061 01ff 06       		.byte	0x6
 1062 0200 C2       		.byte	0xc2
 1063 0201 01010000 		.4byte	0x101
 1064 0205 3C       		.byte	0x3c
 1065 0206 06       		.uleb128 0x6
 1066 0207 A7050000 		.4byte	.LASF43
 1067 020b 06       		.byte	0x6
 1068 020c C9       		.byte	0xc9
 1069 020d 2E040000 		.4byte	0x42e
 1070 0211 40       		.byte	0x40
 1071 0212 06       		.uleb128 0x6
 1072 0213 B2060000 		.4byte	.LASF44
 1073 0217 06       		.byte	0x6
 1074 0218 CD       		.byte	0xcd
 1075 0219 EB000000 		.4byte	0xeb
 1076 021d 44       		.byte	0x44
 1077 021e 06       		.uleb128 0x6
 1078 021f DE000000 		.4byte	.LASF45
 1079 0223 06       		.byte	0x6
 1080 0224 D3       		.byte	0xd3
 1081 0225 88020000 		.4byte	0x288
 1082 0229 48       		.byte	0x48
ARM GAS  /tmp/ccAhl9xf.s 			page 21


 1083 022a 00       		.byte	0
 1084 022b 08       		.uleb128 0x8
 1085 022c 08       		.byte	0x8
 1086 022d 05       		.byte	0x5
 1087 022e 5A       		.byte	0x5a
 1088 022f 4C020000 		.4byte	0x24c
 1089 0233 06       		.uleb128 0x6
 1090 0234 FB050000 		.4byte	.LASF26
 1091 0238 05       		.byte	0x5
 1092 0239 5B       		.byte	0x5b
 1093 023a 4C020000 		.4byte	0x24c
 1094 023e 00       		.byte	0
 1095 023f 06       		.uleb128 0x6
 1096 0240 61040000 		.4byte	.LASF27
 1097 0244 05       		.byte	0x5
 1098 0245 5D       		.byte	0x5d
 1099 0246 4C020000 		.4byte	0x24c
 1100 024a 04       		.byte	0x4
 1101 024b 00       		.byte	0
 1102 024c 09       		.uleb128 0x9
 1103 024d 04       		.byte	0x4
 1104 024e 17010000 		.4byte	0x117
 1105 0252 03       		.uleb128 0x3
 1106 0253 B5030000 		.4byte	.LASF46
 1107 0257 05       		.byte	0x5
 1108 0258 5F       		.byte	0x5f
 1109 0259 2B020000 		.4byte	0x22b
 1110 025d 08       		.uleb128 0x8
 1111 025e 04       		.byte	0x4
 1112 025f 05       		.byte	0x5
 1113 0260 64       		.byte	0x64
 1114 0261 72020000 		.4byte	0x272
 1115 0265 06       		.uleb128 0x6
 1116 0266 FB050000 		.4byte	.LASF26
 1117 026a 05       		.byte	0x5
 1118 026b 66       		.byte	0x66
 1119 026c 4C020000 		.4byte	0x24c
 1120 0270 00       		.byte	0
 1121 0271 00       		.byte	0
 1122 0272 03       		.uleb128 0x3
 1123 0273 1B030000 		.4byte	.LASF47
 1124 0277 05       		.byte	0x5
 1125 0278 69       		.byte	0x69
 1126 0279 5D020000 		.4byte	0x25d
 1127 027d 03       		.uleb128 0x3
 1128 027e 09020000 		.4byte	.LASF48
 1129 0282 07       		.byte	0x7
 1130 0283 DE       		.byte	0xde
 1131 0284 88020000 		.4byte	0x288
 1132 0288 0A       		.uleb128 0xa
 1133 0289 04       		.byte	0x4
 1134 028a 03       		.uleb128 0x3
 1135 028b 45030000 		.4byte	.LASF49
 1136 028f 07       		.byte	0x7
 1137 0290 E4       		.byte	0xe4
 1138 0291 9B000000 		.4byte	0x9b
 1139 0295 0B       		.uleb128 0xb
ARM GAS  /tmp/ccAhl9xf.s 			page 22


 1140 0296 E0060000 		.4byte	.LASF50
 1141 029a 24       		.byte	0x24
 1142 029b 07       		.byte	0x7
 1143 029c 0501     		.2byte	0x105
 1144 029e 11030000 		.4byte	0x311
 1145 02a2 0C       		.uleb128 0xc
 1146 02a3 723400   		.ascii	"r4\000"
 1147 02a6 07       		.byte	0x7
 1148 02a7 1801     		.2byte	0x118
 1149 02a9 7D020000 		.4byte	0x27d
 1150 02ad 00       		.byte	0
 1151 02ae 0C       		.uleb128 0xc
 1152 02af 723500   		.ascii	"r5\000"
 1153 02b2 07       		.byte	0x7
 1154 02b3 1901     		.2byte	0x119
 1155 02b5 7D020000 		.4byte	0x27d
 1156 02b9 04       		.byte	0x4
 1157 02ba 0C       		.uleb128 0xc
 1158 02bb 723600   		.ascii	"r6\000"
 1159 02be 07       		.byte	0x7
 1160 02bf 1A01     		.2byte	0x11a
 1161 02c1 7D020000 		.4byte	0x27d
 1162 02c5 08       		.byte	0x8
 1163 02c6 0C       		.uleb128 0xc
 1164 02c7 723700   		.ascii	"r7\000"
 1165 02ca 07       		.byte	0x7
 1166 02cb 1B01     		.2byte	0x11b
 1167 02cd 7D020000 		.4byte	0x27d
 1168 02d1 0C       		.byte	0xc
 1169 02d2 0C       		.uleb128 0xc
 1170 02d3 723800   		.ascii	"r8\000"
 1171 02d6 07       		.byte	0x7
 1172 02d7 1C01     		.2byte	0x11c
 1173 02d9 7D020000 		.4byte	0x27d
 1174 02dd 10       		.byte	0x10
 1175 02de 0C       		.uleb128 0xc
 1176 02df 723900   		.ascii	"r9\000"
 1177 02e2 07       		.byte	0x7
 1178 02e3 1D01     		.2byte	0x11d
 1179 02e5 7D020000 		.4byte	0x27d
 1180 02e9 14       		.byte	0x14
 1181 02ea 0C       		.uleb128 0xc
 1182 02eb 72313000 		.ascii	"r10\000"
 1183 02ef 07       		.byte	0x7
 1184 02f0 1E01     		.2byte	0x11e
 1185 02f2 7D020000 		.4byte	0x27d
 1186 02f6 18       		.byte	0x18
 1187 02f7 0C       		.uleb128 0xc
 1188 02f8 72313100 		.ascii	"r11\000"
 1189 02fc 07       		.byte	0x7
 1190 02fd 1F01     		.2byte	0x11f
 1191 02ff 7D020000 		.4byte	0x27d
 1192 0303 1C       		.byte	0x1c
 1193 0304 0C       		.uleb128 0xc
 1194 0305 6C7200   		.ascii	"lr\000"
 1195 0308 07       		.byte	0x7
 1196 0309 2001     		.2byte	0x120
ARM GAS  /tmp/ccAhl9xf.s 			page 23


 1197 030b 7D020000 		.4byte	0x27d
 1198 030f 20       		.byte	0x20
 1199 0310 00       		.byte	0
 1200 0311 0B       		.uleb128 0xb
 1201 0312 BD060000 		.4byte	.LASF51
 1202 0316 04       		.byte	0x4
 1203 0317 07       		.byte	0x7
 1204 0318 2A01     		.2byte	0x12a
 1205 031a 2C030000 		.4byte	0x32c
 1206 031e 0C       		.uleb128 0xc
 1207 031f 72313300 		.ascii	"r13\000"
 1208 0323 07       		.byte	0x7
 1209 0324 2B01     		.2byte	0x12b
 1210 0326 2C030000 		.4byte	0x32c
 1211 032a 00       		.byte	0
 1212 032b 00       		.byte	0
 1213 032c 09       		.uleb128 0x9
 1214 032d 04       		.byte	0x4
 1215 032e 95020000 		.4byte	0x295
 1216 0332 0D       		.uleb128 0xd
 1217 0333 82000000 		.4byte	0x82
 1218 0337 04       		.uleb128 0x4
 1219 0338 04       		.byte	0x4
 1220 0339 07       		.byte	0x7
 1221 033a 6A030000 		.4byte	.LASF52
 1222 033e 0D       		.uleb128 0xd
 1223 033f 0C010000 		.4byte	0x10c
 1224 0343 08       		.uleb128 0x8
 1225 0344 1C       		.byte	0x1c
 1226 0345 08       		.byte	0x8
 1227 0346 57       		.byte	0x57
 1228 0347 94030000 		.4byte	0x394
 1229 034b 06       		.uleb128 0x6
 1230 034c 79030000 		.4byte	.LASF53
 1231 0350 08       		.byte	0x8
 1232 0351 58       		.byte	0x58
 1233 0352 52020000 		.4byte	0x252
 1234 0356 00       		.byte	0
 1235 0357 06       		.uleb128 0x6
 1236 0358 E4050000 		.4byte	.LASF54
 1237 035c 08       		.byte	0x8
 1238 035d 59       		.byte	0x59
 1239 035e EB000000 		.4byte	0xeb
 1240 0362 08       		.byte	0x8
 1241 0363 06       		.uleb128 0x6
 1242 0364 AF030000 		.4byte	.LASF55
 1243 0368 08       		.byte	0x8
 1244 0369 5B       		.byte	0x5b
 1245 036a 11030000 		.4byte	0x311
 1246 036e 0C       		.byte	0xc
 1247 036f 06       		.uleb128 0x6
 1248 0370 F7010000 		.4byte	.LASF56
 1249 0374 08       		.byte	0x8
 1250 0375 5E       		.byte	0x5e
 1251 0376 4C020000 		.4byte	0x24c
 1252 037a 10       		.byte	0x10
 1253 037b 06       		.uleb128 0x6
ARM GAS  /tmp/ccAhl9xf.s 			page 24


 1254 037c C5060000 		.4byte	.LASF57
 1255 0380 08       		.byte	0x8
 1256 0381 5F       		.byte	0x5f
 1257 0382 4C020000 		.4byte	0x24c
 1258 0386 14       		.byte	0x14
 1259 0387 06       		.uleb128 0x6
 1260 0388 D5030000 		.4byte	.LASF58
 1261 038c 08       		.byte	0x8
 1262 038d 62       		.byte	0x62
 1263 038e 4C020000 		.4byte	0x24c
 1264 0392 18       		.byte	0x18
 1265 0393 00       		.byte	0
 1266 0394 03       		.uleb128 0x3
 1267 0395 9D050000 		.4byte	.LASF59
 1268 0399 08       		.byte	0x8
 1269 039a 64       		.byte	0x64
 1270 039b 43030000 		.4byte	0x343
 1271 039f 05       		.uleb128 0x5
 1272 03a0 73030000 		.4byte	.LASF60
 1273 03a4 10       		.byte	0x10
 1274 03a5 09       		.byte	0x9
 1275 03a6 25       		.byte	0x25
 1276 03a7 D0030000 		.4byte	0x3d0
 1277 03ab 06       		.uleb128 0x6
 1278 03ac ED000000 		.4byte	.LASF61
 1279 03b0 09       		.byte	0x9
 1280 03b1 26       		.byte	0x26
 1281 03b2 52020000 		.4byte	0x252
 1282 03b6 00       		.byte	0
 1283 03b7 06       		.uleb128 0x6
 1284 03b8 E2070000 		.4byte	.LASF62
 1285 03bc 09       		.byte	0x9
 1286 03bd 28       		.byte	0x28
 1287 03be 4C020000 		.4byte	0x24c
 1288 03c2 08       		.byte	0x8
 1289 03c3 06       		.uleb128 0x6
 1290 03c4 CE030000 		.4byte	.LASF63
 1291 03c8 09       		.byte	0x9
 1292 03c9 2A       		.byte	0x2a
 1293 03ca D0030000 		.4byte	0x3d0
 1294 03ce 0C       		.byte	0xc
 1295 03cf 00       		.byte	0
 1296 03d0 09       		.uleb128 0x9
 1297 03d1 04       		.byte	0x4
 1298 03d2 9F030000 		.4byte	0x39f
 1299 03d6 03       		.uleb128 0x3
 1300 03d7 73030000 		.4byte	.LASF60
 1301 03db 09       		.byte	0x9
 1302 03dc 2C       		.byte	0x2c
 1303 03dd 9F030000 		.4byte	0x39f
 1304 03e1 0E       		.uleb128 0xe
 1305 03e2 04       		.byte	0x4
 1306 03e3 06       		.byte	0x6
 1307 03e4 8F       		.byte	0x8f
 1308 03e5 16040000 		.4byte	0x416
 1309 03e9 0F       		.uleb128 0xf
 1310 03ea 26000000 		.4byte	.LASF64
ARM GAS  /tmp/ccAhl9xf.s 			page 25


 1311 03ee 06       		.byte	0x6
 1312 03ef 96       		.byte	0x96
 1313 03f0 F6000000 		.4byte	0xf6
 1314 03f4 0F       		.uleb128 0xf
 1315 03f5 6C000000 		.4byte	.LASF65
 1316 03f9 06       		.byte	0x6
 1317 03fa 9D       		.byte	0x9d
 1318 03fb F6000000 		.4byte	0xf6
 1319 03ff 0F       		.uleb128 0xf
 1320 0400 8A070000 		.4byte	.LASF66
 1321 0404 06       		.byte	0x6
 1322 0405 A4       		.byte	0xa4
 1323 0406 88020000 		.4byte	0x288
 1324 040a 0F       		.uleb128 0xf
 1325 040b F4050000 		.4byte	.LASF67
 1326 040f 06       		.byte	0x6
 1327 0410 AB       		.byte	0xab
 1328 0411 01010000 		.4byte	0x101
 1329 0415 00       		.byte	0
 1330 0416 09       		.uleb128 0x9
 1331 0417 04       		.byte	0x4
 1332 0418 1C040000 		.4byte	0x41c
 1333 041c 10       		.uleb128 0x10
 1334 041d 21040000 		.4byte	0x421
 1335 0421 04       		.uleb128 0x4
 1336 0422 01       		.byte	0x1
 1337 0423 08       		.byte	0x8
 1338 0424 82060000 		.4byte	.LASF68
 1339 0428 09       		.uleb128 0x9
 1340 0429 04       		.byte	0x4
 1341 042a 8A020000 		.4byte	0x28a
 1342 042e 09       		.uleb128 0x9
 1343 042f 04       		.byte	0x4
 1344 0430 D6030000 		.4byte	0x3d6
 1345 0434 11       		.uleb128 0x11
 1346 0435 82000000 		.4byte	0x82
 1347 0439 44040000 		.4byte	0x444
 1348 043d 12       		.uleb128 0x12
 1349 043e 37030000 		.4byte	0x337
 1350 0442 01       		.byte	0x1
 1351 0443 00       		.byte	0
 1352 0444 11       		.uleb128 0x11
 1353 0445 82000000 		.4byte	0x82
 1354 0449 54040000 		.4byte	0x454
 1355 044d 12       		.uleb128 0x12
 1356 044e 37030000 		.4byte	0x337
 1357 0452 03       		.byte	0x3
 1358 0453 00       		.byte	0
 1359 0454 0D       		.uleb128 0xd
 1360 0455 70000000 		.4byte	0x70
 1361 0459 13       		.uleb128 0x13
 1362 045a B8       		.byte	0xb8
 1363 045b 0A       		.byte	0xa
 1364 045c 3501     		.2byte	0x135
 1365 045e 42060000 		.4byte	0x642
 1366 0462 0C       		.uleb128 0xc
 1367 0463 49535200 		.ascii	"ISR\000"
ARM GAS  /tmp/ccAhl9xf.s 			page 26


 1368 0467 0A       		.byte	0xa
 1369 0468 3701     		.2byte	0x137
 1370 046a 32030000 		.4byte	0x332
 1371 046e 00       		.byte	0
 1372 046f 0C       		.uleb128 0xc
 1373 0470 49455200 		.ascii	"IER\000"
 1374 0474 0A       		.byte	0xa
 1375 0475 3801     		.2byte	0x138
 1376 0477 32030000 		.4byte	0x332
 1377 047b 04       		.byte	0x4
 1378 047c 0C       		.uleb128 0xc
 1379 047d 435200   		.ascii	"CR\000"
 1380 0480 0A       		.byte	0xa
 1381 0481 3901     		.2byte	0x139
 1382 0483 32030000 		.4byte	0x332
 1383 0487 08       		.byte	0x8
 1384 0488 14       		.uleb128 0x14
 1385 0489 B0070000 		.4byte	.LASF69
 1386 048d 0A       		.byte	0xa
 1387 048e 3A01     		.2byte	0x13a
 1388 0490 32030000 		.4byte	0x332
 1389 0494 0C       		.byte	0xc
 1390 0495 14       		.uleb128 0x14
 1391 0496 2F040000 		.4byte	.LASF70
 1392 049a 0A       		.byte	0xa
 1393 049b 3B01     		.2byte	0x13b
 1394 049d 82000000 		.4byte	0x82
 1395 04a1 10       		.byte	0x10
 1396 04a2 14       		.uleb128 0x14
 1397 04a3 C2030000 		.4byte	.LASF71
 1398 04a7 0A       		.byte	0xa
 1399 04a8 3C01     		.2byte	0x13c
 1400 04aa 32030000 		.4byte	0x332
 1401 04ae 14       		.byte	0x14
 1402 04af 14       		.uleb128 0x14
 1403 04b0 C8030000 		.4byte	.LASF72
 1404 04b4 0A       		.byte	0xa
 1405 04b5 3D01     		.2byte	0x13d
 1406 04b7 32030000 		.4byte	0x332
 1407 04bb 18       		.byte	0x18
 1408 04bc 14       		.uleb128 0x14
 1409 04bd 39040000 		.4byte	.LASF73
 1410 04c1 0A       		.byte	0xa
 1411 04c2 3E01     		.2byte	0x13e
 1412 04c4 82000000 		.4byte	0x82
 1413 04c8 1C       		.byte	0x1c
 1414 04c9 0C       		.uleb128 0xc
 1415 04ca 54523100 		.ascii	"TR1\000"
 1416 04ce 0A       		.byte	0xa
 1417 04cf 3F01     		.2byte	0x13f
 1418 04d1 32030000 		.4byte	0x332
 1419 04d5 20       		.byte	0x20
 1420 04d6 0C       		.uleb128 0xc
 1421 04d7 54523200 		.ascii	"TR2\000"
 1422 04db 0A       		.byte	0xa
 1423 04dc 4001     		.2byte	0x140
 1424 04de 32030000 		.4byte	0x332
ARM GAS  /tmp/ccAhl9xf.s 			page 27


 1425 04e2 24       		.byte	0x24
 1426 04e3 0C       		.uleb128 0xc
 1427 04e4 54523300 		.ascii	"TR3\000"
 1428 04e8 0A       		.byte	0xa
 1429 04e9 4101     		.2byte	0x141
 1430 04eb 32030000 		.4byte	0x332
 1431 04ef 28       		.byte	0x28
 1432 04f0 14       		.uleb128 0x14
 1433 04f1 43040000 		.4byte	.LASF74
 1434 04f5 0A       		.byte	0xa
 1435 04f6 4201     		.2byte	0x142
 1436 04f8 82000000 		.4byte	0x82
 1437 04fc 2C       		.byte	0x2c
 1438 04fd 14       		.uleb128 0x14
 1439 04fe FF030000 		.4byte	.LASF75
 1440 0502 0A       		.byte	0xa
 1441 0503 4301     		.2byte	0x143
 1442 0505 32030000 		.4byte	0x332
 1443 0509 30       		.byte	0x30
 1444 050a 14       		.uleb128 0x14
 1445 050b 04040000 		.4byte	.LASF76
 1446 050f 0A       		.byte	0xa
 1447 0510 4401     		.2byte	0x144
 1448 0512 32030000 		.4byte	0x332
 1449 0516 34       		.byte	0x34
 1450 0517 14       		.uleb128 0x14
 1451 0518 09040000 		.4byte	.LASF77
 1452 051c 0A       		.byte	0xa
 1453 051d 4501     		.2byte	0x145
 1454 051f 32030000 		.4byte	0x332
 1455 0523 38       		.byte	0x38
 1456 0524 14       		.uleb128 0x14
 1457 0525 0E040000 		.4byte	.LASF78
 1458 0529 0A       		.byte	0xa
 1459 052a 4601     		.2byte	0x146
 1460 052c 32030000 		.4byte	0x332
 1461 0530 3C       		.byte	0x3c
 1462 0531 0C       		.uleb128 0xc
 1463 0532 445200   		.ascii	"DR\000"
 1464 0535 0A       		.byte	0xa
 1465 0536 4701     		.2byte	0x147
 1466 0538 32030000 		.4byte	0x332
 1467 053c 40       		.byte	0x40
 1468 053d 14       		.uleb128 0x14
 1469 053e 4D040000 		.4byte	.LASF79
 1470 0542 0A       		.byte	0xa
 1471 0543 4801     		.2byte	0x148
 1472 0545 82000000 		.4byte	0x82
 1473 0549 44       		.byte	0x44
 1474 054a 14       		.uleb128 0x14
 1475 054b 57040000 		.4byte	.LASF80
 1476 054f 0A       		.byte	0xa
 1477 0550 4901     		.2byte	0x149
 1478 0552 82000000 		.4byte	0x82
 1479 0556 48       		.byte	0x48
 1480 0557 14       		.uleb128 0x14
 1481 0558 A2000000 		.4byte	.LASF81
ARM GAS  /tmp/ccAhl9xf.s 			page 28


 1482 055c 0A       		.byte	0xa
 1483 055d 4A01     		.2byte	0x14a
 1484 055f 32030000 		.4byte	0x332
 1485 0563 4C       		.byte	0x4c
 1486 0564 14       		.uleb128 0x14
 1487 0565 30060000 		.4byte	.LASF82
 1488 0569 0A       		.byte	0xa
 1489 056a 4B01     		.2byte	0x14b
 1490 056c 44040000 		.4byte	0x444
 1491 0570 50       		.byte	0x50
 1492 0571 14       		.uleb128 0x14
 1493 0572 00000000 		.4byte	.LASF83
 1494 0576 0A       		.byte	0xa
 1495 0577 4C01     		.2byte	0x14c
 1496 0579 32030000 		.4byte	0x332
 1497 057d 60       		.byte	0x60
 1498 057e 14       		.uleb128 0x14
 1499 057f 05000000 		.4byte	.LASF84
 1500 0583 0A       		.byte	0xa
 1501 0584 4D01     		.2byte	0x14d
 1502 0586 32030000 		.4byte	0x332
 1503 058a 64       		.byte	0x64
 1504 058b 14       		.uleb128 0x14
 1505 058c 32070000 		.4byte	.LASF85
 1506 0590 0A       		.byte	0xa
 1507 0591 4E01     		.2byte	0x14e
 1508 0593 32030000 		.4byte	0x332
 1509 0597 68       		.byte	0x68
 1510 0598 14       		.uleb128 0x14
 1511 0599 11000000 		.4byte	.LASF86
 1512 059d 0A       		.byte	0xa
 1513 059e 4F01     		.2byte	0x14f
 1514 05a0 32030000 		.4byte	0x332
 1515 05a4 6C       		.byte	0x6c
 1516 05a5 14       		.uleb128 0x14
 1517 05a6 68040000 		.4byte	.LASF87
 1518 05aa 0A       		.byte	0xa
 1519 05ab 5001     		.2byte	0x150
 1520 05ad 44040000 		.4byte	0x444
 1521 05b1 70       		.byte	0x70
 1522 05b2 14       		.uleb128 0x14
 1523 05b3 7B070000 		.4byte	.LASF88
 1524 05b7 0A       		.byte	0xa
 1525 05b8 5101     		.2byte	0x151
 1526 05ba 32030000 		.4byte	0x332
 1527 05be 80       		.byte	0x80
 1528 05bf 14       		.uleb128 0x14
 1529 05c0 D9000000 		.4byte	.LASF89
 1530 05c4 0A       		.byte	0xa
 1531 05c5 5201     		.2byte	0x152
 1532 05c7 32030000 		.4byte	0x332
 1533 05cb 84       		.byte	0x84
 1534 05cc 14       		.uleb128 0x14
 1535 05cd 80070000 		.4byte	.LASF90
 1536 05d1 0A       		.byte	0xa
 1537 05d2 5301     		.2byte	0x153
 1538 05d4 32030000 		.4byte	0x332
ARM GAS  /tmp/ccAhl9xf.s 			page 29


 1539 05d8 88       		.byte	0x88
 1540 05d9 14       		.uleb128 0x14
 1541 05da 85070000 		.4byte	.LASF91
 1542 05de 0A       		.byte	0xa
 1543 05df 5401     		.2byte	0x154
 1544 05e1 32030000 		.4byte	0x332
 1545 05e5 8C       		.byte	0x8c
 1546 05e6 14       		.uleb128 0x14
 1547 05e7 72040000 		.4byte	.LASF92
 1548 05eb 0A       		.byte	0xa
 1549 05ec 5501     		.2byte	0x155
 1550 05ee 44040000 		.4byte	0x444
 1551 05f2 90       		.byte	0x90
 1552 05f3 14       		.uleb128 0x14
 1553 05f4 36010000 		.4byte	.LASF93
 1554 05f8 0A       		.byte	0xa
 1555 05f9 5601     		.2byte	0x156
 1556 05fb 32030000 		.4byte	0x332
 1557 05ff A0       		.byte	0xa0
 1558 0600 14       		.uleb128 0x14
 1559 0601 0A000000 		.4byte	.LASF94
 1560 0605 0A       		.byte	0xa
 1561 0606 5701     		.2byte	0x157
 1562 0608 32030000 		.4byte	0x332
 1563 060c A4       		.byte	0xa4
 1564 060d 14       		.uleb128 0x14
 1565 060e 7C040000 		.4byte	.LASF95
 1566 0612 0A       		.byte	0xa
 1567 0613 5801     		.2byte	0x158
 1568 0615 82000000 		.4byte	0x82
 1569 0619 A8       		.byte	0xa8
 1570 061a 14       		.uleb128 0x14
 1571 061b 54060000 		.4byte	.LASF96
 1572 061f 0A       		.byte	0xa
 1573 0620 5901     		.2byte	0x159
 1574 0622 82000000 		.4byte	0x82
 1575 0626 AC       		.byte	0xac
 1576 0627 14       		.uleb128 0x14
 1577 0628 94000000 		.4byte	.LASF97
 1578 062c 0A       		.byte	0xa
 1579 062d 5A01     		.2byte	0x15a
 1580 062f 32030000 		.4byte	0x332
 1581 0633 B0       		.byte	0xb0
 1582 0634 14       		.uleb128 0x14
 1583 0635 5E060000 		.4byte	.LASF98
 1584 0639 0A       		.byte	0xa
 1585 063a 5B01     		.2byte	0x15b
 1586 063c 32030000 		.4byte	0x332
 1587 0640 B4       		.byte	0xb4
 1588 0641 00       		.byte	0
 1589 0642 15       		.uleb128 0x15
 1590 0643 C2010000 		.4byte	.LASF99
 1591 0647 0A       		.byte	0xa
 1592 0648 5D01     		.2byte	0x15d
 1593 064a 59040000 		.4byte	0x459
 1594 064e 13       		.uleb128 0x13
 1595 064f 10       		.byte	0x10
ARM GAS  /tmp/ccAhl9xf.s 			page 30


 1596 0650 0A       		.byte	0xa
 1597 0651 5F01     		.2byte	0x15f
 1598 0653 8C060000 		.4byte	0x68c
 1599 0657 0C       		.uleb128 0xc
 1600 0658 43535200 		.ascii	"CSR\000"
 1601 065c 0A       		.byte	0xa
 1602 065d 6101     		.2byte	0x161
 1603 065f 32030000 		.4byte	0x332
 1604 0663 00       		.byte	0
 1605 0664 14       		.uleb128 0x14
 1606 0665 EB050000 		.4byte	.LASF100
 1607 0669 0A       		.byte	0xa
 1608 066a 6201     		.2byte	0x162
 1609 066c 82000000 		.4byte	0x82
 1610 0670 04       		.byte	0x4
 1611 0671 0C       		.uleb128 0xc
 1612 0672 43435200 		.ascii	"CCR\000"
 1613 0676 0A       		.byte	0xa
 1614 0677 6301     		.2byte	0x163
 1615 0679 32030000 		.4byte	0x332
 1616 067d 08       		.byte	0x8
 1617 067e 0C       		.uleb128 0xc
 1618 067f 43445200 		.ascii	"CDR\000"
 1619 0683 0A       		.byte	0xa
 1620 0684 6401     		.2byte	0x164
 1621 0686 32030000 		.4byte	0x332
 1622 068a 0C       		.byte	0xc
 1623 068b 00       		.byte	0
 1624 068c 15       		.uleb128 0x15
 1625 068d 8A030000 		.4byte	.LASF101
 1626 0691 0A       		.byte	0xa
 1627 0692 6601     		.2byte	0x166
 1628 0694 4E060000 		.4byte	0x64e
 1629 0698 13       		.uleb128 0x13
 1630 0699 10       		.byte	0x10
 1631 069a 0A       		.byte	0xa
 1632 069b E501     		.2byte	0x1e5
 1633 069d D6060000 		.4byte	0x6d6
 1634 06a1 0C       		.uleb128 0xc
 1635 06a2 43435200 		.ascii	"CCR\000"
 1636 06a6 0A       		.byte	0xa
 1637 06a7 E701     		.2byte	0x1e7
 1638 06a9 32030000 		.4byte	0x332
 1639 06ad 00       		.byte	0
 1640 06ae 14       		.uleb128 0x14
 1641 06af 37070000 		.4byte	.LASF102
 1642 06b3 0A       		.byte	0xa
 1643 06b4 E801     		.2byte	0x1e8
 1644 06b6 32030000 		.4byte	0x332
 1645 06ba 04       		.byte	0x4
 1646 06bb 14       		.uleb128 0x14
 1647 06bc 6B020000 		.4byte	.LASF103
 1648 06c0 0A       		.byte	0xa
 1649 06c1 E901     		.2byte	0x1e9
 1650 06c3 32030000 		.4byte	0x332
 1651 06c7 08       		.byte	0x8
 1652 06c8 14       		.uleb128 0x14
ARM GAS  /tmp/ccAhl9xf.s 			page 31


 1653 06c9 3D070000 		.4byte	.LASF104
 1654 06cd 0A       		.byte	0xa
 1655 06ce EA01     		.2byte	0x1ea
 1656 06d0 32030000 		.4byte	0x332
 1657 06d4 0C       		.byte	0xc
 1658 06d5 00       		.byte	0
 1659 06d6 15       		.uleb128 0x15
 1660 06d7 85020000 		.4byte	.LASF105
 1661 06db 0A       		.byte	0xa
 1662 06dc EB01     		.2byte	0x1eb
 1663 06de 98060000 		.4byte	0x698
 1664 06e2 08       		.uleb128 0x8
 1665 06e3 0C       		.byte	0xc
 1666 06e4 0B       		.byte	0xb
 1667 06e5 C1       		.byte	0xc1
 1668 06e6 27070000 		.4byte	0x727
 1669 06ea 06       		.uleb128 0x6
 1670 06eb 0A060000 		.4byte	.LASF106
 1671 06ef 0B       		.byte	0xb
 1672 06f0 C2       		.byte	0xc2
 1673 06f1 27070000 		.4byte	0x727
 1674 06f5 00       		.byte	0
 1675 06f6 06       		.uleb128 0x6
 1676 06f7 2B060000 		.4byte	.LASF107
 1677 06fb 0B       		.byte	0xb
 1678 06fc C3       		.byte	0xc3
 1679 06fd 2D070000 		.4byte	0x72d
 1680 0701 04       		.byte	0x4
 1681 0702 06       		.uleb128 0x6
 1682 0703 99020000 		.4byte	.LASF108
 1683 0707 0B       		.byte	0xb
 1684 0708 C4       		.byte	0xc4
 1685 0709 45000000 		.4byte	0x45
 1686 070d 08       		.byte	0x8
 1687 070e 06       		.uleb128 0x6
 1688 070f 12020000 		.4byte	.LASF109
 1689 0713 0B       		.byte	0xb
 1690 0714 C6       		.byte	0xc6
 1691 0715 45000000 		.4byte	0x45
 1692 0719 09       		.byte	0x9
 1693 071a 06       		.uleb128 0x6
 1694 071b 75000000 		.4byte	.LASF110
 1695 071f 0B       		.byte	0xb
 1696 0720 C7       		.byte	0xc7
 1697 0721 45000000 		.4byte	0x45
 1698 0725 0A       		.byte	0xa
 1699 0726 00       		.byte	0
 1700 0727 09       		.uleb128 0x9
 1701 0728 04       		.byte	0x4
 1702 0729 D6060000 		.4byte	0x6d6
 1703 072d 09       		.uleb128 0x9
 1704 072e 04       		.byte	0x4
 1705 072f 32030000 		.4byte	0x332
 1706 0733 03       		.uleb128 0x3
 1707 0734 8A050000 		.4byte	.LASF111
 1708 0738 0B       		.byte	0xb
 1709 0739 C8       		.byte	0xc8
ARM GAS  /tmp/ccAhl9xf.s 			page 32


 1710 073a E2060000 		.4byte	0x6e2
 1711 073e 16       		.uleb128 0x16
 1712 073f 01       		.byte	0x1
 1713 0740 0C       		.byte	0xc
 1714 0741 4E       		.byte	0x4e
 1715 0742 6B070000 		.4byte	0x76b
 1716 0746 17       		.uleb128 0x17
 1717 0747 F5000000 		.4byte	.LASF112
 1718 074b 00       		.sleb128 0
 1719 074c 17       		.uleb128 0x17
 1720 074d 81030000 		.4byte	.LASF113
 1721 0751 01       		.sleb128 1
 1722 0752 17       		.uleb128 0x17
 1723 0753 B8020000 		.4byte	.LASF114
 1724 0757 02       		.sleb128 2
 1725 0758 17       		.uleb128 0x17
 1726 0759 3A020000 		.4byte	.LASF115
 1727 075d 03       		.sleb128 3
 1728 075e 17       		.uleb128 0x17
 1729 075f 8E060000 		.4byte	.LASF116
 1730 0763 04       		.sleb128 4
 1731 0764 17       		.uleb128 0x17
 1732 0765 1F010000 		.4byte	.LASF117
 1733 0769 05       		.sleb128 5
 1734 076a 00       		.byte	0
 1735 076b 03       		.uleb128 0x3
 1736 076c 35000000 		.4byte	.LASF118
 1737 0770 0C       		.byte	0xc
 1738 0771 55       		.byte	0x55
 1739 0772 3E070000 		.4byte	0x73e
 1740 0776 15       		.uleb128 0x15
 1741 0777 EB010000 		.4byte	.LASF119
 1742 077b 0D       		.byte	0xd
 1743 077c 4D01     		.2byte	0x14d
 1744 077e 5E000000 		.4byte	0x5e
 1745 0782 15       		.uleb128 0x15
 1746 0783 9D070000 		.4byte	.LASF120
 1747 0787 0D       		.byte	0xd
 1748 0788 5501     		.2byte	0x155
 1749 078a 5E000000 		.4byte	0x5e
 1750 078e 18       		.uleb128 0x18
 1751 078f 01       		.byte	0x1
 1752 0790 0D       		.byte	0xd
 1753 0791 5C01     		.2byte	0x15c
 1754 0793 B6070000 		.4byte	0x7b6
 1755 0797 17       		.uleb128 0x17
 1756 0798 55010000 		.4byte	.LASF121
 1757 079c 00       		.sleb128 0
 1758 079d 17       		.uleb128 0x17
 1759 079e 29020000 		.4byte	.LASF122
 1760 07a2 01       		.sleb128 1
 1761 07a3 17       		.uleb128 0x17
 1762 07a4 12010000 		.4byte	.LASF123
 1763 07a8 02       		.sleb128 2
 1764 07a9 17       		.uleb128 0x17
 1765 07aa 1E070000 		.4byte	.LASF124
 1766 07ae 03       		.sleb128 3
ARM GAS  /tmp/ccAhl9xf.s 			page 33


 1767 07af 17       		.uleb128 0x17
 1768 07b0 29010000 		.4byte	.LASF125
 1769 07b4 04       		.sleb128 4
 1770 07b5 00       		.byte	0
 1771 07b6 15       		.uleb128 0x15
 1772 07b7 00010000 		.4byte	.LASF126
 1773 07bb 0D       		.byte	0xd
 1774 07bc 6201     		.2byte	0x162
 1775 07be 8E070000 		.4byte	0x78e
 1776 07c2 15       		.uleb128 0x15
 1777 07c3 7B020000 		.4byte	.LASF127
 1778 07c7 0D       		.byte	0xd
 1779 07c8 6701     		.2byte	0x167
 1780 07ca CE070000 		.4byte	0x7ce
 1781 07ce 0B       		.uleb128 0xb
 1782 07cf 7B020000 		.4byte	.LASF127
 1783 07d3 38       		.byte	0x38
 1784 07d4 0D       		.byte	0xd
 1785 07d5 C501     		.2byte	0x1c5
 1786 07d7 6B080000 		.4byte	0x86b
 1787 07db 14       		.uleb128 0x14
 1788 07dc 3D010000 		.4byte	.LASF128
 1789 07e0 0D       		.byte	0xd
 1790 07e1 C901     		.2byte	0x1c9
 1791 07e3 6B070000 		.4byte	0x76b
 1792 07e7 00       		.byte	0
 1793 07e8 14       		.uleb128 0x14
 1794 07e9 87060000 		.4byte	.LASF129
 1795 07ed 0D       		.byte	0xd
 1796 07ee CD01     		.2byte	0x1cd
 1797 07f0 6E090000 		.4byte	0x96e
 1798 07f4 04       		.byte	0x4
 1799 07f5 14       		.uleb128 0x14
 1800 07f6 62030000 		.4byte	.LASF130
 1801 07fa 0D       		.byte	0xd
 1802 07fb D101     		.2byte	0x1d1
 1803 07fd 98080000 		.4byte	0x898
 1804 0801 08       		.byte	0x8
 1805 0802 14       		.uleb128 0x14
 1806 0803 C2020000 		.4byte	.LASF131
 1807 0807 0D       		.byte	0xd
 1808 0808 D501     		.2byte	0x1d5
 1809 080a 2C000000 		.4byte	0x2c
 1810 080e 0C       		.byte	0xc
 1811 080f 14       		.uleb128 0x14
 1812 0810 50030000 		.4byte	.LASF132
 1813 0814 0D       		.byte	0xd
 1814 0815 D901     		.2byte	0x1d9
 1815 0817 79090000 		.4byte	0x979
 1816 081b 10       		.byte	0x10
 1817 081c 14       		.uleb128 0x14
 1818 081d 9D010000 		.4byte	.LASF133
 1819 0821 0D       		.byte	0xd
 1820 0822 DE01     		.2byte	0x1de
 1821 0824 4C020000 		.4byte	0x24c
 1822 0828 14       		.byte	0x14
 1823 0829 14       		.uleb128 0x14
ARM GAS  /tmp/ccAhl9xf.s 			page 34


 1824 082a 68050000 		.4byte	.LASF134
 1825 082e 0D       		.byte	0xd
 1826 082f E501     		.2byte	0x1e5
 1827 0831 D6030000 		.4byte	0x3d6
 1828 0835 18       		.byte	0x18
 1829 0836 14       		.uleb128 0x14
 1830 0837 98070000 		.4byte	.LASF135
 1831 083b 0D       		.byte	0xd
 1832 083c F101     		.2byte	0x1f1
 1833 083e 84090000 		.4byte	0x984
 1834 0842 28       		.byte	0x28
 1835 0843 14       		.uleb128 0x14
 1836 0844 BB070000 		.4byte	.LASF136
 1837 0848 0D       		.byte	0xd
 1838 0849 F501     		.2byte	0x1f5
 1839 084b 8A090000 		.4byte	0x98a
 1840 084f 2C       		.byte	0x2c
 1841 0850 14       		.uleb128 0x14
 1842 0851 0B010000 		.4byte	.LASF137
 1843 0855 0D       		.byte	0xd
 1844 0856 FF01     		.2byte	0x1ff
 1845 0858 90090000 		.4byte	0x990
 1846 085c 30       		.byte	0x30
 1847 085d 14       		.uleb128 0x14
 1848 085e 2D000000 		.4byte	.LASF138
 1849 0862 0D       		.byte	0xd
 1850 0863 0302     		.2byte	0x203
 1851 0865 82000000 		.4byte	0x82
 1852 0869 34       		.byte	0x34
 1853 086a 00       		.byte	0
 1854 086b 15       		.uleb128 0x15
 1855 086c DD010000 		.4byte	.LASF139
 1856 0870 0D       		.byte	0xd
 1857 0871 7101     		.2byte	0x171
 1858 0873 77080000 		.4byte	0x877
 1859 0877 09       		.uleb128 0x9
 1860 0878 04       		.byte	0x4
 1861 0879 7D080000 		.4byte	0x87d
 1862 087d 19       		.uleb128 0x19
 1863 087e 92080000 		.4byte	0x892
 1864 0882 1A       		.uleb128 0x1a
 1865 0883 92080000 		.4byte	0x892
 1866 0887 1A       		.uleb128 0x1a
 1867 0888 98080000 		.4byte	0x898
 1868 088c 1A       		.uleb128 0x1a
 1869 088d 2C000000 		.4byte	0x2c
 1870 0891 00       		.byte	0
 1871 0892 09       		.uleb128 0x9
 1872 0893 04       		.byte	0x4
 1873 0894 C2070000 		.4byte	0x7c2
 1874 0898 09       		.uleb128 0x9
 1875 0899 04       		.byte	0x4
 1876 089a 76070000 		.4byte	0x776
 1877 089e 15       		.uleb128 0x15
 1878 089f 81010000 		.4byte	.LASF140
 1879 08a3 0D       		.byte	0xd
 1880 08a4 7A01     		.2byte	0x17a
ARM GAS  /tmp/ccAhl9xf.s 			page 35


 1881 08a6 AA080000 		.4byte	0x8aa
 1882 08aa 09       		.uleb128 0x9
 1883 08ab 04       		.byte	0x4
 1884 08ac B0080000 		.4byte	0x8b0
 1885 08b0 19       		.uleb128 0x19
 1886 08b1 C0080000 		.4byte	0x8c0
 1887 08b5 1A       		.uleb128 0x1a
 1888 08b6 92080000 		.4byte	0x892
 1889 08ba 1A       		.uleb128 0x1a
 1890 08bb B6070000 		.4byte	0x7b6
 1891 08bf 00       		.byte	0
 1892 08c0 13       		.uleb128 0x13
 1893 08c1 30       		.byte	0x30
 1894 08c2 0D       		.byte	0xd
 1895 08c3 8401     		.2byte	0x184
 1896 08c5 3F090000 		.4byte	0x93f
 1897 08c9 14       		.uleb128 0x14
 1898 08ca 43010000 		.4byte	.LASF141
 1899 08ce 0D       		.byte	0xd
 1900 08cf 8801     		.2byte	0x188
 1901 08d1 AD000000 		.4byte	0xad
 1902 08d5 00       		.byte	0
 1903 08d6 14       		.uleb128 0x14
 1904 08d7 9B060000 		.4byte	.LASF142
 1905 08db 0D       		.byte	0xd
 1906 08dc 8C01     		.2byte	0x18c
 1907 08de 82070000 		.4byte	0x782
 1908 08e2 02       		.byte	0x2
 1909 08e3 14       		.uleb128 0x14
 1910 08e4 D6010000 		.4byte	.LASF143
 1911 08e8 0D       		.byte	0xd
 1912 08e9 9001     		.2byte	0x190
 1913 08eb 6B080000 		.4byte	0x86b
 1914 08ef 04       		.byte	0x4
 1915 08f0 14       		.uleb128 0x14
 1916 08f1 DB050000 		.4byte	.LASF144
 1917 08f5 0D       		.byte	0xd
 1918 08f6 9401     		.2byte	0x194
 1919 08f8 9E080000 		.4byte	0x89e
 1920 08fc 08       		.byte	0x8
 1921 08fd 14       		.uleb128 0x14
 1922 08fe 76070000 		.4byte	.LASF145
 1923 0902 0D       		.byte	0xd
 1924 0903 9B01     		.2byte	0x19b
 1925 0905 82000000 		.4byte	0x82
 1926 0909 0C       		.byte	0xc
 1927 090a 0C       		.uleb128 0xc
 1928 090b 74723100 		.ascii	"tr1\000"
 1929 090f 0D       		.byte	0xd
 1930 0910 9F01     		.2byte	0x19f
 1931 0912 82000000 		.4byte	0x82
 1932 0916 10       		.byte	0x10
 1933 0917 0C       		.uleb128 0xc
 1934 0918 63637200 		.ascii	"ccr\000"
 1935 091c 0D       		.byte	0xd
 1936 091d A501     		.2byte	0x1a5
 1937 091f 82000000 		.4byte	0x82
ARM GAS  /tmp/ccAhl9xf.s 			page 36


 1938 0923 14       		.byte	0x14
 1939 0924 14       		.uleb128 0x14
 1940 0925 A0020000 		.4byte	.LASF146
 1941 0929 0D       		.byte	0xd
 1942 092a A901     		.2byte	0x1a9
 1943 092c 34040000 		.4byte	0x434
 1944 0930 18       		.byte	0x18
 1945 0931 0C       		.uleb128 0xc
 1946 0932 73717200 		.ascii	"sqr\000"
 1947 0936 0D       		.byte	0xd
 1948 0937 AD01     		.2byte	0x1ad
 1949 0939 44040000 		.4byte	0x444
 1950 093d 20       		.byte	0x20
 1951 093e 00       		.byte	0
 1952 093f 15       		.uleb128 0x15
 1953 0940 63070000 		.4byte	.LASF147
 1954 0944 0D       		.byte	0xd
 1955 0945 B801     		.2byte	0x1b8
 1956 0947 C0080000 		.4byte	0x8c0
 1957 094b 13       		.uleb128 0x13
 1958 094c 04       		.byte	0x4
 1959 094d 0D       		.byte	0xd
 1960 094e BE01     		.2byte	0x1be
 1961 0950 62090000 		.4byte	0x962
 1962 0954 14       		.uleb128 0x14
 1963 0955 1C020000 		.4byte	.LASF148
 1964 0959 0D       		.byte	0xd
 1965 095a BF01     		.2byte	0x1bf
 1966 095c 82000000 		.4byte	0x82
 1967 0960 00       		.byte	0
 1968 0961 00       		.byte	0
 1969 0962 15       		.uleb128 0x15
 1970 0963 FF010000 		.4byte	.LASF149
 1971 0967 0D       		.byte	0xd
 1972 0968 C001     		.2byte	0x1c0
 1973 096a 4B090000 		.4byte	0x94b
 1974 096e 09       		.uleb128 0x9
 1975 096f 04       		.byte	0x4
 1976 0970 74090000 		.4byte	0x974
 1977 0974 10       		.uleb128 0x10
 1978 0975 62090000 		.4byte	0x962
 1979 0979 09       		.uleb128 0x9
 1980 097a 04       		.byte	0x4
 1981 097b 7F090000 		.4byte	0x97f
 1982 097f 10       		.uleb128 0x10
 1983 0980 3F090000 		.4byte	0x93f
 1984 0984 09       		.uleb128 0x9
 1985 0985 04       		.byte	0x4
 1986 0986 8C060000 		.4byte	0x68c
 1987 098a 09       		.uleb128 0x9
 1988 098b 04       		.byte	0x4
 1989 098c 42060000 		.4byte	0x642
 1990 0990 09       		.uleb128 0x9
 1991 0991 04       		.byte	0x4
 1992 0992 96090000 		.4byte	0x996
 1993 0996 10       		.uleb128 0x10
 1994 0997 33070000 		.4byte	0x733
ARM GAS  /tmp/ccAhl9xf.s 			page 37


 1995 099b 1B       		.uleb128 0x1b
 1996 099c 3D030000 		.4byte	.LASF150
 1997 09a0 01       		.byte	0x1
 1998 09a1 3D       		.byte	0x3d
 1999 09a2 00000000 		.4byte	.LFB118
 2000 09a6 04000000 		.4byte	.LFE118-.LFB118
 2001 09aa 01       		.uleb128 0x1
 2002 09ab 9C       		.byte	0x9c
 2003 09ac BA090000 		.4byte	0x9ba
 2004 09b0 1C       		.uleb128 0x1c
 2005 09b1 04000000 		.4byte	.LVL0
 2006 09b5 E90F0000 		.4byte	0xfe9
 2007 09b9 00       		.byte	0
 2008 09ba 1B       		.uleb128 0x1b
 2009 09bb 5D020000 		.4byte	.LASF151
 2010 09bf 01       		.byte	0x1
 2011 09c0 49       		.byte	0x49
 2012 09c1 00000000 		.4byte	.LFB119
 2013 09c5 16000000 		.4byte	.LFE119-.LFB119
 2014 09c9 01       		.uleb128 0x1
 2015 09ca 9C       		.byte	0x9c
 2016 09cb F2090000 		.4byte	0x9f2
 2017 09cf 1D       		.uleb128 0x1d
 2018 09d0 C0070000 		.4byte	.LASF153
 2019 09d4 01       		.byte	0x1
 2020 09d5 49       		.byte	0x49
 2021 09d6 92080000 		.4byte	0x892
 2022 09da 00000000 		.4byte	.LLST0
 2023 09de 1E       		.uleb128 0x1e
 2024 09df 16000000 		.4byte	.LVL3
 2025 09e3 F10F0000 		.4byte	0xff1
 2026 09e7 1F       		.uleb128 0x1f
 2027 09e8 01       		.uleb128 0x1
 2028 09e9 50       		.byte	0x50
 2029 09ea 05       		.uleb128 0x5
 2030 09eb F3       		.byte	0xf3
 2031 09ec 01       		.uleb128 0x1
 2032 09ed 50       		.byte	0x50
 2033 09ee 23       		.byte	0x23
 2034 09ef 18       		.uleb128 0x18
 2035 09f0 00       		.byte	0
 2036 09f1 00       		.byte	0
 2037 09f2 1B       		.uleb128 0x1b
 2038 09f3 15070000 		.4byte	.LASF152
 2039 09f7 01       		.byte	0x1
 2040 09f8 68       		.byte	0x68
 2041 09f9 00000000 		.4byte	.LFB120
 2042 09fd 4C000000 		.4byte	.LFE120-.LFB120
 2043 0a01 01       		.uleb128 0x1
 2044 0a02 9C       		.byte	0x9c
 2045 0a03 AC0A0000 		.4byte	0xaac
 2046 0a07 1D       		.uleb128 0x1d
 2047 0a08 C0070000 		.4byte	.LASF153
 2048 0a0c 01       		.byte	0x1
 2049 0a0d 68       		.byte	0x68
 2050 0a0e 92080000 		.4byte	0x892
 2051 0a12 2E000000 		.4byte	.LLST1
ARM GAS  /tmp/ccAhl9xf.s 			page 38


 2052 0a16 1D       		.uleb128 0x1d
 2053 0a17 87060000 		.4byte	.LASF129
 2054 0a1b 01       		.byte	0x1
 2055 0a1c 68       		.byte	0x68
 2056 0a1d 6E090000 		.4byte	0x96e
 2057 0a21 62000000 		.4byte	.LLST2
 2058 0a25 20       		.uleb128 0x20
 2059 0a26 08000000 		.4byte	.LBB2
 2060 0a2a 06000000 		.4byte	.LBE2-.LBB2
 2061 0a2e 400A0000 		.4byte	0xa40
 2062 0a32 21       		.uleb128 0x21
 2063 0a33 746D7000 		.ascii	"tmp\000"
 2064 0a37 01       		.byte	0x1
 2065 0a38 6C       		.byte	0x6c
 2066 0a39 82000000 		.4byte	0x82
 2067 0a3d 01       		.uleb128 0x1
 2068 0a3e 53       		.byte	0x53
 2069 0a3f 00       		.byte	0
 2070 0a40 20       		.uleb128 0x20
 2071 0a41 32000000 		.4byte	.LBB3
 2072 0a45 08000000 		.4byte	.LBE3-.LBB3
 2073 0a49 5B0A0000 		.4byte	0xa5b
 2074 0a4d 21       		.uleb128 0x21
 2075 0a4e 746D7000 		.ascii	"tmp\000"
 2076 0a52 01       		.byte	0x1
 2077 0a53 72       		.byte	0x72
 2078 0a54 82000000 		.4byte	0x82
 2079 0a58 01       		.uleb128 0x1
 2080 0a59 53       		.byte	0x53
 2081 0a5a 00       		.byte	0
 2082 0a5b 22       		.uleb128 0x22
 2083 0a5c 12000000 		.4byte	.LVL6
 2084 0a60 02100000 		.4byte	0x1002
 2085 0a64 23       		.uleb128 0x23
 2086 0a65 22000000 		.4byte	.LVL7
 2087 0a69 09100000 		.4byte	0x1009
 2088 0a6d 7B0A0000 		.4byte	0xa7b
 2089 0a71 1F       		.uleb128 0x1f
 2090 0a72 01       		.uleb128 0x1
 2091 0a73 50       		.byte	0x50
 2092 0a74 05       		.uleb128 0x5
 2093 0a75 03       		.byte	0x3
 2094 0a76 10000000 		.4byte	.LC1
 2095 0a7a 00       		.byte	0
 2096 0a7b 23       		.uleb128 0x23
 2097 0a7c 2A000000 		.4byte	.LVL8
 2098 0a80 1A100000 		.4byte	0x101a
 2099 0a84 8F0A0000 		.4byte	0xa8f
 2100 0a88 1F       		.uleb128 0x1f
 2101 0a89 01       		.uleb128 0x1
 2102 0a8a 50       		.byte	0x50
 2103 0a8b 02       		.uleb128 0x2
 2104 0a8c 74       		.byte	0x74
 2105 0a8d 00       		.sleb128 0
 2106 0a8e 00       		.byte	0
 2107 0a8f 22       		.uleb128 0x22
 2108 0a90 32000000 		.4byte	.LVL9
ARM GAS  /tmp/ccAhl9xf.s 			page 39


 2109 0a94 2C100000 		.4byte	0x102c
 2110 0a98 24       		.uleb128 0x24
 2111 0a99 40000000 		.4byte	.LVL12
 2112 0a9d 09100000 		.4byte	0x1009
 2113 0aa1 1F       		.uleb128 0x1f
 2114 0aa2 01       		.uleb128 0x1
 2115 0aa3 50       		.byte	0x50
 2116 0aa4 05       		.uleb128 0x5
 2117 0aa5 03       		.byte	0x3
 2118 0aa6 00000000 		.4byte	.LC0
 2119 0aaa 00       		.byte	0
 2120 0aab 00       		.byte	0
 2121 0aac 1B       		.uleb128 0x1b
 2122 0aad 40000000 		.4byte	.LASF154
 2123 0ab1 01       		.byte	0x1
 2124 0ab2 7C       		.byte	0x7c
 2125 0ab3 00000000 		.4byte	.LFB121
 2126 0ab7 48000000 		.4byte	.LFE121-.LFB121
 2127 0abb 01       		.uleb128 0x1
 2128 0abc 9C       		.byte	0x9c
 2129 0abd 570B0000 		.4byte	0xb57
 2130 0ac1 1D       		.uleb128 0x1d
 2131 0ac2 C0070000 		.4byte	.LASF153
 2132 0ac6 01       		.byte	0x1
 2133 0ac7 7C       		.byte	0x7c
 2134 0ac8 92080000 		.4byte	0x892
 2135 0acc 96000000 		.4byte	.LLST3
 2136 0ad0 20       		.uleb128 0x20
 2137 0ad1 06000000 		.4byte	.LBB4
 2138 0ad5 06000000 		.4byte	.LBE4-.LBB4
 2139 0ad9 EB0A0000 		.4byte	0xaeb
 2140 0add 21       		.uleb128 0x21
 2141 0ade 746D7000 		.ascii	"tmp\000"
 2142 0ae2 01       		.byte	0x1
 2143 0ae3 80       		.byte	0x80
 2144 0ae4 82000000 		.4byte	0x82
 2145 0ae8 01       		.uleb128 0x1
 2146 0ae9 53       		.byte	0x53
 2147 0aea 00       		.byte	0
 2148 0aeb 20       		.uleb128 0x20
 2149 0aec 2E000000 		.4byte	.LBB5
 2150 0af0 08000000 		.4byte	.LBE5-.LBB5
 2151 0af4 060B0000 		.4byte	0xb06
 2152 0af8 21       		.uleb128 0x21
 2153 0af9 746D7000 		.ascii	"tmp\000"
 2154 0afd 01       		.byte	0x1
 2155 0afe 85       		.byte	0x85
 2156 0aff 82000000 		.4byte	0x82
 2157 0b03 01       		.uleb128 0x1
 2158 0b04 53       		.byte	0x53
 2159 0b05 00       		.byte	0
 2160 0b06 22       		.uleb128 0x22
 2161 0b07 10000000 		.4byte	.LVL15
 2162 0b0b 02100000 		.4byte	0x1002
 2163 0b0f 23       		.uleb128 0x23
 2164 0b10 20000000 		.4byte	.LVL16
 2165 0b14 09100000 		.4byte	0x1009
ARM GAS  /tmp/ccAhl9xf.s 			page 40


 2166 0b18 260B0000 		.4byte	0xb26
 2167 0b1c 1F       		.uleb128 0x1f
 2168 0b1d 01       		.uleb128 0x1
 2169 0b1e 50       		.byte	0x50
 2170 0b1f 05       		.uleb128 0x5
 2171 0b20 03       		.byte	0x3
 2172 0b21 2C000000 		.4byte	.LC3
 2173 0b25 00       		.byte	0
 2174 0b26 23       		.uleb128 0x23
 2175 0b27 26000000 		.4byte	.LVL17
 2176 0b2b 33100000 		.4byte	0x1033
 2177 0b2f 3A0B0000 		.4byte	0xb3a
 2178 0b33 1F       		.uleb128 0x1f
 2179 0b34 01       		.uleb128 0x1
 2180 0b35 50       		.byte	0x50
 2181 0b36 02       		.uleb128 0x2
 2182 0b37 74       		.byte	0x74
 2183 0b38 00       		.sleb128 0
 2184 0b39 00       		.byte	0
 2185 0b3a 22       		.uleb128 0x22
 2186 0b3b 2E000000 		.4byte	.LVL18
 2187 0b3f 2C100000 		.4byte	0x102c
 2188 0b43 24       		.uleb128 0x24
 2189 0b44 3C000000 		.4byte	.LVL21
 2190 0b48 09100000 		.4byte	0x1009
 2191 0b4c 1F       		.uleb128 0x1f
 2192 0b4d 01       		.uleb128 0x1
 2193 0b4e 50       		.byte	0x50
 2194 0b4f 05       		.uleb128 0x5
 2195 0b50 03       		.byte	0x3
 2196 0b51 20000000 		.4byte	.LC2
 2197 0b55 00       		.byte	0
 2198 0b56 00       		.byte	0
 2199 0b57 1B       		.uleb128 0x1b
 2200 0b58 13040000 		.4byte	.LASF155
 2201 0b5c 01       		.byte	0x1
 2202 0b5d B4       		.byte	0xb4
 2203 0b5e 00000000 		.4byte	.LFB123
 2204 0b62 54000000 		.4byte	.LFE123-.LFB123
 2205 0b66 01       		.uleb128 0x1
 2206 0b67 9C       		.byte	0x9c
 2207 0b68 F10B0000 		.4byte	0xbf1
 2208 0b6c 1D       		.uleb128 0x1d
 2209 0b6d C0070000 		.4byte	.LASF153
 2210 0b71 01       		.byte	0x1
 2211 0b72 B4       		.byte	0xb4
 2212 0b73 92080000 		.4byte	0x892
 2213 0b77 CA000000 		.4byte	.LLST4
 2214 0b7b 1D       		.uleb128 0x1d
 2215 0b7c 50030000 		.4byte	.LASF132
 2216 0b80 01       		.byte	0x1
 2217 0b81 B5       		.byte	0xb5
 2218 0b82 79090000 		.4byte	0x979
 2219 0b86 0C010000 		.4byte	.LLST5
 2220 0b8a 1D       		.uleb128 0x1d
 2221 0b8b 62030000 		.4byte	.LASF130
 2222 0b8f 01       		.byte	0x1
ARM GAS  /tmp/ccAhl9xf.s 			page 41


 2223 0b90 B6       		.byte	0xb6
 2224 0b91 98080000 		.4byte	0x898
 2225 0b95 4F010000 		.4byte	.LLST6
 2226 0b99 1D       		.uleb128 0x1d
 2227 0b9a C2020000 		.4byte	.LASF131
 2228 0b9e 01       		.byte	0x1
 2229 0b9f B7       		.byte	0xb7
 2230 0ba0 2C000000 		.4byte	0x2c
 2231 0ba4 92010000 		.4byte	.LLST7
 2232 0ba8 22       		.uleb128 0x22
 2233 0ba9 0E000000 		.4byte	.LVL23
 2234 0bad 45100000 		.4byte	0x1045
 2235 0bb1 23       		.uleb128 0x23
 2236 0bb2 30000000 		.4byte	.LVL24
 2237 0bb6 09100000 		.4byte	0x1009
 2238 0bba C80B0000 		.4byte	0xbc8
 2239 0bbe 1F       		.uleb128 0x1f
 2240 0bbf 01       		.uleb128 0x1
 2241 0bc0 50       		.byte	0x50
 2242 0bc1 05       		.uleb128 0x5
 2243 0bc2 03       		.byte	0x3
 2244 0bc3 54000000 		.4byte	.LC5
 2245 0bc7 00       		.byte	0
 2246 0bc8 25       		.uleb128 0x25
 2247 0bc9 44000000 		.4byte	.LVL26
 2248 0bcd 4C100000 		.4byte	0x104c
 2249 0bd1 DD0B0000 		.4byte	0xbdd
 2250 0bd5 1F       		.uleb128 0x1f
 2251 0bd6 01       		.uleb128 0x1
 2252 0bd7 50       		.byte	0x50
 2253 0bd8 03       		.uleb128 0x3
 2254 0bd9 F3       		.byte	0xf3
 2255 0bda 01       		.uleb128 0x1
 2256 0bdb 50       		.byte	0x50
 2257 0bdc 00       		.byte	0
 2258 0bdd 24       		.uleb128 0x24
 2259 0bde 4A000000 		.4byte	.LVL27
 2260 0be2 09100000 		.4byte	0x1009
 2261 0be6 1F       		.uleb128 0x1f
 2262 0be7 01       		.uleb128 0x1
 2263 0be8 50       		.byte	0x50
 2264 0be9 05       		.uleb128 0x5
 2265 0bea 03       		.byte	0x3
 2266 0beb 3C000000 		.4byte	.LC4
 2267 0bef 00       		.byte	0
 2268 0bf0 00       		.byte	0
 2269 0bf1 1B       		.uleb128 0x1b
 2270 0bf2 CD060000 		.4byte	.LASF156
 2271 0bf6 01       		.byte	0x1
 2272 0bf7 98       		.byte	0x98
 2273 0bf8 00000000 		.4byte	.LFB122
 2274 0bfc 2C000000 		.4byte	.LFE122-.LFB122
 2275 0c00 01       		.uleb128 0x1
 2276 0c01 9C       		.byte	0x9c
 2277 0c02 B10C0000 		.4byte	0xcb1
 2278 0c06 1D       		.uleb128 0x1d
 2279 0c07 C0070000 		.4byte	.LASF153
ARM GAS  /tmp/ccAhl9xf.s 			page 42


 2280 0c0b 01       		.byte	0x1
 2281 0c0c 98       		.byte	0x98
 2282 0c0d 92080000 		.4byte	0x892
 2283 0c11 D5010000 		.4byte	.LLST8
 2284 0c15 1D       		.uleb128 0x1d
 2285 0c16 50030000 		.4byte	.LASF132
 2286 0c1a 01       		.byte	0x1
 2287 0c1b 99       		.byte	0x99
 2288 0c1c 79090000 		.4byte	0x979
 2289 0c20 F3010000 		.4byte	.LLST9
 2290 0c24 1D       		.uleb128 0x1d
 2291 0c25 62030000 		.4byte	.LASF130
 2292 0c29 01       		.byte	0x1
 2293 0c2a 9A       		.byte	0x9a
 2294 0c2b 98080000 		.4byte	0x898
 2295 0c2f 11020000 		.4byte	.LLST10
 2296 0c33 1D       		.uleb128 0x1d
 2297 0c34 C2020000 		.4byte	.LASF131
 2298 0c38 01       		.byte	0x1
 2299 0c39 9B       		.byte	0x9b
 2300 0c3a 2C000000 		.4byte	0x2c
 2301 0c3e 2F020000 		.4byte	.LLST11
 2302 0c42 20       		.uleb128 0x20
 2303 0c43 0A000000 		.4byte	.LBB6
 2304 0c47 06000000 		.4byte	.LBE6-.LBB6
 2305 0c4b 5D0C0000 		.4byte	0xc5d
 2306 0c4f 21       		.uleb128 0x21
 2307 0c50 746D7000 		.ascii	"tmp\000"
 2308 0c54 01       		.byte	0x1
 2309 0c55 9D       		.byte	0x9d
 2310 0c56 82000000 		.4byte	0x82
 2311 0c5a 01       		.uleb128 0x1
 2312 0c5b 53       		.byte	0x53
 2313 0c5c 00       		.byte	0
 2314 0c5d 20       		.uleb128 0x20
 2315 0c5e 24000000 		.4byte	.LBB7
 2316 0c62 08000000 		.4byte	.LBE7-.LBB7
 2317 0c66 780C0000 		.4byte	0xc78
 2318 0c6a 21       		.uleb128 0x21
 2319 0c6b 746D7000 		.ascii	"tmp\000"
 2320 0c6f 01       		.byte	0x1
 2321 0c70 9F       		.byte	0x9f
 2322 0c71 82000000 		.4byte	0x82
 2323 0c75 01       		.uleb128 0x1
 2324 0c76 53       		.byte	0x53
 2325 0c77 00       		.byte	0
 2326 0c78 22       		.uleb128 0x22
 2327 0c79 14000000 		.4byte	.LVL30
 2328 0c7d 02100000 		.4byte	0x1002
 2329 0c81 23       		.uleb128 0x23
 2330 0c82 20000000 		.4byte	.LVL31
 2331 0c86 570B0000 		.4byte	0xb57
 2332 0c8a A70C0000 		.4byte	0xca7
 2333 0c8e 1F       		.uleb128 0x1f
 2334 0c8f 01       		.uleb128 0x1
 2335 0c90 53       		.byte	0x53
 2336 0c91 02       		.uleb128 0x2
ARM GAS  /tmp/ccAhl9xf.s 			page 43


 2337 0c92 74       		.byte	0x74
 2338 0c93 00       		.sleb128 0
 2339 0c94 1F       		.uleb128 0x1f
 2340 0c95 01       		.uleb128 0x1
 2341 0c96 52       		.byte	0x52
 2342 0c97 02       		.uleb128 0x2
 2343 0c98 75       		.byte	0x75
 2344 0c99 00       		.sleb128 0
 2345 0c9a 1F       		.uleb128 0x1f
 2346 0c9b 01       		.uleb128 0x1
 2347 0c9c 51       		.byte	0x51
 2348 0c9d 02       		.uleb128 0x2
 2349 0c9e 76       		.byte	0x76
 2350 0c9f 00       		.sleb128 0
 2351 0ca0 1F       		.uleb128 0x1f
 2352 0ca1 01       		.uleb128 0x1
 2353 0ca2 50       		.byte	0x50
 2354 0ca3 02       		.uleb128 0x2
 2355 0ca4 77       		.byte	0x77
 2356 0ca5 00       		.sleb128 0
 2357 0ca6 00       		.byte	0
 2358 0ca7 22       		.uleb128 0x22
 2359 0ca8 24000000 		.4byte	.LVL32
 2360 0cac 2C100000 		.4byte	0x102c
 2361 0cb0 00       		.byte	0
 2362 0cb1 1B       		.uleb128 0x1b
 2363 0cb2 D0070000 		.4byte	.LASF157
 2364 0cb6 01       		.byte	0x1
 2365 0cb7 D3       		.byte	0xd3
 2366 0cb8 00000000 		.4byte	.LFB124
 2367 0cbc 60000000 		.4byte	.LFE124-.LFB124
 2368 0cc0 01       		.uleb128 0x1
 2369 0cc1 9C       		.byte	0x9c
 2370 0cc2 880D0000 		.4byte	0xd88
 2371 0cc6 1D       		.uleb128 0x1d
 2372 0cc7 C0070000 		.4byte	.LASF153
 2373 0ccb 01       		.byte	0x1
 2374 0ccc D3       		.byte	0xd3
 2375 0ccd 92080000 		.4byte	0x892
 2376 0cd1 4D020000 		.4byte	.LLST12
 2377 0cd5 20       		.uleb128 0x20
 2378 0cd6 06000000 		.4byte	.LBB8
 2379 0cda 06000000 		.4byte	.LBE8-.LBB8
 2380 0cde F00C0000 		.4byte	0xcf0
 2381 0ce2 21       		.uleb128 0x21
 2382 0ce3 746D7000 		.ascii	"tmp\000"
 2383 0ce7 01       		.byte	0x1
 2384 0ce8 D7       		.byte	0xd7
 2385 0ce9 82000000 		.4byte	0x82
 2386 0ced 01       		.uleb128 0x1
 2387 0cee 53       		.byte	0x53
 2388 0cef 00       		.byte	0
 2389 0cf0 20       		.uleb128 0x20
 2390 0cf1 38000000 		.4byte	.LBB9
 2391 0cf5 0A000000 		.4byte	.LBE9-.LBB9
 2392 0cf9 1C0D0000 		.4byte	0xd1c
 2393 0cfd 26       		.uleb128 0x26
ARM GAS  /tmp/ccAhl9xf.s 			page 44


 2394 0cfe 747000   		.ascii	"tp\000"
 2395 0d01 01       		.byte	0x1
 2396 0d02 DF       		.byte	0xdf
 2397 0d03 4C020000 		.4byte	0x24c
 2398 0d07 81020000 		.4byte	.LLST13
 2399 0d0b 24       		.uleb128 0x24
 2400 0d0c 42000000 		.4byte	.LVL39
 2401 0d10 5E100000 		.4byte	0x105e
 2402 0d14 1F       		.uleb128 0x1f
 2403 0d15 01       		.uleb128 0x1
 2404 0d16 51       		.byte	0x51
 2405 0d17 02       		.uleb128 0x2
 2406 0d18 09       		.byte	0x9
 2407 0d19 FE       		.byte	0xfe
 2408 0d1a 00       		.byte	0
 2409 0d1b 00       		.byte	0
 2410 0d1c 20       		.uleb128 0x20
 2411 0d1d 46000000 		.4byte	.LBB10
 2412 0d21 08000000 		.4byte	.LBE10-.LBB10
 2413 0d25 370D0000 		.4byte	0xd37
 2414 0d29 21       		.uleb128 0x21
 2415 0d2a 746D7000 		.ascii	"tmp\000"
 2416 0d2e 01       		.byte	0x1
 2417 0d2f E1       		.byte	0xe1
 2418 0d30 82000000 		.4byte	0x82
 2419 0d34 01       		.uleb128 0x1
 2420 0d35 53       		.byte	0x53
 2421 0d36 00       		.byte	0
 2422 0d37 22       		.uleb128 0x22
 2423 0d38 10000000 		.4byte	.LVL35
 2424 0d3c 02100000 		.4byte	0x1002
 2425 0d40 23       		.uleb128 0x23
 2426 0d41 20000000 		.4byte	.LVL36
 2427 0d45 09100000 		.4byte	0x1009
 2428 0d49 570D0000 		.4byte	0xd57
 2429 0d4d 1F       		.uleb128 0x1f
 2430 0d4e 01       		.uleb128 0x1
 2431 0d4f 50       		.byte	0x50
 2432 0d50 05       		.uleb128 0x5
 2433 0d51 03       		.byte	0x3
 2434 0d52 88000000 		.4byte	.LC7
 2435 0d56 00       		.byte	0
 2436 0d57 23       		.uleb128 0x23
 2437 0d58 2C000000 		.4byte	.LVL37
 2438 0d5c 74100000 		.4byte	0x1074
 2439 0d60 6B0D0000 		.4byte	0xd6b
 2440 0d64 1F       		.uleb128 0x1f
 2441 0d65 01       		.uleb128 0x1
 2442 0d66 50       		.byte	0x50
 2443 0d67 02       		.uleb128 0x2
 2444 0d68 74       		.byte	0x74
 2445 0d69 00       		.sleb128 0
 2446 0d6a 00       		.byte	0
 2447 0d6b 22       		.uleb128 0x22
 2448 0d6c 46000000 		.4byte	.LVL40
 2449 0d70 2C100000 		.4byte	0x102c
 2450 0d74 24       		.uleb128 0x24
ARM GAS  /tmp/ccAhl9xf.s 			page 45


 2451 0d75 54000000 		.4byte	.LVL43
 2452 0d79 09100000 		.4byte	0x1009
 2453 0d7d 1F       		.uleb128 0x1f
 2454 0d7e 01       		.uleb128 0x1
 2455 0d7f 50       		.byte	0x50
 2456 0d80 05       		.uleb128 0x5
 2457 0d81 03       		.byte	0x3
 2458 0d82 70000000 		.4byte	.LC6
 2459 0d86 00       		.byte	0
 2460 0d87 00       		.byte	0
 2461 0d88 1B       		.uleb128 0x1b
 2462 0d89 50070000 		.4byte	.LASF158
 2463 0d8d 01       		.byte	0x1
 2464 0d8e EE       		.byte	0xee
 2465 0d8f 00000000 		.4byte	.LFB125
 2466 0d93 58000000 		.4byte	.LFE125-.LFB125
 2467 0d97 01       		.uleb128 0x1
 2468 0d98 9C       		.byte	0x9c
 2469 0d99 150E0000 		.4byte	0xe15
 2470 0d9d 1D       		.uleb128 0x1d
 2471 0d9e C0070000 		.4byte	.LASF153
 2472 0da2 01       		.byte	0x1
 2473 0da3 EE       		.byte	0xee
 2474 0da4 92080000 		.4byte	0x892
 2475 0da8 94020000 		.4byte	.LLST14
 2476 0dac 27       		.uleb128 0x27
 2477 0dad 00000000 		.4byte	.Ldebug_ranges0+0
 2478 0db1 CD0D0000 		.4byte	0xdcd
 2479 0db5 26       		.uleb128 0x26
 2480 0db6 747000   		.ascii	"tp\000"
 2481 0db9 01       		.byte	0x1
 2482 0dba FB       		.byte	0xfb
 2483 0dbb 4C020000 		.4byte	0x24c
 2484 0dbf CB020000 		.4byte	.LLST15
 2485 0dc3 1C       		.uleb128 0x1c
 2486 0dc4 3C000000 		.4byte	.LVL49
 2487 0dc8 86100000 		.4byte	0x1086
 2488 0dcc 00       		.byte	0
 2489 0dcd 22       		.uleb128 0x22
 2490 0dce 08000000 		.4byte	.LVL45
 2491 0dd2 45100000 		.4byte	0x1045
 2492 0dd6 23       		.uleb128 0x23
 2493 0dd7 1E000000 		.4byte	.LVL46
 2494 0ddb 74100000 		.4byte	0x1074
 2495 0ddf EA0D0000 		.4byte	0xdea
 2496 0de3 1F       		.uleb128 0x1f
 2497 0de4 01       		.uleb128 0x1
 2498 0de5 50       		.byte	0x50
 2499 0de6 02       		.uleb128 0x2
 2500 0de7 74       		.byte	0x74
 2501 0de8 00       		.sleb128 0
 2502 0de9 00       		.byte	0
 2503 0dea 23       		.uleb128 0x23
 2504 0deb 44000000 		.4byte	.LVL51
 2505 0def 09100000 		.4byte	0x1009
 2506 0df3 010E0000 		.4byte	0xe01
 2507 0df7 1F       		.uleb128 0x1f
ARM GAS  /tmp/ccAhl9xf.s 			page 46


 2508 0df8 01       		.uleb128 0x1
 2509 0df9 50       		.byte	0x50
 2510 0dfa 05       		.uleb128 0x5
 2511 0dfb 03       		.byte	0x3
 2512 0dfc B8000000 		.4byte	.LC9
 2513 0e00 00       		.byte	0
 2514 0e01 24       		.uleb128 0x24
 2515 0e02 4E000000 		.4byte	.LVL52
 2516 0e06 09100000 		.4byte	0x1009
 2517 0e0a 1F       		.uleb128 0x1f
 2518 0e0b 01       		.uleb128 0x1
 2519 0e0c 50       		.byte	0x50
 2520 0e0d 05       		.uleb128 0x5
 2521 0e0e 03       		.byte	0x3
 2522 0e0f A0000000 		.4byte	.LC8
 2523 0e13 00       		.byte	0
 2524 0e14 00       		.byte	0
 2525 0e15 28       		.uleb128 0x28
 2526 0e16 C5070000 		.4byte	.LASF179
 2527 0e1a 01       		.byte	0x1
 2528 0e1b 1701     		.2byte	0x117
 2529 0e1d F6000000 		.4byte	0xf6
 2530 0e21 00000000 		.4byte	.LFB126
 2531 0e25 54000000 		.4byte	.LFE126-.LFB126
 2532 0e29 01       		.uleb128 0x1
 2533 0e2a 9C       		.byte	0x9c
 2534 0e2b 1A0F0000 		.4byte	0xf1a
 2535 0e2f 29       		.uleb128 0x29
 2536 0e30 C0070000 		.4byte	.LASF153
 2537 0e34 01       		.byte	0x1
 2538 0e35 1701     		.2byte	0x117
 2539 0e37 92080000 		.4byte	0x892
 2540 0e3b DE020000 		.4byte	.LLST16
 2541 0e3f 29       		.uleb128 0x29
 2542 0e40 50030000 		.4byte	.LASF132
 2543 0e44 01       		.byte	0x1
 2544 0e45 1801     		.2byte	0x118
 2545 0e47 79090000 		.4byte	0x979
 2546 0e4b 0A030000 		.4byte	.LLST17
 2547 0e4f 29       		.uleb128 0x29
 2548 0e50 62030000 		.4byte	.LASF130
 2549 0e54 01       		.byte	0x1
 2550 0e55 1901     		.2byte	0x119
 2551 0e57 98080000 		.4byte	0x898
 2552 0e5b 36030000 		.4byte	.LLST18
 2553 0e5f 29       		.uleb128 0x29
 2554 0e60 C2020000 		.4byte	.LASF131
 2555 0e64 01       		.byte	0x1
 2556 0e65 1A01     		.2byte	0x11a
 2557 0e67 2C000000 		.4byte	0x2c
 2558 0e6b 62030000 		.4byte	.LLST19
 2559 0e6f 2A       		.uleb128 0x2a
 2560 0e70 6D736700 		.ascii	"msg\000"
 2561 0e74 01       		.byte	0x1
 2562 0e75 1B01     		.2byte	0x11b
 2563 0e77 F6000000 		.4byte	0xf6
 2564 0e7b 8E030000 		.4byte	.LLST20
ARM GAS  /tmp/ccAhl9xf.s 			page 47


 2565 0e7f 20       		.uleb128 0x20
 2566 0e80 0C000000 		.4byte	.LBB13
 2567 0e84 06000000 		.4byte	.LBE13-.LBB13
 2568 0e88 9B0E0000 		.4byte	0xe9b
 2569 0e8c 2B       		.uleb128 0x2b
 2570 0e8d 746D7000 		.ascii	"tmp\000"
 2571 0e91 01       		.byte	0x1
 2572 0e92 1D01     		.2byte	0x11d
 2573 0e94 82000000 		.4byte	0x82
 2574 0e98 01       		.uleb128 0x1
 2575 0e99 53       		.byte	0x53
 2576 0e9a 00       		.byte	0
 2577 0e9b 20       		.uleb128 0x20
 2578 0e9c 40000000 		.4byte	.LBB14
 2579 0ea0 06000000 		.4byte	.LBE14-.LBB14
 2580 0ea4 B70E0000 		.4byte	0xeb7
 2581 0ea8 2B       		.uleb128 0x2b
 2582 0ea9 746D7000 		.ascii	"tmp\000"
 2583 0ead 01       		.byte	0x1
 2584 0eae 2301     		.2byte	0x123
 2585 0eb0 82000000 		.4byte	0x82
 2586 0eb4 01       		.uleb128 0x1
 2587 0eb5 53       		.byte	0x53
 2588 0eb6 00       		.byte	0
 2589 0eb7 22       		.uleb128 0x22
 2590 0eb8 16000000 		.4byte	.LVL55
 2591 0ebc 02100000 		.4byte	0x1002
 2592 0ec0 23       		.uleb128 0x23
 2593 0ec1 20000000 		.4byte	.LVL56
 2594 0ec5 09100000 		.4byte	0x1009
 2595 0ec9 D70E0000 		.4byte	0xed7
 2596 0ecd 1F       		.uleb128 0x1f
 2597 0ece 01       		.uleb128 0x1
 2598 0ecf 50       		.byte	0x50
 2599 0ed0 05       		.uleb128 0x5
 2600 0ed1 03       		.byte	0x3
 2601 0ed2 D4000000 		.4byte	.LC10
 2602 0ed6 00       		.byte	0
 2603 0ed7 23       		.uleb128 0x23
 2604 0ed8 2E000000 		.4byte	.LVL57
 2605 0edc 570B0000 		.4byte	0xb57
 2606 0ee0 FD0E0000 		.4byte	0xefd
 2607 0ee4 1F       		.uleb128 0x1f
 2608 0ee5 01       		.uleb128 0x1
 2609 0ee6 53       		.byte	0x53
 2610 0ee7 02       		.uleb128 0x2
 2611 0ee8 76       		.byte	0x76
 2612 0ee9 00       		.sleb128 0
 2613 0eea 1F       		.uleb128 0x1f
 2614 0eeb 01       		.uleb128 0x1
 2615 0eec 52       		.byte	0x52
 2616 0eed 02       		.uleb128 0x2
 2617 0eee 77       		.byte	0x77
 2618 0eef 00       		.sleb128 0
 2619 0ef0 1F       		.uleb128 0x1f
 2620 0ef1 01       		.uleb128 0x1
 2621 0ef2 51       		.byte	0x51
ARM GAS  /tmp/ccAhl9xf.s 			page 48


 2622 0ef3 02       		.uleb128 0x2
 2623 0ef4 78       		.byte	0x78
 2624 0ef5 00       		.sleb128 0
 2625 0ef6 1F       		.uleb128 0x1f
 2626 0ef7 01       		.uleb128 0x1
 2627 0ef8 50       		.byte	0x50
 2628 0ef9 02       		.uleb128 0x2
 2629 0efa 74       		.byte	0x74
 2630 0efb 00       		.sleb128 0
 2631 0efc 00       		.byte	0
 2632 0efd 23       		.uleb128 0x23
 2633 0efe 38000000 		.4byte	.LVL58
 2634 0f02 9B100000 		.4byte	0x109b
 2635 0f06 100F0000 		.4byte	0xf10
 2636 0f0a 1F       		.uleb128 0x1f
 2637 0f0b 01       		.uleb128 0x1
 2638 0f0c 50       		.byte	0x50
 2639 0f0d 01       		.uleb128 0x1
 2640 0f0e 32       		.byte	0x32
 2641 0f0f 00       		.byte	0
 2642 0f10 22       		.uleb128 0x22
 2643 0f11 40000000 		.4byte	.LVL60
 2644 0f15 2C100000 		.4byte	0x102c
 2645 0f19 00       		.byte	0
 2646 0f1a 2C       		.uleb128 0x2c
 2647 0f1b EA070000 		.4byte	.LASF159
 2648 0f1f 01       		.byte	0x1
 2649 0f20 3401     		.2byte	0x134
 2650 0f22 00000000 		.4byte	.LFB127
 2651 0f26 28000000 		.4byte	.LFE127-.LFB127
 2652 0f2a 01       		.uleb128 0x1
 2653 0f2b 9C       		.byte	0x9c
 2654 0f2c 820F0000 		.4byte	0xf82
 2655 0f30 29       		.uleb128 0x29
 2656 0f31 C0070000 		.4byte	.LASF153
 2657 0f35 01       		.byte	0x1
 2658 0f36 3401     		.2byte	0x134
 2659 0f38 92080000 		.4byte	0x892
 2660 0f3c AC030000 		.4byte	.LLST21
 2661 0f40 25       		.uleb128 0x25
 2662 0f41 12000000 		.4byte	.LVL65
 2663 0f45 AC100000 		.4byte	0x10ac
 2664 0f49 570F0000 		.4byte	0xf57
 2665 0f4d 1F       		.uleb128 0x1f
 2666 0f4e 01       		.uleb128 0x1
 2667 0f4f 50       		.byte	0x50
 2668 0f50 05       		.uleb128 0x5
 2669 0f51 F3       		.byte	0xf3
 2670 0f52 01       		.uleb128 0x1
 2671 0f53 50       		.byte	0x50
 2672 0f54 23       		.byte	0x23
 2673 0f55 18       		.uleb128 0x18
 2674 0f56 00       		.byte	0
 2675 0f57 23       		.uleb128 0x23
 2676 0f58 18000000 		.4byte	.LVL67
 2677 0f5c 09100000 		.4byte	0x1009
 2678 0f60 6E0F0000 		.4byte	0xf6e
ARM GAS  /tmp/ccAhl9xf.s 			page 49


 2679 0f64 1F       		.uleb128 0x1f
 2680 0f65 01       		.uleb128 0x1
 2681 0f66 50       		.byte	0x50
 2682 0f67 05       		.uleb128 0x5
 2683 0f68 03       		.byte	0x3
 2684 0f69 E8000000 		.4byte	.LC11
 2685 0f6d 00       		.byte	0
 2686 0f6e 1E       		.uleb128 0x1e
 2687 0f6f 24000000 		.4byte	.LVL69
 2688 0f73 AC100000 		.4byte	0x10ac
 2689 0f77 1F       		.uleb128 0x1f
 2690 0f78 01       		.uleb128 0x1
 2691 0f79 50       		.byte	0x50
 2692 0f7a 05       		.uleb128 0x5
 2693 0f7b F3       		.byte	0xf3
 2694 0f7c 01       		.uleb128 0x1
 2695 0f7d 50       		.byte	0x50
 2696 0f7e 23       		.byte	0x23
 2697 0f7f 18       		.uleb128 0x18
 2698 0f80 00       		.byte	0
 2699 0f81 00       		.byte	0
 2700 0f82 2C       		.uleb128 0x2c
 2701 0f83 3A060000 		.4byte	.LASF160
 2702 0f87 01       		.byte	0x1
 2703 0f88 4801     		.2byte	0x148
 2704 0f8a 00000000 		.4byte	.LFB128
 2705 0f8e 20000000 		.4byte	.LFE128-.LFB128
 2706 0f92 01       		.uleb128 0x1
 2707 0f93 9C       		.byte	0x9c
 2708 0f94 D20F0000 		.4byte	0xfd2
 2709 0f98 29       		.uleb128 0x29
 2710 0f99 C0070000 		.4byte	.LASF153
 2711 0f9d 01       		.byte	0x1
 2712 0f9e 4801     		.2byte	0x148
 2713 0fa0 92080000 		.4byte	0x892
 2714 0fa4 16040000 		.4byte	.LLST22
 2715 0fa8 1C       		.uleb128 0x1c
 2716 0fa9 0C000000 		.4byte	.LVL71
 2717 0fad BD100000 		.4byte	0x10bd
 2718 0fb1 23       		.uleb128 0x23
 2719 0fb2 12000000 		.4byte	.LVL73
 2720 0fb6 09100000 		.4byte	0x1009
 2721 0fba C80F0000 		.4byte	0xfc8
 2722 0fbe 1F       		.uleb128 0x1f
 2723 0fbf 01       		.uleb128 0x1
 2724 0fc0 50       		.byte	0x50
 2725 0fc1 05       		.uleb128 0x5
 2726 0fc2 03       		.byte	0x3
 2727 0fc3 FC000000 		.4byte	.LC12
 2728 0fc7 00       		.byte	0
 2729 0fc8 1C       		.uleb128 0x1c
 2730 0fc9 1A000000 		.4byte	.LVL74
 2731 0fcd BD100000 		.4byte	0x10bd
 2732 0fd1 00       		.byte	0
 2733 0fd2 2D       		.uleb128 0x2d
 2734 0fd3 42070000 		.4byte	.LASF161
 2735 0fd7 08       		.byte	0x8
ARM GAS  /tmp/ccAhl9xf.s 			page 50


 2736 0fd8 68       		.byte	0x68
 2737 0fd9 94030000 		.4byte	0x394
 2738 0fdd 2E       		.uleb128 0x2e
 2739 0fde 87000000 		.4byte	.LASF162
 2740 0fe2 0E       		.byte	0xe
 2741 0fe3 9806     		.2byte	0x698
 2742 0fe5 54040000 		.4byte	0x454
 2743 0fe9 2F       		.uleb128 0x2f
 2744 0fea 55030000 		.4byte	.LASF163
 2745 0fee 0D       		.byte	0xd
 2746 0fef 5702     		.2byte	0x257
 2747 0ff1 30       		.uleb128 0x30
 2748 0ff2 02070000 		.4byte	.LASF165
 2749 0ff6 09       		.byte	0x9
 2750 0ff7 31       		.byte	0x31
 2751 0ff8 02100000 		.4byte	0x1002
 2752 0ffc 1A       		.uleb128 0x1a
 2753 0ffd 2E040000 		.4byte	0x42e
 2754 1001 00       		.byte	0
 2755 1002 31       		.uleb128 0x31
 2756 1003 DF030000 		.4byte	.LASF164
 2757 1007 0F       		.byte	0xf
 2758 1008 E0       		.byte	0xe0
 2759 1009 30       		.uleb128 0x30
 2760 100a 7C000000 		.4byte	.LASF166
 2761 100e 0F       		.byte	0xf
 2762 100f EF       		.byte	0xef
 2763 1010 1A100000 		.4byte	0x101a
 2764 1014 1A       		.uleb128 0x1a
 2765 1015 16040000 		.4byte	0x416
 2766 1019 00       		.byte	0
 2767 101a 32       		.uleb128 0x32
 2768 101b E7060000 		.4byte	.LASF167
 2769 101f 0D       		.byte	0xd
 2770 1020 5802     		.2byte	0x258
 2771 1022 2C100000 		.4byte	0x102c
 2772 1026 1A       		.uleb128 0x1a
 2773 1027 92080000 		.4byte	0x892
 2774 102b 00       		.byte	0
 2775 102c 31       		.uleb128 0x31
 2776 102d EE030000 		.4byte	.LASF168
 2777 1031 0F       		.byte	0xf
 2778 1032 E1       		.byte	0xe1
 2779 1033 32       		.uleb128 0x32
 2780 1034 48000000 		.4byte	.LASF169
 2781 1038 0D       		.byte	0xd
 2782 1039 5902     		.2byte	0x259
 2783 103b 45100000 		.4byte	0x1045
 2784 103f 1A       		.uleb128 0x1a
 2785 1040 92080000 		.4byte	0x892
 2786 1044 00       		.byte	0
 2787 1045 31       		.uleb128 0x31
 2788 1046 CE020000 		.4byte	.LASF170
 2789 104a 0F       		.byte	0xf
 2790 104b E6       		.byte	0xe6
 2791 104c 32       		.uleb128 0x32
 2792 104d 68010000 		.4byte	.LASF171
ARM GAS  /tmp/ccAhl9xf.s 			page 51


 2793 1051 0D       		.byte	0xd
 2794 1052 5A02     		.2byte	0x25a
 2795 1054 5E100000 		.4byte	0x105e
 2796 1058 1A       		.uleb128 0x1a
 2797 1059 92080000 		.4byte	0x892
 2798 105d 00       		.byte	0
 2799 105e 30       		.uleb128 0x30
 2800 105f F5060000 		.4byte	.LASF172
 2801 1063 08       		.byte	0x8
 2802 1064 92       		.byte	0x92
 2803 1065 74100000 		.4byte	0x1074
 2804 1069 1A       		.uleb128 0x1a
 2805 106a 4C020000 		.4byte	0x24c
 2806 106e 1A       		.uleb128 0x1a
 2807 106f F6000000 		.4byte	0xf6
 2808 1073 00       		.byte	0
 2809 1074 32       		.uleb128 0x32
 2810 1075 B1050000 		.4byte	.LASF173
 2811 1079 0D       		.byte	0xd
 2812 107a 5B02     		.2byte	0x25b
 2813 107c 86100000 		.4byte	0x1086
 2814 1080 1A       		.uleb128 0x1a
 2815 1081 92080000 		.4byte	0x892
 2816 1085 00       		.byte	0
 2817 1086 33       		.uleb128 0x33
 2818 1087 48060000 		.4byte	.LASF180
 2819 108b 08       		.byte	0x8
 2820 108c 89       		.byte	0x89
 2821 108d 4C020000 		.4byte	0x24c
 2822 1091 9B100000 		.4byte	0x109b
 2823 1095 1A       		.uleb128 0x1a
 2824 1096 4C020000 		.4byte	0x24c
 2825 109a 00       		.byte	0
 2826 109b 30       		.uleb128 0x30
 2827 109c 12060000 		.4byte	.LASF174
 2828 10a0 08       		.byte	0x8
 2829 10a1 8C       		.byte	0x8c
 2830 10a2 AC100000 		.4byte	0x10ac
 2831 10a6 1A       		.uleb128 0x1a
 2832 10a7 CA000000 		.4byte	0xca
 2833 10ab 00       		.byte	0
 2834 10ac 30       		.uleb128 0x30
 2835 10ad 9D030000 		.4byte	.LASF175
 2836 10b1 09       		.byte	0x9
 2837 10b2 32       		.byte	0x32
 2838 10b3 BD100000 		.4byte	0x10bd
 2839 10b7 1A       		.uleb128 0x1a
 2840 10b8 2E040000 		.4byte	0x42e
 2841 10bc 00       		.byte	0
 2842 10bd 34       		.uleb128 0x34
 2843 10be C1000000 		.4byte	.LASF181
 2844 10c2 09       		.byte	0x9
 2845 10c3 36       		.byte	0x36
 2846 10c4 2E040000 		.4byte	0x42e
 2847 10c8 00       		.byte	0
 2848              		.section	.debug_abbrev,"",%progbits
 2849              	.Ldebug_abbrev0:
ARM GAS  /tmp/ccAhl9xf.s 			page 52


 2850 0000 01       		.uleb128 0x1
 2851 0001 11       		.uleb128 0x11
 2852 0002 01       		.byte	0x1
 2853 0003 25       		.uleb128 0x25
 2854 0004 0E       		.uleb128 0xe
 2855 0005 13       		.uleb128 0x13
 2856 0006 0B       		.uleb128 0xb
 2857 0007 03       		.uleb128 0x3
 2858 0008 0E       		.uleb128 0xe
 2859 0009 1B       		.uleb128 0x1b
 2860 000a 0E       		.uleb128 0xe
 2861 000b 55       		.uleb128 0x55
 2862 000c 17       		.uleb128 0x17
 2863 000d 11       		.uleb128 0x11
 2864 000e 01       		.uleb128 0x1
 2865 000f 10       		.uleb128 0x10
 2866 0010 17       		.uleb128 0x17
 2867 0011 00       		.byte	0
 2868 0012 00       		.byte	0
 2869 0013 02       		.uleb128 0x2
 2870 0014 24       		.uleb128 0x24
 2871 0015 00       		.byte	0
 2872 0016 0B       		.uleb128 0xb
 2873 0017 0B       		.uleb128 0xb
 2874 0018 3E       		.uleb128 0x3e
 2875 0019 0B       		.uleb128 0xb
 2876 001a 03       		.uleb128 0x3
 2877 001b 08       		.uleb128 0x8
 2878 001c 00       		.byte	0
 2879 001d 00       		.byte	0
 2880 001e 03       		.uleb128 0x3
 2881 001f 16       		.uleb128 0x16
 2882 0020 00       		.byte	0
 2883 0021 03       		.uleb128 0x3
 2884 0022 0E       		.uleb128 0xe
 2885 0023 3A       		.uleb128 0x3a
 2886 0024 0B       		.uleb128 0xb
 2887 0025 3B       		.uleb128 0x3b
 2888 0026 0B       		.uleb128 0xb
 2889 0027 49       		.uleb128 0x49
 2890 0028 13       		.uleb128 0x13
 2891 0029 00       		.byte	0
 2892 002a 00       		.byte	0
 2893 002b 04       		.uleb128 0x4
 2894 002c 24       		.uleb128 0x24
 2895 002d 00       		.byte	0
 2896 002e 0B       		.uleb128 0xb
 2897 002f 0B       		.uleb128 0xb
 2898 0030 3E       		.uleb128 0x3e
 2899 0031 0B       		.uleb128 0xb
 2900 0032 03       		.uleb128 0x3
 2901 0033 0E       		.uleb128 0xe
 2902 0034 00       		.byte	0
 2903 0035 00       		.byte	0
 2904 0036 05       		.uleb128 0x5
 2905 0037 13       		.uleb128 0x13
 2906 0038 01       		.byte	0x1
ARM GAS  /tmp/ccAhl9xf.s 			page 53


 2907 0039 03       		.uleb128 0x3
 2908 003a 0E       		.uleb128 0xe
 2909 003b 0B       		.uleb128 0xb
 2910 003c 0B       		.uleb128 0xb
 2911 003d 3A       		.uleb128 0x3a
 2912 003e 0B       		.uleb128 0xb
 2913 003f 3B       		.uleb128 0x3b
 2914 0040 0B       		.uleb128 0xb
 2915 0041 01       		.uleb128 0x1
 2916 0042 13       		.uleb128 0x13
 2917 0043 00       		.byte	0
 2918 0044 00       		.byte	0
 2919 0045 06       		.uleb128 0x6
 2920 0046 0D       		.uleb128 0xd
 2921 0047 00       		.byte	0
 2922 0048 03       		.uleb128 0x3
 2923 0049 0E       		.uleb128 0xe
 2924 004a 3A       		.uleb128 0x3a
 2925 004b 0B       		.uleb128 0xb
 2926 004c 3B       		.uleb128 0x3b
 2927 004d 0B       		.uleb128 0xb
 2928 004e 49       		.uleb128 0x49
 2929 004f 13       		.uleb128 0x13
 2930 0050 38       		.uleb128 0x38
 2931 0051 0B       		.uleb128 0xb
 2932 0052 00       		.byte	0
 2933 0053 00       		.byte	0
 2934 0054 07       		.uleb128 0x7
 2935 0055 0D       		.uleb128 0xd
 2936 0056 00       		.byte	0
 2937 0057 03       		.uleb128 0x3
 2938 0058 08       		.uleb128 0x8
 2939 0059 3A       		.uleb128 0x3a
 2940 005a 0B       		.uleb128 0xb
 2941 005b 3B       		.uleb128 0x3b
 2942 005c 0B       		.uleb128 0xb
 2943 005d 49       		.uleb128 0x49
 2944 005e 13       		.uleb128 0x13
 2945 005f 38       		.uleb128 0x38
 2946 0060 0B       		.uleb128 0xb
 2947 0061 00       		.byte	0
 2948 0062 00       		.byte	0
 2949 0063 08       		.uleb128 0x8
 2950 0064 13       		.uleb128 0x13
 2951 0065 01       		.byte	0x1
 2952 0066 0B       		.uleb128 0xb
 2953 0067 0B       		.uleb128 0xb
 2954 0068 3A       		.uleb128 0x3a
 2955 0069 0B       		.uleb128 0xb
 2956 006a 3B       		.uleb128 0x3b
 2957 006b 0B       		.uleb128 0xb
 2958 006c 01       		.uleb128 0x1
 2959 006d 13       		.uleb128 0x13
 2960 006e 00       		.byte	0
 2961 006f 00       		.byte	0
 2962 0070 09       		.uleb128 0x9
 2963 0071 0F       		.uleb128 0xf
ARM GAS  /tmp/ccAhl9xf.s 			page 54


 2964 0072 00       		.byte	0
 2965 0073 0B       		.uleb128 0xb
 2966 0074 0B       		.uleb128 0xb
 2967 0075 49       		.uleb128 0x49
 2968 0076 13       		.uleb128 0x13
 2969 0077 00       		.byte	0
 2970 0078 00       		.byte	0
 2971 0079 0A       		.uleb128 0xa
 2972 007a 0F       		.uleb128 0xf
 2973 007b 00       		.byte	0
 2974 007c 0B       		.uleb128 0xb
 2975 007d 0B       		.uleb128 0xb
 2976 007e 00       		.byte	0
 2977 007f 00       		.byte	0
 2978 0080 0B       		.uleb128 0xb
 2979 0081 13       		.uleb128 0x13
 2980 0082 01       		.byte	0x1
 2981 0083 03       		.uleb128 0x3
 2982 0084 0E       		.uleb128 0xe
 2983 0085 0B       		.uleb128 0xb
 2984 0086 0B       		.uleb128 0xb
 2985 0087 3A       		.uleb128 0x3a
 2986 0088 0B       		.uleb128 0xb
 2987 0089 3B       		.uleb128 0x3b
 2988 008a 05       		.uleb128 0x5
 2989 008b 01       		.uleb128 0x1
 2990 008c 13       		.uleb128 0x13
 2991 008d 00       		.byte	0
 2992 008e 00       		.byte	0
 2993 008f 0C       		.uleb128 0xc
 2994 0090 0D       		.uleb128 0xd
 2995 0091 00       		.byte	0
 2996 0092 03       		.uleb128 0x3
 2997 0093 08       		.uleb128 0x8
 2998 0094 3A       		.uleb128 0x3a
 2999 0095 0B       		.uleb128 0xb
 3000 0096 3B       		.uleb128 0x3b
 3001 0097 05       		.uleb128 0x5
 3002 0098 49       		.uleb128 0x49
 3003 0099 13       		.uleb128 0x13
 3004 009a 38       		.uleb128 0x38
 3005 009b 0B       		.uleb128 0xb
 3006 009c 00       		.byte	0
 3007 009d 00       		.byte	0
 3008 009e 0D       		.uleb128 0xd
 3009 009f 35       		.uleb128 0x35
 3010 00a0 00       		.byte	0
 3011 00a1 49       		.uleb128 0x49
 3012 00a2 13       		.uleb128 0x13
 3013 00a3 00       		.byte	0
 3014 00a4 00       		.byte	0
 3015 00a5 0E       		.uleb128 0xe
 3016 00a6 17       		.uleb128 0x17
 3017 00a7 01       		.byte	0x1
 3018 00a8 0B       		.uleb128 0xb
 3019 00a9 0B       		.uleb128 0xb
 3020 00aa 3A       		.uleb128 0x3a
ARM GAS  /tmp/ccAhl9xf.s 			page 55


 3021 00ab 0B       		.uleb128 0xb
 3022 00ac 3B       		.uleb128 0x3b
 3023 00ad 0B       		.uleb128 0xb
 3024 00ae 01       		.uleb128 0x1
 3025 00af 13       		.uleb128 0x13
 3026 00b0 00       		.byte	0
 3027 00b1 00       		.byte	0
 3028 00b2 0F       		.uleb128 0xf
 3029 00b3 0D       		.uleb128 0xd
 3030 00b4 00       		.byte	0
 3031 00b5 03       		.uleb128 0x3
 3032 00b6 0E       		.uleb128 0xe
 3033 00b7 3A       		.uleb128 0x3a
 3034 00b8 0B       		.uleb128 0xb
 3035 00b9 3B       		.uleb128 0x3b
 3036 00ba 0B       		.uleb128 0xb
 3037 00bb 49       		.uleb128 0x49
 3038 00bc 13       		.uleb128 0x13
 3039 00bd 00       		.byte	0
 3040 00be 00       		.byte	0
 3041 00bf 10       		.uleb128 0x10
 3042 00c0 26       		.uleb128 0x26
 3043 00c1 00       		.byte	0
 3044 00c2 49       		.uleb128 0x49
 3045 00c3 13       		.uleb128 0x13
 3046 00c4 00       		.byte	0
 3047 00c5 00       		.byte	0
 3048 00c6 11       		.uleb128 0x11
 3049 00c7 01       		.uleb128 0x1
 3050 00c8 01       		.byte	0x1
 3051 00c9 49       		.uleb128 0x49
 3052 00ca 13       		.uleb128 0x13
 3053 00cb 01       		.uleb128 0x1
 3054 00cc 13       		.uleb128 0x13
 3055 00cd 00       		.byte	0
 3056 00ce 00       		.byte	0
 3057 00cf 12       		.uleb128 0x12
 3058 00d0 21       		.uleb128 0x21
 3059 00d1 00       		.byte	0
 3060 00d2 49       		.uleb128 0x49
 3061 00d3 13       		.uleb128 0x13
 3062 00d4 2F       		.uleb128 0x2f
 3063 00d5 0B       		.uleb128 0xb
 3064 00d6 00       		.byte	0
 3065 00d7 00       		.byte	0
 3066 00d8 13       		.uleb128 0x13
 3067 00d9 13       		.uleb128 0x13
 3068 00da 01       		.byte	0x1
 3069 00db 0B       		.uleb128 0xb
 3070 00dc 0B       		.uleb128 0xb
 3071 00dd 3A       		.uleb128 0x3a
 3072 00de 0B       		.uleb128 0xb
 3073 00df 3B       		.uleb128 0x3b
 3074 00e0 05       		.uleb128 0x5
 3075 00e1 01       		.uleb128 0x1
 3076 00e2 13       		.uleb128 0x13
 3077 00e3 00       		.byte	0
ARM GAS  /tmp/ccAhl9xf.s 			page 56


 3078 00e4 00       		.byte	0
 3079 00e5 14       		.uleb128 0x14
 3080 00e6 0D       		.uleb128 0xd
 3081 00e7 00       		.byte	0
 3082 00e8 03       		.uleb128 0x3
 3083 00e9 0E       		.uleb128 0xe
 3084 00ea 3A       		.uleb128 0x3a
 3085 00eb 0B       		.uleb128 0xb
 3086 00ec 3B       		.uleb128 0x3b
 3087 00ed 05       		.uleb128 0x5
 3088 00ee 49       		.uleb128 0x49
 3089 00ef 13       		.uleb128 0x13
 3090 00f0 38       		.uleb128 0x38
 3091 00f1 0B       		.uleb128 0xb
 3092 00f2 00       		.byte	0
 3093 00f3 00       		.byte	0
 3094 00f4 15       		.uleb128 0x15
 3095 00f5 16       		.uleb128 0x16
 3096 00f6 00       		.byte	0
 3097 00f7 03       		.uleb128 0x3
 3098 00f8 0E       		.uleb128 0xe
 3099 00f9 3A       		.uleb128 0x3a
 3100 00fa 0B       		.uleb128 0xb
 3101 00fb 3B       		.uleb128 0x3b
 3102 00fc 05       		.uleb128 0x5
 3103 00fd 49       		.uleb128 0x49
 3104 00fe 13       		.uleb128 0x13
 3105 00ff 00       		.byte	0
 3106 0100 00       		.byte	0
 3107 0101 16       		.uleb128 0x16
 3108 0102 04       		.uleb128 0x4
 3109 0103 01       		.byte	0x1
 3110 0104 0B       		.uleb128 0xb
 3111 0105 0B       		.uleb128 0xb
 3112 0106 3A       		.uleb128 0x3a
 3113 0107 0B       		.uleb128 0xb
 3114 0108 3B       		.uleb128 0x3b
 3115 0109 0B       		.uleb128 0xb
 3116 010a 01       		.uleb128 0x1
 3117 010b 13       		.uleb128 0x13
 3118 010c 00       		.byte	0
 3119 010d 00       		.byte	0
 3120 010e 17       		.uleb128 0x17
 3121 010f 28       		.uleb128 0x28
 3122 0110 00       		.byte	0
 3123 0111 03       		.uleb128 0x3
 3124 0112 0E       		.uleb128 0xe
 3125 0113 1C       		.uleb128 0x1c
 3126 0114 0D       		.uleb128 0xd
 3127 0115 00       		.byte	0
 3128 0116 00       		.byte	0
 3129 0117 18       		.uleb128 0x18
 3130 0118 04       		.uleb128 0x4
 3131 0119 01       		.byte	0x1
 3132 011a 0B       		.uleb128 0xb
 3133 011b 0B       		.uleb128 0xb
 3134 011c 3A       		.uleb128 0x3a
ARM GAS  /tmp/ccAhl9xf.s 			page 57


 3135 011d 0B       		.uleb128 0xb
 3136 011e 3B       		.uleb128 0x3b
 3137 011f 05       		.uleb128 0x5
 3138 0120 01       		.uleb128 0x1
 3139 0121 13       		.uleb128 0x13
 3140 0122 00       		.byte	0
 3141 0123 00       		.byte	0
 3142 0124 19       		.uleb128 0x19
 3143 0125 15       		.uleb128 0x15
 3144 0126 01       		.byte	0x1
 3145 0127 27       		.uleb128 0x27
 3146 0128 19       		.uleb128 0x19
 3147 0129 01       		.uleb128 0x1
 3148 012a 13       		.uleb128 0x13
 3149 012b 00       		.byte	0
 3150 012c 00       		.byte	0
 3151 012d 1A       		.uleb128 0x1a
 3152 012e 05       		.uleb128 0x5
 3153 012f 00       		.byte	0
 3154 0130 49       		.uleb128 0x49
 3155 0131 13       		.uleb128 0x13
 3156 0132 00       		.byte	0
 3157 0133 00       		.byte	0
 3158 0134 1B       		.uleb128 0x1b
 3159 0135 2E       		.uleb128 0x2e
 3160 0136 01       		.byte	0x1
 3161 0137 3F       		.uleb128 0x3f
 3162 0138 19       		.uleb128 0x19
 3163 0139 03       		.uleb128 0x3
 3164 013a 0E       		.uleb128 0xe
 3165 013b 3A       		.uleb128 0x3a
 3166 013c 0B       		.uleb128 0xb
 3167 013d 3B       		.uleb128 0x3b
 3168 013e 0B       		.uleb128 0xb
 3169 013f 27       		.uleb128 0x27
 3170 0140 19       		.uleb128 0x19
 3171 0141 11       		.uleb128 0x11
 3172 0142 01       		.uleb128 0x1
 3173 0143 12       		.uleb128 0x12
 3174 0144 06       		.uleb128 0x6
 3175 0145 40       		.uleb128 0x40
 3176 0146 18       		.uleb128 0x18
 3177 0147 9742     		.uleb128 0x2117
 3178 0149 19       		.uleb128 0x19
 3179 014a 01       		.uleb128 0x1
 3180 014b 13       		.uleb128 0x13
 3181 014c 00       		.byte	0
 3182 014d 00       		.byte	0
 3183 014e 1C       		.uleb128 0x1c
 3184 014f 898201   		.uleb128 0x4109
 3185 0152 00       		.byte	0
 3186 0153 11       		.uleb128 0x11
 3187 0154 01       		.uleb128 0x1
 3188 0155 9542     		.uleb128 0x2115
 3189 0157 19       		.uleb128 0x19
 3190 0158 31       		.uleb128 0x31
 3191 0159 13       		.uleb128 0x13
ARM GAS  /tmp/ccAhl9xf.s 			page 58


 3192 015a 00       		.byte	0
 3193 015b 00       		.byte	0
 3194 015c 1D       		.uleb128 0x1d
 3195 015d 05       		.uleb128 0x5
 3196 015e 00       		.byte	0
 3197 015f 03       		.uleb128 0x3
 3198 0160 0E       		.uleb128 0xe
 3199 0161 3A       		.uleb128 0x3a
 3200 0162 0B       		.uleb128 0xb
 3201 0163 3B       		.uleb128 0x3b
 3202 0164 0B       		.uleb128 0xb
 3203 0165 49       		.uleb128 0x49
 3204 0166 13       		.uleb128 0x13
 3205 0167 02       		.uleb128 0x2
 3206 0168 17       		.uleb128 0x17
 3207 0169 00       		.byte	0
 3208 016a 00       		.byte	0
 3209 016b 1E       		.uleb128 0x1e
 3210 016c 898201   		.uleb128 0x4109
 3211 016f 01       		.byte	0x1
 3212 0170 11       		.uleb128 0x11
 3213 0171 01       		.uleb128 0x1
 3214 0172 9542     		.uleb128 0x2115
 3215 0174 19       		.uleb128 0x19
 3216 0175 31       		.uleb128 0x31
 3217 0176 13       		.uleb128 0x13
 3218 0177 00       		.byte	0
 3219 0178 00       		.byte	0
 3220 0179 1F       		.uleb128 0x1f
 3221 017a 8A8201   		.uleb128 0x410a
 3222 017d 00       		.byte	0
 3223 017e 02       		.uleb128 0x2
 3224 017f 18       		.uleb128 0x18
 3225 0180 9142     		.uleb128 0x2111
 3226 0182 18       		.uleb128 0x18
 3227 0183 00       		.byte	0
 3228 0184 00       		.byte	0
 3229 0185 20       		.uleb128 0x20
 3230 0186 0B       		.uleb128 0xb
 3231 0187 01       		.byte	0x1
 3232 0188 11       		.uleb128 0x11
 3233 0189 01       		.uleb128 0x1
 3234 018a 12       		.uleb128 0x12
 3235 018b 06       		.uleb128 0x6
 3236 018c 01       		.uleb128 0x1
 3237 018d 13       		.uleb128 0x13
 3238 018e 00       		.byte	0
 3239 018f 00       		.byte	0
 3240 0190 21       		.uleb128 0x21
 3241 0191 34       		.uleb128 0x34
 3242 0192 00       		.byte	0
 3243 0193 03       		.uleb128 0x3
 3244 0194 08       		.uleb128 0x8
 3245 0195 3A       		.uleb128 0x3a
 3246 0196 0B       		.uleb128 0xb
 3247 0197 3B       		.uleb128 0x3b
 3248 0198 0B       		.uleb128 0xb
ARM GAS  /tmp/ccAhl9xf.s 			page 59


 3249 0199 49       		.uleb128 0x49
 3250 019a 13       		.uleb128 0x13
 3251 019b 02       		.uleb128 0x2
 3252 019c 18       		.uleb128 0x18
 3253 019d 00       		.byte	0
 3254 019e 00       		.byte	0
 3255 019f 22       		.uleb128 0x22
 3256 01a0 898201   		.uleb128 0x4109
 3257 01a3 00       		.byte	0
 3258 01a4 11       		.uleb128 0x11
 3259 01a5 01       		.uleb128 0x1
 3260 01a6 31       		.uleb128 0x31
 3261 01a7 13       		.uleb128 0x13
 3262 01a8 00       		.byte	0
 3263 01a9 00       		.byte	0
 3264 01aa 23       		.uleb128 0x23
 3265 01ab 898201   		.uleb128 0x4109
 3266 01ae 01       		.byte	0x1
 3267 01af 11       		.uleb128 0x11
 3268 01b0 01       		.uleb128 0x1
 3269 01b1 31       		.uleb128 0x31
 3270 01b2 13       		.uleb128 0x13
 3271 01b3 01       		.uleb128 0x1
 3272 01b4 13       		.uleb128 0x13
 3273 01b5 00       		.byte	0
 3274 01b6 00       		.byte	0
 3275 01b7 24       		.uleb128 0x24
 3276 01b8 898201   		.uleb128 0x4109
 3277 01bb 01       		.byte	0x1
 3278 01bc 11       		.uleb128 0x11
 3279 01bd 01       		.uleb128 0x1
 3280 01be 31       		.uleb128 0x31
 3281 01bf 13       		.uleb128 0x13
 3282 01c0 00       		.byte	0
 3283 01c1 00       		.byte	0
 3284 01c2 25       		.uleb128 0x25
 3285 01c3 898201   		.uleb128 0x4109
 3286 01c6 01       		.byte	0x1
 3287 01c7 11       		.uleb128 0x11
 3288 01c8 01       		.uleb128 0x1
 3289 01c9 9542     		.uleb128 0x2115
 3290 01cb 19       		.uleb128 0x19
 3291 01cc 31       		.uleb128 0x31
 3292 01cd 13       		.uleb128 0x13
 3293 01ce 01       		.uleb128 0x1
 3294 01cf 13       		.uleb128 0x13
 3295 01d0 00       		.byte	0
 3296 01d1 00       		.byte	0
 3297 01d2 26       		.uleb128 0x26
 3298 01d3 34       		.uleb128 0x34
 3299 01d4 00       		.byte	0
 3300 01d5 03       		.uleb128 0x3
 3301 01d6 08       		.uleb128 0x8
 3302 01d7 3A       		.uleb128 0x3a
 3303 01d8 0B       		.uleb128 0xb
 3304 01d9 3B       		.uleb128 0x3b
 3305 01da 0B       		.uleb128 0xb
ARM GAS  /tmp/ccAhl9xf.s 			page 60


 3306 01db 49       		.uleb128 0x49
 3307 01dc 13       		.uleb128 0x13
 3308 01dd 02       		.uleb128 0x2
 3309 01de 17       		.uleb128 0x17
 3310 01df 00       		.byte	0
 3311 01e0 00       		.byte	0
 3312 01e1 27       		.uleb128 0x27
 3313 01e2 0B       		.uleb128 0xb
 3314 01e3 01       		.byte	0x1
 3315 01e4 55       		.uleb128 0x55
 3316 01e5 17       		.uleb128 0x17
 3317 01e6 01       		.uleb128 0x1
 3318 01e7 13       		.uleb128 0x13
 3319 01e8 00       		.byte	0
 3320 01e9 00       		.byte	0
 3321 01ea 28       		.uleb128 0x28
 3322 01eb 2E       		.uleb128 0x2e
 3323 01ec 01       		.byte	0x1
 3324 01ed 3F       		.uleb128 0x3f
 3325 01ee 19       		.uleb128 0x19
 3326 01ef 03       		.uleb128 0x3
 3327 01f0 0E       		.uleb128 0xe
 3328 01f1 3A       		.uleb128 0x3a
 3329 01f2 0B       		.uleb128 0xb
 3330 01f3 3B       		.uleb128 0x3b
 3331 01f4 05       		.uleb128 0x5
 3332 01f5 27       		.uleb128 0x27
 3333 01f6 19       		.uleb128 0x19
 3334 01f7 49       		.uleb128 0x49
 3335 01f8 13       		.uleb128 0x13
 3336 01f9 11       		.uleb128 0x11
 3337 01fa 01       		.uleb128 0x1
 3338 01fb 12       		.uleb128 0x12
 3339 01fc 06       		.uleb128 0x6
 3340 01fd 40       		.uleb128 0x40
 3341 01fe 18       		.uleb128 0x18
 3342 01ff 9742     		.uleb128 0x2117
 3343 0201 19       		.uleb128 0x19
 3344 0202 01       		.uleb128 0x1
 3345 0203 13       		.uleb128 0x13
 3346 0204 00       		.byte	0
 3347 0205 00       		.byte	0
 3348 0206 29       		.uleb128 0x29
 3349 0207 05       		.uleb128 0x5
 3350 0208 00       		.byte	0
 3351 0209 03       		.uleb128 0x3
 3352 020a 0E       		.uleb128 0xe
 3353 020b 3A       		.uleb128 0x3a
 3354 020c 0B       		.uleb128 0xb
 3355 020d 3B       		.uleb128 0x3b
 3356 020e 05       		.uleb128 0x5
 3357 020f 49       		.uleb128 0x49
 3358 0210 13       		.uleb128 0x13
 3359 0211 02       		.uleb128 0x2
 3360 0212 17       		.uleb128 0x17
 3361 0213 00       		.byte	0
 3362 0214 00       		.byte	0
ARM GAS  /tmp/ccAhl9xf.s 			page 61


 3363 0215 2A       		.uleb128 0x2a
 3364 0216 34       		.uleb128 0x34
 3365 0217 00       		.byte	0
 3366 0218 03       		.uleb128 0x3
 3367 0219 08       		.uleb128 0x8
 3368 021a 3A       		.uleb128 0x3a
 3369 021b 0B       		.uleb128 0xb
 3370 021c 3B       		.uleb128 0x3b
 3371 021d 05       		.uleb128 0x5
 3372 021e 49       		.uleb128 0x49
 3373 021f 13       		.uleb128 0x13
 3374 0220 02       		.uleb128 0x2
 3375 0221 17       		.uleb128 0x17
 3376 0222 00       		.byte	0
 3377 0223 00       		.byte	0
 3378 0224 2B       		.uleb128 0x2b
 3379 0225 34       		.uleb128 0x34
 3380 0226 00       		.byte	0
 3381 0227 03       		.uleb128 0x3
 3382 0228 08       		.uleb128 0x8
 3383 0229 3A       		.uleb128 0x3a
 3384 022a 0B       		.uleb128 0xb
 3385 022b 3B       		.uleb128 0x3b
 3386 022c 05       		.uleb128 0x5
 3387 022d 49       		.uleb128 0x49
 3388 022e 13       		.uleb128 0x13
 3389 022f 02       		.uleb128 0x2
 3390 0230 18       		.uleb128 0x18
 3391 0231 00       		.byte	0
 3392 0232 00       		.byte	0
 3393 0233 2C       		.uleb128 0x2c
 3394 0234 2E       		.uleb128 0x2e
 3395 0235 01       		.byte	0x1
 3396 0236 3F       		.uleb128 0x3f
 3397 0237 19       		.uleb128 0x19
 3398 0238 03       		.uleb128 0x3
 3399 0239 0E       		.uleb128 0xe
 3400 023a 3A       		.uleb128 0x3a
 3401 023b 0B       		.uleb128 0xb
 3402 023c 3B       		.uleb128 0x3b
 3403 023d 05       		.uleb128 0x5
 3404 023e 27       		.uleb128 0x27
 3405 023f 19       		.uleb128 0x19
 3406 0240 11       		.uleb128 0x11
 3407 0241 01       		.uleb128 0x1
 3408 0242 12       		.uleb128 0x12
 3409 0243 06       		.uleb128 0x6
 3410 0244 40       		.uleb128 0x40
 3411 0245 18       		.uleb128 0x18
 3412 0246 9742     		.uleb128 0x2117
 3413 0248 19       		.uleb128 0x19
 3414 0249 01       		.uleb128 0x1
 3415 024a 13       		.uleb128 0x13
 3416 024b 00       		.byte	0
 3417 024c 00       		.byte	0
 3418 024d 2D       		.uleb128 0x2d
 3419 024e 34       		.uleb128 0x34
ARM GAS  /tmp/ccAhl9xf.s 			page 62


 3420 024f 00       		.byte	0
 3421 0250 03       		.uleb128 0x3
 3422 0251 0E       		.uleb128 0xe
 3423 0252 3A       		.uleb128 0x3a
 3424 0253 0B       		.uleb128 0xb
 3425 0254 3B       		.uleb128 0x3b
 3426 0255 0B       		.uleb128 0xb
 3427 0256 49       		.uleb128 0x49
 3428 0257 13       		.uleb128 0x13
 3429 0258 3F       		.uleb128 0x3f
 3430 0259 19       		.uleb128 0x19
 3431 025a 3C       		.uleb128 0x3c
 3432 025b 19       		.uleb128 0x19
 3433 025c 00       		.byte	0
 3434 025d 00       		.byte	0
 3435 025e 2E       		.uleb128 0x2e
 3436 025f 34       		.uleb128 0x34
 3437 0260 00       		.byte	0
 3438 0261 03       		.uleb128 0x3
 3439 0262 0E       		.uleb128 0xe
 3440 0263 3A       		.uleb128 0x3a
 3441 0264 0B       		.uleb128 0xb
 3442 0265 3B       		.uleb128 0x3b
 3443 0266 05       		.uleb128 0x5
 3444 0267 49       		.uleb128 0x49
 3445 0268 13       		.uleb128 0x13
 3446 0269 3F       		.uleb128 0x3f
 3447 026a 19       		.uleb128 0x19
 3448 026b 3C       		.uleb128 0x3c
 3449 026c 19       		.uleb128 0x19
 3450 026d 00       		.byte	0
 3451 026e 00       		.byte	0
 3452 026f 2F       		.uleb128 0x2f
 3453 0270 2E       		.uleb128 0x2e
 3454 0271 00       		.byte	0
 3455 0272 3F       		.uleb128 0x3f
 3456 0273 19       		.uleb128 0x19
 3457 0274 03       		.uleb128 0x3
 3458 0275 0E       		.uleb128 0xe
 3459 0276 3A       		.uleb128 0x3a
 3460 0277 0B       		.uleb128 0xb
 3461 0278 3B       		.uleb128 0x3b
 3462 0279 05       		.uleb128 0x5
 3463 027a 27       		.uleb128 0x27
 3464 027b 19       		.uleb128 0x19
 3465 027c 3C       		.uleb128 0x3c
 3466 027d 19       		.uleb128 0x19
 3467 027e 00       		.byte	0
 3468 027f 00       		.byte	0
 3469 0280 30       		.uleb128 0x30
 3470 0281 2E       		.uleb128 0x2e
 3471 0282 01       		.byte	0x1
 3472 0283 3F       		.uleb128 0x3f
 3473 0284 19       		.uleb128 0x19
 3474 0285 03       		.uleb128 0x3
 3475 0286 0E       		.uleb128 0xe
 3476 0287 3A       		.uleb128 0x3a
ARM GAS  /tmp/ccAhl9xf.s 			page 63


 3477 0288 0B       		.uleb128 0xb
 3478 0289 3B       		.uleb128 0x3b
 3479 028a 0B       		.uleb128 0xb
 3480 028b 27       		.uleb128 0x27
 3481 028c 19       		.uleb128 0x19
 3482 028d 3C       		.uleb128 0x3c
 3483 028e 19       		.uleb128 0x19
 3484 028f 01       		.uleb128 0x1
 3485 0290 13       		.uleb128 0x13
 3486 0291 00       		.byte	0
 3487 0292 00       		.byte	0
 3488 0293 31       		.uleb128 0x31
 3489 0294 2E       		.uleb128 0x2e
 3490 0295 00       		.byte	0
 3491 0296 3F       		.uleb128 0x3f
 3492 0297 19       		.uleb128 0x19
 3493 0298 03       		.uleb128 0x3
 3494 0299 0E       		.uleb128 0xe
 3495 029a 3A       		.uleb128 0x3a
 3496 029b 0B       		.uleb128 0xb
 3497 029c 3B       		.uleb128 0x3b
 3498 029d 0B       		.uleb128 0xb
 3499 029e 27       		.uleb128 0x27
 3500 029f 19       		.uleb128 0x19
 3501 02a0 3C       		.uleb128 0x3c
 3502 02a1 19       		.uleb128 0x19
 3503 02a2 00       		.byte	0
 3504 02a3 00       		.byte	0
 3505 02a4 32       		.uleb128 0x32
 3506 02a5 2E       		.uleb128 0x2e
 3507 02a6 01       		.byte	0x1
 3508 02a7 3F       		.uleb128 0x3f
 3509 02a8 19       		.uleb128 0x19
 3510 02a9 03       		.uleb128 0x3
 3511 02aa 0E       		.uleb128 0xe
 3512 02ab 3A       		.uleb128 0x3a
 3513 02ac 0B       		.uleb128 0xb
 3514 02ad 3B       		.uleb128 0x3b
 3515 02ae 05       		.uleb128 0x5
 3516 02af 27       		.uleb128 0x27
 3517 02b0 19       		.uleb128 0x19
 3518 02b1 3C       		.uleb128 0x3c
 3519 02b2 19       		.uleb128 0x19
 3520 02b3 01       		.uleb128 0x1
 3521 02b4 13       		.uleb128 0x13
 3522 02b5 00       		.byte	0
 3523 02b6 00       		.byte	0
 3524 02b7 33       		.uleb128 0x33
 3525 02b8 2E       		.uleb128 0x2e
 3526 02b9 01       		.byte	0x1
 3527 02ba 3F       		.uleb128 0x3f
 3528 02bb 19       		.uleb128 0x19
 3529 02bc 03       		.uleb128 0x3
 3530 02bd 0E       		.uleb128 0xe
 3531 02be 3A       		.uleb128 0x3a
 3532 02bf 0B       		.uleb128 0xb
 3533 02c0 3B       		.uleb128 0x3b
ARM GAS  /tmp/ccAhl9xf.s 			page 64


 3534 02c1 0B       		.uleb128 0xb
 3535 02c2 27       		.uleb128 0x27
 3536 02c3 19       		.uleb128 0x19
 3537 02c4 49       		.uleb128 0x49
 3538 02c5 13       		.uleb128 0x13
 3539 02c6 3C       		.uleb128 0x3c
 3540 02c7 19       		.uleb128 0x19
 3541 02c8 01       		.uleb128 0x1
 3542 02c9 13       		.uleb128 0x13
 3543 02ca 00       		.byte	0
 3544 02cb 00       		.byte	0
 3545 02cc 34       		.uleb128 0x34
 3546 02cd 2E       		.uleb128 0x2e
 3547 02ce 00       		.byte	0
 3548 02cf 3F       		.uleb128 0x3f
 3549 02d0 19       		.uleb128 0x19
 3550 02d1 03       		.uleb128 0x3
 3551 02d2 0E       		.uleb128 0xe
 3552 02d3 3A       		.uleb128 0x3a
 3553 02d4 0B       		.uleb128 0xb
 3554 02d5 3B       		.uleb128 0x3b
 3555 02d6 0B       		.uleb128 0xb
 3556 02d7 27       		.uleb128 0x27
 3557 02d8 19       		.uleb128 0x19
 3558 02d9 49       		.uleb128 0x49
 3559 02da 13       		.uleb128 0x13
 3560 02db 3C       		.uleb128 0x3c
 3561 02dc 19       		.uleb128 0x19
 3562 02dd 00       		.byte	0
 3563 02de 00       		.byte	0
 3564 02df 00       		.byte	0
 3565              		.section	.debug_loc,"",%progbits
 3566              	.Ldebug_loc0:
 3567              	.LLST0:
 3568 0000 00000000 		.4byte	.LVL1
 3569 0004 12000000 		.4byte	.LVL2
 3570 0008 0100     		.2byte	0x1
 3571 000a 50       		.byte	0x50
 3572 000b 12000000 		.4byte	.LVL2
 3573 000f 15000000 		.4byte	.LVL3-1
 3574 0013 0300     		.2byte	0x3
 3575 0015 70       		.byte	0x70
 3576 0016 68       		.sleb128 -24
 3577 0017 9F       		.byte	0x9f
 3578 0018 15000000 		.4byte	.LVL3-1
 3579 001c 16000000 		.4byte	.LFE119
 3580 0020 0400     		.2byte	0x4
 3581 0022 F3       		.byte	0xf3
 3582 0023 01       		.uleb128 0x1
 3583 0024 50       		.byte	0x50
 3584 0025 9F       		.byte	0x9f
 3585 0026 00000000 		.4byte	0
 3586 002a 00000000 		.4byte	0
 3587              	.LLST1:
 3588 002e 00000000 		.4byte	.LVL4
 3589 0032 08000000 		.4byte	.LVL5
 3590 0036 0100     		.2byte	0x1
ARM GAS  /tmp/ccAhl9xf.s 			page 65


 3591 0038 50       		.byte	0x50
 3592 0039 08000000 		.4byte	.LVL5
 3593 003d 3A000000 		.4byte	.LVL10
 3594 0041 0100     		.2byte	0x1
 3595 0043 54       		.byte	0x54
 3596 0044 3A000000 		.4byte	.LVL10
 3597 0048 3C000000 		.4byte	.LVL11
 3598 004c 0100     		.2byte	0x1
 3599 004e 50       		.byte	0x50
 3600 004f 3C000000 		.4byte	.LVL11
 3601 0053 4C000000 		.4byte	.LFE120
 3602 0057 0100     		.2byte	0x1
 3603 0059 54       		.byte	0x54
 3604 005a 00000000 		.4byte	0
 3605 005e 00000000 		.4byte	0
 3606              	.LLST2:
 3607 0062 00000000 		.4byte	.LVL4
 3608 0066 08000000 		.4byte	.LVL5
 3609 006a 0100     		.2byte	0x1
 3610 006c 51       		.byte	0x51
 3611 006d 08000000 		.4byte	.LVL5
 3612 0071 3A000000 		.4byte	.LVL10
 3613 0075 0100     		.2byte	0x1
 3614 0077 55       		.byte	0x55
 3615 0078 3A000000 		.4byte	.LVL10
 3616 007c 3F000000 		.4byte	.LVL12-1
 3617 0080 0100     		.2byte	0x1
 3618 0082 51       		.byte	0x51
 3619 0083 3F000000 		.4byte	.LVL12-1
 3620 0087 4C000000 		.4byte	.LFE120
 3621 008b 0100     		.2byte	0x1
 3622 008d 55       		.byte	0x55
 3623 008e 00000000 		.4byte	0
 3624 0092 00000000 		.4byte	0
 3625              	.LLST3:
 3626 0096 00000000 		.4byte	.LVL13
 3627 009a 06000000 		.4byte	.LVL14
 3628 009e 0100     		.2byte	0x1
 3629 00a0 50       		.byte	0x50
 3630 00a1 06000000 		.4byte	.LVL14
 3631 00a5 36000000 		.4byte	.LVL19
 3632 00a9 0100     		.2byte	0x1
 3633 00ab 54       		.byte	0x54
 3634 00ac 36000000 		.4byte	.LVL19
 3635 00b0 38000000 		.4byte	.LVL20
 3636 00b4 0100     		.2byte	0x1
 3637 00b6 50       		.byte	0x50
 3638 00b7 38000000 		.4byte	.LVL20
 3639 00bb 48000000 		.4byte	.LFE121
 3640 00bf 0100     		.2byte	0x1
 3641 00c1 54       		.byte	0x54
 3642 00c2 00000000 		.4byte	0
 3643 00c6 00000000 		.4byte	0
 3644              	.LLST4:
 3645 00ca 00000000 		.4byte	.LVL22
 3646 00ce 0D000000 		.4byte	.LVL23-1
 3647 00d2 0100     		.2byte	0x1
ARM GAS  /tmp/ccAhl9xf.s 			page 66


 3648 00d4 50       		.byte	0x50
 3649 00d5 0D000000 		.4byte	.LVL23-1
 3650 00d9 40000000 		.4byte	.LVL25
 3651 00dd 0100     		.2byte	0x1
 3652 00df 54       		.byte	0x54
 3653 00e0 40000000 		.4byte	.LVL25
 3654 00e4 43000000 		.4byte	.LVL26-1
 3655 00e8 0100     		.2byte	0x1
 3656 00ea 50       		.byte	0x50
 3657 00eb 43000000 		.4byte	.LVL26-1
 3658 00ef 44000000 		.4byte	.LVL26
 3659 00f3 0400     		.2byte	0x4
 3660 00f5 F3       		.byte	0xf3
 3661 00f6 01       		.uleb128 0x1
 3662 00f7 50       		.byte	0x50
 3663 00f8 9F       		.byte	0x9f
 3664 00f9 44000000 		.4byte	.LVL26
 3665 00fd 54000000 		.4byte	.LFE123
 3666 0101 0100     		.2byte	0x1
 3667 0103 54       		.byte	0x54
 3668 0104 00000000 		.4byte	0
 3669 0108 00000000 		.4byte	0
 3670              	.LLST5:
 3671 010c 00000000 		.4byte	.LVL22
 3672 0110 0D000000 		.4byte	.LVL23-1
 3673 0114 0100     		.2byte	0x1
 3674 0116 51       		.byte	0x51
 3675 0117 0D000000 		.4byte	.LVL23-1
 3676 011b 40000000 		.4byte	.LVL25
 3677 011f 0100     		.2byte	0x1
 3678 0121 56       		.byte	0x56
 3679 0122 40000000 		.4byte	.LVL25
 3680 0126 43000000 		.4byte	.LVL26-1
 3681 012a 0200     		.2byte	0x2
 3682 012c 70       		.byte	0x70
 3683 012d 10       		.sleb128 16
 3684 012e 43000000 		.4byte	.LVL26-1
 3685 0132 44000000 		.4byte	.LVL26
 3686 0136 0400     		.2byte	0x4
 3687 0138 F3       		.byte	0xf3
 3688 0139 01       		.uleb128 0x1
 3689 013a 51       		.byte	0x51
 3690 013b 9F       		.byte	0x9f
 3691 013c 44000000 		.4byte	.LVL26
 3692 0140 54000000 		.4byte	.LFE123
 3693 0144 0100     		.2byte	0x1
 3694 0146 56       		.byte	0x56
 3695 0147 00000000 		.4byte	0
 3696 014b 00000000 		.4byte	0
 3697              	.LLST6:
 3698 014f 00000000 		.4byte	.LVL22
 3699 0153 0D000000 		.4byte	.LVL23-1
 3700 0157 0100     		.2byte	0x1
 3701 0159 52       		.byte	0x52
 3702 015a 0D000000 		.4byte	.LVL23-1
 3703 015e 40000000 		.4byte	.LVL25
 3704 0162 0100     		.2byte	0x1
ARM GAS  /tmp/ccAhl9xf.s 			page 67


 3705 0164 57       		.byte	0x57
 3706 0165 40000000 		.4byte	.LVL25
 3707 0169 43000000 		.4byte	.LVL26-1
 3708 016d 0200     		.2byte	0x2
 3709 016f 70       		.byte	0x70
 3710 0170 08       		.sleb128 8
 3711 0171 43000000 		.4byte	.LVL26-1
 3712 0175 44000000 		.4byte	.LVL26
 3713 0179 0400     		.2byte	0x4
 3714 017b F3       		.byte	0xf3
 3715 017c 01       		.uleb128 0x1
 3716 017d 52       		.byte	0x52
 3717 017e 9F       		.byte	0x9f
 3718 017f 44000000 		.4byte	.LVL26
 3719 0183 54000000 		.4byte	.LFE123
 3720 0187 0100     		.2byte	0x1
 3721 0189 57       		.byte	0x57
 3722 018a 00000000 		.4byte	0
 3723 018e 00000000 		.4byte	0
 3724              	.LLST7:
 3725 0192 00000000 		.4byte	.LVL22
 3726 0196 0D000000 		.4byte	.LVL23-1
 3727 019a 0100     		.2byte	0x1
 3728 019c 53       		.byte	0x53
 3729 019d 0D000000 		.4byte	.LVL23-1
 3730 01a1 40000000 		.4byte	.LVL25
 3731 01a5 0100     		.2byte	0x1
 3732 01a7 55       		.byte	0x55
 3733 01a8 40000000 		.4byte	.LVL25
 3734 01ac 43000000 		.4byte	.LVL26-1
 3735 01b0 0200     		.2byte	0x2
 3736 01b2 70       		.byte	0x70
 3737 01b3 0C       		.sleb128 12
 3738 01b4 43000000 		.4byte	.LVL26-1
 3739 01b8 44000000 		.4byte	.LVL26
 3740 01bc 0400     		.2byte	0x4
 3741 01be F3       		.byte	0xf3
 3742 01bf 01       		.uleb128 0x1
 3743 01c0 53       		.byte	0x53
 3744 01c1 9F       		.byte	0x9f
 3745 01c2 44000000 		.4byte	.LVL26
 3746 01c6 54000000 		.4byte	.LFE123
 3747 01ca 0100     		.2byte	0x1
 3748 01cc 55       		.byte	0x55
 3749 01cd 00000000 		.4byte	0
 3750 01d1 00000000 		.4byte	0
 3751              	.LLST8:
 3752 01d5 00000000 		.4byte	.LVL28
 3753 01d9 13000000 		.4byte	.LVL30-1
 3754 01dd 0100     		.2byte	0x1
 3755 01df 50       		.byte	0x50
 3756 01e0 13000000 		.4byte	.LVL30-1
 3757 01e4 2C000000 		.4byte	.LFE122
 3758 01e8 0100     		.2byte	0x1
 3759 01ea 57       		.byte	0x57
 3760 01eb 00000000 		.4byte	0
 3761 01ef 00000000 		.4byte	0
ARM GAS  /tmp/ccAhl9xf.s 			page 68


 3762              	.LLST9:
 3763 01f3 00000000 		.4byte	.LVL28
 3764 01f7 13000000 		.4byte	.LVL30-1
 3765 01fb 0100     		.2byte	0x1
 3766 01fd 51       		.byte	0x51
 3767 01fe 13000000 		.4byte	.LVL30-1
 3768 0202 2C000000 		.4byte	.LFE122
 3769 0206 0100     		.2byte	0x1
 3770 0208 56       		.byte	0x56
 3771 0209 00000000 		.4byte	0
 3772 020d 00000000 		.4byte	0
 3773              	.LLST10:
 3774 0211 00000000 		.4byte	.LVL28
 3775 0215 13000000 		.4byte	.LVL30-1
 3776 0219 0100     		.2byte	0x1
 3777 021b 52       		.byte	0x52
 3778 021c 13000000 		.4byte	.LVL30-1
 3779 0220 2C000000 		.4byte	.LFE122
 3780 0224 0100     		.2byte	0x1
 3781 0226 55       		.byte	0x55
 3782 0227 00000000 		.4byte	0
 3783 022b 00000000 		.4byte	0
 3784              	.LLST11:
 3785 022f 00000000 		.4byte	.LVL28
 3786 0233 0C000000 		.4byte	.LVL29
 3787 0237 0100     		.2byte	0x1
 3788 0239 53       		.byte	0x53
 3789 023a 0C000000 		.4byte	.LVL29
 3790 023e 2C000000 		.4byte	.LFE122
 3791 0242 0100     		.2byte	0x1
 3792 0244 54       		.byte	0x54
 3793 0245 00000000 		.4byte	0
 3794 0249 00000000 		.4byte	0
 3795              	.LLST12:
 3796 024d 00000000 		.4byte	.LVL33
 3797 0251 06000000 		.4byte	.LVL34
 3798 0255 0100     		.2byte	0x1
 3799 0257 50       		.byte	0x50
 3800 0258 06000000 		.4byte	.LVL34
 3801 025c 4E000000 		.4byte	.LVL41
 3802 0260 0100     		.2byte	0x1
 3803 0262 54       		.byte	0x54
 3804 0263 4E000000 		.4byte	.LVL41
 3805 0267 50000000 		.4byte	.LVL42
 3806 026b 0100     		.2byte	0x1
 3807 026d 50       		.byte	0x50
 3808 026e 50000000 		.4byte	.LVL42
 3809 0272 60000000 		.4byte	.LFE124
 3810 0276 0100     		.2byte	0x1
 3811 0278 54       		.byte	0x54
 3812 0279 00000000 		.4byte	0
 3813 027d 00000000 		.4byte	0
 3814              	.LLST13:
 3815 0281 38000000 		.4byte	.LVL38
 3816 0285 41000000 		.4byte	.LVL39-1
 3817 0289 0100     		.2byte	0x1
 3818 028b 50       		.byte	0x50
ARM GAS  /tmp/ccAhl9xf.s 			page 69


 3819 028c 00000000 		.4byte	0
 3820 0290 00000000 		.4byte	0
 3821              	.LLST14:
 3822 0294 00000000 		.4byte	.LVL44
 3823 0298 07000000 		.4byte	.LVL45-1
 3824 029c 0100     		.2byte	0x1
 3825 029e 50       		.byte	0x50
 3826 029f 07000000 		.4byte	.LVL45-1
 3827 02a3 38000000 		.4byte	.LVL48
 3828 02a7 0100     		.2byte	0x1
 3829 02a9 54       		.byte	0x54
 3830 02aa 38000000 		.4byte	.LVL48
 3831 02ae 3C000000 		.4byte	.LVL49
 3832 02b2 0400     		.2byte	0x4
 3833 02b4 F3       		.byte	0xf3
 3834 02b5 01       		.uleb128 0x1
 3835 02b6 50       		.byte	0x50
 3836 02b7 9F       		.byte	0x9f
 3837 02b8 3C000000 		.4byte	.LVL49
 3838 02bc 58000000 		.4byte	.LFE125
 3839 02c0 0100     		.2byte	0x1
 3840 02c2 54       		.byte	0x54
 3841 02c3 00000000 		.4byte	0
 3842 02c7 00000000 		.4byte	0
 3843              	.LLST15:
 3844 02cb 2A000000 		.4byte	.LVL47
 3845 02cf 3B000000 		.4byte	.LVL49-1
 3846 02d3 0100     		.2byte	0x1
 3847 02d5 53       		.byte	0x53
 3848 02d6 00000000 		.4byte	0
 3849 02da 00000000 		.4byte	0
 3850              	.LLST16:
 3851 02de 00000000 		.4byte	.LVL53
 3852 02e2 15000000 		.4byte	.LVL55-1
 3853 02e6 0100     		.2byte	0x1
 3854 02e8 50       		.byte	0x50
 3855 02e9 15000000 		.4byte	.LVL55-1
 3856 02ed 3C000000 		.4byte	.LVL59
 3857 02f1 0100     		.2byte	0x1
 3858 02f3 54       		.byte	0x54
 3859 02f4 3C000000 		.4byte	.LVL59
 3860 02f8 54000000 		.4byte	.LFE126
 3861 02fc 0400     		.2byte	0x4
 3862 02fe F3       		.byte	0xf3
 3863 02ff 01       		.uleb128 0x1
 3864 0300 50       		.byte	0x50
 3865 0301 9F       		.byte	0x9f
 3866 0302 00000000 		.4byte	0
 3867 0306 00000000 		.4byte	0
 3868              	.LLST17:
 3869 030a 00000000 		.4byte	.LVL53
 3870 030e 15000000 		.4byte	.LVL55-1
 3871 0312 0100     		.2byte	0x1
 3872 0314 51       		.byte	0x51
 3873 0315 15000000 		.4byte	.LVL55-1
 3874 0319 4C000000 		.4byte	.LVL61
 3875 031d 0100     		.2byte	0x1
ARM GAS  /tmp/ccAhl9xf.s 			page 70


 3876 031f 58       		.byte	0x58
 3877 0320 4C000000 		.4byte	.LVL61
 3878 0324 54000000 		.4byte	.LFE126
 3879 0328 0400     		.2byte	0x4
 3880 032a F3       		.byte	0xf3
 3881 032b 01       		.uleb128 0x1
 3882 032c 51       		.byte	0x51
 3883 032d 9F       		.byte	0x9f
 3884 032e 00000000 		.4byte	0
 3885 0332 00000000 		.4byte	0
 3886              	.LLST18:
 3887 0336 00000000 		.4byte	.LVL53
 3888 033a 15000000 		.4byte	.LVL55-1
 3889 033e 0100     		.2byte	0x1
 3890 0340 52       		.byte	0x52
 3891 0341 15000000 		.4byte	.LVL55-1
 3892 0345 4C000000 		.4byte	.LVL61
 3893 0349 0100     		.2byte	0x1
 3894 034b 57       		.byte	0x57
 3895 034c 4C000000 		.4byte	.LVL61
 3896 0350 54000000 		.4byte	.LFE126
 3897 0354 0400     		.2byte	0x4
 3898 0356 F3       		.byte	0xf3
 3899 0357 01       		.uleb128 0x1
 3900 0358 52       		.byte	0x52
 3901 0359 9F       		.byte	0x9f
 3902 035a 00000000 		.4byte	0
 3903 035e 00000000 		.4byte	0
 3904              	.LLST19:
 3905 0362 00000000 		.4byte	.LVL53
 3906 0366 0E000000 		.4byte	.LVL54
 3907 036a 0100     		.2byte	0x1
 3908 036c 53       		.byte	0x53
 3909 036d 0E000000 		.4byte	.LVL54
 3910 0371 4C000000 		.4byte	.LVL61
 3911 0375 0100     		.2byte	0x1
 3912 0377 56       		.byte	0x56
 3913 0378 4C000000 		.4byte	.LVL61
 3914 037c 54000000 		.4byte	.LFE126
 3915 0380 0400     		.2byte	0x4
 3916 0382 F3       		.byte	0xf3
 3917 0383 01       		.uleb128 0x1
 3918 0384 53       		.byte	0x53
 3919 0385 9F       		.byte	0x9f
 3920 0386 00000000 		.4byte	0
 3921 038a 00000000 		.4byte	0
 3922              	.LLST20:
 3923 038e 3C000000 		.4byte	.LVL59
 3924 0392 4C000000 		.4byte	.LVL61
 3925 0396 0100     		.2byte	0x1
 3926 0398 54       		.byte	0x54
 3927 0399 4C000000 		.4byte	.LVL61
 3928 039d 54000000 		.4byte	.LFE126
 3929 03a1 0100     		.2byte	0x1
 3930 03a3 50       		.byte	0x50
 3931 03a4 00000000 		.4byte	0
 3932 03a8 00000000 		.4byte	0
ARM GAS  /tmp/ccAhl9xf.s 			page 71


 3933              	.LLST21:
 3934 03ac 00000000 		.4byte	.LVL62
 3935 03b0 0A000000 		.4byte	.LVL63
 3936 03b4 0100     		.2byte	0x1
 3937 03b6 50       		.byte	0x50
 3938 03b7 0A000000 		.4byte	.LVL63
 3939 03bb 0E000000 		.4byte	.LVL64
 3940 03bf 0100     		.2byte	0x1
 3941 03c1 54       		.byte	0x54
 3942 03c2 0E000000 		.4byte	.LVL64
 3943 03c6 11000000 		.4byte	.LVL65-1
 3944 03ca 0300     		.2byte	0x3
 3945 03cc 70       		.byte	0x70
 3946 03cd 68       		.sleb128 -24
 3947 03ce 9F       		.byte	0x9f
 3948 03cf 11000000 		.4byte	.LVL65-1
 3949 03d3 12000000 		.4byte	.LVL65
 3950 03d7 0400     		.2byte	0x4
 3951 03d9 F3       		.byte	0xf3
 3952 03da 01       		.uleb128 0x1
 3953 03db 50       		.byte	0x50
 3954 03dc 9F       		.byte	0x9f
 3955 03dd 12000000 		.4byte	.LVL65
 3956 03e1 14000000 		.4byte	.LVL66
 3957 03e5 0100     		.2byte	0x1
 3958 03e7 50       		.byte	0x50
 3959 03e8 14000000 		.4byte	.LVL66
 3960 03ec 20000000 		.4byte	.LVL68
 3961 03f0 0100     		.2byte	0x1
 3962 03f2 54       		.byte	0x54
 3963 03f3 20000000 		.4byte	.LVL68
 3964 03f7 23000000 		.4byte	.LVL69-1
 3965 03fb 0300     		.2byte	0x3
 3966 03fd 70       		.byte	0x70
 3967 03fe 68       		.sleb128 -24
 3968 03ff 9F       		.byte	0x9f
 3969 0400 23000000 		.4byte	.LVL69-1
 3970 0404 28000000 		.4byte	.LFE127
 3971 0408 0400     		.2byte	0x4
 3972 040a F3       		.byte	0xf3
 3973 040b 01       		.uleb128 0x1
 3974 040c 50       		.byte	0x50
 3975 040d 9F       		.byte	0x9f
 3976 040e 00000000 		.4byte	0
 3977 0412 00000000 		.4byte	0
 3978              	.LLST22:
 3979 0416 00000000 		.4byte	.LVL70
 3980 041a 0B000000 		.4byte	.LVL71-1
 3981 041e 0100     		.2byte	0x1
 3982 0420 50       		.byte	0x50
 3983 0421 0B000000 		.4byte	.LVL71-1
 3984 0425 0C000000 		.4byte	.LVL71
 3985 0429 0400     		.2byte	0x4
 3986 042b F3       		.byte	0xf3
 3987 042c 01       		.uleb128 0x1
 3988 042d 50       		.byte	0x50
 3989 042e 9F       		.byte	0x9f
ARM GAS  /tmp/ccAhl9xf.s 			page 72


 3990 042f 0C000000 		.4byte	.LVL71
 3991 0433 0E000000 		.4byte	.LVL72
 3992 0437 0100     		.2byte	0x1
 3993 0439 50       		.byte	0x50
 3994 043a 0E000000 		.4byte	.LVL72
 3995 043e 20000000 		.4byte	.LFE128
 3996 0442 0400     		.2byte	0x4
 3997 0444 F3       		.byte	0xf3
 3998 0445 01       		.uleb128 0x1
 3999 0446 50       		.byte	0x50
 4000 0447 9F       		.byte	0x9f
 4001 0448 00000000 		.4byte	0
 4002 044c 00000000 		.4byte	0
 4003              		.section	.debug_aranges,"",%progbits
 4004 0000 6C000000 		.4byte	0x6c
 4005 0004 0200     		.2byte	0x2
 4006 0006 00000000 		.4byte	.Ldebug_info0
 4007 000a 04       		.byte	0x4
 4008 000b 00       		.byte	0
 4009 000c 0000     		.2byte	0
 4010 000e 0000     		.2byte	0
 4011 0010 00000000 		.4byte	.LFB118
 4012 0014 04000000 		.4byte	.LFE118-.LFB118
 4013 0018 00000000 		.4byte	.LFB119
 4014 001c 16000000 		.4byte	.LFE119-.LFB119
 4015 0020 00000000 		.4byte	.LFB120
 4016 0024 4C000000 		.4byte	.LFE120-.LFB120
 4017 0028 00000000 		.4byte	.LFB121
 4018 002c 48000000 		.4byte	.LFE121-.LFB121
 4019 0030 00000000 		.4byte	.LFB123
 4020 0034 54000000 		.4byte	.LFE123-.LFB123
 4021 0038 00000000 		.4byte	.LFB122
 4022 003c 2C000000 		.4byte	.LFE122-.LFB122
 4023 0040 00000000 		.4byte	.LFB124
 4024 0044 60000000 		.4byte	.LFE124-.LFB124
 4025 0048 00000000 		.4byte	.LFB125
 4026 004c 58000000 		.4byte	.LFE125-.LFB125
 4027 0050 00000000 		.4byte	.LFB126
 4028 0054 54000000 		.4byte	.LFE126-.LFB126
 4029 0058 00000000 		.4byte	.LFB127
 4030 005c 28000000 		.4byte	.LFE127-.LFB127
 4031 0060 00000000 		.4byte	.LFB128
 4032 0064 20000000 		.4byte	.LFE128-.LFB128
 4033 0068 00000000 		.4byte	0
 4034 006c 00000000 		.4byte	0
 4035              		.section	.debug_ranges,"",%progbits
 4036              	.Ldebug_ranges0:
 4037 0000 2A000000 		.4byte	.LBB11
 4038 0004 34000000 		.4byte	.LBE11
 4039 0008 38000000 		.4byte	.LBB12
 4040 000c 3E000000 		.4byte	.LBE12
 4041 0010 00000000 		.4byte	0
 4042 0014 00000000 		.4byte	0
 4043 0018 00000000 		.4byte	.LFB118
 4044 001c 04000000 		.4byte	.LFE118
 4045 0020 00000000 		.4byte	.LFB119
 4046 0024 16000000 		.4byte	.LFE119
ARM GAS  /tmp/ccAhl9xf.s 			page 73


 4047 0028 00000000 		.4byte	.LFB120
 4048 002c 4C000000 		.4byte	.LFE120
 4049 0030 00000000 		.4byte	.LFB121
 4050 0034 48000000 		.4byte	.LFE121
 4051 0038 00000000 		.4byte	.LFB123
 4052 003c 54000000 		.4byte	.LFE123
 4053 0040 00000000 		.4byte	.LFB122
 4054 0044 2C000000 		.4byte	.LFE122
 4055 0048 00000000 		.4byte	.LFB124
 4056 004c 60000000 		.4byte	.LFE124
 4057 0050 00000000 		.4byte	.LFB125
 4058 0054 58000000 		.4byte	.LFE125
 4059 0058 00000000 		.4byte	.LFB126
 4060 005c 54000000 		.4byte	.LFE126
 4061 0060 00000000 		.4byte	.LFB127
 4062 0064 28000000 		.4byte	.LFE127
 4063 0068 00000000 		.4byte	.LFB128
 4064 006c 20000000 		.4byte	.LFE128
 4065 0070 00000000 		.4byte	0
 4066 0074 00000000 		.4byte	0
 4067              		.section	.debug_line,"",%progbits
 4068              	.Ldebug_line0:
 4069 0000 66030000 		.section	.debug_str,"MS",%progbits,1
 4069      0200CD01 
 4069      00000201 
 4069      FB0E0D00 
 4069      01010101 
 4070              	.LASF83:
 4071 0000 4F465231 		.ascii	"OFR1\000"
 4071      00
 4072              	.LASF84:
 4073 0005 4F465232 		.ascii	"OFR2\000"
 4073      00
 4074              	.LASF94:
 4075 000a 41574433 		.ascii	"AWD3CR\000"
 4075      435200
 4076              	.LASF86:
 4077 0011 4F465234 		.ascii	"OFR4\000"
 4077      00
 4078              	.LASF2:
 4079 0016 73697A65 		.ascii	"size_t\000"
 4079      5F7400
 4080              	.LASF13:
 4081 001d 75696E74 		.ascii	"uint64_t\000"
 4081      36345F74 
 4081      00
 4082              	.LASF64:
 4083 0026 7264796D 		.ascii	"rdymsg\000"
 4083      736700
 4084              	.LASF138:
 4085 002d 646D616D 		.ascii	"dmamode\000"
 4085      6F646500 
 4086              	.LASF118:
 4087 0035 61646373 		.ascii	"adcstate_t\000"
 4087      74617465 
 4087      5F7400
 4088              	.LASF154:
ARM GAS  /tmp/ccAhl9xf.s 			page 74


 4089 0040 61646353 		.ascii	"adcStop\000"
 4089      746F7000 
 4090              	.LASF169:
 4091 0048 6164635F 		.ascii	"adc_lld_stop\000"
 4091      6C6C645F 
 4091      73746F70 
 4091      00
 4092              	.LASF14:
 4093 0055 6C6F6E67 		.ascii	"long long unsigned int\000"
 4093      206C6F6E 
 4093      6720756E 
 4093      7369676E 
 4093      65642069 
 4094              	.LASF65:
 4095 006c 65786974 		.ascii	"exitcode\000"
 4095      636F6465 
 4095      00
 4096              	.LASF110:
 4097 0075 76656374 		.ascii	"vector\000"
 4097      6F7200
 4098              	.LASF166:
 4099 007c 63684462 		.ascii	"chDbgPanic\000"
 4099      6750616E 
 4099      696300
 4100              	.LASF162:
 4101 0087 49544D5F 		.ascii	"ITM_RxBuffer\000"
 4101      52784275 
 4101      66666572 
 4101      00
 4102              	.LASF97:
 4103 0094 44494653 		.ascii	"DIFSEL\000"
 4103      454C00
 4104              	.LASF28:
 4105 009b 705F7072 		.ascii	"p_prio\000"
 4105      696F00
 4106              	.LASF81:
 4107 00a2 4A535152 		.ascii	"JSQR\000"
 4107      00
 4108              	.LASF177:
 4109 00a7 2E2E2F2E 		.ascii	"../../../os/hal/src/adc.c\000"
 4109      2E2F2E2E 
 4109      2F6F732F 
 4109      68616C2F 
 4109      7372632F 
 4110              	.LASF181:
 4111 00c1 63684D74 		.ascii	"chMtxUnlock\000"
 4111      78556E6C 
 4111      6F636B00 
 4112              	.LASF1:
 4113 00cd 7369676E 		.ascii	"signed char\000"
 4113      65642063 
 4113      68617200 
 4114              	.LASF89:
 4115 00d9 4A445232 		.ascii	"JDR2\000"
 4115      00
 4116              	.LASF45:
 4117 00de 705F6D70 		.ascii	"p_mpool\000"
ARM GAS  /tmp/ccAhl9xf.s 			page 75


 4117      6F6F6C00 
 4118              	.LASF15:
 4119 00e6 626F6F6C 		.ascii	"bool_t\000"
 4119      5F7400
 4120              	.LASF61:
 4121 00ed 6D5F7175 		.ascii	"m_queue\000"
 4121      65756500 
 4122              	.LASF112:
 4123 00f5 4144435F 		.ascii	"ADC_UNINIT\000"
 4123      554E494E 
 4123      495400
 4124              	.LASF126:
 4125 0100 61646365 		.ascii	"adcerror_t\000"
 4125      72726F72 
 4125      5F7400
 4126              	.LASF137:
 4127 010b 646D6173 		.ascii	"dmastp\000"
 4127      747000
 4128              	.LASF123:
 4129 0112 4144435F 		.ascii	"ADC_ERR_AWD1\000"
 4129      4552525F 
 4129      41574431 
 4129      00
 4130              	.LASF117:
 4131 011f 4144435F 		.ascii	"ADC_ERROR\000"
 4131      4552524F 
 4131      5200
 4132              	.LASF125:
 4133 0129 4144435F 		.ascii	"ADC_ERR_AWD3\000"
 4133      4552525F 
 4133      41574433 
 4133      00
 4134              	.LASF93:
 4135 0136 41574432 		.ascii	"AWD2CR\000"
 4135      435200
 4136              	.LASF128:
 4137 013d 73746174 		.ascii	"state\000"
 4137      6500
 4138              	.LASF141:
 4139 0143 63697263 		.ascii	"circular\000"
 4139      756C6172 
 4139      00
 4140              	.LASF9:
 4141 014c 6C6F6E67 		.ascii	"long int\000"
 4141      20696E74 
 4141      00
 4142              	.LASF121:
 4143 0155 4144435F 		.ascii	"ADC_ERR_DMAFAILURE\000"
 4143      4552525F 
 4143      444D4146 
 4143      41494C55 
 4143      524500
 4144              	.LASF171:
 4145 0168 6164635F 		.ascii	"adc_lld_start_conversion\000"
 4145      6C6C645F 
 4145      73746172 
 4145      745F636F 
ARM GAS  /tmp/ccAhl9xf.s 			page 76


 4145      6E766572 
 4146              	.LASF140:
 4147 0181 61646365 		.ascii	"adcerrorcallback_t\000"
 4147      72726F72 
 4147      63616C6C 
 4147      6261636B 
 4147      5F7400
 4148              	.LASF18:
 4149 0194 74737461 		.ascii	"tstate_t\000"
 4149      74655F74 
 4149      00
 4150              	.LASF133:
 4151 019d 74687265 		.ascii	"thread\000"
 4151      616400
 4152              	.LASF12:
 4153 01a4 6C6F6E67 		.ascii	"long long int\000"
 4153      206C6F6E 
 4153      6720696E 
 4153      7400
 4154              	.LASF6:
 4155 01b2 75696E74 		.ascii	"uint16_t\000"
 4155      31365F74 
 4155      00
 4156              	.LASF38:
 4157 01bb 705F7469 		.ascii	"p_time\000"
 4157      6D6500
 4158              	.LASF99:
 4159 01c2 4144435F 		.ascii	"ADC_TypeDef\000"
 4159      54797065 
 4159      44656600 
 4160              	.LASF30:
 4161 01ce 705F6E65 		.ascii	"p_newer\000"
 4161      77657200 
 4162              	.LASF143:
 4163 01d6 656E645F 		.ascii	"end_cb\000"
 4163      636200
 4164              	.LASF139:
 4165 01dd 61646363 		.ascii	"adccallback_t\000"
 4165      616C6C62 
 4165      61636B5F 
 4165      7400
 4166              	.LASF119:
 4167 01eb 61646373 		.ascii	"adcsample_t\000"
 4167      616D706C 
 4167      655F7400 
 4168              	.LASF56:
 4169 01f7 725F6E65 		.ascii	"r_newer\000"
 4169      77657200 
 4170              	.LASF149:
 4171 01ff 41444343 		.ascii	"ADCConfig\000"
 4171      6F6E6669 
 4171      6700
 4172              	.LASF48:
 4173 0209 72656761 		.ascii	"regarm_t\000"
 4173      726D5F74 
 4173      00
 4174              	.LASF109:
ARM GAS  /tmp/ccAhl9xf.s 			page 77


 4175 0212 73656C66 		.ascii	"selfindex\000"
 4175      696E6465 
 4175      7800
 4176              	.LASF148:
 4177 021c 64756D6D 		.ascii	"dummy\000"
 4177      7900
 4178              	.LASF25:
 4179 0222 54687265 		.ascii	"Thread\000"
 4179      616400
 4180              	.LASF122:
 4181 0229 4144435F 		.ascii	"ADC_ERR_OVERFLOW\000"
 4181      4552525F 
 4181      4F564552 
 4181      464C4F57 
 4181      00
 4182              	.LASF115:
 4183 023a 4144435F 		.ascii	"ADC_ACTIVE\000"
 4183      41435449 
 4183      564500
 4184              	.LASF33:
 4185 0245 705F7374 		.ascii	"p_stklimit\000"
 4185      6B6C696D 
 4185      697400
 4186              	.LASF0:
 4187 0250 756E7369 		.ascii	"unsigned int\000"
 4187      676E6564 
 4187      20696E74 
 4187      00
 4188              	.LASF151:
 4189 025d 6164634F 		.ascii	"adcObjectInit\000"
 4189      626A6563 
 4189      74496E69 
 4189      7400
 4190              	.LASF103:
 4191 026b 43504152 		.ascii	"CPAR\000"
 4191      00
 4192              	.LASF40:
 4193 0270 705F6D73 		.ascii	"p_msgqueue\000"
 4193      67717565 
 4193      756500
 4194              	.LASF127:
 4195 027b 41444344 		.ascii	"ADCDriver\000"
 4195      72697665 
 4195      7200
 4196              	.LASF105:
 4197 0285 444D415F 		.ascii	"DMA_Channel_TypeDef\000"
 4197      4368616E 
 4197      6E656C5F 
 4197      54797065 
 4197      44656600 
 4198              	.LASF108:
 4199 0299 69736869 		.ascii	"ishift\000"
 4199      667400
 4200              	.LASF146:
 4201 02a0 736D7072 		.ascii	"smpr\000"
 4201      00
 4202              	.LASF7:
ARM GAS  /tmp/ccAhl9xf.s 			page 78


 4203 02a5 73686F72 		.ascii	"short unsigned int\000"
 4203      7420756E 
 4203      7369676E 
 4203      65642069 
 4203      6E7400
 4204              	.LASF114:
 4205 02b8 4144435F 		.ascii	"ADC_READY\000"
 4205      52454144 
 4205      5900
 4206              	.LASF131:
 4207 02c2 64657074 		.ascii	"depth\000"
 4207      6800
 4208              	.LASF22:
 4209 02c8 6D73675F 		.ascii	"msg_t\000"
 4209      7400
 4210              	.LASF170:
 4211 02ce 63684462 		.ascii	"chDbgCheckClassI\000"
 4211      67436865 
 4211      636B436C 
 4211      61737349 
 4211      00
 4212              	.LASF178:
 4213 02df 2F686F6D 		.ascii	"/home/john/git/ChibiOS-RT/testhal/STM32F30x/ADC_CDC"
 4213      652F6A6F 
 4213      686E2F67 
 4213      69742F43 
 4213      68696269 
 4214 0312 00       		.ascii	"\000"
 4215              	.LASF17:
 4216 0313 746D6F64 		.ascii	"tmode_t\000"
 4216      655F7400 
 4217              	.LASF47:
 4218 031b 54687265 		.ascii	"ThreadsList\000"
 4218      6164734C 
 4218      69737400 
 4219              	.LASF23:
 4220 0327 6576656E 		.ascii	"eventmask_t\000"
 4220      746D6173 
 4220      6B5F7400 
 4221              	.LASF5:
 4222 0333 73686F72 		.ascii	"short int\000"
 4222      7420696E 
 4222      7400
 4223              	.LASF150:
 4224 033d 61646349 		.ascii	"adcInit\000"
 4224      6E697400 
 4225              	.LASF49:
 4226 0345 73746B61 		.ascii	"stkalign_t\000"
 4226      6C69676E 
 4226      5F7400
 4227              	.LASF132:
 4228 0350 67727070 		.ascii	"grpp\000"
 4228      00
 4229              	.LASF163:
 4230 0355 6164635F 		.ascii	"adc_lld_init\000"
 4230      6C6C645F 
 4230      696E6974 
ARM GAS  /tmp/ccAhl9xf.s 			page 79


 4230      00
 4231              	.LASF130:
 4232 0362 73616D70 		.ascii	"samples\000"
 4232      6C657300 
 4233              	.LASF52:
 4234 036a 73697A65 		.ascii	"sizetype\000"
 4234      74797065 
 4234      00
 4235              	.LASF60:
 4236 0373 4D757465 		.ascii	"Mutex\000"
 4236      7800
 4237              	.LASF53:
 4238 0379 725F7175 		.ascii	"r_queue\000"
 4238      65756500 
 4239              	.LASF113:
 4240 0381 4144435F 		.ascii	"ADC_STOP\000"
 4240      53544F50 
 4240      00
 4241              	.LASF101:
 4242 038a 4144435F 		.ascii	"ADC_Common_TypeDef\000"
 4242      436F6D6D 
 4242      6F6E5F54 
 4242      79706544 
 4242      656600
 4243              	.LASF175:
 4244 039d 63684D74 		.ascii	"chMtxLock\000"
 4244      784C6F63 
 4244      6B00
 4245              	.LASF31:
 4246 03a7 705F6F6C 		.ascii	"p_older\000"
 4246      64657200 
 4247              	.LASF55:
 4248 03af 725F6374 		.ascii	"r_ctx\000"
 4248      7800
 4249              	.LASF46:
 4250 03b5 54687265 		.ascii	"ThreadsQueue\000"
 4250      61647351 
 4250      75657565 
 4250      00
 4251              	.LASF71:
 4252 03c2 534D5052 		.ascii	"SMPR1\000"
 4252      3100
 4253              	.LASF72:
 4254 03c8 534D5052 		.ascii	"SMPR2\000"
 4254      3200
 4255              	.LASF63:
 4256 03ce 6D5F6E65 		.ascii	"m_next\000"
 4256      787400
 4257              	.LASF58:
 4258 03d5 725F6375 		.ascii	"r_current\000"
 4258      7272656E 
 4258      7400
 4259              	.LASF164:
 4260 03df 6462675F 		.ascii	"dbg_check_lock\000"
 4260      63686563 
 4260      6B5F6C6F 
 4260      636B00
ARM GAS  /tmp/ccAhl9xf.s 			page 80


 4261              	.LASF168:
 4262 03ee 6462675F 		.ascii	"dbg_check_unlock\000"
 4262      63686563 
 4262      6B5F756E 
 4262      6C6F636B 
 4262      00
 4263              	.LASF75:
 4264 03ff 53515231 		.ascii	"SQR1\000"
 4264      00
 4265              	.LASF76:
 4266 0404 53515232 		.ascii	"SQR2\000"
 4266      00
 4267              	.LASF77:
 4268 0409 53515233 		.ascii	"SQR3\000"
 4268      00
 4269              	.LASF78:
 4270 040e 53515234 		.ascii	"SQR4\000"
 4270      00
 4271              	.LASF155:
 4272 0413 61646353 		.ascii	"adcStartConversionI\000"
 4272      74617274 
 4272      436F6E76 
 4272      65727369 
 4272      6F6E4900 
 4273              	.LASF19:
 4274 0427 74726566 		.ascii	"trefs_t\000"
 4274      735F7400 
 4275              	.LASF70:
 4276 042f 52455345 		.ascii	"RESERVED0\000"
 4276      52564544 
 4276      3000
 4277              	.LASF73:
 4278 0439 52455345 		.ascii	"RESERVED1\000"
 4278      52564544 
 4278      3100
 4279              	.LASF74:
 4280 0443 52455345 		.ascii	"RESERVED2\000"
 4280      52564544 
 4280      3200
 4281              	.LASF79:
 4282 044d 52455345 		.ascii	"RESERVED3\000"
 4282      52564544 
 4282      3300
 4283              	.LASF80:
 4284 0457 52455345 		.ascii	"RESERVED4\000"
 4284      52564544 
 4284      3400
 4285              	.LASF27:
 4286 0461 705F7072 		.ascii	"p_prev\000"
 4286      657600
 4287              	.LASF87:
 4288 0468 52455345 		.ascii	"RESERVED6\000"
 4288      52564544 
 4288      3600
 4289              	.LASF92:
 4290 0472 52455345 		.ascii	"RESERVED7\000"
 4290      52564544 
ARM GAS  /tmp/ccAhl9xf.s 			page 81


 4290      3700
 4291              	.LASF95:
 4292 047c 52455345 		.ascii	"RESERVED8\000"
 4292      52564544 
 4292      3800
 4293              	.LASF21:
 4294 0486 74707269 		.ascii	"tprio_t\000"
 4294      6F5F7400 
 4295              	.LASF176:
 4296 048e 474E5520 		.ascii	"GNU C 4.8.3 20131129 (release) [ARM/embedded-4_8-br"
 4296      4320342E 
 4296      382E3320 
 4296      32303133 
 4296      31313239 
 4297 04c1 616E6368 		.ascii	"anch revision 205641] -mcpu=cortex-m4 -mno-thumb-in"
 4297      20726576 
 4297      6973696F 
 4297      6E203230 
 4297      35363431 
 4298 04f4 74657277 		.ascii	"terwork -mthumb -ggdb -O2 -fomit-frame-pointer -fal"
 4298      6F726B20 
 4298      2D6D7468 
 4298      756D6220 
 4298      2D676764 
 4299 0527 69676E2D 		.ascii	"ign-functions=16 -ffunction-sections -fdata-section"
 4299      66756E63 
 4299      74696F6E 
 4299      733D3136 
 4299      202D6666 
 4300 055a 73202D66 		.ascii	"s -fno-common\000"
 4300      6E6F2D63 
 4300      6F6D6D6F 
 4300      6E00
 4301              	.LASF134:
 4302 0568 6D757465 		.ascii	"mutex\000"
 4302      7800
 4303              	.LASF16:
 4304 056e 5F426F6F 		.ascii	"_Bool\000"
 4304      6C00
 4305              	.LASF8:
 4306 0574 696E7433 		.ascii	"int32_t\000"
 4306      325F7400 
 4307              	.LASF4:
 4308 057c 756E7369 		.ascii	"unsigned char\000"
 4308      676E6564 
 4308      20636861 
 4308      7200
 4309              	.LASF111:
 4310 058a 73746D33 		.ascii	"stm32_dma_stream_t\000"
 4310      325F646D 
 4310      615F7374 
 4310      7265616D 
 4310      5F7400
 4311              	.LASF59:
 4312 059d 52656164 		.ascii	"ReadyList\000"
 4312      794C6973 
 4312      7400
ARM GAS  /tmp/ccAhl9xf.s 			page 82


 4313              	.LASF43:
 4314 05a7 705F6D74 		.ascii	"p_mtxlist\000"
 4314      786C6973 
 4314      7400
 4315              	.LASF173:
 4316 05b1 6164635F 		.ascii	"adc_lld_stop_conversion\000"
 4316      6C6C645F 
 4316      73746F70 
 4316      5F636F6E 
 4316      76657273 
 4317              	.LASF34:
 4318 05c9 705F7374 		.ascii	"p_state\000"
 4318      61746500 
 4319              	.LASF37:
 4320 05d1 705F7072 		.ascii	"p_preempt\000"
 4320      65656D70 
 4320      7400
 4321              	.LASF144:
 4322 05db 6572726F 		.ascii	"error_cb\000"
 4322      725F6362 
 4322      00
 4323              	.LASF54:
 4324 05e4 725F7072 		.ascii	"r_prio\000"
 4324      696F00
 4325              	.LASF100:
 4326 05eb 52455345 		.ascii	"RESERVED\000"
 4326      52564544 
 4326      00
 4327              	.LASF67:
 4328 05f4 65776D61 		.ascii	"ewmask\000"
 4328      736B00
 4329              	.LASF26:
 4330 05fb 705F6E65 		.ascii	"p_next\000"
 4330      787400
 4331              	.LASF35:
 4332 0602 705F666C 		.ascii	"p_flags\000"
 4332      61677300 
 4333              	.LASF106:
 4334 060a 6368616E 		.ascii	"channel\000"
 4334      6E656C00 
 4335              	.LASF174:
 4336 0612 63685363 		.ascii	"chSchGoSleepS\000"
 4336      68476F53 
 4336      6C656570 
 4336      5300
 4337              	.LASF42:
 4338 0620 705F6570 		.ascii	"p_epending\000"
 4338      656E6469 
 4338      6E6700
 4339              	.LASF107:
 4340 062b 69666372 		.ascii	"ifcr\000"
 4340      00
 4341              	.LASF82:
 4342 0630 52455345 		.ascii	"RESERVED5\000"
 4342      52564544 
 4342      3500
 4343              	.LASF160:
ARM GAS  /tmp/ccAhl9xf.s 			page 83


 4344 063a 61646352 		.ascii	"adcReleaseBus\000"
 4344      656C6561 
 4344      73654275 
 4344      7300
 4345              	.LASF180:
 4346 0648 63685363 		.ascii	"chSchReadyI\000"
 4346      68526561 
 4346      64794900 
 4347              	.LASF96:
 4348 0654 52455345 		.ascii	"RESERVED9\000"
 4348      52564544 
 4348      3900
 4349              	.LASF98:
 4350 065e 43414C46 		.ascii	"CALFACT\000"
 4350      41435400 
 4351              	.LASF20:
 4352 0666 74736C69 		.ascii	"tslices_t\000"
 4352      6365735F 
 4352      7400
 4353              	.LASF11:
 4354 0670 6C6F6E67 		.ascii	"long unsigned int\000"
 4354      20756E73 
 4354      69676E65 
 4354      6420696E 
 4354      7400
 4355              	.LASF68:
 4356 0682 63686172 		.ascii	"char\000"
 4356      00
 4357              	.LASF129:
 4358 0687 636F6E66 		.ascii	"config\000"
 4358      696700
 4359              	.LASF116:
 4360 068e 4144435F 		.ascii	"ADC_COMPLETE\000"
 4360      434F4D50 
 4360      4C455445 
 4360      00
 4361              	.LASF142:
 4362 069b 6E756D5F 		.ascii	"num_channels\000"
 4362      6368616E 
 4362      6E656C73 
 4362      00
 4363              	.LASF24:
 4364 06a8 73797374 		.ascii	"systime_t\000"
 4364      696D655F 
 4364      7400
 4365              	.LASF44:
 4366 06b2 705F7265 		.ascii	"p_realprio\000"
 4366      616C7072 
 4366      696F00
 4367              	.LASF51:
 4368 06bd 636F6E74 		.ascii	"context\000"
 4368      65787400 
 4369              	.LASF57:
 4370 06c5 725F6F6C 		.ascii	"r_older\000"
 4370      64657200 
 4371              	.LASF156:
 4372 06cd 61646353 		.ascii	"adcStartConversion\000"
ARM GAS  /tmp/ccAhl9xf.s 			page 84


 4372      74617274 
 4372      436F6E76 
 4372      65727369 
 4372      6F6E00
 4373              	.LASF50:
 4374 06e0 696E7463 		.ascii	"intctx\000"
 4374      747800
 4375              	.LASF167:
 4376 06e7 6164635F 		.ascii	"adc_lld_start\000"
 4376      6C6C645F 
 4376      73746172 
 4376      7400
 4377              	.LASF172:
 4378 06f5 63685363 		.ascii	"chSchWakeupS\000"
 4378      6857616B 
 4378      65757053 
 4378      00
 4379              	.LASF165:
 4380 0702 63684D74 		.ascii	"chMtxInit\000"
 4380      78496E69 
 4380      7400
 4381              	.LASF10:
 4382 070c 75696E74 		.ascii	"uint32_t\000"
 4382      33325F74 
 4382      00
 4383              	.LASF152:
 4384 0715 61646353 		.ascii	"adcStart\000"
 4384      74617274 
 4384      00
 4385              	.LASF124:
 4386 071e 4144435F 		.ascii	"ADC_ERR_AWD2\000"
 4386      4552525F 
 4386      41574432 
 4386      00
 4387              	.LASF36:
 4388 072b 705F7265 		.ascii	"p_refs\000"
 4388      667300
 4389              	.LASF85:
 4390 0732 4F465233 		.ascii	"OFR3\000"
 4390      00
 4391              	.LASF102:
 4392 0737 434E4454 		.ascii	"CNDTR\000"
 4392      5200
 4393              	.LASF104:
 4394 073d 434D4152 		.ascii	"CMAR\000"
 4394      00
 4395              	.LASF161:
 4396 0742 726C6973 		.ascii	"rlist\000"
 4396      7400
 4397              	.LASF3:
 4398 0748 75696E74 		.ascii	"uint8_t\000"
 4398      385F7400 
 4399              	.LASF158:
 4400 0750 61646353 		.ascii	"adcStopConversionI\000"
 4400      746F7043 
 4400      6F6E7665 
 4400      7273696F 
ARM GAS  /tmp/ccAhl9xf.s 			page 85


 4400      6E4900
 4401              	.LASF147:
 4402 0763 41444343 		.ascii	"ADCConversionGroup\000"
 4402      6F6E7665 
 4402      7273696F 
 4402      6E47726F 
 4402      757000
 4403              	.LASF145:
 4404 0776 63666772 		.ascii	"cfgr\000"
 4404      00
 4405              	.LASF88:
 4406 077b 4A445231 		.ascii	"JDR1\000"
 4406      00
 4407              	.LASF90:
 4408 0780 4A445233 		.ascii	"JDR3\000"
 4408      00
 4409              	.LASF91:
 4410 0785 4A445234 		.ascii	"JDR4\000"
 4410      00
 4411              	.LASF66:
 4412 078a 77746F62 		.ascii	"wtobjp\000"
 4412      6A7000
 4413              	.LASF32:
 4414 0791 705F6E61 		.ascii	"p_name\000"
 4414      6D6500
 4415              	.LASF135:
 4416 0798 61646363 		.ascii	"adcc\000"
 4416      00
 4417              	.LASF120:
 4418 079d 6164635F 		.ascii	"adc_channels_num_t\000"
 4418      6368616E 
 4418      6E656C73 
 4418      5F6E756D 
 4418      5F7400
 4419              	.LASF69:
 4420 07b0 43464752 		.ascii	"CFGR\000"
 4420      00
 4421              	.LASF41:
 4422 07b5 705F6D73 		.ascii	"p_msg\000"
 4422      6700
 4423              	.LASF136:
 4424 07bb 6164636D 		.ascii	"adcm\000"
 4424      00
 4425              	.LASF153:
 4426 07c0 61646370 		.ascii	"adcp\000"
 4426      00
 4427              	.LASF179:
 4428 07c5 61646343 		.ascii	"adcConvert\000"
 4428      6F6E7665 
 4428      727400
 4429              	.LASF157:
 4430 07d0 61646353 		.ascii	"adcStopConversion\000"
 4430      746F7043 
 4430      6F6E7665 
 4430      7273696F 
 4430      6E00
 4431              	.LASF62:
ARM GAS  /tmp/ccAhl9xf.s 			page 86


 4432 07e2 6D5F6F77 		.ascii	"m_owner\000"
 4432      6E657200 
 4433              	.LASF159:
 4434 07ea 61646341 		.ascii	"adcAcquireBus\000"
 4434      63717569 
 4434      72654275 
 4434      7300
 4435              	.LASF29:
 4436 07f8 705F6374 		.ascii	"p_ctx\000"
 4436      7800
 4437              	.LASF39:
 4438 07fe 705F7761 		.ascii	"p_waiting\000"
 4438      6974696E 
 4438      6700
 4439              		.ident	"GCC: (GNU Tools for ARM Embedded Processors) 4.8.3 20131129 (release) [ARM/embedded-4_8-br
ARM GAS  /tmp/ccAhl9xf.s 			page 87


DEFINED SYMBOLS
                            *ABS*:0000000000000000 adc.c
     /tmp/ccAhl9xf.s:19     .text.adcInit:0000000000000000 $t
     /tmp/ccAhl9xf.s:25     .text.adcInit:0000000000000000 adcInit
     /tmp/ccAhl9xf.s:40     .text.adcObjectInit:0000000000000000 $t
     /tmp/ccAhl9xf.s:46     .text.adcObjectInit:0000000000000000 adcObjectInit
     /tmp/ccAhl9xf.s:78     .text.adcStart:0000000000000000 $t
     /tmp/ccAhl9xf.s:84     .text.adcStart:0000000000000000 adcStart
     /tmp/ccAhl9xf.s:158    .text.adcStart:0000000000000044 $d
     /tmp/ccAhl9xf.s:164    .text.adcStop:0000000000000000 $t
     /tmp/ccAhl9xf.s:170    .text.adcStop:0000000000000000 adcStop
     /tmp/ccAhl9xf.s:236    .text.adcStop:0000000000000040 $d
     /tmp/ccAhl9xf.s:242    .text.adcStartConversionI:0000000000000000 $t
     /tmp/ccAhl9xf.s:248    .text.adcStartConversionI:0000000000000000 adcStartConversionI
     /tmp/ccAhl9xf.s:322    .text.adcStartConversionI:000000000000004c $d
     /tmp/ccAhl9xf.s:328    .text.adcStartConversion:0000000000000000 $t
     /tmp/ccAhl9xf.s:334    .text.adcStartConversion:0000000000000000 adcStartConversion
     /tmp/ccAhl9xf.s:387    .text.adcStopConversion:0000000000000000 $t
     /tmp/ccAhl9xf.s:393    .text.adcStopConversion:0000000000000000 adcStopConversion
     /tmp/ccAhl9xf.s:481    .text.adcStopConversion:0000000000000058 $d
     /tmp/ccAhl9xf.s:487    .text.adcStopConversionI:0000000000000000 $t
     /tmp/ccAhl9xf.s:493    .text.adcStopConversionI:0000000000000000 adcStopConversionI
     /tmp/ccAhl9xf.s:573    .text.adcStopConversionI:0000000000000050 $d
     /tmp/ccAhl9xf.s:579    .text.adcConvert:0000000000000000 $t
     /tmp/ccAhl9xf.s:585    .text.adcConvert:0000000000000000 adcConvert
     /tmp/ccAhl9xf.s:661    .text.adcConvert:000000000000004c $d
     /tmp/ccAhl9xf.s:667    .text.adcAcquireBus:0000000000000000 $t
     /tmp/ccAhl9xf.s:673    .text.adcAcquireBus:0000000000000000 adcAcquireBus
     /tmp/ccAhl9xf.s:713    .text.adcAcquireBus:0000000000000024 $d
     /tmp/ccAhl9xf.s:718    .text.adcReleaseBus:0000000000000000 $t
     /tmp/ccAhl9xf.s:724    .text.adcReleaseBus:0000000000000000 adcReleaseBus
     /tmp/ccAhl9xf.s:756    .text.adcReleaseBus:000000000000001c $d
     /tmp/ccAhl9xf.s:761    .rodata.str1.4:0000000000000000 $d
                     .debug_frame:0000000000000010 $d
     /tmp/ccAhl9xf.s:163    .text.adcStart:000000000000004c $t
     /tmp/ccAhl9xf.s:241    .text.adcStop:0000000000000048 $t
     /tmp/ccAhl9xf.s:327    .text.adcStartConversionI:0000000000000054 $t
     /tmp/ccAhl9xf.s:578    .text.adcStopConversionI:0000000000000058 $t
     /tmp/ccAhl9xf.s:666    .text.adcConvert:0000000000000054 $t
     /tmp/ccAhl9xf.s:717    .text.adcAcquireBus:0000000000000028 $t

UNDEFINED SYMBOLS
adc_lld_init
chMtxInit
dbg_check_lock
chDbgPanic
adc_lld_start
dbg_check_unlock
adc_lld_stop
chDbgCheckClassI
adc_lld_start_conversion
adc_lld_stop_conversion
chSchWakeupS
chSchReadyI
chSchGoSleepS
rlist
chMtxLock
ARM GAS  /tmp/ccAhl9xf.s 			page 88


chMtxUnlock
