ARM GAS  /tmp/ccAhl9xf.s 			page 1


   1              		.syntax unified
   2              		.cpu cortex-m4
   3              		.fpu softvfp
   4              		.eabi_attribute 20, 1
   5              		.eabi_attribute 21, 1
   6              		.eabi_attribute 23, 3
   7              		.eabi_attribute 24, 1
   8              		.eabi_attribute 25, 1
   9              		.eabi_attribute 26, 1
  10              		.eabi_attribute 30, 2
  11              		.eabi_attribute 34, 1
  12              		.eabi_attribute 18, 4
  13              		.thumb
  14              		.file	"adc.c"
  15              		.text
  16              	.Ltext0:
  17              		.cfi_sections	.debug_frame
  18              		.section	.text.adcInit,"ax",%progbits
  19              		.align	2
  20              		.p2align 4,,15
  21              		.global	adcInit
  22              		.thumb
  23              		.thumb_func
  24              		.type	adcInit, %function
  25              	adcInit:
  26              	.LFB118:
  27              		.file 1 "../../../os/hal/src/adc.c"
  28              		.loc 1 61 0
  29              		.cfi_startproc
  30              		@ args = 0, pretend = 0, frame = 0
  31              		@ frame_needed = 0, uses_anonymous_args = 0
  32              		@ link register save eliminated.
  33              		.loc 1 63 0
  34 0000 FFF7FEBF 		b	adc_lld_init
  35              	.LVL0:
  36              		.cfi_endproc
  37              	.LFE118:
  38              		.size	adcInit, .-adcInit
  39 0004 AFF30080 		.section	.text.adcObjectInit,"ax",%progbits
  39      AFF30080 
  39      AFF30080 
  40              		.align	2
  41              		.p2align 4,,15
  42              		.global	adcObjectInit
  43              		.thumb
  44              		.thumb_func
  45              		.type	adcObjectInit, %function
  46              	adcObjectInit:
  47              	.LFB119:
  48              		.loc 1 73 0
  49              		.cfi_startproc
  50              		@ args = 0, pretend = 0, frame = 0
  51              		@ frame_needed = 0, uses_anonymous_args = 0
  52              		@ link register save eliminated.
  53              	.LVL1:
  54              		.loc 1 76 0
  55 0000 0023     		movs	r3, #0
ARM GAS  /tmp/ccAhl9xf.s 			page 2


  56              		.loc 1 75 0
  57 0002 0122     		movs	r2, #1
  58 0004 0270     		strb	r2, [r0]
  59              		.loc 1 76 0
  60 0006 4360     		str	r3, [r0, #4]
  61              		.loc 1 77 0
  62 0008 8360     		str	r3, [r0, #8]
  63              		.loc 1 78 0
  64 000a C360     		str	r3, [r0, #12]
  65              		.loc 1 79 0
  66 000c 0361     		str	r3, [r0, #16]
  67              		.loc 1 81 0
  68 000e 4361     		str	r3, [r0, #20]
  69              		.loc 1 85 0
  70 0010 1830     		adds	r0, r0, #24
  71              	.LVL2:
  72 0012 FFF7FEBF 		b	chMtxInit
  73              	.LVL3:
  74              		.cfi_endproc
  75              	.LFE119:
  76              		.size	adcObjectInit, .-adcObjectInit
  77 0016 00BFAFF3 		.section	.text.adcStart,"ax",%progbits
  77      0080AFF3 
  77      0080
  78              		.align	2
  79              		.p2align 4,,15
  80              		.global	adcStart
  81              		.thumb
  82              		.thumb_func
  83              		.type	adcStart, %function
  84              	adcStart:
  85              	.LFB120:
  86              		.loc 1 104 0
  87              		.cfi_startproc
  88              		@ args = 0, pretend = 0, frame = 0
  89              		@ frame_needed = 0, uses_anonymous_args = 0
  90              	.LVL4:
  91 0000 38B5     		push	{r3, r4, r5, lr}
  92              		.cfi_def_cfa_offset 16
  93              		.cfi_offset 3, -16
  94              		.cfi_offset 4, -12
  95              		.cfi_offset 5, -8
  96              		.cfi_offset 14, -4
  97              		.loc 1 106 0
  98 0002 0446     		mov	r4, r0
  99              		.loc 1 104 0
 100 0004 0D46     		mov	r5, r1
 101              		.loc 1 106 0
 102 0006 C0B1     		cbz	r0, .L7
 103              	.LVL5:
 104              	.L4:
 105              	.LBB2:
 106              		.loc 1 108 0
 107 0008 2023     		movs	r3, #32
 108              	@ 108 "../../../os/hal/src/adc.c" 1
 109 000a 83F31188 		msr     BASEPRI, r3
 110              	@ 0 "" 2
ARM GAS  /tmp/ccAhl9xf.s 			page 3


 111              		.thumb
 112              	.LBE2:
 113 000e FFF7FEFF 		bl	dbg_check_lock
 114              	.LVL6:
 115              		.loc 1 109 0
 116 0012 2378     		ldrb	r3, [r4]	@ zero_extendqisi2
 117 0014 013B     		subs	r3, r3, #1
 118 0016 DBB2     		uxtb	r3, r3
 119 0018 012B     		cmp	r3, #1
 120 001a 02D9     		bls	.L5
 121              		.loc 1 109 0 is_stmt 0 discriminator 1
 122 001c 0948     		ldr	r0, .L8
 123 001e FFF7FEFF 		bl	chDbgPanic
 124              	.LVL7:
 125              	.L5:
 126              		.loc 1 112 0 is_stmt 1
 127 0022 2046     		mov	r0, r4
 128              		.loc 1 111 0
 129 0024 6560     		str	r5, [r4, #4]
 130              		.loc 1 112 0
 131 0026 FFF7FEFF 		bl	adc_lld_start
 132              	.LVL8:
 133              		.loc 1 113 0
 134 002a 0223     		movs	r3, #2
 135 002c 2370     		strb	r3, [r4]
 136              		.loc 1 114 0
 137 002e FFF7FEFF 		bl	dbg_check_unlock
 138              	.LVL9:
 139              	.LBB3:
 140 0032 0023     		movs	r3, #0
 141              	@ 114 "../../../os/hal/src/adc.c" 1
 142 0034 83F31188 		msr     BASEPRI, r3
 143              	@ 0 "" 2
 144              		.thumb
 145 0038 38BD     		pop	{r3, r4, r5, pc}
 146              	.LVL10:
 147              	.L7:
 148              	.LBE3:
 149              		.loc 1 106 0 discriminator 1
 150 003a 0348     		ldr	r0, .L8+4
 151              	.LVL11:
 152 003c FFF7FEFF 		bl	chDbgPanic
 153              	.LVL12:
 154 0040 E2E7     		b	.L4
 155              	.L9:
 156 0042 00BF     		.align	2
 157              	.L8:
 158 0044 10000000 		.word	.LC1
 159 0048 00000000 		.word	.LC0
 160              		.cfi_endproc
 161              	.LFE120:
 162              		.size	adcStart, .-adcStart
 163 004c AFF30080 		.section	.text.adcStop,"ax",%progbits
 164              		.align	2
 165              		.p2align 4,,15
 166              		.global	adcStop
 167              		.thumb
ARM GAS  /tmp/ccAhl9xf.s 			page 4


 168              		.thumb_func
 169              		.type	adcStop, %function
 170              	adcStop:
 171              	.LFB121:
 172              		.loc 1 124 0
 173              		.cfi_startproc
 174              		@ args = 0, pretend = 0, frame = 0
 175              		@ frame_needed = 0, uses_anonymous_args = 0
 176              	.LVL13:
 177 0000 10B5     		push	{r4, lr}
 178              		.cfi_def_cfa_offset 8
 179              		.cfi_offset 4, -8
 180              		.cfi_offset 14, -4
 181              		.loc 1 126 0
 182 0002 0446     		mov	r4, r0
 183 0004 B8B1     		cbz	r0, .L13
 184              	.LVL14:
 185              	.L11:
 186              	.LBB4:
 187              		.loc 1 128 0
 188 0006 2023     		movs	r3, #32
 189              	@ 128 "../../../os/hal/src/adc.c" 1
 190 0008 83F31188 		msr     BASEPRI, r3
 191              	@ 0 "" 2
 192              		.thumb
 193              	.LBE4:
 194 000c FFF7FEFF 		bl	dbg_check_lock
 195              	.LVL15:
 196              		.loc 1 129 0
 197 0010 2378     		ldrb	r3, [r4]	@ zero_extendqisi2
 198 0012 013B     		subs	r3, r3, #1
 199 0014 DBB2     		uxtb	r3, r3
 200 0016 012B     		cmp	r3, #1
 201 0018 02D9     		bls	.L12
 202              		.loc 1 129 0 is_stmt 0 discriminator 1
 203 001a 0948     		ldr	r0, .L14
 204 001c FFF7FEFF 		bl	chDbgPanic
 205              	.LVL16:
 206              	.L12:
 207              		.loc 1 131 0 is_stmt 1
 208 0020 2046     		mov	r0, r4
 209 0022 FFF7FEFF 		bl	adc_lld_stop
 210              	.LVL17:
 211              		.loc 1 132 0
 212 0026 0123     		movs	r3, #1
 213 0028 2370     		strb	r3, [r4]
 214              		.loc 1 133 0
 215 002a FFF7FEFF 		bl	dbg_check_unlock
 216              	.LVL18:
 217              	.LBB5:
 218 002e 0023     		movs	r3, #0
 219              	@ 133 "../../../os/hal/src/adc.c" 1
 220 0030 83F31188 		msr     BASEPRI, r3
 221              	@ 0 "" 2
 222              		.thumb
 223 0034 10BD     		pop	{r4, pc}
 224              	.LVL19:
ARM GAS  /tmp/ccAhl9xf.s 			page 5


 225              	.L13:
 226              	.LBE5:
 227              		.loc 1 126 0 discriminator 1
 228 0036 0348     		ldr	r0, .L14+4
 229              	.LVL20:
 230 0038 FFF7FEFF 		bl	chDbgPanic
 231              	.LVL21:
 232 003c E3E7     		b	.L11
 233              	.L15:
 234 003e 00BF     		.align	2
 235              	.L14:
 236 0040 2C000000 		.word	.LC3
 237 0044 20000000 		.word	.LC2
 238              		.cfi_endproc
 239              	.LFE121:
 240              		.size	adcStop, .-adcStop
 241 0048 AFF30080 		.section	.text.adcStartConversionI,"ax",%progbits
 241      AFF30080 
 242              		.align	2
 243              		.p2align 4,,15
 244              		.global	adcStartConversionI
 245              		.thumb
 246              		.thumb_func
 247              		.type	adcStartConversionI, %function
 248              	adcStartConversionI:
 249              	.LFB123:
 250              		.loc 1 183 0
 251              		.cfi_startproc
 252              		@ args = 0, pretend = 0, frame = 0
 253              		@ frame_needed = 0, uses_anonymous_args = 0
 254              	.LVL22:
 255 0000 F8B5     		push	{r3, r4, r5, r6, r7, lr}
 256              		.cfi_def_cfa_offset 24
 257              		.cfi_offset 3, -24
 258              		.cfi_offset 4, -20
 259              		.cfi_offset 5, -16
 260              		.cfi_offset 6, -12
 261              		.cfi_offset 7, -8
 262              		.cfi_offset 14, -4
 263              		.loc 1 183 0
 264 0002 0446     		mov	r4, r0
 265 0004 0E46     		mov	r6, r1
 266 0006 1746     		mov	r7, r2
 267 0008 1D46     		mov	r5, r3
 268              		.loc 1 185 0
 269 000a FFF7FEFF 		bl	chDbgCheckClassI
 270              	.LVL23:
 271              		.loc 1 186 0
 272 000e CCB1     		cbz	r4, .L17
 273              		.loc 1 186 0 is_stmt 0 discriminator 2
 274 0010 C6B1     		cbz	r6, .L17
 275              		.loc 1 186 0 discriminator 1
 276 0012 BFB1     		cbz	r7, .L17
 277 0014 012D     		cmp	r5, #1
 278 0016 01D0     		beq	.L18
 279 0018 EB07     		lsls	r3, r5, #31
 280 001a 13D4     		bmi	.L17
ARM GAS  /tmp/ccAhl9xf.s 			page 6


 281              	.L18:
 282              		.loc 1 189 0 is_stmt 1
 283 001c 2378     		ldrb	r3, [r4]	@ zero_extendqisi2
 284 001e 022B     		cmp	r3, #2
 285 0020 06D0     		beq	.L19
 286              		.loc 1 189 0 is_stmt 0 discriminator 1
 287 0022 043B     		subs	r3, r3, #4
 288 0024 DBB2     		uxtb	r3, r3
 289 0026 012B     		cmp	r3, #1
 290 0028 02D9     		bls	.L19
 291 002a 0848     		ldr	r0, .L38
 292 002c FFF7FEFF 		bl	chDbgPanic
 293              	.LVL24:
 294              	.L19:
 295              		.loc 1 197 0 is_stmt 1
 296 0030 0323     		movs	r3, #3
 297              		.loc 1 194 0
 298 0032 A760     		str	r7, [r4, #8]
 299              		.loc 1 195 0
 300 0034 E560     		str	r5, [r4, #12]
 301              		.loc 1 196 0
 302 0036 2661     		str	r6, [r4, #16]
 303              		.loc 1 197 0
 304 0038 2370     		strb	r3, [r4]
 305              		.loc 1 198 0
 306 003a 2046     		mov	r0, r4
 307              		.loc 1 199 0
 308 003c BDE8F840 		pop	{r3, r4, r5, r6, r7, lr}
 309              	.LVL25:
 310              		.loc 1 198 0
 311 0040 FFF7FEBF 		b	adc_lld_start_conversion
 312              	.LVL26:
 313              	.L17:
 314              		.loc 1 186 0 discriminator 1
 315 0044 0248     		ldr	r0, .L38+4
 316 0046 FFF7FEFF 		bl	chDbgPanic
 317              	.LVL27:
 318 004a E7E7     		b	.L18
 319              	.L39:
 320              		.align	2
 321              	.L38:
 322 004c 54000000 		.word	.LC5
 323 0050 3C000000 		.word	.LC4
 324              		.cfi_endproc
 325              	.LFE123:
 326              		.size	adcStartConversionI, .-adcStartConversionI
 327 0054 AFF30080 		.section	.text.adcStartConversion,"ax",%progbits
 327      AFF30080 
 327      AFF30080 
 328              		.align	2
 329              		.p2align 4,,15
 330              		.global	adcStartConversion
 331              		.thumb
 332              		.thumb_func
 333              		.type	adcStartConversion, %function
 334              	adcStartConversion:
 335              	.LFB122:
ARM GAS  /tmp/ccAhl9xf.s 			page 7


 336              		.loc 1 155 0
 337              		.cfi_startproc
 338              		@ args = 0, pretend = 0, frame = 0
 339              		@ frame_needed = 0, uses_anonymous_args = 0
 340              	.LVL28:
 341 0000 F8B5     		push	{r3, r4, r5, r6, r7, lr}
 342              		.cfi_def_cfa_offset 24
 343              		.cfi_offset 3, -24
 344              		.cfi_offset 4, -20
 345              		.cfi_offset 5, -16
 346              		.cfi_offset 6, -12
 347              		.cfi_offset 7, -8
 348              		.cfi_offset 14, -4
 349              		.loc 1 155 0
 350 0002 1C46     		mov	r4, r3
 351 0004 0746     		mov	r7, r0
 352 0006 0E46     		mov	r6, r1
 353 0008 1546     		mov	r5, r2
 354              	.LBB6:
 355              		.loc 1 157 0
 356 000a 2023     		movs	r3, #32
 357              	.LVL29:
 358              	@ 157 "../../../os/hal/src/adc.c" 1
 359 000c 83F31188 		msr     BASEPRI, r3
 360              	@ 0 "" 2
 361              		.thumb
 362              	.LBE6:
 363 0010 FFF7FEFF 		bl	dbg_check_lock
 364              	.LVL30:
 365              		.loc 1 158 0
 366 0014 2346     		mov	r3, r4
 367 0016 3846     		mov	r0, r7
 368 0018 3146     		mov	r1, r6
 369 001a 2A46     		mov	r2, r5
 370 001c FFF7FEFF 		bl	adcStartConversionI
 371              	.LVL31:
 372              		.loc 1 159 0
 373 0020 FFF7FEFF 		bl	dbg_check_unlock
 374              	.LVL32:
 375              	.LBB7:
 376 0024 0023     		movs	r3, #0
 377              	@ 159 "../../../os/hal/src/adc.c" 1
 378 0026 83F31188 		msr     BASEPRI, r3
 379              	@ 0 "" 2
 380              		.thumb
 381 002a F8BD     		pop	{r3, r4, r5, r6, r7, pc}
 382              	.LBE7:
 383              		.cfi_endproc
 384              	.LFE122:
 385              		.size	adcStartConversion, .-adcStartConversion
 386 002c AFF30080 		.section	.text.adcStopConversion,"ax",%progbits
 387              		.align	2
 388              		.p2align 4,,15
 389              		.global	adcStopConversion
 390              		.thumb
 391              		.thumb_func
 392              		.type	adcStopConversion, %function
ARM GAS  /tmp/ccAhl9xf.s 			page 8


 393              	adcStopConversion:
 394              	.LFB124:
 395              		.loc 1 211 0
 396              		.cfi_startproc
 397              		@ args = 0, pretend = 0, frame = 0
 398              		@ frame_needed = 0, uses_anonymous_args = 0
 399              	.LVL33:
 400 0000 10B5     		push	{r4, lr}
 401              		.cfi_def_cfa_offset 8
 402              		.cfi_offset 4, -8
 403              		.cfi_offset 14, -4
 404              		.loc 1 213 0
 405 0002 0446     		mov	r4, r0
 406 0004 18B3     		cbz	r0, .L50
 407              	.LVL34:
 408              	.L42:
 409              	.LBB8:
 410              		.loc 1 215 0
 411 0006 2023     		movs	r3, #32
 412              	@ 215 "../../../os/hal/src/adc.c" 1
 413 0008 83F31188 		msr     BASEPRI, r3
 414              	@ 0 "" 2
 415              		.thumb
 416              	.LBE8:
 417 000c FFF7FEFF 		bl	dbg_check_lock
 418              	.LVL35:
 419              		.loc 1 216 0
 420 0010 2378     		ldrb	r3, [r4]	@ zero_extendqisi2
 421 0012 9A1E     		subs	r2, r3, #2
 422 0014 D2B2     		uxtb	r2, r2
 423 0016 012A     		cmp	r2, #1
 424 0018 03D9     		bls	.L43
 425              		.loc 1 216 0 is_stmt 0 discriminator 1
 426 001a 0F48     		ldr	r0, .L51
 427 001c FFF7FEFF 		bl	chDbgPanic
 428              	.LVL36:
 429 0020 2378     		ldrb	r3, [r4]	@ zero_extendqisi2
 430              	.L43:
 431              		.loc 1 219 0 is_stmt 1
 432 0022 022B     		cmp	r3, #2
 433 0024 0DD0     		beq	.L45
 434              		.loc 1 220 0
 435 0026 2046     		mov	r0, r4
 436 0028 FFF7FEFF 		bl	adc_lld_stop_conversion
 437              	.LVL37:
 438              		.loc 1 223 0
 439 002c 6069     		ldr	r0, [r4, #20]
 440              		.loc 1 221 0
 441 002e 0023     		movs	r3, #0
 442              		.loc 1 222 0
 443 0030 0222     		movs	r2, #2
 444              		.loc 1 221 0
 445 0032 2361     		str	r3, [r4, #16]
 446              		.loc 1 222 0
 447 0034 2270     		strb	r2, [r4]
 448              		.loc 1 223 0
 449 0036 20B1     		cbz	r0, .L45
ARM GAS  /tmp/ccAhl9xf.s 			page 9


 450              	.LVL38:
 451              	.LBB9:
 452              		.loc 1 223 0 is_stmt 0 discriminator 1
 453 0038 6361     		str	r3, [r4, #20]
 454 003a 6FF00101 		mvn	r1, #1
 455 003e FFF7FEFF 		bl	chSchWakeupS
 456              	.LVL39:
 457              	.L45:
 458              	.LBE9:
 459              		.loc 1 225 0 is_stmt 1
 460 0042 FFF7FEFF 		bl	dbg_check_unlock
 461              	.LVL40:
 462              	.LBB10:
 463 0046 0023     		movs	r3, #0
 464              	@ 225 "../../../os/hal/src/adc.c" 1
 465 0048 83F31188 		msr     BASEPRI, r3
 466              	@ 0 "" 2
 467              		.thumb
 468 004c 10BD     		pop	{r4, pc}
 469              	.LVL41:
 470              	.L50:
 471              	.LBE10:
 472              		.loc 1 213 0 discriminator 1
 473 004e 0348     		ldr	r0, .L51+4
 474              	.LVL42:
 475 0050 FFF7FEFF 		bl	chDbgPanic
 476              	.LVL43:
 477 0054 D7E7     		b	.L42
 478              	.L52:
 479 0056 00BF     		.align	2
 480              	.L51:
 481 0058 88000000 		.word	.LC7
 482 005c 70000000 		.word	.LC6
 483              		.cfi_endproc
 484              	.LFE124:
 485              		.size	adcStopConversion, .-adcStopConversion
 486              		.section	.text.adcStopConversionI,"ax",%progbits
 487              		.align	2
 488              		.p2align 4,,15
 489              		.global	adcStopConversionI
 490              		.thumb
 491              		.thumb_func
 492              		.type	adcStopConversionI, %function
 493              	adcStopConversionI:
 494              	.LFB125:
 495              		.loc 1 238 0
 496              		.cfi_startproc
 497              		@ args = 0, pretend = 0, frame = 0
 498              		@ frame_needed = 0, uses_anonymous_args = 0
 499              	.LVL44:
 500 0000 10B5     		push	{r4, lr}
 501              		.cfi_def_cfa_offset 8
 502              		.cfi_offset 4, -8
 503              		.cfi_offset 14, -4
 504              		.loc 1 238 0
 505 0002 0446     		mov	r4, r0
 506              		.loc 1 240 0
ARM GAS  /tmp/ccAhl9xf.s 			page 10


 507 0004 FFF7FEFF 		bl	chDbgCheckClassI
 508              	.LVL45:
 509              		.loc 1 241 0
 510 0008 F4B1     		cbz	r4, .L62
 511              	.L54:
 512              		.loc 1 242 0
 513 000a 2378     		ldrb	r3, [r4]	@ zero_extendqisi2
 514 000c 9A1E     		subs	r2, r3, #2
 515 000e D2B2     		uxtb	r2, r2
 516 0010 022A     		cmp	r2, #2
 517 0012 14D8     		bhi	.L63
 518              	.L55:
 519              		.loc 1 247 0
 520 0014 022B     		cmp	r3, #2
 521 0016 11D0     		beq	.L53
 522              		.loc 1 248 0
 523 0018 2046     		mov	r0, r4
 524 001a FFF7FEFF 		bl	adc_lld_stop_conversion
 525              	.LVL46:
 526              		.loc 1 251 0
 527 001e 6369     		ldr	r3, [r4, #20]
 528              		.loc 1 249 0
 529 0020 0022     		movs	r2, #0
 530              		.loc 1 250 0
 531 0022 0221     		movs	r1, #2
 532              		.loc 1 249 0
 533 0024 2261     		str	r2, [r4, #16]
 534              		.loc 1 250 0
 535 0026 2170     		strb	r1, [r4]
 536              		.loc 1 251 0
 537 0028 43B1     		cbz	r3, .L53
 538              	.LVL47:
 539              	.LBB11:
 540              		.loc 1 251 0 is_stmt 0 discriminator 1
 541 002a 6FF00101 		mvn	r1, #1
 542 002e 6261     		str	r2, [r4, #20]
 543 0030 9962     		str	r1, [r3, #40]
 544 0032 1846     		mov	r0, r3
 545              	.LBE11:
 546              		.loc 1 253 0 is_stmt 1 discriminator 1
 547 0034 BDE81040 		pop	{r4, lr}
 548              	.LVL48:
 549              	.LBB12:
 550              		.loc 1 251 0 discriminator 1
 551 0038 FFF7FEBF 		b	chSchReadyI
 552              	.LVL49:
 553              	.L53:
 554 003c 10BD     		pop	{r4, pc}
 555              	.LVL50:
 556              	.L63:
 557              	.LBE12:
 558              		.loc 1 242 0 discriminator 1
 559 003e 0448     		ldr	r0, .L64
 560 0040 FFF7FEFF 		bl	chDbgPanic
 561              	.LVL51:
 562 0044 2378     		ldrb	r3, [r4]	@ zero_extendqisi2
 563 0046 E5E7     		b	.L55
ARM GAS  /tmp/ccAhl9xf.s 			page 11


 564              	.L62:
 565              		.loc 1 241 0 discriminator 1
 566 0048 0248     		ldr	r0, .L64+4
 567 004a FFF7FEFF 		bl	chDbgPanic
 568              	.LVL52:
 569 004e DCE7     		b	.L54
 570              	.L65:
 571              		.align	2
 572              	.L64:
 573 0050 B8000000 		.word	.LC9
 574 0054 A0000000 		.word	.LC8
 575              		.cfi_endproc
 576              	.LFE125:
 577              		.size	adcStopConversionI, .-adcStopConversionI
 578 0058 AFF30080 		.section	.text.adcConvert,"ax",%progbits
 578      AFF30080 
 579              		.align	2
 580              		.p2align 4,,15
 581              		.global	adcConvert
 582              		.thumb
 583              		.thumb_func
 584              		.type	adcConvert, %function
 585              	adcConvert:
 586              	.LFB126:
 587              		.loc 1 282 0
 588              		.cfi_startproc
 589              		@ args = 0, pretend = 0, frame = 0
 590              		@ frame_needed = 0, uses_anonymous_args = 0
 591              	.LVL53:
 592 0000 2DE9F041 		push	{r4, r5, r6, r7, r8, lr}
 593              		.cfi_def_cfa_offset 24
 594              		.cfi_offset 4, -24
 595              		.cfi_offset 5, -20
 596              		.cfi_offset 6, -16
 597              		.cfi_offset 7, -12
 598              		.cfi_offset 8, -8
 599              		.cfi_offset 14, -4
 600              		.loc 1 282 0
 601 0004 1E46     		mov	r6, r3
 602 0006 0446     		mov	r4, r0
 603 0008 8846     		mov	r8, r1
 604 000a 1746     		mov	r7, r2
 605              	.LBB13:
 606              		.loc 1 285 0
 607 000c 2023     		movs	r3, #32
 608              	.LVL54:
 609              	@ 285 "../../../os/hal/src/adc.c" 1
 610 000e 83F31188 		msr     BASEPRI, r3
 611              	@ 0 "" 2
 612              		.thumb
 613              	.LBE13:
 614 0012 FFF7FEFF 		bl	dbg_check_lock
 615              	.LVL55:
 616              		.loc 1 286 0
 617 0016 6369     		ldr	r3, [r4, #20]
 618 0018 13B1     		cbz	r3, .L67
 619              		.loc 1 286 0 is_stmt 0 discriminator 1
ARM GAS  /tmp/ccAhl9xf.s 			page 12


 620 001a 0C48     		ldr	r0, .L71
 621 001c FFF7FEFF 		bl	chDbgPanic
 622              	.LVL56:
 623              	.L67:
 624              		.loc 1 288 0 is_stmt 1
 625 0020 0B4D     		ldr	r5, .L71+4
 626              		.loc 1 287 0
 627 0022 4146     		mov	r1, r8
 628 0024 3A46     		mov	r2, r7
 629 0026 3346     		mov	r3, r6
 630 0028 2046     		mov	r0, r4
 631 002a FFF7FEFF 		bl	adcStartConversionI
 632              	.LVL57:
 633              		.loc 1 288 0
 634 002e AB69     		ldr	r3, [r5, #24]
 635 0030 6361     		str	r3, [r4, #20]
 636              		.loc 1 289 0
 637 0032 0220     		movs	r0, #2
 638 0034 FFF7FEFF 		bl	chSchGoSleepS
 639              	.LVL58:
 640              		.loc 1 290 0
 641 0038 AB69     		ldr	r3, [r5, #24]
 642 003a 9C6A     		ldr	r4, [r3, #40]
 643              	.LVL59:
 644              		.loc 1 291 0
 645 003c FFF7FEFF 		bl	dbg_check_unlock
 646              	.LVL60:
 647              	.LBB14:
 648 0040 0023     		movs	r3, #0
 649              	@ 291 "../../../os/hal/src/adc.c" 1
 650 0042 83F31188 		msr     BASEPRI, r3
 651              	@ 0 "" 2
 652              		.thumb
 653              	.LBE14:
 654              		.loc 1 293 0
 655 0046 2046     		mov	r0, r4
 656 0048 BDE8F081 		pop	{r4, r5, r6, r7, r8, pc}
 657              	.LVL61:
 658              	.L72:
 659              		.align	2
 660              	.L71:
 661 004c D4000000 		.word	.LC10
 662 0050 00000000 		.word	rlist
 663              		.cfi_endproc
 664              	.LFE126:
 665              		.size	adcConvert, .-adcConvert
 666 0054 AFF30080 		.section	.text.adcAcquireBus,"ax",%progbits
 666      AFF30080 
 666      AFF30080 
 667              		.align	2
 668              		.p2align 4,,15
 669              		.global	adcAcquireBus
 670              		.thumb
 671              		.thumb_func
 672              		.type	adcAcquireBus, %function
 673              	adcAcquireBus:
 674              	.LFB127:
ARM GAS  /tmp/ccAhl9xf.s 			page 13


 675              		.loc 1 308 0
 676              		.cfi_startproc
 677              		@ args = 0, pretend = 0, frame = 0
 678              		@ frame_needed = 0, uses_anonymous_args = 0
 679              	.LVL62:
 680 0000 10B5     		push	{r4, lr}
 681              		.cfi_def_cfa_offset 8
 682              		.cfi_offset 4, -8
 683              		.cfi_offset 14, -4
 684              		.loc 1 310 0
 685 0002 0446     		mov	r4, r0
 686 0004 28B1     		cbz	r0, .L75
 687              		.loc 1 313 0
 688 0006 04F11800 		add	r0, r4, #24
 689              	.LVL63:
 690              		.loc 1 317 0
 691 000a BDE81040 		pop	{r4, lr}
 692              	.LVL64:
 693              		.loc 1 313 0
 694 000e FFF7FEBF 		b	chMtxLock
 695              	.LVL65:
 696              	.L75:
 697              		.loc 1 310 0 discriminator 1
 698 0012 0448     		ldr	r0, .L76
 699              	.LVL66:
 700 0014 FFF7FEFF 		bl	chDbgPanic
 701              	.LVL67:
 702              		.loc 1 313 0 discriminator 1
 703 0018 04F11800 		add	r0, r4, #24
 704              		.loc 1 317 0 discriminator 1
 705 001c BDE81040 		pop	{r4, lr}
 706              	.LVL68:
 707              		.loc 1 313 0 discriminator 1
 708 0020 FFF7FEBF 		b	chMtxLock
 709              	.LVL69:
 710              	.L77:
 711              		.align	2
 712              	.L76:
 713 0024 E8000000 		.word	.LC11
 714              		.cfi_endproc
 715              	.LFE127:
 716              		.size	adcAcquireBus, .-adcAcquireBus
 717 0028 AFF30080 		.section	.text.adcReleaseBus,"ax",%progbits
 717      AFF30080 
 718              		.align	2
 719              		.p2align 4,,15
 720              		.global	adcReleaseBus
 721              		.thumb
 722              		.thumb_func
 723              		.type	adcReleaseBus, %function
 724              	adcReleaseBus:
 725              	.LFB128:
 726              		.loc 1 328 0
 727              		.cfi_startproc
 728              		@ args = 0, pretend = 0, frame = 0
 729              		@ frame_needed = 0, uses_anonymous_args = 0
 730              	.LVL70:
ARM GAS  /tmp/ccAhl9xf.s 			page 14


 731 0000 08B5     		push	{r3, lr}
 732              		.cfi_def_cfa_offset 8
 733              		.cfi_offset 3, -8
 734              		.cfi_offset 14, -4
 735              		.loc 1 330 0
 736 0002 18B1     		cbz	r0, .L80
 737              		.loc 1 338 0
 738 0004 BDE80840 		pop	{r3, lr}
 739              		.loc 1 334 0
 740 0008 FFF7FEBF 		b	chMtxUnlock
 741              	.LVL71:
 742              	.L80:
 743              		.loc 1 330 0 discriminator 1
 744 000c 0348     		ldr	r0, .L81
 745              	.LVL72:
 746 000e FFF7FEFF 		bl	chDbgPanic
 747              	.LVL73:
 748              		.loc 1 338 0 discriminator 1
 749 0012 BDE80840 		pop	{r3, lr}
 750              		.loc 1 334 0 discriminator 1
 751 0016 FFF7FEBF 		b	chMtxUnlock
 752              	.LVL74:
 753              	.L82:
 754 001a 00BF     		.align	2
 755              	.L81:
 756 001c FC000000 		.word	.LC12
 757              		.cfi_endproc
 758              	.LFE128:
 759              		.size	adcReleaseBus, .-adcReleaseBus
 760              		.section	.rodata.str1.4,"aMS",%progbits,1
 761              		.align	2
 762              	.LC0:
 763 0000 22616463 		.ascii	"\"adcStart\"()\000"
 763      53746172 
 763      74222829 
 763      00
 764 000d 000000   		.space	3
 765              	.LC1:
 766 0010 61646353 		.ascii	"adcStart(), #1\000"
 766      74617274 
 766      28292C20 
 766      233100
 767 001f 00       		.space	1
 768              	.LC2:
 769 0020 22616463 		.ascii	"\"adcStop\"()\000"
 769      53746F70 
 769      22282900 
 770              	.LC3:
 771 002c 61646353 		.ascii	"adcStop(), #1\000"
 771      746F7028 
 771      292C2023 
 771      3100
 772 003a 0000     		.space	2
 773              	.LC4:
 774 003c 22616463 		.ascii	"\"adcStartConversionI\"()\000"
 774      53746172 
 774      74436F6E 
ARM GAS  /tmp/ccAhl9xf.s 			page 15


 774      76657273 
 774      696F6E49 
 775              	.LC5:
 776 0054 61646353 		.ascii	"adcStartConversionI(), #1\000"
 776      74617274 
 776      436F6E76 
 776      65727369 
 776      6F6E4928 
 777 006e 0000     		.space	2
 778              	.LC6:
 779 0070 22616463 		.ascii	"\"adcStopConversion\"()\000"
 779      53746F70 
 779      436F6E76 
 779      65727369 
 779      6F6E2228 
 780 0086 0000     		.space	2
 781              	.LC7:
 782 0088 61646353 		.ascii	"adcStopConversion(), #1\000"
 782      746F7043 
 782      6F6E7665 
 782      7273696F 
 782      6E28292C 
 783              	.LC8:
 784 00a0 22616463 		.ascii	"\"adcStopConversionI\"()\000"
 784      53746F70 
 784      436F6E76 
 784      65727369 
 784      6F6E4922 
 785 00b7 00       		.space	1
 786              	.LC9:
 787 00b8 61646353 		.ascii	"adcStopConversionI(), #1\000"
 787      746F7043 
 787      6F6E7665 
 787      7273696F 
 787      6E492829 
 788 00d1 000000   		.space	3
 789              	.LC10:
 790 00d4 61646343 		.ascii	"adcConvert(), #1\000"
 790      6F6E7665 
 790      72742829 
 790      2C202331 
 790      00
 791 00e5 000000   		.space	3
 792              	.LC11:
 793 00e8 22616463 		.ascii	"\"adcAcquireBus\"()\000"
 793      41637175 
 793      69726542 
 793      75732228 
 793      2900
 794 00fa 0000     		.space	2
 795              	.LC12:
 796 00fc 22616463 		.ascii	"\"adcReleaseBus\"()\000"
 796      52656C65 
 796      61736542 
 796      75732228 
 796      2900
 797 010e 0000     		.text
ARM GAS  /tmp/ccAhl9xf.s 			page 16


 798              	.Letext0:
 799              		.file 2 "/usr/lib/gcc/arm-none-eabi/4.8.3/include/stddef.h"
 800              		.file 3 "/usr/arm-none-eabi/include/stdint.h"
 801              		.file 4 "../../../os/ports/GCC/ARMCMx/chtypes.h"
 802              		.file 5 "../../../os/kernel/include/chlists.h"
 803              		.file 6 "../../../os/kernel/include/chthreads.h"
 804              		.file 7 "../../../os/ports/GCC/ARMCMx/chcore_v7m.h"
 805              		.file 8 "../../../os/kernel/include/chschd.h"
 806              		.file 9 "../../../os/kernel/include/chmtx.h"
 807              		.file 10 "../../../os/hal/platforms/STM32F30x/stm32f30x.h"
 808              		.file 11 "../../../os/hal/platforms/STM32F30x/stm32_dma.h"
 809              		.file 12 "../../../os/hal/include/adc.h"
 810              		.file 13 "../../../os/hal/platforms/STM32F30x/adc_lld.h"
 811              		.file 14 "../../../os/ports/common/ARMCMx/CMSIS/include/core_cm4.h"
 812              		.file 15 "../../../os/kernel/include/chdebug.h"