ARM GAS  /tmp/ccJT3NdE.s 			page 1


   1              		.syntax unified
   2              		.cpu cortex-m4
   3              		.fpu softvfp
   4              		.eabi_attribute 20, 1
   5              		.eabi_attribute 21, 1
   6              		.eabi_attribute 23, 3
   7              		.eabi_attribute 24, 1
   8              		.eabi_attribute 25, 1
   9              		.eabi_attribute 26, 1
  10              		.eabi_attribute 30, 2
  11              		.eabi_attribute 34, 1
  12              		.eabi_attribute 18, 4
  13              		.thumb
  14              		.file	"main.c"
  15              		.text
  16              	.Ltext0:
  17              		.cfi_sections	.debug_frame
  18              		.section	.text.adccallback,"ax",%progbits
  19              		.align	2
  20              		.p2align 4,,15
  21              		.thumb
  22              		.thumb_func
  23              		.type	adccallback, %function
  24              	adccallback:
  25              	.LFB119:
  26              		.file 1 "main.c"
  27              		.loc 1 40 0
  28              		.cfi_startproc
  29              		@ args = 0, pretend = 0, frame = 0
  30              		@ frame_needed = 0, uses_anonymous_args = 0
  31              		@ link register save eliminated.
  32              	.LVL0:
  33              		.loc 1 43 0
  34 0000 044B     		ldr	r3, .L4
  35 0002 8B42     		cmp	r3, r1
  36              		.loc 1 44 0
  37 0004 0CBF     		ite	eq
  38 0006 044B     		ldreq	r3, .L4+4
  39              		.loc 1 47 0
  40 0008 044B     		ldrne	r3, .L4+8
  41 000a 1968     		ldr	r1, [r3]
  42              	.LVL1:
  43 000c 0A44     		add	r2, r2, r1
  44              	.LVL2:
  45 000e 1A60     		str	r2, [r3]
  46 0010 7047     		bx	lr
  47              	.L5:
  48 0012 00BF     		.align	2
  49              	.L4:
  50 0014 00000000 		.word	.LANCHOR0
  51 0018 00000000 		.word	.LANCHOR1
  52 001c 00000000 		.word	.LANCHOR2
  53              		.cfi_endproc
  54              	.LFE119:
  55              		.size	adccallback, .-adccallback
  56              		.section	.text.adcerrorcallback,"ax",%progbits
  57              		.align	2
ARM GAS  /tmp/ccJT3NdE.s 			page 2


  58              		.p2align 4,,15
  59              		.thumb
  60              		.thumb_func
  61              		.type	adcerrorcallback, %function
  62              	adcerrorcallback:
  63              	.LFB120:
  64              		.loc 1 51 0
  65              		.cfi_startproc
  66              		@ args = 0, pretend = 0, frame = 0
  67              		@ frame_needed = 0, uses_anonymous_args = 0
  68              		@ link register save eliminated.
  69              	.LVL3:
  70 0000 7047     		bx	lr
  71              		.cfi_endproc
  72              	.LFE120:
  73              		.size	adcerrorcallback, .-adcerrorcallback
  74 0002 00BFAFF3 		.section	.text.get_descriptor,"ax",%progbits
  74      0080AFF3 
  74      0080AFF3 
  74      0080
  75              		.align	2
  76              		.p2align 4,,15
  77              		.thumb
  78              		.thumb_func
  79              		.type	get_descriptor, %function
  80              	get_descriptor:
  81              	.LFB121:
  82              		.loc 1 305 0
  83              		.cfi_startproc
  84              		@ args = 0, pretend = 0, frame = 0
  85              		@ frame_needed = 0, uses_anonymous_args = 0
  86              		@ link register save eliminated.
  87              	.LVL4:
  88              		.loc 1 309 0
  89 0000 0229     		cmp	r1, #2
  90 0002 06D0     		beq	.L12
  91 0004 0329     		cmp	r1, #3
  92 0006 06D0     		beq	.L10
  93              		.loc 1 318 0
  94 0008 0748     		ldr	r0, .L15
  95              	.LVL5:
  96              		.loc 1 309 0
  97 000a 0129     		cmp	r1, #1
  98              		.loc 1 318 0
  99 000c 18BF     		it	ne
 100 000e 0020     		movne	r0, #0
 101 0010 7047     		bx	lr
 102              	.LVL6:
 103              	.L12:
 104              		.loc 1 313 0
 105 0012 0648     		ldr	r0, .L15+4
 106              	.LVL7:
 107 0014 7047     		bx	lr
 108              	.LVL8:
 109              	.L10:
 110              		.loc 1 315 0
 111 0016 032A     		cmp	r2, #3
ARM GAS  /tmp/ccJT3NdE.s 			page 3


 112 0018 03D8     		bhi	.L13
 113              		.loc 1 316 0
 114 001a 0548     		ldr	r0, .L15+8
 115              	.LVL9:
 116 001c 00EBC200 		add	r0, r0, r2, lsl #3
 117 0020 7047     		bx	lr
 118              	.LVL10:
 119              	.L13:
 120              		.loc 1 318 0
 121 0022 0020     		movs	r0, #0
 122              	.LVL11:
 123              		.loc 1 319 0
 124 0024 7047     		bx	lr
 125              	.L16:
 126 0026 00BF     		.align	2
 127              	.L15:
 128 0028 00000000 		.word	.LANCHOR3
 129 002c 00000000 		.word	.LANCHOR4
 130 0030 00000000 		.word	.LANCHOR5
 131              		.cfi_endproc
 132              	.LFE121:
 133              		.size	get_descriptor, .-get_descriptor
 134 0034 AFF30080 		.section	.text.Thread1,"ax",%progbits
 134      AFF30080 
 134      AFF30080 
 135              		.align	2
 136              		.p2align 4,,15
 137              		.thumb
 138              		.thumb_func
 139              		.type	Thread1, %function
 140              	Thread1:
 141              	.LFB127:
 142              		.loc 1 529 0
 143              		.cfi_startproc
 144              		@ Volatile: function does not return.
 145              		@ args = 0, pretend = 0, frame = 0
 146              		@ frame_needed = 0, uses_anonymous_args = 0
 147              	.LVL12:
 148 0000 08B5     		push	{r3, lr}
 149              		.cfi_def_cfa_offset 8
 150              		.cfi_offset 3, -8
 151              		.cfi_offset 14, -4
 152              		.loc 1 532 0
 153 0002 094B     		ldr	r3, .L19
 154 0004 094A     		ldr	r2, .L19+4
 155 0006 9B69     		ldr	r3, [r3, #24]
 156              		.loc 1 534 0
 157 0008 094C     		ldr	r4, .L19+8
 158              		.loc 1 532 0
 159 000a 9A61     		str	r2, [r3, #24]
 160              		.loc 1 534 0
 161 000c 4FF40055 		mov	r5, #8192
 162 0010 2E46     		mov	r6, r5	@ movhi
 163              	.LVL13:
 164              	.L18:
 165              		.loc 1 534 0 is_stmt 0 discriminator 1
 166 0012 2683     		strh	r6, [r4, #24]	@ movhi
ARM GAS  /tmp/ccJT3NdE.s 			page 4


 167              		.loc 1 535 0 is_stmt 1 discriminator 1
 168 0014 4FF4FA70 		mov	r0, #500
 169 0018 FFF7FEFF 		bl	chThdSleep
 170              	.LVL14:
 171              		.loc 1 536 0 discriminator 1
 172 001c 6583     		strh	r5, [r4, #26]	@ movhi
 173              		.loc 1 537 0 discriminator 1
 174 001e 4FF4FA70 		mov	r0, #500
 175 0022 FFF7FEFF 		bl	chThdSleep
 176              	.LVL15:
 177 0026 F4E7     		b	.L18
 178              	.L20:
 179              		.align	2
 180              	.L19:
 181 0028 00000000 		.word	rlist
 182 002c 00000000 		.word	.LC0
 183 0030 00100048 		.word	1207963648
 184              		.cfi_endproc
 185              	.LFE127:
 186              		.size	Thread1, .-Thread1
 187 0034 AFF30080 		.section	.text.usb_event,"ax",%progbits
 187      AFF30080 
 187      AFF30080 
 188              		.align	2
 189              		.p2align 4,,15
 190              		.thumb
 191              		.thumb_func
 192              		.type	usb_event, %function
 193              	usb_event:
 194              	.LFB122:
 195              		.loc 1 371 0
 196              		.cfi_startproc
 197              		@ args = 0, pretend = 0, frame = 0
 198              		@ frame_needed = 0, uses_anonymous_args = 0
 199              	.LVL16:
 200              		.loc 1 373 0
 201 0000 0229     		cmp	r1, #2
 202              		.loc 1 371 0
 203 0002 10B5     		push	{r4, lr}
 204              		.cfi_def_cfa_offset 8
 205              		.cfi_offset 4, -8
 206              		.cfi_offset 14, -4
 207              		.loc 1 371 0
 208 0004 0446     		mov	r4, r0
 209              		.loc 1 373 0
 210 0006 16D1     		bne	.L21
 211              	.LVL17:
 212              	.LBB8:
 213              	.LBB9:
 214              	.LBB10:
 215              		.loc 1 379 0
 216 0008 2023     		movs	r3, #32
 217              	@ 379 "main.c" 1
 218 000a 83F31188 		msr     BASEPRI, r3
 219              	@ 0 "" 2
 220              		.thumb
 221              	.LBE10:
ARM GAS  /tmp/ccJT3NdE.s 			page 5


 222 000e FFF7FEFF 		bl	dbg_check_lock_from_isr
 223              	.LVL18:
 224              		.loc 1 384 0
 225 0012 2046     		mov	r0, r4
 226 0014 0121     		movs	r1, #1
 227 0016 084A     		ldr	r2, .L24
 228 0018 FFF7FEFF 		bl	usbInitEndpointI
 229              	.LVL19:
 230              		.loc 1 385 0
 231 001c 0221     		movs	r1, #2
 232 001e 074A     		ldr	r2, .L24+4
 233 0020 2046     		mov	r0, r4
 234 0022 FFF7FEFF 		bl	usbInitEndpointI
 235              	.LVL20:
 236              		.loc 1 388 0
 237 0026 0648     		ldr	r0, .L24+8
 238 0028 FFF7FEFF 		bl	sduConfigureHookI
 239              	.LVL21:
 240              		.loc 1 390 0
 241 002c FFF7FEFF 		bl	dbg_check_unlock_from_isr
 242              	.LVL22:
 243              	.LBB11:
 244 0030 0023     		movs	r3, #0
 245              	@ 390 "main.c" 1
 246 0032 83F31188 		msr     BASEPRI, r3
 247              	@ 0 "" 2
 248              	.LVL23:
 249              		.thumb
 250              	.L21:
 251 0036 10BD     		pop	{r4, pc}
 252              	.LVL24:
 253              	.L25:
 254              		.align	2
 255              	.L24:
 256 0038 00000000 		.word	.LANCHOR6
 257 003c 00000000 		.word	.LANCHOR7
 258 0040 00000000 		.word	.LANCHOR8
 259              	.LBE11:
 260              	.LBE9:
 261              	.LBE8:
 262              		.cfi_endproc
 263              	.LFE122:
 264              		.size	usb_event, .-usb_event
 265 0044 AFF30080 		.section	.text.startup.main,"ax",%progbits
 265      AFF30080 
 265      AFF30080 
 266              		.align	2
 267              		.p2align 4,,15
 268              		.global	main
 269              		.thumb
 270              		.thumb_func
 271              		.type	main, %function
 272              	main:
 273              	.LFB128:
 274              		.loc 1 545 0
 275              		.cfi_startproc
 276              		@ Volatile: function does not return.
ARM GAS  /tmp/ccJT3NdE.s 			page 6


 277              		@ args = 0, pretend = 0, frame = 0
 278              		@ frame_needed = 0, uses_anonymous_args = 0
 279 0000 00B5     		push	{lr}
 280              		.cfi_def_cfa_offset 4
 281              		.cfi_offset 14, -4
 282 0002 83B0     		sub	sp, sp, #12
 283              		.cfi_def_cfa_offset 16
 284              		.loc 1 554 0
 285 0004 FFF7FEFF 		bl	halInit
 286              	.LVL25:
 287              		.loc 1 555 0
 288 0008 FFF7FEFF 		bl	chSysInit
 289              	.LVL26:
 290              		.loc 1 560 0
 291 000c 2048     		ldr	r0, .L32
 292 000e FFF7FEFF 		bl	sduObjectInit
 293              	.LVL27:
 294              		.loc 1 561 0
 295 0012 2049     		ldr	r1, .L32+4
 296 0014 1E48     		ldr	r0, .L32
 297 0016 FFF7FEFF 		bl	sduStart
 298              	.LVL28:
 299              		.loc 1 569 0
 300 001a 40F2DC50 		movw	r0, #1500
 301 001e FFF7FEFF 		bl	chThdSleep
 302              	.LVL29:
 303              		.loc 1 570 0
 304 0022 1D48     		ldr	r0, .L32+8
 305 0024 1D49     		ldr	r1, .L32+12
 306 0026 FFF7FEFF 		bl	usbStart
 307              	.LVL30:
 308              		.loc 1 587 0
 309 002a 0024     		movs	r4, #0
 310              		.loc 1 576 0
 311 002c FFF7FEFF 		bl	shellInit
 312              	.LVL31:
 313              		.loc 1 581 0
 314 0030 1B48     		ldr	r0, .L32+16
 315 0032 0621     		movs	r1, #6
 316 0034 0322     		movs	r2, #3
 317 0036 FFF7FEFF 		bl	_pal_lld_setgroupmode
 318              	.LVL32:
 319              		.loc 1 587 0
 320 003a 1A4B     		ldr	r3, .L32+20
 321 003c 0094     		str	r4, [sp]
 322 003e 4022     		movs	r2, #64
 323 0040 4FF49871 		mov	r1, #304
 324 0044 1848     		ldr	r0, .L32+24
 325 0046 FFF7FEFF 		bl	chThdCreateStatic
 326              	.LVL33:
 327              		.loc 1 592 0
 328 004a 2146     		mov	r1, r4
 329 004c 1748     		ldr	r0, .L32+28
 330 004e FFF7FEFF 		bl	adcStart
 331              	.LVL34:
 332              		.loc 1 597 0
 333 0052 1749     		ldr	r1, .L32+32
ARM GAS  /tmp/ccJT3NdE.s 			page 7


 334 0054 174A     		ldr	r2, .L32+36
 335 0056 1548     		ldr	r0, .L32+28
 336 0058 0823     		movs	r3, #8
 337 005a FFF7FEFF 		bl	adcConvert
 338              	.LVL35:
 339              		.loc 1 598 0
 340 005e 4FF47A70 		mov	r0, #1000
 341 0062 FFF7FEFF 		bl	chThdSleep
 342              	.LVL36:
 343              		.loc 1 603 0
 344 0066 1148     		ldr	r0, .L32+28
 345 0068 1349     		ldr	r1, .L32+40
 346 006a 144A     		ldr	r2, .L32+44
 347 006c 1023     		movs	r3, #16
 348 006e FFF7FEFF 		bl	adcStartConversion
 349              	.LVL37:
 350              		.loc 1 609 0
 351 0072 4FF09044 		mov	r4, #1207959552
 352 0076 03E0     		b	.L28
 353              	.L27:
 354              		.loc 1 612 0
 355 0078 4FF4FA70 		mov	r0, #500
 356 007c FFF7FEFF 		bl	chThdSleep
 357              	.LVL38:
 358              	.L28:
 359              		.loc 1 609 0
 360 0080 2369     		ldr	r3, [r4, #16]
 361 0082 DB07     		lsls	r3, r3, #31
 362 0084 F8D5     		bpl	.L27
 363              		.loc 1 610 0
 364 0086 0948     		ldr	r0, .L32+28
 365 0088 FFF7FEFF 		bl	adcStopConversion
 366              	.LVL39:
 367 008c F4E7     		b	.L27
 368              	.L33:
 369 008e 00BF     		.align	2
 370              	.L32:
 371 0090 00000000 		.word	.LANCHOR8
 372 0094 00000000 		.word	.LANCHOR9
 373 0098 00000000 		.word	USBD1
 374 009c 00000000 		.word	.LANCHOR10
 375 00a0 00080048 		.word	1207961600
 376 00a4 00000000 		.word	Thread1
 377 00a8 00000000 		.word	.LANCHOR11
 378 00ac 00000000 		.word	ADCD1
 379 00b0 00000000 		.word	.LANCHOR12
 380 00b4 00000000 		.word	.LANCHOR13
 381 00b8 00000000 		.word	.LANCHOR14
 382 00bc 00000000 		.word	.LANCHOR0
 383              		.cfi_endproc
 384              	.LFE128:
 385              		.size	main, .-main
 386              		.global	ny
 387              		.global	nx
 388              		.section	.rodata.vcom_configuration_descriptor_data,"a",%progbits
 389              		.align	2
 390              		.type	vcom_configuration_descriptor_data, %object
ARM GAS  /tmp/ccJT3NdE.s 			page 8


 391              		.size	vcom_configuration_descriptor_data, 67
 392              	vcom_configuration_descriptor_data:
 393 0000 09       		.byte	9
 394 0001 02       		.byte	2
 395 0002 43       		.byte	67
 396 0003 00       		.byte	0
 397 0004 02       		.byte	2
 398 0005 01       		.byte	1
 399 0006 00       		.byte	0
 400 0007 C0       		.byte	-64
 401 0008 32       		.byte	50
 402 0009 09       		.byte	9
 403 000a 04       		.byte	4
 404 000b 00       		.byte	0
 405 000c 00       		.byte	0
 406 000d 01       		.byte	1
 407 000e 02       		.byte	2
 408 000f 02       		.byte	2
 409 0010 01       		.byte	1
 410 0011 00       		.byte	0
 411 0012 05       		.byte	5
 412 0013 24       		.byte	36
 413 0014 00       		.byte	0
 414 0015 10       		.byte	16
 415 0016 01       		.byte	1
 416 0017 05       		.byte	5
 417 0018 24       		.byte	36
 418 0019 01       		.byte	1
 419 001a 00       		.byte	0
 420 001b 01       		.byte	1
 421 001c 04       		.byte	4
 422 001d 24       		.byte	36
 423 001e 02       		.byte	2
 424 001f 02       		.byte	2
 425 0020 05       		.byte	5
 426 0021 24       		.byte	36
 427 0022 06       		.byte	6
 428 0023 00       		.byte	0
 429 0024 01       		.byte	1
 430 0025 07       		.byte	7
 431 0026 05       		.byte	5
 432 0027 82       		.byte	-126
 433 0028 03       		.byte	3
 434 0029 08       		.byte	8
 435 002a 00       		.byte	0
 436 002b FF       		.byte	-1
 437 002c 09       		.byte	9
 438 002d 04       		.byte	4
 439 002e 01       		.byte	1
 440 002f 00       		.byte	0
 441 0030 02       		.byte	2
 442 0031 0A       		.byte	10
 443 0032 00       		.byte	0
 444 0033 00       		.byte	0
 445 0034 00       		.byte	0
 446 0035 07       		.byte	7
 447 0036 05       		.byte	5
ARM GAS  /tmp/ccJT3NdE.s 			page 9


 448 0037 01       		.byte	1
 449 0038 02       		.byte	2
 450 0039 40       		.byte	64
 451 003a 00       		.byte	0
 452 003b 00       		.byte	0
 453 003c 07       		.byte	7
 454 003d 05       		.byte	5
 455 003e 81       		.byte	-127
 456 003f 02       		.byte	2
 457 0040 40       		.byte	64
 458 0041 00       		.byte	0
 459 0042 00       		.byte	0
 460 0043 00       		.section	.rodata.vcom_string0,"a",%progbits
 461              		.align	2
 462              		.type	vcom_string0, %object
 463              		.size	vcom_string0, 4
 464              	vcom_string0:
 465 0000 04       		.byte	4
 466 0001 03       		.byte	3
 467 0002 09       		.byte	9
 468 0003 04       		.byte	4
 469              		.section	.rodata.ep2config,"a",%progbits
 470              		.align	2
 471              		.set	.LANCHOR7,. + 0
 472              		.type	ep2config, %object
 473              		.size	ep2config, 36
 474              	ep2config:
 475 0000 03000000 		.word	3
 476 0004 00000000 		.word	0
 477 0008 00000000 		.word	sduInterruptTransmitted
 478 000c 00000000 		.word	0
 479 0010 1000     		.short	16
 480 0012 0000     		.short	0
 481 0014 00000000 		.word	ep2instate
 482 0018 00000000 		.word	0
 483 001c 0100     		.short	1
 484 001e 0000     		.space	2
 485 0020 00000000 		.word	0
 486              		.section	.rodata.vcom_string2,"a",%progbits
 487              		.align	2
 488              		.type	vcom_string2, %object
 489              		.size	vcom_string2, 56
 490              	vcom_string2:
 491 0000 38       		.byte	56
 492 0001 03       		.byte	3
 493 0002 43       		.byte	67
 494 0003 00       		.byte	0
 495 0004 68       		.byte	104
 496 0005 00       		.byte	0
 497 0006 69       		.byte	105
 498 0007 00       		.byte	0
 499 0008 62       		.byte	98
 500 0009 00       		.byte	0
 501 000a 69       		.byte	105
 502 000b 00       		.byte	0
 503 000c 4F       		.byte	79
 504 000d 00       		.byte	0
ARM GAS  /tmp/ccJT3NdE.s 			page 10


 505 000e 53       		.byte	83
 506 000f 00       		.byte	0
 507 0010 2F       		.byte	47
 508 0011 00       		.byte	0
 509 0012 52       		.byte	82
 510 0013 00       		.byte	0
 511 0014 54       		.byte	84
 512 0015 00       		.byte	0
 513 0016 20       		.byte	32
 514 0017 00       		.byte	0
 515 0018 56       		.byte	86
 516 0019 00       		.byte	0
 517 001a 69       		.byte	105
 518 001b 00       		.byte	0
 519 001c 72       		.byte	114
 520 001d 00       		.byte	0
 521 001e 74       		.byte	116
 522 001f 00       		.byte	0
 523 0020 75       		.byte	117
 524 0021 00       		.byte	0
 525 0022 61       		.byte	97
 526 0023 00       		.byte	0
 527 0024 6C       		.byte	108
 528 0025 00       		.byte	0
 529 0026 20       		.byte	32
 530 0027 00       		.byte	0
 531 0028 43       		.byte	67
 532 0029 00       		.byte	0
 533 002a 4F       		.byte	79
 534 002b 00       		.byte	0
 535 002c 4D       		.byte	77
 536 002d 00       		.byte	0
 537 002e 20       		.byte	32
 538 002f 00       		.byte	0
 539 0030 50       		.byte	80
 540 0031 00       		.byte	0
 541 0032 6F       		.byte	111
 542 0033 00       		.byte	0
 543 0034 72       		.byte	114
 544 0035 00       		.byte	0
 545 0036 74       		.byte	116
 546 0037 00       		.byte	0
 547              		.section	.rodata.vcom_string3,"a",%progbits
 548              		.align	2
 549              		.type	vcom_string3, %object
 550              		.size	vcom_string3, 8
 551              	vcom_string3:
 552 0000 08       		.byte	8
 553 0001 03       		.byte	3
 554 0002 32       		.byte	50
 555 0003 00       		.byte	0
 556 0004 37       		.byte	55
 557 0005 00       		.byte	0
 558 0006 30       		.byte	48
 559 0007 00       		.byte	0
 560              		.section	.rodata.vcom_string1,"a",%progbits
 561              		.align	2
ARM GAS  /tmp/ccJT3NdE.s 			page 11


 562              		.type	vcom_string1, %object
 563              		.size	vcom_string1, 38
 564              	vcom_string1:
 565 0000 26       		.byte	38
 566 0001 03       		.byte	3
 567 0002 53       		.byte	83
 568 0003 00       		.byte	0
 569 0004 54       		.byte	84
 570 0005 00       		.byte	0
 571 0006 4D       		.byte	77
 572 0007 00       		.byte	0
 573 0008 69       		.byte	105
 574 0009 00       		.byte	0
 575 000a 63       		.byte	99
 576 000b 00       		.byte	0
 577 000c 72       		.byte	114
 578 000d 00       		.byte	0
 579 000e 6F       		.byte	111
 580 000f 00       		.byte	0
 581 0010 65       		.byte	101
 582 0011 00       		.byte	0
 583 0012 6C       		.byte	108
 584 0013 00       		.byte	0
 585 0014 65       		.byte	101
 586 0015 00       		.byte	0
 587 0016 63       		.byte	99
 588 0017 00       		.byte	0
 589 0018 74       		.byte	116
 590 0019 00       		.byte	0
 591 001a 72       		.byte	114
 592 001b 00       		.byte	0
 593 001c 6F       		.byte	111
 594 001d 00       		.byte	0
 595 001e 6E       		.byte	110
 596 001f 00       		.byte	0
 597 0020 69       		.byte	105
 598 0021 00       		.byte	0
 599 0022 63       		.byte	99
 600 0023 00       		.byte	0
 601 0024 73       		.byte	115
 602 0025 00       		.byte	0
 603 0026 0000     		.section	.rodata.vcom_strings,"a",%progbits
 604              		.align	2
 605              		.set	.LANCHOR5,. + 0
 606              		.type	vcom_strings, %object
 607              		.size	vcom_strings, 32
 608              	vcom_strings:
 609 0000 04000000 		.word	4
 610 0004 00000000 		.word	vcom_string0
 611 0008 26000000 		.word	38
 612 000c 00000000 		.word	vcom_string1
 613 0010 38000000 		.word	56
 614 0014 00000000 		.word	vcom_string2
 615 0018 08000000 		.word	8
 616 001c 00000000 		.word	vcom_string3
 617              		.section	.rodata.vcom_device_descriptor,"a",%progbits
 618              		.align	2
ARM GAS  /tmp/ccJT3NdE.s 			page 12


 619              		.set	.LANCHOR3,. + 0
 620              		.type	vcom_device_descriptor, %object
 621              		.size	vcom_device_descriptor, 8
 622              	vcom_device_descriptor:
 623 0000 12000000 		.word	18
 624 0004 00000000 		.word	vcom_device_descriptor_data
 625              		.section	.rodata.adcgrpcfg1,"a",%progbits
 626              		.align	2
 627              		.set	.LANCHOR12,. + 0
 628              		.type	adcgrpcfg1, %object
 629              		.size	adcgrpcfg1, 48
 630              	adcgrpcfg1:
 631 0000 00       		.byte	0
 632 0001 00       		.space	1
 633 0002 0200     		.short	2
 634 0004 00000000 		.word	0
 635 0008 00000000 		.word	adcerrorcallback
 636 000c 00000000 		.word	0
 637 0010 0000FF0F 		.word	268369920
 638 0014 00000000 		.word	0
 639 0018 00000000 		.word	0
 640 001c 00000000 		.word	0
 641 0020 C0810000 		.word	33216
 642 0024 00000000 		.word	0
 643 0028 00000000 		.word	0
 644 002c 00000000 		.word	0
 645              		.section	.rodata.adcgrpcfg2,"a",%progbits
 646              		.align	2
 647              		.set	.LANCHOR14,. + 0
 648              		.type	adcgrpcfg2, %object
 649              		.size	adcgrpcfg2, 48
 650              	adcgrpcfg2:
 651 0000 01       		.byte	1
 652 0001 00       		.space	1
 653 0002 0800     		.short	8
 654 0004 00000000 		.word	adccallback
 655 0008 00000000 		.word	adcerrorcallback
 656 000c 00000000 		.word	0
 657 0010 0000FF0F 		.word	268369920
 658 0014 00008001 		.word	25165824
 659 0018 00008004 		.word	75497472
 660 001c 0000B400 		.word	11796480
 661 0020 C0811C08 		.word	136085952
 662 0024 07024500 		.word	4522503
 663 0028 00000000 		.word	0
 664 002c 00000000 		.word	0
 665              		.section	.bss.samples1,"aw",%nobits
 666              		.align	2
 667              		.set	.LANCHOR13,. + 0
 668              		.type	samples1, %object
 669              		.size	samples1, 32
 670              	samples1:
 671 0000 00000000 		.space	32
 671      00000000 
 671      00000000 
 671      00000000 
 671      00000000 
ARM GAS  /tmp/ccJT3NdE.s 			page 13


 672              		.section	.bss.samples2,"aw",%nobits
 673              		.align	2
 674              		.set	.LANCHOR0,. + 0
 675              		.type	samples2, %object
 676              		.size	samples2, 256
 677              	samples2:
 678 0000 00000000 		.space	256
 678      00000000 
 678      00000000 
 678      00000000 
 678      00000000 
 679              		.section	.rodata.serusbcfg,"a",%progbits
 680              		.align	2
 681              		.set	.LANCHOR9,. + 0
 682              		.type	serusbcfg, %object
 683              		.size	serusbcfg, 8
 684              	serusbcfg:
 685 0000 00000000 		.word	USBD1
 686 0004 01       		.byte	1
 687 0005 01       		.byte	1
 688 0006 02       		.byte	2
 689 0007 00       		.space	1
 690              		.section	.rodata.usbcfg,"a",%progbits
 691              		.align	2
 692              		.set	.LANCHOR10,. + 0
 693              		.type	usbcfg, %object
 694              		.size	usbcfg, 16
 695              	usbcfg:
 696 0000 00000000 		.word	usb_event
 697 0004 00000000 		.word	get_descriptor
 698 0008 00000000 		.word	sduRequestsHook
 699 000c 00000000 		.word	0
 700              		.section	.rodata.vcom_device_descriptor_data,"a",%progbits
 701              		.align	2
 702              		.type	vcom_device_descriptor_data, %object
 703              		.size	vcom_device_descriptor_data, 18
 704              	vcom_device_descriptor_data:
 705 0000 12       		.byte	18
 706 0001 01       		.byte	1
 707 0002 10       		.byte	16
 708 0003 01       		.byte	1
 709 0004 02       		.byte	2
 710 0005 00       		.byte	0
 711 0006 00       		.byte	0
 712 0007 40       		.byte	64
 713 0008 83       		.byte	-125
 714 0009 04       		.byte	4
 715 000a 40       		.byte	64
 716 000b 57       		.byte	87
 717 000c 00       		.byte	0
 718 000d 02       		.byte	2
 719 000e 01       		.byte	1
 720 000f 02       		.byte	2
 721 0010 03       		.byte	3
 722 0011 01       		.byte	1
 723 0012 0000     		.section	.bss.SDU1,"aw",%nobits
 724              		.align	2
ARM GAS  /tmp/ccJT3NdE.s 			page 14


 725              		.set	.LANCHOR8,. + 0
 726              		.type	SDU1, %object
 727              		.size	SDU1, 600
 728              	SDU1:
 729 0000 00000000 		.space	600
 729      00000000 
 729      00000000 
 729      00000000 
 729      00000000 
 730              		.section	.rodata.vcom_configuration_descriptor,"a",%progbits
 731              		.align	2
 732              		.set	.LANCHOR4,. + 0
 733              		.type	vcom_configuration_descriptor, %object
 734              		.size	vcom_configuration_descriptor, 8
 735              	vcom_configuration_descriptor:
 736 0000 43000000 		.word	67
 737 0004 00000000 		.word	vcom_configuration_descriptor_data
 738              		.section	.rodata.str1.4,"aMS",%progbits,1
 739              		.align	2
 740              	.LC0:
 741 0000 626C696E 		.ascii	"blinker\000"
 741      6B657200 
 742              		.section	.bss.ep2instate,"aw",%nobits
 743              		.align	2
 744              		.type	ep2instate, %object
 745              		.size	ep2instate, 16
 746              	ep2instate:
 747 0000 00000000 		.space	16
 747      00000000 
 747      00000000 
 747      00000000 
 748              		.section	.bss.nx,"aw",%nobits
 749              		.align	2
 750              		.set	.LANCHOR1,. + 0
 751              		.type	nx, %object
 752              		.size	nx, 4
 753              	nx:
 754 0000 00000000 		.space	4
 755              		.section	.bss.ny,"aw",%nobits
 756              		.align	2
 757              		.set	.LANCHOR2,. + 0
 758              		.type	ny, %object
 759              		.size	ny, 4
 760              	ny:
 761 0000 00000000 		.space	4
 762              		.section	.bss.ep1outstate,"aw",%nobits
 763              		.align	2
 764              		.type	ep1outstate, %object
 765              		.size	ep1outstate, 20
 766              	ep1outstate:
 767 0000 00000000 		.space	20
 767      00000000 
 767      00000000 
 767      00000000 
 767      00000000 
 768              		.section	.rodata.ep1config,"a",%progbits
 769              		.align	2
ARM GAS  /tmp/ccJT3NdE.s 			page 15


 770              		.set	.LANCHOR6,. + 0
 771              		.type	ep1config, %object
 772              		.size	ep1config, 36
 773              	ep1config:
 774 0000 02000000 		.word	2
 775 0004 00000000 		.word	0
 776 0008 00000000 		.word	sduDataTransmitted
 777 000c 00000000 		.word	sduDataReceived
 778 0010 4000     		.short	64
 779 0012 4000     		.short	64
 780 0014 00000000 		.word	ep1instate
 781 0018 00000000 		.word	ep1outstate
 782 001c 0100     		.short	1
 783 001e 0000     		.space	2
 784 0020 00000000 		.word	0
 785              		.section	.bss.ep1instate,"aw",%nobits
 786              		.align	2
 787              		.type	ep1instate, %object
 788              		.size	ep1instate, 16
 789              	ep1instate:
 790 0000 00000000 		.space	16
 790      00000000 
 790      00000000 
 790      00000000 
 791              		.section	.bss.waThread1,"aw",%nobits
 792              		.align	3
 793              		.set	.LANCHOR11,. + 0
 794              		.type	waThread1, %object
 795              		.size	waThread1, 304
 796              	waThread1:
 797 0000 00000000 		.space	304
 797      00000000 
 797      00000000 
 797      00000000 
 797      00000000 
 798              		.text
 799              	.Letext0:
 800              		.file 2 "/usr/lib/gcc/arm-none-eabi/4.8.3/include/stddef.h"
 801              		.file 3 "/usr/arm-none-eabi/include/stdint.h"
 802              		.file 4 "../../../os/ports/GCC/ARMCMx/chtypes.h"
 803              		.file 5 "../../../os/kernel/include/chlists.h"
 804              		.file 6 "../../../os/kernel/include/chthreads.h"
 805              		.file 7 "../../../os/ports/GCC/ARMCMx/chcore_v7m.h"
 806              		.file 8 "../../../os/kernel/include/chschd.h"
 807              		.file 9 "../../../os/kernel/include/chmtx.h"
 808              		.file 10 "../../../os/kernel/include/chevents.h"
 809              		.file 11 "../../../os/kernel/include/chqueues.h"
 810              		.file 12 "../../../os/kernel/include/chstreams.h"
 811              		.file 13 "../../../os/hal/platforms/STM32F30x/stm32f30x.h"
 812              		.file 14 "../../../os/hal/platforms/STM32F30x/stm32_dma.h"
 813              		.file 15 "../../../os/hal/platforms/STM32/GPIOv2/pal_lld.h"
 814              		.file 16 "../../../os/hal/include/adc.h"
 815              		.file 17 "../../../os/hal/platforms/STM32F30x/adc_lld.h"
 816              		.file 18 "../../../os/hal/include/usb.h"
 817              		.file 19 "../../../os/hal/platforms/STM32/USBv1/usb_lld.h"
 818              		.file 20 "../../../os/hal/include/serial_usb.h"
 819              		.file 21 "../../../os/various/shell.h"
ARM GAS  /tmp/ccJT3NdE.s 			page 16


 820              		.file 22 "../../../os/ports/common/ARMCMx/CMSIS/include/core_cm4.h"
 821              		.file 23 "../../../os/kernel/include/chdebug.h"
 822              		.file 24 "../../../os/hal/include/hal.h"
 823              		.file 25 "../../../os/kernel/include/chsys.h"