ARM GAS  /tmp/ccsJxlLW.s 			page 1


   1              		.syntax unified
   2              		.cpu cortex-m4
   3              		.fpu softvfp
   4              		.eabi_attribute 20, 1
   5              		.eabi_attribute 21, 1
   6              		.eabi_attribute 23, 3
   7              		.eabi_attribute 24, 1
   8              		.eabi_attribute 25, 1
   9              		.eabi_attribute 26, 1
  10              		.eabi_attribute 30, 2
  11              		.eabi_attribute 34, 1
  12              		.eabi_attribute 18, 4
  13              		.thumb
  14              		.file	"main.c"
  15              		.text
  16              	.Ltext0:
  17              		.cfi_sections	.debug_frame
  18              		.section	.text.get_descriptor,"ax",%progbits
  19              		.align	2
  20              		.p2align 4,,15
  21              		.thumb
  22              		.thumb_func
  23              		.type	get_descriptor, %function
  24              	get_descriptor:
  25              	.LFB119:
  26              		.file 1 "main.c"
  27              		.loc 1 221 0
  28              		.cfi_startproc
  29              		@ args = 0, pretend = 0, frame = 0
  30              		@ frame_needed = 0, uses_anonymous_args = 0
  31              		@ link register save eliminated.
  32              	.LVL0:
  33              		.loc 1 225 0
  34 0000 0229     		cmp	r1, #2
  35 0002 06D0     		beq	.L6
  36 0004 0329     		cmp	r1, #3
  37 0006 06D0     		beq	.L4
  38              		.loc 1 234 0
  39 0008 0748     		ldr	r0, .L9
  40              	.LVL1:
  41              		.loc 1 225 0
  42 000a 0129     		cmp	r1, #1
  43              		.loc 1 234 0
  44 000c 18BF     		it	ne
  45 000e 0020     		movne	r0, #0
  46 0010 7047     		bx	lr
  47              	.LVL2:
  48              	.L6:
  49              		.loc 1 229 0
  50 0012 0648     		ldr	r0, .L9+4
  51              	.LVL3:
  52 0014 7047     		bx	lr
  53              	.LVL4:
  54              	.L4:
  55              		.loc 1 231 0
  56 0016 032A     		cmp	r2, #3
  57 0018 03D8     		bhi	.L7
ARM GAS  /tmp/ccsJxlLW.s 			page 2


  58              		.loc 1 232 0
  59 001a 0548     		ldr	r0, .L9+8
  60              	.LVL5:
  61 001c 00EBC200 		add	r0, r0, r2, lsl #3
  62 0020 7047     		bx	lr
  63              	.LVL6:
  64              	.L7:
  65              		.loc 1 234 0
  66 0022 0020     		movs	r0, #0
  67              	.LVL7:
  68              		.loc 1 235 0
  69 0024 7047     		bx	lr
  70              	.L10:
  71 0026 00BF     		.align	2
  72              	.L9:
  73 0028 00000000 		.word	.LANCHOR0
  74 002c 00000000 		.word	.LANCHOR1
  75 0030 00000000 		.word	.LANCHOR2
  76              		.cfi_endproc
  77              	.LFE119:
  78              		.size	get_descriptor, .-get_descriptor
  79 0034 AFF30080 		.section	.text.Thread1,"ax",%progbits
  79      AFF30080 
  79      AFF30080 
  80              		.align	2
  81              		.p2align 4,,15
  82              		.thumb
  83              		.thumb_func
  84              		.type	Thread1, %function
  85              	Thread1:
  86              	.LFB125:
  87              		.loc 1 448 0
  88              		.cfi_startproc
  89              		@ args = 0, pretend = 0, frame = 0
  90              		@ frame_needed = 0, uses_anonymous_args = 0
  91              	.LVL8:
  92              		.loc 1 451 0
  93 0000 0D4B     		ldr	r3, .L15
  94 0002 0E4A     		ldr	r2, .L15+4
  95 0004 9B69     		ldr	r3, [r3, #24]
  96              		.loc 1 448 0
  97 0006 2DE9F041 		push	{r4, r5, r6, r7, r8, lr}
  98              		.cfi_def_cfa_offset 24
  99              		.cfi_offset 4, -24
 100              		.cfi_offset 5, -20
 101              		.cfi_offset 6, -16
 102              		.cfi_offset 7, -12
 103              		.cfi_offset 8, -8
 104              		.cfi_offset 14, -4
 105              	.LBB4:
 106              		.loc 1 454 0
 107 000a 4FF40076 		mov	r6, #512
 108 000e DFF83480 		ldr	r8, .L15+12
 109 0012 0B4D     		ldr	r5, .L15+8
 110              	.LBE4:
 111              		.loc 1 451 0
 112 0014 9A61     		str	r2, [r3, #24]
ARM GAS  /tmp/ccsJxlLW.s 			page 3


 113              	.LBB5:
 114              		.loc 1 454 0
 115 0016 3746     		mov	r7, r6	@ movhi
 116              	.LVL9:
 117              	.L13:
 118              		.loc 1 453 0
 119 0018 98F80030 		ldrb	r3, [r8]	@ zero_extendqisi2
 120              		.loc 1 454 0
 121 001c 6F83     		strh	r7, [r5, #26]	@ movhi
 122              		.loc 1 453 0
 123 001e 042B     		cmp	r3, #4
 124 0020 14BF     		ite	ne
 125 0022 4FF4FA74 		movne	r4, #500
 126 0026 FA24     		moveq	r4, #250
 127              		.loc 1 455 0
 128 0028 2046     		mov	r0, r4
 129 002a FFF7FEFF 		bl	chThdSleep
 130              	.LVL10:
 131              		.loc 1 457 0
 132 002e 2046     		mov	r0, r4
 133              		.loc 1 456 0
 134 0030 2E83     		strh	r6, [r5, #24]	@ movhi
 135              		.loc 1 457 0
 136 0032 FFF7FEFF 		bl	chThdSleep
 137              	.LVL11:
 138              	.LBE5:
 139              		.loc 1 458 0
 140 0036 EFE7     		b	.L13
 141              	.L16:
 142              		.align	2
 143              	.L15:
 144 0038 00000000 		.word	rlist
 145 003c 00000000 		.word	.LC0
 146 0040 00100048 		.word	1207963648
 147 0044 00000000 		.word	USBD1
 148              		.cfi_endproc
 149              	.LFE125:
 150              		.size	Thread1, .-Thread1
 151 0048 AFF30080 		.section	.text.chprintf,"ax",%progbits
 151      AFF30080 
 152              		.align	2
 153              		.p2align 4,,15
 154              		.thumb
 155              		.thumb_func
 156              		.type	chprintf, %function
 157              	chprintf:
 158              	.LFB118:
 159              		.file 2 "../../../os/various/chprintf.h"
 160              		.loc 2 69 0
 161              		.cfi_startproc
 162              		@ args = 4, pretend = 12, frame = 8
 163              		@ frame_needed = 0, uses_anonymous_args = 1
 164              	.LVL12:
 165 0000 0EB4     		push	{r1, r2, r3}
 166              		.cfi_def_cfa_offset 12
 167              		.cfi_offset 1, -12
 168              		.cfi_offset 2, -8
ARM GAS  /tmp/ccsJxlLW.s 			page 4


 169              		.cfi_offset 3, -4
 170 0002 00B5     		push	{lr}
 171              		.cfi_def_cfa_offset 16
 172              		.cfi_offset 14, -16
 173 0004 82B0     		sub	sp, sp, #8
 174              		.cfi_def_cfa_offset 24
 175              		.loc 2 69 0
 176 0006 03AA     		add	r2, sp, #12
 177 0008 52F8041B 		ldr	r1, [r2], #4
 178              		.loc 2 72 0
 179 000c 0192     		str	r2, [sp, #4]
 180              		.loc 2 73 0
 181 000e FFF7FEFF 		bl	chvprintf
 182              	.LVL13:
 183              		.loc 2 75 0
 184 0012 02B0     		add	sp, sp, #8
 185              		@ sp needed
 186 0014 5DF804EB 		ldr	lr, [sp], #4
 187 0018 03B0     		add	sp, sp, #12
 188 001a 7047     		bx	lr
 189              		.cfi_endproc
 190              	.LFE118:
 191              		.size	chprintf, .-chprintf
 192 001c AFF30080 		.section	.text.cmd_write,"ax",%progbits
 193              		.align	2
 194              		.p2align 4,,15
 195              		.thumb
 196              		.thumb_func
 197              		.type	cmd_write, %function
 198              	cmd_write:
 199              	.LFB124:
 200              		.loc 1 396 0
 201              		.cfi_startproc
 202              		@ args = 0, pretend = 0, frame = 0
 203              		@ frame_needed = 0, uses_anonymous_args = 0
 204              	.LVL14:
 205              		.loc 1 416 0
 206 0000 0029     		cmp	r1, #0
 207              		.loc 1 396 0
 208 0002 38B5     		push	{r3, r4, r5, lr}
 209              		.cfi_def_cfa_offset 16
 210              		.cfi_offset 3, -16
 211              		.cfi_offset 4, -12
 212              		.cfi_offset 5, -8
 213              		.cfi_offset 14, -4
 214              		.loc 1 396 0
 215 0004 0446     		mov	r4, r0
 216              		.loc 1 416 0
 217 0006 15DC     		bgt	.L19
 218              	.LBB8:
 219              	.LBB9:
 220              		.loc 1 422 0
 221 0008 0D4D     		ldr	r5, .L22
 222 000a 02E0     		b	.L20
 223              	.LVL15:
 224              	.L21:
 225 000c 2B68     		ldr	r3, [r5]
ARM GAS  /tmp/ccsJxlLW.s 			page 5


 226 000e 1B68     		ldr	r3, [r3]
 227 0010 9847     		blx	r3
 228              	.LVL16:
 229              	.L20:
 230              		.loc 1 421 0
 231 0012 2368     		ldr	r3, [r4]
 232 0014 0021     		movs	r1, #0
 233 0016 2046     		mov	r0, r4
 234 0018 5B69     		ldr	r3, [r3, #20]
 235 001a 9847     		blx	r3
 236              	.LVL17:
 237 001c 0130     		adds	r0, r0, #1
 238              		.loc 1 422 0
 239 001e 0949     		ldr	r1, .L22+4
 240 0020 0748     		ldr	r0, .L22
 241 0022 4FF48062 		mov	r2, #1024
 242              		.loc 1 421 0
 243 0026 F1D0     		beq	.L21
 244              		.loc 1 424 0
 245 0028 2046     		mov	r0, r4
 246 002a 0749     		ldr	r1, .L22+8
 247              	.LBE9:
 248              	.LBE8:
 249              		.loc 1 425 0
 250 002c BDE83840 		pop	{r3, r4, r5, lr}
 251              	.LVL18:
 252              	.LBB11:
 253              	.LBB10:
 254              		.loc 1 424 0
 255 0030 FFF7FEBF 		b	chprintf
 256              	.LVL19:
 257              	.L19:
 258              	.LBE10:
 259              	.LBE11:
 260              		.loc 1 417 0
 261 0034 0549     		ldr	r1, .L22+12
 262              	.LVL20:
 263              		.loc 1 425 0
 264 0036 BDE83840 		pop	{r3, r4, r5, lr}
 265              		.loc 1 417 0
 266 003a FFF7FEBF 		b	chprintf
 267              	.LVL21:
 268              	.L23:
 269 003e 00BF     		.align	2
 270              	.L22:
 271 0040 00000000 		.word	.LANCHOR3
 272 0044 00000000 		.word	.LANCHOR4
 273 0048 08000000 		.word	.LC1
 274 004c 18000000 		.word	.LC2
 275              		.cfi_endproc
 276              	.LFE124:
 277              		.size	cmd_write, .-cmd_write
 278              		.section	.text.cmd_test,"ax",%progbits
 279              		.align	2
 280              		.p2align 4,,15
 281              		.thumb
 282              		.thumb_func
ARM GAS  /tmp/ccsJxlLW.s 			page 6


 283              		.type	cmd_test, %function
 284              	cmd_test:
 285              	.LFB123:
 286              		.loc 1 379 0
 287              		.cfi_startproc
 288              		@ args = 0, pretend = 0, frame = 0
 289              		@ frame_needed = 0, uses_anonymous_args = 0
 290              	.LVL22:
 291 0000 10B5     		push	{r4, lr}
 292              		.cfi_def_cfa_offset 8
 293              		.cfi_offset 4, -8
 294              		.cfi_offset 14, -4
 295              		.loc 1 383 0
 296 0002 0029     		cmp	r1, #0
 297              		.loc 1 379 0
 298 0004 82B0     		sub	sp, sp, #8
 299              		.cfi_def_cfa_offset 16
 300              		.loc 1 379 0
 301 0006 0446     		mov	r4, r0
 302              		.loc 1 383 0
 303 0008 05DD     		ble	.L25
 304              		.loc 1 384 0
 305 000a 0C49     		ldr	r1, .L29
 306              	.LVL23:
 307              	.L27:
 308              		.loc 1 394 0
 309 000c 02B0     		add	sp, sp, #8
 310              		@ sp needed
 311 000e BDE81040 		pop	{r4, lr}
 312              	.LBB14:
 313              	.LBB15:
 314              		.loc 1 390 0
 315 0012 FFF7FEBF 		b	chprintf
 316              	.LVL24:
 317              	.L25:
 318              		.loc 1 387 0
 319 0016 0A4A     		ldr	r2, .L29+4
 320              	.LVL25:
 321 0018 0A4B     		ldr	r3, .L29+8
 322 001a 9269     		ldr	r2, [r2, #24]
 323 001c 4FF4D871 		mov	r1, #432
 324              	.LVL26:
 325 0020 9268     		ldr	r2, [r2, #8]
 326 0022 0090     		str	r0, [sp]
 327 0024 0020     		movs	r0, #0
 328              	.LVL27:
 329 0026 FFF7FEFF 		bl	chThdCreateFromHeap
 330              	.LVL28:
 331              		.loc 1 389 0
 332 002a 20B1     		cbz	r0, .L28
 333              	.LBE15:
 334              	.LBE14:
 335              		.loc 1 394 0
 336 002c 02B0     		add	sp, sp, #8
 337              		@ sp needed
 338 002e BDE81040 		pop	{r4, lr}
 339              	.LVL29:
ARM GAS  /tmp/ccsJxlLW.s 			page 7


 340              	.LBB17:
 341              	.LBB16:
 342              		.loc 1 393 0
 343 0032 FFF7FEBF 		b	chThdWait
 344              	.LVL30:
 345              	.L28:
 346              		.loc 1 390 0
 347 0036 2046     		mov	r0, r4
 348              	.LVL31:
 349 0038 0349     		ldr	r1, .L29+12
 350 003a E7E7     		b	.L27
 351              	.L30:
 352              		.align	2
 353              	.L29:
 354 003c 28000000 		.word	.LC3
 355 0040 00000000 		.word	rlist
 356 0044 00000000 		.word	TestThread
 357 0048 38000000 		.word	.LC4
 358              	.LBE16:
 359              	.LBE17:
 360              		.cfi_endproc
 361              	.LFE123:
 362              		.size	cmd_test, .-cmd_test
 363 004c AFF30080 		.section	.text.cmd_threads,"ax",%progbits
 364              		.align	2
 365              		.p2align 4,,15
 366              		.thumb
 367              		.thumb_func
 368              		.type	cmd_threads, %function
 369              	cmd_threads:
 370              	.LFB122:
 371              		.loc 1 359 0
 372              		.cfi_startproc
 373              		@ args = 0, pretend = 0, frame = 0
 374              		@ frame_needed = 0, uses_anonymous_args = 0
 375              	.LVL32:
 376 0000 F0B5     		push	{r4, r5, r6, r7, lr}
 377              		.cfi_def_cfa_offset 20
 378              		.cfi_offset 4, -20
 379              		.cfi_offset 5, -16
 380              		.cfi_offset 6, -12
 381              		.cfi_offset 7, -8
 382              		.cfi_offset 14, -4
 383              		.loc 1 364 0
 384 0002 0029     		cmp	r1, #0
 385              		.loc 1 359 0
 386 0004 85B0     		sub	sp, sp, #20
 387              		.cfi_def_cfa_offset 40
 388              		.loc 1 359 0
 389 0006 0646     		mov	r6, r0
 390              		.loc 1 364 0
 391 0008 05DD     		ble	.L32
 392              		.loc 1 365 0
 393 000a 1449     		ldr	r1, .L35
 394              	.LVL33:
 395              		.loc 1 377 0
 396 000c 05B0     		add	sp, sp, #20
ARM GAS  /tmp/ccsJxlLW.s 			page 8


 397              		@ sp needed
 398 000e BDE8F040 		pop	{r4, r5, r6, r7, lr}
 399              		.loc 1 365 0
 400 0012 FFF7FEBF 		b	chprintf
 401              	.LVL34:
 402              	.L32:
 403              	.LBB20:
 404              	.LBB21:
 405              		.loc 1 368 0
 406 0016 1249     		ldr	r1, .L35+4
 407              	.LVL35:
 408 0018 124F     		ldr	r7, .L35+8
 409 001a FFF7FEFF 		bl	chprintf
 410              	.LVL36:
 411              		.loc 1 369 0
 412 001e FFF7FEFF 		bl	chRegFirstThread
 413              	.LVL37:
 414 0022 0446     		mov	r4, r0
 415              	.LVL38:
 416              	.L34:
 417              		.loc 1 371 0
 418 0024 A268     		ldr	r2, [r4, #8]
 419 0026 E368     		ldr	r3, [r4, #12]
 420 0028 656A     		ldr	r5, [r4, #36]
 421 002a 0092     		str	r2, [sp]
 422              		.loc 1 373 0
 423 002c 94F82220 		ldrb	r2, [r4, #34]	@ zero_extendqisi2
 424              		.loc 1 371 0
 425 0030 0D49     		ldr	r1, .L35+12
 426              		.loc 1 373 0
 427 0032 013A     		subs	r2, r2, #1
 428              		.loc 1 371 0
 429 0034 0192     		str	r2, [sp, #4]
 430 0036 94F82020 		ldrb	r2, [r4, #32]	@ zero_extendqisi2
 431 003a 0395     		str	r5, [sp, #12]
 432 003c 57F82220 		ldr	r2, [r7, r2, lsl #2]
 433 0040 0292     		str	r2, [sp, #8]
 434 0042 3046     		mov	r0, r6
 435              	.LVL39:
 436 0044 2246     		mov	r2, r4
 437 0046 FFF7FEFF 		bl	chprintf
 438              	.LVL40:
 439              		.loc 1 375 0
 440 004a 2046     		mov	r0, r4
 441 004c FFF7FEFF 		bl	chRegNextThread
 442              	.LVL41:
 443              		.loc 1 376 0
 444 0050 0446     		mov	r4, r0
 445 0052 0028     		cmp	r0, #0
 446 0054 E6D1     		bne	.L34
 447              	.LBE21:
 448              	.LBE20:
 449              		.loc 1 377 0
 450 0056 05B0     		add	sp, sp, #20
 451              		@ sp needed
 452 0058 F0BD     		pop	{r4, r5, r6, r7, pc}
 453              	.LVL42:
ARM GAS  /tmp/ccsJxlLW.s 			page 9


 454              	.L36:
 455 005a 00BF     		.align	2
 456              	.L35:
 457 005c 48000000 		.word	.LC5
 458 0060 5C000000 		.word	.LC6
 459 0064 00000000 		.word	.LANCHOR5
 460 0068 8C000000 		.word	.LC7
 461              		.cfi_endproc
 462              	.LFE122:
 463              		.size	cmd_threads, .-cmd_threads
 464 006c AFF30080 		.section	.text.cmd_mem,"ax",%progbits
 465              		.align	2
 466              		.p2align 4,,15
 467              		.thumb
 468              		.thumb_func
 469              		.type	cmd_mem, %function
 470              	cmd_mem:
 471              	.LFB121:
 472              		.loc 1 345 0
 473              		.cfi_startproc
 474              		@ args = 0, pretend = 0, frame = 8
 475              		@ frame_needed = 0, uses_anonymous_args = 0
 476              	.LVL43:
 477 0000 30B5     		push	{r4, r5, lr}
 478              		.cfi_def_cfa_offset 12
 479              		.cfi_offset 4, -12
 480              		.cfi_offset 5, -8
 481              		.cfi_offset 14, -4
 482              		.loc 1 349 0
 483 0002 0029     		cmp	r1, #0
 484              		.loc 1 345 0
 485 0004 83B0     		sub	sp, sp, #12
 486              		.cfi_def_cfa_offset 24
 487              		.loc 1 345 0
 488 0006 0446     		mov	r4, r0
 489              		.loc 1 349 0
 490 0008 04DD     		ble	.L38
 491              		.loc 1 350 0
 492 000a 0E49     		ldr	r1, .L40
 493              	.LVL44:
 494 000c FFF7FEFF 		bl	chprintf
 495              	.LVL45:
 496              		.loc 1 357 0
 497 0010 03B0     		add	sp, sp, #12
 498              		@ sp needed
 499 0012 30BD     		pop	{r4, r5, pc}
 500              	.LVL46:
 501              	.L38:
 502              	.LBB24:
 503              	.LBB25:
 504              		.loc 1 353 0
 505 0014 01A9     		add	r1, sp, #4
 506              	.LVL47:
 507 0016 0020     		movs	r0, #0
 508              	.LVL48:
 509 0018 FFF7FEFF 		bl	chHeapStatus
 510              	.LVL49:
ARM GAS  /tmp/ccsJxlLW.s 			page 10


 511 001c 0546     		mov	r5, r0
 512              	.LVL50:
 513              		.loc 1 354 0
 514 001e FFF7FEFF 		bl	chCoreStatus
 515              	.LVL51:
 516 0022 0949     		ldr	r1, .L40+4
 517 0024 0246     		mov	r2, r0
 518 0026 2046     		mov	r0, r4
 519 0028 FFF7FEFF 		bl	chprintf
 520              	.LVL52:
 521              		.loc 1 355 0
 522 002c 2046     		mov	r0, r4
 523 002e 2A46     		mov	r2, r5
 524 0030 0649     		ldr	r1, .L40+8
 525 0032 FFF7FEFF 		bl	chprintf
 526              	.LVL53:
 527              		.loc 1 356 0
 528 0036 2046     		mov	r0, r4
 529 0038 0549     		ldr	r1, .L40+12
 530 003a 019A     		ldr	r2, [sp, #4]
 531 003c FFF7FEFF 		bl	chprintf
 532              	.LVL54:
 533              	.LBE25:
 534              	.LBE24:
 535              		.loc 1 357 0
 536 0040 03B0     		add	sp, sp, #12
 537              		@ sp needed
 538 0042 30BD     		pop	{r4, r5, pc}
 539              	.LVL55:
 540              	.L41:
 541              		.align	2
 542              	.L40:
 543 0044 AC000000 		.word	.LC8
 544 0048 BC000000 		.word	.LC9
 545 004c DC000000 		.word	.LC10
 546 0050 F4000000 		.word	.LC11
 547              		.cfi_endproc
 548              	.LFE121:
 549              		.size	cmd_mem, .-cmd_mem
 550 0054 AFF30080 		.section	.text.usb_event,"ax",%progbits
 550      AFF30080 
 550      AFF30080 
 551              		.align	2
 552              		.p2align 4,,15
 553              		.thumb
 554              		.thumb_func
 555              		.type	usb_event, %function
 556              	usb_event:
 557              	.LFB120:
 558              		.loc 1 287 0
 559              		.cfi_startproc
 560              		@ args = 0, pretend = 0, frame = 0
 561              		@ frame_needed = 0, uses_anonymous_args = 0
 562              	.LVL56:
 563              		.loc 1 289 0
 564 0000 0229     		cmp	r1, #2
 565              		.loc 1 287 0
ARM GAS  /tmp/ccsJxlLW.s 			page 11


 566 0002 10B5     		push	{r4, lr}
 567              		.cfi_def_cfa_offset 8
 568              		.cfi_offset 4, -8
 569              		.cfi_offset 14, -4
 570              		.loc 1 287 0
 571 0004 0446     		mov	r4, r0
 572              		.loc 1 289 0
 573 0006 16D1     		bne	.L42
 574              	.LVL57:
 575              	.LBB30:
 576              	.LBB31:
 577              	.LBB32:
 578              		.loc 1 295 0
 579 0008 2023     		movs	r3, #32
 580              	@ 295 "main.c" 1
 581 000a 83F31188 		msr     BASEPRI, r3
 582              	@ 0 "" 2
 583              		.thumb
 584              	.LBE32:
 585 000e FFF7FEFF 		bl	dbg_check_lock_from_isr
 586              	.LVL58:
 587              		.loc 1 300 0
 588 0012 2046     		mov	r0, r4
 589 0014 0121     		movs	r1, #1
 590 0016 084A     		ldr	r2, .L45
 591 0018 FFF7FEFF 		bl	usbInitEndpointI
 592              	.LVL59:
 593              		.loc 1 301 0
 594 001c 0221     		movs	r1, #2
 595 001e 074A     		ldr	r2, .L45+4
 596 0020 2046     		mov	r0, r4
 597 0022 FFF7FEFF 		bl	usbInitEndpointI
 598              	.LVL60:
 599              		.loc 1 304 0
 600 0026 0648     		ldr	r0, .L45+8
 601 0028 FFF7FEFF 		bl	sduConfigureHookI
 602              	.LVL61:
 603              		.loc 1 306 0
 604 002c FFF7FEFF 		bl	dbg_check_unlock_from_isr
 605              	.LVL62:
 606              	.LBB33:
 607 0030 0023     		movs	r3, #0
 608              	@ 306 "main.c" 1
 609 0032 83F31188 		msr     BASEPRI, r3
 610              	@ 0 "" 2
 611              	.LVL63:
 612              		.thumb
 613              	.L42:
 614 0036 10BD     		pop	{r4, pc}
 615              	.LVL64:
 616              	.L46:
 617              		.align	2
 618              	.L45:
 619 0038 00000000 		.word	.LANCHOR6
 620 003c 00000000 		.word	.LANCHOR7
 621 0040 00000000 		.word	.LANCHOR3
 622              	.LBE33:
ARM GAS  /tmp/ccsJxlLW.s 			page 12


 623              	.LBE31:
 624              	.LBE30:
 625              		.cfi_endproc
 626              	.LFE120:
 627              		.size	usb_event, .-usb_event
 628 0044 AFF30080 		.section	.text.startup.main,"ax",%progbits
 628      AFF30080 
 628      AFF30080 
 629              		.align	2
 630              		.p2align 4,,15
 631              		.global	main
 632              		.thumb
 633              		.thumb_func
 634              		.type	main, %function
 635              	main:
 636              	.LFB126:
 637              		.loc 1 464 0
 638              		.cfi_startproc
 639              		@ args = 0, pretend = 0, frame = 0
 640              		@ frame_needed = 0, uses_anonymous_args = 0
 641              	.LVL65:
 642 0000 30B5     		push	{r4, r5, lr}
 643              		.cfi_def_cfa_offset 12
 644              		.cfi_offset 4, -12
 645              		.cfi_offset 5, -8
 646              		.cfi_offset 14, -4
 647 0002 83B0     		sub	sp, sp, #12
 648              		.cfi_def_cfa_offset 24
 649              		.loc 1 474 0
 650 0004 FFF7FEFF 		bl	halInit
 651              	.LVL66:
 652              		.loc 1 475 0
 653 0008 FFF7FEFF 		bl	chSysInit
 654              	.LVL67:
 655              		.loc 1 480 0
 656 000c 1C48     		ldr	r0, .L53
 657 000e 0546     		mov	r5, r0
 658 0010 FFF7FEFF 		bl	sduObjectInit
 659              	.LVL68:
 660              		.loc 1 481 0
 661 0014 1B49     		ldr	r1, .L53+4
 662 0016 2846     		mov	r0, r5
 663 0018 FFF7FEFF 		bl	sduStart
 664              	.LVL69:
 665              		.loc 1 489 0
 666 001c 40F2DC50 		movw	r0, #1500
 667 0020 FFF7FEFF 		bl	chThdSleep
 668              	.LVL70:
 669              		.loc 1 501 0
 670 0024 0024     		movs	r4, #0
 671              		.loc 1 490 0
 672 0026 1848     		ldr	r0, .L53+8
 673 0028 1849     		ldr	r1, .L53+12
 674 002a FFF7FEFF 		bl	usbStart
 675              	.LVL71:
 676              		.loc 1 496 0
 677 002e FFF7FEFF 		bl	shellInit
ARM GAS  /tmp/ccsJxlLW.s 			page 13


 678              	.LVL72:
 679              		.loc 1 501 0
 680 0032 0094     		str	r4, [sp]
 681 0034 1648     		ldr	r0, .L53+16
 682 0036 174B     		ldr	r3, .L53+20
 683 0038 4FF49871 		mov	r1, #304
 684 003c 4022     		movs	r2, #64
 685 003e FFF7FEFF 		bl	chThdCreateStatic
 686              	.LVL73:
 687              		.loc 1 508 0
 688 0042 4CB1     		cbz	r4, .L51
 689              	.LVL74:
 690              	.L48:
 691              		.loc 1 510 0
 692 0044 94F82030 		ldrb	r3, [r4, #32]	@ zero_extendqisi2
 693 0048 0E2B     		cmp	r3, #14
 694 004a 13D0     		beq	.L52
 695              	.L49:
 696              	.LVL75:
 697              		.loc 1 514 0
 698 004c 4FF47A70 		mov	r0, #1000
 699 0050 FFF7FEFF 		bl	chThdSleep
 700              	.LVL76:
 701              		.loc 1 508 0
 702 0054 002C     		cmp	r4, #0
 703 0056 F5D1     		bne	.L48
 704              	.L51:
 705              	.LVL77:
 706              		.loc 1 508 0 is_stmt 0 discriminator 1
 707 0058 D5F85432 		ldr	r3, [r5, #596]
 708 005c 1B68     		ldr	r3, [r3]
 709 005e 1B78     		ldrb	r3, [r3]	@ zero_extendqisi2
 710 0060 042B     		cmp	r3, #4
 711 0062 EFD1     		bne	.L48
 712              		.loc 1 509 0 is_stmt 1
 713 0064 0C48     		ldr	r0, .L53+24
 714 0066 4FF40B61 		mov	r1, #2224
 715 006a 4022     		movs	r2, #64
 716 006c FFF7FEFF 		bl	shellCreate
 717              	.LVL78:
 718 0070 0446     		mov	r4, r0
 719              	.LVL79:
 720 0072 EBE7     		b	.L49
 721              	.LVL80:
 722              	.L52:
 723              		.loc 1 511 0
 724 0074 2046     		mov	r0, r4
 725 0076 FFF7FEFF 		bl	chThdRelease
 726              	.LVL81:
 727              		.loc 1 512 0
 728 007a 0024     		movs	r4, #0
 729 007c E6E7     		b	.L49
 730              	.L54:
 731 007e 00BF     		.align	2
 732              	.L53:
 733 0080 00000000 		.word	.LANCHOR3
 734 0084 00000000 		.word	.LANCHOR8
ARM GAS  /tmp/ccsJxlLW.s 			page 14


 735 0088 00000000 		.word	USBD1
 736 008c 00000000 		.word	.LANCHOR9
 737 0090 00000000 		.word	.LANCHOR10
 738 0094 00000000 		.word	Thread1
 739 0098 00000000 		.word	.LANCHOR11
 740              		.cfi_endproc
 741              	.LFE126:
 742              		.size	main, .-main
 743 009c AFF30080 		.section	.rodata.ep1config,"a",%progbits
 744              		.align	2
 745              		.set	.LANCHOR6,. + 0
 746              		.type	ep1config, %object
 747              		.size	ep1config, 36
 748              	ep1config:
 749 0000 02000000 		.word	2
 750 0004 00000000 		.word	0
 751 0008 00000000 		.word	sduDataTransmitted
 752 000c 00000000 		.word	sduDataReceived
 753 0010 4000     		.short	64
 754 0012 4000     		.short	64
 755 0014 00000000 		.word	ep1instate
 756 0018 00000000 		.word	ep1outstate
 757 001c 0100     		.short	1
 758 001e 0000     		.space	2
 759 0020 00000000 		.word	0
 760              		.section	.bss.waThread1,"aw",%nobits
 761              		.align	3
 762              		.set	.LANCHOR10,. + 0
 763              		.type	waThread1, %object
 764              		.size	waThread1, 304
 765              	waThread1:
 766 0000 00000000 		.space	304
 766      00000000 
 766      00000000 
 766      00000000 
 766      00000000 
 767              		.section	.bss.ep2instate,"aw",%nobits
 768              		.align	2
 769              		.type	ep2instate, %object
 770              		.size	ep2instate, 16
 771              	ep2instate:
 772 0000 00000000 		.space	16
 772      00000000 
 772      00000000 
 772      00000000 
 773              		.section	.bss.SDU1,"aw",%nobits
 774              		.align	2
 775              		.set	.LANCHOR3,. + 0
 776              		.type	SDU1, %object
 777              		.size	SDU1, 600
 778              	SDU1:
 779 0000 00000000 		.space	600
 779      00000000 
 779      00000000 
 779      00000000 
 779      00000000 
 780              		.section	.rodata.states.7721,"a",%progbits
ARM GAS  /tmp/ccsJxlLW.s 			page 15


 781              		.align	2
 782              		.set	.LANCHOR5,. + 0
 783              		.type	states.7721, %object
 784              		.size	states.7721, 60
 785              	states.7721:
 786 0000 14010000 		.word	.LC12
 787 0004 1C010000 		.word	.LC13
 788 0008 24010000 		.word	.LC14
 789 000c 30010000 		.word	.LC15
 790 0010 38010000 		.word	.LC16
 791 0014 40010000 		.word	.LC17
 792 0018 48010000 		.word	.LC18
 793 001c 54010000 		.word	.LC19
 794 0020 5C010000 		.word	.LC20
 795 0024 64010000 		.word	.LC21
 796 0028 70010000 		.word	.LC22
 797 002c 78010000 		.word	.LC23
 798 0030 80010000 		.word	.LC24
 799 0034 88010000 		.word	.LC25
 800 0038 90010000 		.word	.LC26
 801              		.section	.rodata.vcom_string2,"a",%progbits
 802              		.align	2
 803              		.type	vcom_string2, %object
 804              		.size	vcom_string2, 56
 805              	vcom_string2:
 806 0000 38       		.byte	56
 807 0001 03       		.byte	3
 808 0002 43       		.byte	67
 809 0003 00       		.byte	0
 810 0004 68       		.byte	104
 811 0005 00       		.byte	0
 812 0006 69       		.byte	105
 813 0007 00       		.byte	0
 814 0008 62       		.byte	98
 815 0009 00       		.byte	0
 816 000a 69       		.byte	105
 817 000b 00       		.byte	0
 818 000c 4F       		.byte	79
 819 000d 00       		.byte	0
 820 000e 53       		.byte	83
 821 000f 00       		.byte	0
 822 0010 2F       		.byte	47
 823 0011 00       		.byte	0
 824 0012 52       		.byte	82
 825 0013 00       		.byte	0
 826 0014 54       		.byte	84
 827 0015 00       		.byte	0
 828 0016 20       		.byte	32
 829 0017 00       		.byte	0
 830 0018 56       		.byte	86
 831 0019 00       		.byte	0
 832 001a 69       		.byte	105
 833 001b 00       		.byte	0
 834 001c 72       		.byte	114
 835 001d 00       		.byte	0
 836 001e 74       		.byte	116
 837 001f 00       		.byte	0
ARM GAS  /tmp/ccsJxlLW.s 			page 16


 838 0020 75       		.byte	117
 839 0021 00       		.byte	0
 840 0022 61       		.byte	97
 841 0023 00       		.byte	0
 842 0024 6C       		.byte	108
 843 0025 00       		.byte	0
 844 0026 20       		.byte	32
 845 0027 00       		.byte	0
 846 0028 43       		.byte	67
 847 0029 00       		.byte	0
 848 002a 4F       		.byte	79
 849 002b 00       		.byte	0
 850 002c 4D       		.byte	77
 851 002d 00       		.byte	0
 852 002e 20       		.byte	32
 853 002f 00       		.byte	0
 854 0030 50       		.byte	80
 855 0031 00       		.byte	0
 856 0032 6F       		.byte	111
 857 0033 00       		.byte	0
 858 0034 72       		.byte	114
 859 0035 00       		.byte	0
 860 0036 74       		.byte	116
 861 0037 00       		.byte	0
 862              		.section	.rodata.vcom_configuration_descriptor,"a",%progbits
 863              		.align	2
 864              		.set	.LANCHOR1,. + 0
 865              		.type	vcom_configuration_descriptor, %object
 866              		.size	vcom_configuration_descriptor, 8
 867              	vcom_configuration_descriptor:
 868 0000 43000000 		.word	67
 869 0004 00000000 		.word	vcom_configuration_descriptor_data
 870              		.section	.rodata.ep2config,"a",%progbits
 871              		.align	2
 872              		.set	.LANCHOR7,. + 0
 873              		.type	ep2config, %object
 874              		.size	ep2config, 36
 875              	ep2config:
 876 0000 03000000 		.word	3
 877 0004 00000000 		.word	0
 878 0008 00000000 		.word	sduInterruptTransmitted
 879 000c 00000000 		.word	0
 880 0010 1000     		.short	16
 881 0012 0000     		.short	0
 882 0014 00000000 		.word	ep2instate
 883 0018 00000000 		.word	0
 884 001c 0100     		.short	1
 885 001e 0000     		.space	2
 886 0020 00000000 		.word	0
 887              		.section	.bss.ep1instate,"aw",%nobits
 888              		.align	2
 889              		.type	ep1instate, %object
 890              		.size	ep1instate, 16
 891              	ep1instate:
 892 0000 00000000 		.space	16
 892      00000000 
 892      00000000 
ARM GAS  /tmp/ccsJxlLW.s 			page 17


 892      00000000 
 893              		.section	.rodata.commands,"a",%progbits
 894              		.align	2
 895              		.type	commands, %object
 896              		.size	commands, 40
 897              	commands:
 898 0000 98010000 		.word	.LC27
 899 0004 00000000 		.word	cmd_mem
 900 0008 9C010000 		.word	.LC28
 901 000c 00000000 		.word	cmd_threads
 902 0010 A4010000 		.word	.LC29
 903 0014 00000000 		.word	cmd_test
 904 0018 AC010000 		.word	.LC30
 905 001c 00000000 		.word	cmd_write
 906 0020 00000000 		.word	0
 907 0024 00000000 		.word	0
 908              		.section	.rodata.usbcfg,"a",%progbits
 909              		.align	2
 910              		.set	.LANCHOR9,. + 0
 911              		.type	usbcfg, %object
 912              		.size	usbcfg, 16
 913              	usbcfg:
 914 0000 00000000 		.word	usb_event
 915 0004 00000000 		.word	get_descriptor
 916 0008 00000000 		.word	sduRequestsHook
 917 000c 00000000 		.word	0
 918              		.section	.rodata.str1.4,"aMS",%progbits,1
 919              		.align	2
 920              	.LC0:
 921 0000 626C696E 		.ascii	"blinker\000"
 921      6B657200 
 922              	.LC1:
 923 0008 0D0A0A73 		.ascii	"\015\012\012stopped\015\012\000"
 923      746F7070 
 923      65640D0A 
 923      00
 924 0015 000000   		.space	3
 925              	.LC2:
 926 0018 55736167 		.ascii	"Usage: write\015\012\000"
 926      653A2077 
 926      72697465 
 926      0D0A00
 927 0027 00       		.space	1
 928              	.LC3:
 929 0028 55736167 		.ascii	"Usage: test\015\012\000"
 929      653A2074 
 929      6573740D 
 929      0A00
 930 0036 0000     		.space	2
 931              	.LC4:
 932 0038 6F757420 		.ascii	"out of memory\015\012\000"
 932      6F66206D 
 932      656D6F72 
 932      790D0A00 
 933              	.LC5:
 934 0048 55736167 		.ascii	"Usage: threads\015\012\000"
 934      653A2074 
ARM GAS  /tmp/ccsJxlLW.s 			page 18


 934      68726561 
 934      64730D0A 
 934      00
 935 0059 000000   		.space	3
 936              	.LC6:
 937 005c 20202020 		.ascii	"    addr    stack prio refs     state time\015\012\000"
 937      61646472 
 937      20202020 
 937      73746163 
 937      6B207072 
 938 0089 000000   		.space	3
 939              	.LC7:
 940 008c 252E386C 		.ascii	"%.8lx %.8lx %4lu %4lu %9s %lu\015\012\000"
 940      7820252E 
 940      386C7820 
 940      25346C75 
 940      2025346C 
 941              	.LC8:
 942 00ac 55736167 		.ascii	"Usage: mem\015\012\000"
 942      653A206D 
 942      656D0D0A 
 942      00
 943 00b9 000000   		.space	3
 944              	.LC9:
 945 00bc 636F7265 		.ascii	"core free memory : %u bytes\015\012\000"
 945      20667265 
 945      65206D65 
 945      6D6F7279 
 945      203A2025 
 946 00da 0000     		.space	2
 947              	.LC10:
 948 00dc 68656170 		.ascii	"heap fragments   : %u\015\012\000"
 948      20667261 
 948      676D656E 
 948      74732020 
 948      203A2025 
 949              	.LC11:
 950 00f4 68656170 		.ascii	"heap free total  : %u bytes\015\012\000"
 950      20667265 
 950      6520746F 
 950      74616C20 
 950      203A2025 
 951 0112 0000     		.space	2
 952              	.LC12:
 953 0114 52454144 		.ascii	"READY\000"
 953      5900
 954 011a 0000     		.space	2
 955              	.LC13:
 956 011c 43555252 		.ascii	"CURRENT\000"
 956      454E5400 
 957              	.LC14:
 958 0124 53555350 		.ascii	"SUSPENDED\000"
 958      454E4445 
 958      4400
 959 012e 0000     		.space	2
 960              	.LC15:
 961 0130 57545345 		.ascii	"WTSEM\000"
ARM GAS  /tmp/ccsJxlLW.s 			page 19


 961      4D00
 962 0136 0000     		.space	2
 963              	.LC16:
 964 0138 57544D54 		.ascii	"WTMTX\000"
 964      5800
 965 013e 0000     		.space	2
 966              	.LC17:
 967 0140 5754434F 		.ascii	"WTCOND\000"
 967      4E4400
 968 0147 00       		.space	1
 969              	.LC18:
 970 0148 534C4545 		.ascii	"SLEEPING\000"
 970      50494E47 
 970      00
 971 0151 000000   		.space	3
 972              	.LC19:
 973 0154 57544558 		.ascii	"WTEXIT\000"
 973      495400
 974 015b 00       		.space	1
 975              	.LC20:
 976 015c 57544F52 		.ascii	"WTOREVT\000"
 976      45565400 
 977              	.LC21:
 978 0164 5754414E 		.ascii	"WTANDEVT\000"
 978      44455654 
 978      00
 979 016d 000000   		.space	3
 980              	.LC22:
 981 0170 534E444D 		.ascii	"SNDMSGQ\000"
 981      53475100 
 982              	.LC23:
 983 0178 534E444D 		.ascii	"SNDMSG\000"
 983      534700
 984 017f 00       		.space	1
 985              	.LC24:
 986 0180 57544D53 		.ascii	"WTMSG\000"
 986      4700
 987 0186 0000     		.space	2
 988              	.LC25:
 989 0188 57545155 		.ascii	"WTQUEUE\000"
 989      45554500 
 990              	.LC26:
 991 0190 46494E41 		.ascii	"FINAL\000"
 991      4C00
 992 0196 0000     		.space	2
 993              	.LC27:
 994 0198 6D656D00 		.ascii	"mem\000"
 995              	.LC28:
 996 019c 74687265 		.ascii	"threads\000"
 996      61647300 
 997              	.LC29:
 998 01a4 74657374 		.ascii	"test\000"
 998      00
 999 01a9 000000   		.space	3
 1000              	.LC30:
 1001 01ac 77726974 		.ascii	"write\000"
 1001      6500
ARM GAS  /tmp/ccsJxlLW.s 			page 20


 1002 01b2 0000     		.section	.rodata.vcom_configuration_descriptor_data,"a",%progbits
 1003              		.align	2
 1004              		.type	vcom_configuration_descriptor_data, %object
 1005              		.size	vcom_configuration_descriptor_data, 67
 1006              	vcom_configuration_descriptor_data:
 1007 0000 09       		.byte	9
 1008 0001 02       		.byte	2
 1009 0002 43       		.byte	67
 1010 0003 00       		.byte	0
 1011 0004 02       		.byte	2
 1012 0005 01       		.byte	1
 1013 0006 00       		.byte	0
 1014 0007 C0       		.byte	-64
 1015 0008 32       		.byte	50
 1016 0009 09       		.byte	9
 1017 000a 04       		.byte	4
 1018 000b 00       		.byte	0
 1019 000c 00       		.byte	0
 1020 000d 01       		.byte	1
 1021 000e 02       		.byte	2
 1022 000f 02       		.byte	2
 1023 0010 01       		.byte	1
 1024 0011 00       		.byte	0
 1025 0012 05       		.byte	5
 1026 0013 24       		.byte	36
 1027 0014 00       		.byte	0
 1028 0015 10       		.byte	16
 1029 0016 01       		.byte	1
 1030 0017 05       		.byte	5
 1031 0018 24       		.byte	36
 1032 0019 01       		.byte	1
 1033 001a 00       		.byte	0
 1034 001b 01       		.byte	1
 1035 001c 04       		.byte	4
 1036 001d 24       		.byte	36
 1037 001e 02       		.byte	2
 1038 001f 02       		.byte	2
 1039 0020 05       		.byte	5
 1040 0021 24       		.byte	36
 1041 0022 06       		.byte	6
 1042 0023 00       		.byte	0
 1043 0024 01       		.byte	1
 1044 0025 07       		.byte	7
 1045 0026 05       		.byte	5
 1046 0027 82       		.byte	-126
 1047 0028 03       		.byte	3
 1048 0029 08       		.byte	8
 1049 002a 00       		.byte	0
 1050 002b FF       		.byte	-1
 1051 002c 09       		.byte	9
 1052 002d 04       		.byte	4
 1053 002e 01       		.byte	1
 1054 002f 00       		.byte	0
 1055 0030 02       		.byte	2
 1056 0031 0A       		.byte	10
 1057 0032 00       		.byte	0
 1058 0033 00       		.byte	0
ARM GAS  /tmp/ccsJxlLW.s 			page 21


 1059 0034 00       		.byte	0
 1060 0035 07       		.byte	7
 1061 0036 05       		.byte	5
 1062 0037 01       		.byte	1
 1063 0038 02       		.byte	2
 1064 0039 40       		.byte	64
 1065 003a 00       		.byte	0
 1066 003b 00       		.byte	0
 1067 003c 07       		.byte	7
 1068 003d 05       		.byte	5
 1069 003e 81       		.byte	-127
 1070 003f 02       		.byte	2
 1071 0040 40       		.byte	64
 1072 0041 00       		.byte	0
 1073 0042 00       		.byte	0
 1074 0043 00       		.section	.rodata.shell_cfg1,"a",%progbits
 1075              		.align	2
 1076              		.set	.LANCHOR11,. + 0
 1077              		.type	shell_cfg1, %object
 1078              		.size	shell_cfg1, 8
 1079              	shell_cfg1:
 1080 0000 00000000 		.word	SDU1
 1081 0004 00000000 		.word	commands
 1082              		.section	.bss.ep1outstate,"aw",%nobits
 1083              		.align	2
 1084              		.type	ep1outstate, %object
 1085              		.size	ep1outstate, 20
 1086              	ep1outstate:
 1087 0000 00000000 		.space	20
 1087      00000000 
 1087      00000000 
 1087      00000000 
 1087      00000000 
 1088              		.section	.rodata.vcom_string0,"a",%progbits
 1089              		.align	2
 1090              		.type	vcom_string0, %object
 1091              		.size	vcom_string0, 4
 1092              	vcom_string0:
 1093 0000 04       		.byte	4
 1094 0001 03       		.byte	3
 1095 0002 09       		.byte	9
 1096 0003 04       		.byte	4
 1097              		.section	.rodata.vcom_string1,"a",%progbits
 1098              		.align	2
 1099              		.type	vcom_string1, %object
 1100              		.size	vcom_string1, 38
 1101              	vcom_string1:
 1102 0000 26       		.byte	38
 1103 0001 03       		.byte	3
 1104 0002 53       		.byte	83
 1105 0003 00       		.byte	0
 1106 0004 54       		.byte	84
 1107 0005 00       		.byte	0
 1108 0006 4D       		.byte	77
 1109 0007 00       		.byte	0
 1110 0008 69       		.byte	105
 1111 0009 00       		.byte	0
ARM GAS  /tmp/ccsJxlLW.s 			page 22


 1112 000a 63       		.byte	99
 1113 000b 00       		.byte	0
 1114 000c 72       		.byte	114
 1115 000d 00       		.byte	0
 1116 000e 6F       		.byte	111
 1117 000f 00       		.byte	0
 1118 0010 65       		.byte	101
 1119 0011 00       		.byte	0
 1120 0012 6C       		.byte	108
 1121 0013 00       		.byte	0
 1122 0014 65       		.byte	101
 1123 0015 00       		.byte	0
 1124 0016 63       		.byte	99
 1125 0017 00       		.byte	0
 1126 0018 74       		.byte	116
 1127 0019 00       		.byte	0
 1128 001a 72       		.byte	114
 1129 001b 00       		.byte	0
 1130 001c 6F       		.byte	111
 1131 001d 00       		.byte	0
 1132 001e 6E       		.byte	110
 1133 001f 00       		.byte	0
 1134 0020 69       		.byte	105
 1135 0021 00       		.byte	0
 1136 0022 63       		.byte	99
 1137 0023 00       		.byte	0
 1138 0024 73       		.byte	115
 1139 0025 00       		.byte	0
 1140 0026 0000     		.section	.rodata.vcom_string3,"a",%progbits
 1141              		.align	2
 1142              		.type	vcom_string3, %object
 1143              		.size	vcom_string3, 8
 1144              	vcom_string3:
 1145 0000 08       		.byte	8
 1146 0001 03       		.byte	3
 1147 0002 32       		.byte	50
 1148 0003 00       		.byte	0
 1149 0004 37       		.byte	55
 1150 0005 00       		.byte	0
 1151 0006 30       		.byte	48
 1152 0007 00       		.byte	0
 1153              		.section	.data.buf.7736,"aw",%progbits
 1154              		.align	2
 1155              		.set	.LANCHOR4,. + 0
 1156              		.type	buf.7736, %object
 1157              		.size	buf.7736, 1025
 1158              	buf.7736:
 1159 0000 30313233 		.ascii	"0123456789abcdef0123456789abcdef0123456789abcdef012"
 1159      34353637 
 1159      38396162 
 1159      63646566 
 1159      30313233 
 1160 0033 33343536 		.ascii	"3456789abcdef0123456789abcdef0123456789abcdef012345"
 1160      37383961 
 1160      62636465 
 1160      66303132 
 1160      33343536 
ARM GAS  /tmp/ccsJxlLW.s 			page 23


 1161 0066 36373839 		.ascii	"6789abcdef0123456789abcdef0123456789abcdef012345678"
 1161      61626364 
 1161      65663031 
 1161      32333435 
 1161      36373839 
 1162 0099 39616263 		.ascii	"9abcdef0123456789abcdef0123456789abcdef0123456789ab"
 1162      64656630 
 1162      31323334 
 1162      35363738 
 1162      39616263 
 1163 00cc 63646566 		.ascii	"cdef0123456789abcdef0123456789abcdef0123456789abcde"
 1163      30313233 
 1163      34353637 
 1163      38396162 
 1163      63646566 
 1164 00ff 66303132 		.ascii	"f0123456789abcdef0123456789abcdef0123456789abcdef01"
 1164      33343536 
 1164      37383961 
 1164      62636465 
 1164      66303132 
 1165 0132 32333435 		.ascii	"23456789abcdef0123456789abcdef0123456789abcdef01234"
 1165      36373839 
 1165      61626364 
 1165      65663031 
 1165      32333435 
 1166 0165 35363738 		.ascii	"56789abcdef0123456789abcdef0123456789abcdef01234567"
 1166      39616263 
 1166      64656630 
 1166      31323334 
 1166      35363738 
 1167 0198 38396162 		.ascii	"89abcdef0123456789abcdef0123456789abcdef0123456789a"
 1167      63646566 
 1167      30313233 
 1167      34353637 
 1167      38396162 
 1168 01cb 62636465 		.ascii	"bcdef0123456789abcdef0123456789abcdef0123456789abcd"
 1168      66303132 
 1168      33343536 
 1168      37383961 
 1168      62636465 
 1169 01fe 65663031 		.ascii	"ef0123456789abcdef0123456789abcdef0123456789abcdef0"
 1169      32333435 
 1169      36373839 
 1169      61626364 
 1169      65663031 
 1170 0231 31323334 		.ascii	"123456789abcdef0123456789abcdef0123456789abcdef0123"
 1170      35363738 
 1170      39616263 
 1170      64656630 
 1170      31323334 
 1171 0264 34353637 		.ascii	"456789abcdef0123456789abcdef0123456789abcdef0123456"
 1171      38396162 
 1171      63646566 
 1171      30313233 
 1171      34353637 
 1172 0297 37383961 		.ascii	"789abcdef0123456789abcdef0123456789abcdef0123456789"
 1172      62636465 
ARM GAS  /tmp/ccsJxlLW.s 			page 24


 1172      66303132 
 1172      33343536 
 1172      37383961 
 1173 02ca 61626364 		.ascii	"abcdef0123456789abcdef0123456789abcdef0123456789abc"
 1173      65663031 
 1173      32333435 
 1173      36373839 
 1173      61626364 
 1174 02fd 64656630 		.ascii	"def0123456789abcdef0123456789abcdef0123456789abcdef"
 1174      31323334 
 1174      35363738 
 1174      39616263 
 1174      64656630 
 1175 0330 30313233 		.ascii	"0123456789abcdef0123456789abcdef0123456789abcdef012"
 1175      34353637 
 1175      38396162 
 1175      63646566 
 1175      30313233 
 1176 0363 33343536 		.ascii	"3456789abcdef0123456789abcdef0123456789abcdef012345"
 1176      37383961 
 1176      62636465 
 1176      66303132 
 1176      33343536 
 1177 0396 36373839 		.ascii	"6789abcdef0123456789abcdef0123456789abcdef012345678"
 1177      61626364 
 1177      65663031 
 1177      32333435 
 1177      36373839 
 1178 03c9 39616263 		.ascii	"9abcdef0123456789abcdef0123456789abcdef0123456789ab"
 1178      64656630 
 1178      31323334 
 1178      35363738 
 1178      39616263 
 1179 03fc 63646566 		.ascii	"cdef\000"
 1179      00
 1180 0401 000000   		.section	.rodata.vcom_device_descriptor_data,"a",%progbits
 1181              		.align	2
 1182              		.type	vcom_device_descriptor_data, %object
 1183              		.size	vcom_device_descriptor_data, 18
 1184              	vcom_device_descriptor_data:
 1185 0000 12       		.byte	18
 1186 0001 01       		.byte	1
 1187 0002 10       		.byte	16
 1188 0003 01       		.byte	1
 1189 0004 02       		.byte	2
 1190 0005 00       		.byte	0
 1191 0006 00       		.byte	0
 1192 0007 40       		.byte	64
 1193 0008 83       		.byte	-125
 1194 0009 04       		.byte	4
 1195 000a 40       		.byte	64
 1196 000b 57       		.byte	87
 1197 000c 00       		.byte	0
 1198 000d 02       		.byte	2
 1199 000e 01       		.byte	1
 1200 000f 02       		.byte	2
 1201 0010 03       		.byte	3
ARM GAS  /tmp/ccsJxlLW.s 			page 25


 1202 0011 01       		.byte	1
 1203 0012 0000     		.section	.rodata.vcom_strings,"a",%progbits
 1204              		.align	2
 1205              		.set	.LANCHOR2,. + 0
 1206              		.type	vcom_strings, %object
 1207              		.size	vcom_strings, 32
 1208              	vcom_strings:
 1209 0000 04000000 		.word	4
 1210 0004 00000000 		.word	vcom_string0
 1211 0008 26000000 		.word	38
 1212 000c 00000000 		.word	vcom_string1
 1213 0010 38000000 		.word	56
 1214 0014 00000000 		.word	vcom_string2
 1215 0018 08000000 		.word	8
 1216 001c 00000000 		.word	vcom_string3
 1217              		.section	.rodata.serusbcfg,"a",%progbits
 1218              		.align	2
 1219              		.set	.LANCHOR8,. + 0
 1220              		.type	serusbcfg, %object
 1221              		.size	serusbcfg, 8
 1222              	serusbcfg:
 1223 0000 00000000 		.word	USBD1
 1224 0004 01       		.byte	1
 1225 0005 01       		.byte	1
 1226 0006 02       		.byte	2
 1227 0007 00       		.space	1
 1228              		.section	.rodata.vcom_device_descriptor,"a",%progbits
 1229              		.align	2
 1230              		.set	.LANCHOR0,. + 0
 1231              		.type	vcom_device_descriptor, %object
 1232              		.size	vcom_device_descriptor, 8
 1233              	vcom_device_descriptor:
 1234 0000 12000000 		.word	18
 1235 0004 00000000 		.word	vcom_device_descriptor_data
 1236              		.text
 1237              	.Letext0:
 1238              		.file 3 "/usr/lib/gcc/arm-none-eabi/4.8.3/include/stddef.h"
 1239              		.file 4 "/usr/lib/gcc/arm-none-eabi/4.8.3/include/stdarg.h"
 1240              		.file 5 "/usr/arm-none-eabi/include/stdint.h"
 1241              		.file 6 "../../../os/ports/GCC/ARMCMx/chtypes.h"
 1242              		.file 7 "../../../os/kernel/include/chlists.h"
 1243              		.file 8 "<built-in>"
 1244              		.file 9 "../../../os/kernel/include/chthreads.h"
 1245              		.file 10 "../../../os/ports/GCC/ARMCMx/chcore_v7m.h"
 1246              		.file 11 "../../../os/kernel/include/chschd.h"
 1247              		.file 12 "../../../os/kernel/include/chmtx.h"
 1248              		.file 13 "../../../os/kernel/include/chevents.h"
 1249              		.file 14 "../../../os/kernel/include/chmemcore.h"
 1250              		.file 15 "../../../os/kernel/include/chheap.h"
 1251              		.file 16 "../../../os/kernel/include/chqueues.h"
 1252              		.file 17 "../../../os/kernel/include/chstreams.h"
 1253              		.file 18 "../../../os/hal/include/io_channel.h"
 1254              		.file 19 "../../../os/hal/platforms/STM32/GPIOv2/pal_lld.h"
 1255              		.file 20 "../../../os/hal/include/usb.h"
 1256              		.file 21 "../../../os/hal/platforms/STM32/USBv1/usb_lld.h"
 1257              		.file 22 "../../../os/hal/include/serial_usb.h"
 1258              		.file 23 "../../../os/various/shell.h"
ARM GAS  /tmp/ccsJxlLW.s 			page 26


 1259              		.file 24 "../../../os/ports/common/ARMCMx/CMSIS/include/core_cm4.h"
 1260              		.file 25 "../../../os/kernel/include/chdynamic.h"
 1261              		.file 26 "../../../os/kernel/include/chregistry.h"
 1262              		.file 27 "../../../os/kernel/include/chdebug.h"
 1263              		.file 28 "../../../os/hal/include/hal.h"
 1264              		.file 29 "../../../os/kernel/include/chsys.h"