ARM GAS  /tmp/ccbuXset.s 			page 1


   1              		.syntax unified
   2              		.cpu cortex-m4
   3              		.fpu softvfp
   4              		.eabi_attribute 20, 1
   5              		.eabi_attribute 21, 1
   6              		.eabi_attribute 23, 3
   7              		.eabi_attribute 24, 1
   8              		.eabi_attribute 25, 1
   9              		.eabi_attribute 26, 1
  10              		.eabi_attribute 30, 2
  11              		.eabi_attribute 34, 1
  12              		.eabi_attribute 18, 4
  13              		.thumb
  14              		.file	"tm.c"
  15              		.text
  16              	.Ltext0:
  17              		.cfi_sections	.debug_frame
  18              		.section	.text.tm_start,"ax",%progbits
  19              		.align	2
  20              		.p2align 4,,15
  21              		.thumb
  22              		.thumb_func
  23              		.type	tm_start, %function
  24              	tm_start:
  25              	.LFB118:
  26              		.file 1 "../../../os/hal/src/tm.c"
  27              		.loc 1 62 0
  28              		.cfi_startproc
  29              		@ args = 0, pretend = 0, frame = 0
  30              		@ frame_needed = 0, uses_anonymous_args = 0
  31              		@ link register save eliminated.
  32              	.LVL0:
  33              		.loc 1 64 0
  34 0000 014B     		ldr	r3, .L2
  35 0002 5B68     		ldr	r3, [r3, #4]
  36 0004 8360     		str	r3, [r0, #8]
  37 0006 7047     		bx	lr
  38              	.L3:
  39              		.align	2
  40              	.L2:
  41 0008 001000E0 		.word	-536866816
  42              		.cfi_endproc
  43              	.LFE118:
  44              		.size	tm_start, .-tm_start
  45 000c AFF30080 		.section	.text.tm_stop,"ax",%progbits
  46              		.align	2
  47              		.p2align 4,,15
  48              		.thumb
  49              		.thumb_func
  50              		.type	tm_stop, %function
  51              	tm_stop:
  52              	.LFB119:
  53              		.loc 1 74 0
  54              		.cfi_startproc
  55              		@ args = 0, pretend = 0, frame = 0
  56              		@ frame_needed = 0, uses_anonymous_args = 0
  57              		@ link register save eliminated.
ARM GAS  /tmp/ccbuXset.s 			page 2


  58              	.LVL1:
  59              		.loc 1 76 0
  60 0000 0B4B     		ldr	r3, .L9
  61              		.loc 1 77 0
  62 0002 0C4A     		ldr	r2, .L9+4
  63 0004 8168     		ldr	r1, [r0, #8]
  64              		.loc 1 76 0
  65 0006 5B68     		ldr	r3, [r3, #4]
  66              	.LVL2:
  67              		.loc 1 74 0
  68 0008 10B4     		push	{r4}
  69              		.cfi_def_cfa_offset 4
  70              		.cfi_offset 4, -4
  71              		.loc 1 77 0
  72 000a 1468     		ldr	r4, [r2]
  73              		.loc 1 78 0
  74 000c C268     		ldr	r2, [r0, #12]
  75              		.loc 1 77 0
  76 000e 5B1A     		subs	r3, r3, r1
  77              	.LVL3:
  78 0010 1B1B     		subs	r3, r3, r4
  79              		.loc 1 78 0
  80 0012 9342     		cmp	r3, r2
  81              		.loc 1 77 0
  82 0014 8360     		str	r3, [r0, #8]
  83              		.loc 1 78 0
  84 0016 06D8     		bhi	.L8
  85              		.loc 1 80 0
  86 0018 0269     		ldr	r2, [r0, #16]
  87              		.loc 1 82 0
  88 001a 5DF8044B 		ldr	r4, [sp], #4
  89              		.loc 1 80 0
  90 001e 9342     		cmp	r3, r2
  91              		.loc 1 81 0
  92 0020 38BF     		it	cc
  93 0022 0361     		strcc	r3, [r0, #16]
  94              		.loc 1 82 0
  95 0024 7047     		bx	lr
  96              	.L8:
  97              		.loc 1 79 0
  98 0026 C360     		str	r3, [r0, #12]
  99              		.loc 1 82 0
 100 0028 5DF8044B 		ldr	r4, [sp], #4
 101 002c 7047     		bx	lr
 102              	.L10:
 103 002e 00BF     		.align	2
 104              	.L9:
 105 0030 001000E0 		.word	-536866816
 106 0034 00000000 		.word	.LANCHOR0
 107              		.cfi_endproc
 108              	.LFE119:
 109              		.size	tm_stop, .-tm_stop
 110 0038 AFF30080 		.section	.text.tmInit,"ax",%progbits
 110      AFF30080 
 111              		.align	2
 112              		.p2align 4,,15
 113              		.global	tmInit
ARM GAS  /tmp/ccbuXset.s 			page 3


 114              		.thumb
 115              		.thumb_func
 116              		.type	tmInit, %function
 117              	tmInit:
 118              	.LFB120:
 119              		.loc 1 97 0
 120              		.cfi_startproc
 121              		@ args = 0, pretend = 0, frame = 24
 122              		@ frame_needed = 0, uses_anonymous_args = 0
 123 0000 10B5     		push	{r4, lr}
 124              		.cfi_def_cfa_offset 8
 125              		.cfi_offset 4, -8
 126              		.cfi_offset 14, -4
 127 0002 86B0     		sub	sp, sp, #24
 128              		.cfi_def_cfa_offset 32
 129              		.loc 1 103 0
 130 0004 0A4C     		ldr	r4, .L12
 131              	.LBB8:
 132              	.LBB9:
 133              		.loc 1 119 0
 134 0006 0B4B     		ldr	r3, .L12+4
 135              	.LBE9:
 136              	.LBE8:
 137              	.LBB15:
 138              	.LBB16:
 139              		.loc 1 64 0
 140 0008 0B49     		ldr	r1, .L12+8
 141              	.LBE16:
 142              	.LBE15:
 143              	.LBB19:
 144              	.LBB10:
 145              		.loc 1 119 0
 146 000a 0193     		str	r3, [sp, #4]
 147              		.loc 1 123 0
 148 000c 4FF0FF30 		mov	r0, #-1
 149              	.LBE10:
 150              	.LBE19:
 151              		.loc 1 103 0
 152 0010 0023     		movs	r3, #0
 153              	.LBB20:
 154              	.LBB11:
 155              		.loc 1 123 0
 156 0012 0590     		str	r0, [sp, #20]
 157              	.LBE11:
 158              	.LBE20:
 159              		.loc 1 103 0
 160 0014 2360     		str	r3, [r4]
 161              	.LVL4:
 162              	.LBB21:
 163              	.LBB12:
 164              		.loc 1 122 0
 165 0016 0493     		str	r3, [sp, #16]
 166              	.LBE12:
 167              	.LBE21:
 168              	.LBB22:
 169              	.LBB17:
 170              		.loc 1 64 0
ARM GAS  /tmp/ccbuXset.s 			page 4


 171 0018 4B68     		ldr	r3, [r1, #4]
 172              	.LBE17:
 173              	.LBE22:
 174              	.LBB23:
 175              	.LBB13:
 176              		.loc 1 120 0
 177 001a 084A     		ldr	r2, .L12+12
 178              	.LBE13:
 179              	.LBE23:
 180              	.LBB24:
 181              	.LBB18:
 182              		.loc 1 64 0
 183 001c 0393     		str	r3, [sp, #12]
 184              	.LBE18:
 185              	.LBE24:
 186              		.loc 1 106 0
 187 001e 01A8     		add	r0, sp, #4
 188              	.LVL5:
 189              	.LBB25:
 190              	.LBB14:
 191              		.loc 1 120 0
 192 0020 0292     		str	r2, [sp, #8]
 193              	.LBE14:
 194              	.LBE25:
 195              		.loc 1 106 0
 196 0022 FFF7FEFF 		bl	tm_stop
 197              	.LVL6:
 198              		.loc 1 107 0
 199 0026 039B     		ldr	r3, [sp, #12]
 200 0028 2360     		str	r3, [r4]
 201              		.loc 1 108 0
 202 002a 06B0     		add	sp, sp, #24
 203              		@ sp needed
 204 002c 10BD     		pop	{r4, pc}
 205              	.LVL7:
 206              	.L13:
 207 002e 00BF     		.align	2
 208              	.L12:
 209 0030 00000000 		.word	.LANCHOR0
 210 0034 00000000 		.word	tm_start
 211 0038 001000E0 		.word	-536866816
 212 003c 00000000 		.word	tm_stop
 213              		.cfi_endproc
 214              	.LFE120:
 215              		.size	tmInit, .-tmInit
 216              		.section	.text.tmObjectInit,"ax",%progbits
 217              		.align	2
 218              		.p2align 4,,15
 219              		.global	tmObjectInit
 220              		.thumb
 221              		.thumb_func
 222              		.type	tmObjectInit, %function
 223              	tmObjectInit:
 224              	.LFB121:
 225              		.loc 1 117 0
 226              		.cfi_startproc
 227              		@ args = 0, pretend = 0, frame = 0
ARM GAS  /tmp/ccbuXset.s 			page 5


 228              		@ frame_needed = 0, uses_anonymous_args = 0
 229              		@ link register save eliminated.
 230              	.LVL8:
 231              		.loc 1 119 0
 232 0000 054B     		ldr	r3, .L15
 233              		.loc 1 120 0
 234 0002 0649     		ldr	r1, .L15+4
 235              		.loc 1 119 0
 236 0004 0360     		str	r3, [r0]
 237              		.loc 1 123 0
 238 0006 4FF0FF32 		mov	r2, #-1
 239              		.loc 1 121 0
 240 000a 0023     		movs	r3, #0
 241              		.loc 1 120 0
 242 000c 4160     		str	r1, [r0, #4]
 243              		.loc 1 123 0
 244 000e 0261     		str	r2, [r0, #16]
 245              		.loc 1 121 0
 246 0010 8360     		str	r3, [r0, #8]
 247              		.loc 1 122 0
 248 0012 C360     		str	r3, [r0, #12]
 249 0014 7047     		bx	lr
 250              	.L16:
 251 0016 00BF     		.align	2
 252              	.L15:
 253 0018 00000000 		.word	tm_start
 254 001c 00000000 		.word	tm_stop
 255              		.cfi_endproc
 256              	.LFE121:
 257              		.size	tmObjectInit, .-tmObjectInit
 258              		.section	.bss.measurement_offset,"aw",%nobits
 259              		.align	2
 260              		.set	.LANCHOR0,. + 0
 261              		.type	measurement_offset, %object
 262              		.size	measurement_offset, 4
 263              	measurement_offset:
 264 0000 00000000 		.space	4
 265              		.text
 266              	.Letext0:
 267              		.file 2 "/usr/arm-none-eabi/include/stdint.h"
 268              		.file 3 "../../../os/ports/common/ARMCMx/nvic.h"
 269              		.file 4 "../../../os/hal/platforms/STM32F30x/hal_lld.h"
 270              		.file 5 "../../../os/hal/include/tm.h"
 271              		.file 6 "../../../os/ports/common/ARMCMx/CMSIS/include/core_cm4.h"
 272              		.section	.debug_info,"",%progbits
 273              	.Ldebug_info0:
 274 0000 BE020000 		.4byte	0x2be
 275 0004 0400     		.2byte	0x4
 276 0006 00000000 		.4byte	.Ldebug_abbrev0
 277 000a 04       		.byte	0x4
 278 000b 01       		.uleb128 0x1
 279 000c 31000000 		.4byte	.LASF32
 280 0010 01       		.byte	0x1
 281 0011 18000000 		.4byte	.LASF33
 282 0015 33020000 		.4byte	.LASF34
 283 0019 58000000 		.4byte	.Ldebug_ranges0+0x58
 284 001d 00000000 		.4byte	0
ARM GAS  /tmp/ccbuXset.s 			page 6


 285 0021 00000000 		.4byte	.Ldebug_line0
 286 0025 02       		.uleb128 0x2
 287 0026 04       		.byte	0x4
 288 0027 05       		.byte	0x5
 289 0028 696E7400 		.ascii	"int\000"
 290 002c 03       		.uleb128 0x3
 291 002d 04       		.byte	0x4
 292 002e 07       		.byte	0x7
 293 002f B0010000 		.4byte	.LASF0
 294 0033 03       		.uleb128 0x3
 295 0034 01       		.byte	0x1
 296 0035 06       		.byte	0x6
 297 0036 70020000 		.4byte	.LASF1
 298 003a 03       		.uleb128 0x3
 299 003b 01       		.byte	0x1
 300 003c 08       		.byte	0x8
 301 003d 30010000 		.4byte	.LASF2
 302 0041 03       		.uleb128 0x3
 303 0042 02       		.byte	0x2
 304 0043 05       		.byte	0x5
 305 0044 1C020000 		.4byte	.LASF3
 306 0048 03       		.uleb128 0x3
 307 0049 02       		.byte	0x2
 308 004a 07       		.byte	0x7
 309 004b 6B010000 		.4byte	.LASF4
 310 004f 04       		.uleb128 0x4
 311 0050 E2010000 		.4byte	.LASF6
 312 0054 02       		.byte	0x2
 313 0055 4F       		.byte	0x4f
 314 0056 5A000000 		.4byte	0x5a
 315 005a 03       		.uleb128 0x3
 316 005b 04       		.byte	0x4
 317 005c 05       		.byte	0x5
 318 005d 67020000 		.4byte	.LASF5
 319 0061 04       		.uleb128 0x4
 320 0062 7E010000 		.4byte	.LASF7
 321 0066 02       		.byte	0x2
 322 0067 50       		.byte	0x50
 323 0068 6C000000 		.4byte	0x6c
 324 006c 03       		.uleb128 0x3
 325 006d 04       		.byte	0x4
 326 006e 07       		.byte	0x7
 327 006f 4C010000 		.4byte	.LASF8
 328 0073 03       		.uleb128 0x3
 329 0074 08       		.byte	0x8
 330 0075 05       		.byte	0x5
 331 0076 F3010000 		.4byte	.LASF9
 332 007a 03       		.uleb128 0x3
 333 007b 08       		.byte	0x8
 334 007c 07       		.byte	0x7
 335 007d 19010000 		.4byte	.LASF10
 336 0081 03       		.uleb128 0x3
 337 0082 01       		.byte	0x1
 338 0083 02       		.byte	0x2
 339 0084 8C020000 		.4byte	.LASF11
 340 0088 04       		.uleb128 0x4
 341 0089 01020000 		.4byte	.LASF12
ARM GAS  /tmp/ccbuXset.s 			page 7


 342 008d 03       		.byte	0x3
 343 008e 33       		.byte	0x33
 344 008f 93000000 		.4byte	0x93
 345 0093 05       		.uleb128 0x5
 346 0094 61000000 		.4byte	0x61
 347 0098 03       		.uleb128 0x3
 348 0099 04       		.byte	0x4
 349 009a 07       		.byte	0x7
 350 009b EA010000 		.4byte	.LASF13
 351 009f 06       		.uleb128 0x6
 352 00a0 20       		.byte	0x20
 353 00a1 03       		.byte	0x3
 354 00a2 FF       		.byte	0xff
 355 00a3 10010000 		.4byte	0x110
 356 00a7 07       		.uleb128 0x7
 357 00a8 D6010000 		.4byte	.LASF14
 358 00ac 03       		.byte	0x3
 359 00ad 0001     		.2byte	0x100
 360 00af 88000000 		.4byte	0x88
 361 00b3 00       		.byte	0
 362 00b4 07       		.uleb128 0x7
 363 00b5 3E010000 		.4byte	.LASF15
 364 00b9 03       		.byte	0x3
 365 00ba 0101     		.2byte	0x101
 366 00bc 88000000 		.4byte	0x88
 367 00c0 04       		.byte	0x4
 368 00c1 07       		.uleb128 0x7
 369 00c2 87010000 		.4byte	.LASF16
 370 00c6 03       		.byte	0x3
 371 00c7 0201     		.2byte	0x102
 372 00c9 88000000 		.4byte	0x88
 373 00cd 08       		.byte	0x8
 374 00ce 07       		.uleb128 0x7
 375 00cf DB010000 		.4byte	.LASF17
 376 00d3 03       		.byte	0x3
 377 00d4 0301     		.2byte	0x103
 378 00d6 88000000 		.4byte	0x88
 379 00da 0C       		.byte	0xc
 380 00db 07       		.uleb128 0x7
 381 00dc 0B010000 		.4byte	.LASF18
 382 00e0 03       		.byte	0x3
 383 00e1 0401     		.2byte	0x104
 384 00e3 88000000 		.4byte	0x88
 385 00e7 10       		.byte	0x10
 386 00e8 07       		.uleb128 0x7
 387 00e9 A9010000 		.4byte	.LASF19
 388 00ed 03       		.byte	0x3
 389 00ee 0501     		.2byte	0x105
 390 00f0 88000000 		.4byte	0x88
 391 00f4 14       		.byte	0x14
 392 00f5 07       		.uleb128 0x7
 393 00f6 9B010000 		.4byte	.LASF20
 394 00fa 03       		.byte	0x3
 395 00fb 0601     		.2byte	0x106
 396 00fd 88000000 		.4byte	0x88
 397 0101 18       		.byte	0x18
 398 0102 07       		.uleb128 0x7
ARM GAS  /tmp/ccbuXset.s 			page 8


 399 0103 05000000 		.4byte	.LASF21
 400 0107 03       		.byte	0x3
 401 0108 0701     		.2byte	0x107
 402 010a 88000000 		.4byte	0x88
 403 010e 1C       		.byte	0x1c
 404 010f 00       		.byte	0
 405 0110 08       		.uleb128 0x8
 406 0111 26020000 		.4byte	.LASF22
 407 0115 03       		.byte	0x3
 408 0116 0801     		.2byte	0x108
 409 0118 9F000000 		.4byte	0x9f
 410 011c 03       		.uleb128 0x3
 411 011d 01       		.byte	0x1
 412 011e 08       		.byte	0x8
 413 011f C8010000 		.4byte	.LASF23
 414 0123 05       		.uleb128 0x5
 415 0124 4F000000 		.4byte	0x4f
 416 0128 08       		.uleb128 0x8
 417 0129 BD010000 		.4byte	.LASF24
 418 012d 04       		.byte	0x4
 419 012e 4004     		.2byte	0x440
 420 0130 61000000 		.4byte	0x61
 421 0134 04       		.uleb128 0x4
 422 0135 7C020000 		.4byte	.LASF25
 423 0139 05       		.byte	0x5
 424 013a 3E       		.byte	0x3e
 425 013b 3F010000 		.4byte	0x13f
 426 013f 09       		.uleb128 0x9
 427 0140 7C020000 		.4byte	.LASF25
 428 0144 14       		.byte	0x14
 429 0145 05       		.byte	0x5
 430 0146 43       		.byte	0x43
 431 0147 88010000 		.4byte	0x188
 432 014b 0A       		.uleb128 0xa
 433 014c 12000000 		.4byte	.LASF26
 434 0150 05       		.byte	0x5
 435 0151 44       		.byte	0x44
 436 0152 99010000 		.4byte	0x199
 437 0156 00       		.byte	0
 438 0157 0A       		.uleb128 0xa
 439 0158 14010000 		.4byte	.LASF27
 440 015c 05       		.byte	0x5
 441 015d 45       		.byte	0x45
 442 015e 99010000 		.4byte	0x199
 443 0162 04       		.byte	0x4
 444 0163 0A       		.uleb128 0xa
 445 0164 00000000 		.4byte	.LASF28
 446 0168 05       		.byte	0x5
 447 0169 46       		.byte	0x46
 448 016a 28010000 		.4byte	0x128
 449 016e 08       		.byte	0x8
 450 016f 0A       		.uleb128 0xa
 451 0170 A3010000 		.4byte	.LASF29
 452 0174 05       		.byte	0x5
 453 0175 47       		.byte	0x47
 454 0176 28010000 		.4byte	0x128
 455 017a 0C       		.byte	0xc
ARM GAS  /tmp/ccbuXset.s 			page 9


 456 017b 0A       		.uleb128 0xa
 457 017c 2E020000 		.4byte	.LASF30
 458 0180 05       		.byte	0x5
 459 0181 48       		.byte	0x48
 460 0182 28010000 		.4byte	0x128
 461 0186 10       		.byte	0x10
 462 0187 00       		.byte	0
 463 0188 0B       		.uleb128 0xb
 464 0189 93010000 		.4byte	0x193
 465 018d 0C       		.uleb128 0xc
 466 018e 93010000 		.4byte	0x193
 467 0192 00       		.byte	0
 468 0193 0D       		.uleb128 0xd
 469 0194 04       		.byte	0x4
 470 0195 34010000 		.4byte	0x134
 471 0199 0D       		.uleb128 0xd
 472 019a 04       		.byte	0x4
 473 019b 88010000 		.4byte	0x188
 474 019f 0E       		.uleb128 0xe
 475 01a0 5E010000 		.4byte	.LASF35
 476 01a4 01       		.byte	0x1
 477 01a5 75       		.byte	0x75
 478 01a6 01       		.byte	0x1
 479 01a7 B7010000 		.4byte	0x1b7
 480 01ab 0F       		.uleb128 0xf
 481 01ac 746D7000 		.ascii	"tmp\000"
 482 01b0 01       		.byte	0x1
 483 01b1 75       		.byte	0x75
 484 01b2 93010000 		.4byte	0x193
 485 01b6 00       		.byte	0
 486 01b7 10       		.uleb128 0x10
 487 01b8 CD010000 		.4byte	.LASF36
 488 01bc 01       		.byte	0x1
 489 01bd 3E       		.byte	0x3e
 490 01be 01       		.byte	0x1
 491 01bf CF010000 		.4byte	0x1cf
 492 01c3 0F       		.uleb128 0xf
 493 01c4 746D7000 		.ascii	"tmp\000"
 494 01c8 01       		.byte	0x1
 495 01c9 3E       		.byte	0x3e
 496 01ca 93010000 		.4byte	0x193
 497 01ce 00       		.byte	0
 498 01cf 11       		.uleb128 0x11
 499 01d0 B7010000 		.4byte	0x1b7
 500 01d4 00000000 		.4byte	.LFB118
 501 01d8 0C000000 		.4byte	.LFE118-.LFB118
 502 01dc 01       		.uleb128 0x1
 503 01dd 9C       		.byte	0x9c
 504 01de EA010000 		.4byte	0x1ea
 505 01e2 12       		.uleb128 0x12
 506 01e3 C3010000 		.4byte	0x1c3
 507 01e7 01       		.uleb128 0x1
 508 01e8 50       		.byte	0x50
 509 01e9 00       		.byte	0
 510 01ea 13       		.uleb128 0x13
 511 01eb 0A000000 		.4byte	.LASF37
 512 01ef 01       		.byte	0x1
ARM GAS  /tmp/ccbuXset.s 			page 10


 513 01f0 4A       		.byte	0x4a
 514 01f1 00000000 		.4byte	.LFB119
 515 01f5 38000000 		.4byte	.LFE119-.LFB119
 516 01f9 01       		.uleb128 0x1
 517 01fa 9C       		.byte	0x9c
 518 01fb 1C020000 		.4byte	0x21c
 519 01ff 14       		.uleb128 0x14
 520 0200 746D7000 		.ascii	"tmp\000"
 521 0204 01       		.byte	0x1
 522 0205 4A       		.byte	0x4a
 523 0206 93010000 		.4byte	0x193
 524 020a 01       		.uleb128 0x1
 525 020b 50       		.byte	0x50
 526 020c 15       		.uleb128 0x15
 527 020d 6E6F7700 		.ascii	"now\000"
 528 0211 01       		.byte	0x1
 529 0212 4C       		.byte	0x4c
 530 0213 28010000 		.4byte	0x128
 531 0217 00000000 		.4byte	.LLST0
 532 021b 00       		.byte	0
 533 021c 16       		.uleb128 0x16
 534 021d 45010000 		.4byte	.LASF38
 535 0221 01       		.byte	0x1
 536 0222 61       		.byte	0x61
 537 0223 00000000 		.4byte	.LFB120
 538 0227 40000000 		.4byte	.LFE120-.LFB120
 539 022b 01       		.uleb128 0x1
 540 022c 9C       		.byte	0x9c
 541 022d 89020000 		.4byte	0x289
 542 0231 17       		.uleb128 0x17
 543 0232 746D00   		.ascii	"tm\000"
 544 0235 01       		.byte	0x1
 545 0236 62       		.byte	0x62
 546 0237 34010000 		.4byte	0x134
 547 023b 02       		.uleb128 0x2
 548 023c 91       		.byte	0x91
 549 023d 64       		.sleb128 -28
 550 023e 18       		.uleb128 0x18
 551 023f 9F010000 		.4byte	0x19f
 552 0243 06000000 		.4byte	.LBB8
 553 0247 00000000 		.4byte	.Ldebug_ranges0+0
 554 024b 01       		.byte	0x1
 555 024c 68       		.byte	0x68
 556 024d 5B020000 		.4byte	0x25b
 557 0251 19       		.uleb128 0x19
 558 0252 AB010000 		.4byte	0x1ab
 559 0256 13000000 		.4byte	.LLST1
 560 025a 00       		.byte	0
 561 025b 18       		.uleb128 0x18
 562 025c B7010000 		.4byte	0x1b7
 563 0260 08000000 		.4byte	.LBB15
 564 0264 38000000 		.4byte	.Ldebug_ranges0+0x38
 565 0268 01       		.byte	0x1
 566 0269 69       		.byte	0x69
 567 026a 78020000 		.4byte	0x278
 568 026e 19       		.uleb128 0x19
 569 026f C3010000 		.4byte	0x1c3
ARM GAS  /tmp/ccbuXset.s 			page 11


 570 0273 13000000 		.4byte	.LLST1
 571 0277 00       		.byte	0
 572 0278 1A       		.uleb128 0x1a
 573 0279 26000000 		.4byte	.LVL6
 574 027d EA010000 		.4byte	0x1ea
 575 0281 1B       		.uleb128 0x1b
 576 0282 01       		.uleb128 0x1
 577 0283 50       		.byte	0x50
 578 0284 02       		.uleb128 0x2
 579 0285 91       		.byte	0x91
 580 0286 64       		.sleb128 -28
 581 0287 00       		.byte	0
 582 0288 00       		.byte	0
 583 0289 11       		.uleb128 0x11
 584 028a 9F010000 		.4byte	0x19f
 585 028e 00000000 		.4byte	.LFB121
 586 0292 20000000 		.4byte	.LFE121-.LFB121
 587 0296 01       		.uleb128 0x1
 588 0297 9C       		.byte	0x9c
 589 0298 A4020000 		.4byte	0x2a4
 590 029c 12       		.uleb128 0x12
 591 029d AB010000 		.4byte	0x1ab
 592 02a1 01       		.uleb128 0x1
 593 02a2 50       		.byte	0x50
 594 02a3 00       		.byte	0
 595 02a4 1C       		.uleb128 0x1c
 596 02a5 09020000 		.4byte	.LASF31
 597 02a9 01       		.byte	0x1
 598 02aa 31       		.byte	0x31
 599 02ab 28010000 		.4byte	0x128
 600 02af 05       		.uleb128 0x5
 601 02b0 03       		.byte	0x3
 602 02b1 00000000 		.4byte	measurement_offset
 603 02b5 1D       		.uleb128 0x1d
 604 02b6 8E010000 		.4byte	.LASF39
 605 02ba 06       		.byte	0x6
 606 02bb 9806     		.2byte	0x698
 607 02bd 23010000 		.4byte	0x123
 608 02c1 00       		.byte	0
 609              		.section	.debug_abbrev,"",%progbits
 610              	.Ldebug_abbrev0:
 611 0000 01       		.uleb128 0x1
 612 0001 11       		.uleb128 0x11
 613 0002 01       		.byte	0x1
 614 0003 25       		.uleb128 0x25
 615 0004 0E       		.uleb128 0xe
 616 0005 13       		.uleb128 0x13
 617 0006 0B       		.uleb128 0xb
 618 0007 03       		.uleb128 0x3
 619 0008 0E       		.uleb128 0xe
 620 0009 1B       		.uleb128 0x1b
 621 000a 0E       		.uleb128 0xe
 622 000b 55       		.uleb128 0x55
 623 000c 17       		.uleb128 0x17
 624 000d 11       		.uleb128 0x11
 625 000e 01       		.uleb128 0x1
 626 000f 10       		.uleb128 0x10
ARM GAS  /tmp/ccbuXset.s 			page 12


 627 0010 17       		.uleb128 0x17
 628 0011 00       		.byte	0
 629 0012 00       		.byte	0
 630 0013 02       		.uleb128 0x2
 631 0014 24       		.uleb128 0x24
 632 0015 00       		.byte	0
 633 0016 0B       		.uleb128 0xb
 634 0017 0B       		.uleb128 0xb
 635 0018 3E       		.uleb128 0x3e
 636 0019 0B       		.uleb128 0xb
 637 001a 03       		.uleb128 0x3
 638 001b 08       		.uleb128 0x8
 639 001c 00       		.byte	0
 640 001d 00       		.byte	0
 641 001e 03       		.uleb128 0x3
 642 001f 24       		.uleb128 0x24
 643 0020 00       		.byte	0
 644 0021 0B       		.uleb128 0xb
 645 0022 0B       		.uleb128 0xb
 646 0023 3E       		.uleb128 0x3e
 647 0024 0B       		.uleb128 0xb
 648 0025 03       		.uleb128 0x3
 649 0026 0E       		.uleb128 0xe
 650 0027 00       		.byte	0
 651 0028 00       		.byte	0
 652 0029 04       		.uleb128 0x4
 653 002a 16       		.uleb128 0x16
 654 002b 00       		.byte	0
 655 002c 03       		.uleb128 0x3
 656 002d 0E       		.uleb128 0xe
 657 002e 3A       		.uleb128 0x3a
 658 002f 0B       		.uleb128 0xb
 659 0030 3B       		.uleb128 0x3b
 660 0031 0B       		.uleb128 0xb
 661 0032 49       		.uleb128 0x49
 662 0033 13       		.uleb128 0x13
 663 0034 00       		.byte	0
 664 0035 00       		.byte	0
 665 0036 05       		.uleb128 0x5
 666 0037 35       		.uleb128 0x35
 667 0038 00       		.byte	0
 668 0039 49       		.uleb128 0x49
 669 003a 13       		.uleb128 0x13
 670 003b 00       		.byte	0
 671 003c 00       		.byte	0
 672 003d 06       		.uleb128 0x6
 673 003e 13       		.uleb128 0x13
 674 003f 01       		.byte	0x1
 675 0040 0B       		.uleb128 0xb
 676 0041 0B       		.uleb128 0xb
 677 0042 3A       		.uleb128 0x3a
 678 0043 0B       		.uleb128 0xb
 679 0044 3B       		.uleb128 0x3b
 680 0045 0B       		.uleb128 0xb
 681 0046 01       		.uleb128 0x1
 682 0047 13       		.uleb128 0x13
 683 0048 00       		.byte	0
ARM GAS  /tmp/ccbuXset.s 			page 13


 684 0049 00       		.byte	0
 685 004a 07       		.uleb128 0x7
 686 004b 0D       		.uleb128 0xd
 687 004c 00       		.byte	0
 688 004d 03       		.uleb128 0x3
 689 004e 0E       		.uleb128 0xe
 690 004f 3A       		.uleb128 0x3a
 691 0050 0B       		.uleb128 0xb
 692 0051 3B       		.uleb128 0x3b
 693 0052 05       		.uleb128 0x5
 694 0053 49       		.uleb128 0x49
 695 0054 13       		.uleb128 0x13
 696 0055 38       		.uleb128 0x38
 697 0056 0B       		.uleb128 0xb
 698 0057 00       		.byte	0
 699 0058 00       		.byte	0
 700 0059 08       		.uleb128 0x8
 701 005a 16       		.uleb128 0x16
 702 005b 00       		.byte	0
 703 005c 03       		.uleb128 0x3
 704 005d 0E       		.uleb128 0xe
 705 005e 3A       		.uleb128 0x3a
 706 005f 0B       		.uleb128 0xb
 707 0060 3B       		.uleb128 0x3b
 708 0061 05       		.uleb128 0x5
 709 0062 49       		.uleb128 0x49
 710 0063 13       		.uleb128 0x13
 711 0064 00       		.byte	0
 712 0065 00       		.byte	0
 713 0066 09       		.uleb128 0x9
 714 0067 13       		.uleb128 0x13
 715 0068 01       		.byte	0x1
 716 0069 03       		.uleb128 0x3
 717 006a 0E       		.uleb128 0xe
 718 006b 0B       		.uleb128 0xb
 719 006c 0B       		.uleb128 0xb
 720 006d 3A       		.uleb128 0x3a
 721 006e 0B       		.uleb128 0xb
 722 006f 3B       		.uleb128 0x3b
 723 0070 0B       		.uleb128 0xb
 724 0071 01       		.uleb128 0x1
 725 0072 13       		.uleb128 0x13
 726 0073 00       		.byte	0
 727 0074 00       		.byte	0
 728 0075 0A       		.uleb128 0xa
 729 0076 0D       		.uleb128 0xd
 730 0077 00       		.byte	0
 731 0078 03       		.uleb128 0x3
 732 0079 0E       		.uleb128 0xe
 733 007a 3A       		.uleb128 0x3a
 734 007b 0B       		.uleb128 0xb
 735 007c 3B       		.uleb128 0x3b
 736 007d 0B       		.uleb128 0xb
 737 007e 49       		.uleb128 0x49
 738 007f 13       		.uleb128 0x13
 739 0080 38       		.uleb128 0x38
 740 0081 0B       		.uleb128 0xb
ARM GAS  /tmp/ccbuXset.s 			page 14


 741 0082 00       		.byte	0
 742 0083 00       		.byte	0
 743 0084 0B       		.uleb128 0xb
 744 0085 15       		.uleb128 0x15
 745 0086 01       		.byte	0x1
 746 0087 27       		.uleb128 0x27
 747 0088 19       		.uleb128 0x19
 748 0089 01       		.uleb128 0x1
 749 008a 13       		.uleb128 0x13
 750 008b 00       		.byte	0
 751 008c 00       		.byte	0
 752 008d 0C       		.uleb128 0xc
 753 008e 05       		.uleb128 0x5
 754 008f 00       		.byte	0
 755 0090 49       		.uleb128 0x49
 756 0091 13       		.uleb128 0x13
 757 0092 00       		.byte	0
 758 0093 00       		.byte	0
 759 0094 0D       		.uleb128 0xd
 760 0095 0F       		.uleb128 0xf
 761 0096 00       		.byte	0
 762 0097 0B       		.uleb128 0xb
 763 0098 0B       		.uleb128 0xb
 764 0099 49       		.uleb128 0x49
 765 009a 13       		.uleb128 0x13
 766 009b 00       		.byte	0
 767 009c 00       		.byte	0
 768 009d 0E       		.uleb128 0xe
 769 009e 2E       		.uleb128 0x2e
 770 009f 01       		.byte	0x1
 771 00a0 3F       		.uleb128 0x3f
 772 00a1 19       		.uleb128 0x19
 773 00a2 03       		.uleb128 0x3
 774 00a3 0E       		.uleb128 0xe
 775 00a4 3A       		.uleb128 0x3a
 776 00a5 0B       		.uleb128 0xb
 777 00a6 3B       		.uleb128 0x3b
 778 00a7 0B       		.uleb128 0xb
 779 00a8 27       		.uleb128 0x27
 780 00a9 19       		.uleb128 0x19
 781 00aa 20       		.uleb128 0x20
 782 00ab 0B       		.uleb128 0xb
 783 00ac 01       		.uleb128 0x1
 784 00ad 13       		.uleb128 0x13
 785 00ae 00       		.byte	0
 786 00af 00       		.byte	0
 787 00b0 0F       		.uleb128 0xf
 788 00b1 05       		.uleb128 0x5
 789 00b2 00       		.byte	0
 790 00b3 03       		.uleb128 0x3
 791 00b4 08       		.uleb128 0x8
 792 00b5 3A       		.uleb128 0x3a
 793 00b6 0B       		.uleb128 0xb
 794 00b7 3B       		.uleb128 0x3b
 795 00b8 0B       		.uleb128 0xb
 796 00b9 49       		.uleb128 0x49
 797 00ba 13       		.uleb128 0x13
ARM GAS  /tmp/ccbuXset.s 			page 15


 798 00bb 00       		.byte	0
 799 00bc 00       		.byte	0
 800 00bd 10       		.uleb128 0x10
 801 00be 2E       		.uleb128 0x2e
 802 00bf 01       		.byte	0x1
 803 00c0 03       		.uleb128 0x3
 804 00c1 0E       		.uleb128 0xe
 805 00c2 3A       		.uleb128 0x3a
 806 00c3 0B       		.uleb128 0xb
 807 00c4 3B       		.uleb128 0x3b
 808 00c5 0B       		.uleb128 0xb
 809 00c6 27       		.uleb128 0x27
 810 00c7 19       		.uleb128 0x19
 811 00c8 20       		.uleb128 0x20
 812 00c9 0B       		.uleb128 0xb
 813 00ca 01       		.uleb128 0x1
 814 00cb 13       		.uleb128 0x13
 815 00cc 00       		.byte	0
 816 00cd 00       		.byte	0
 817 00ce 11       		.uleb128 0x11
 818 00cf 2E       		.uleb128 0x2e
 819 00d0 01       		.byte	0x1
 820 00d1 31       		.uleb128 0x31
 821 00d2 13       		.uleb128 0x13
 822 00d3 11       		.uleb128 0x11
 823 00d4 01       		.uleb128 0x1
 824 00d5 12       		.uleb128 0x12
 825 00d6 06       		.uleb128 0x6
 826 00d7 40       		.uleb128 0x40
 827 00d8 18       		.uleb128 0x18
 828 00d9 9742     		.uleb128 0x2117
 829 00db 19       		.uleb128 0x19
 830 00dc 01       		.uleb128 0x1
 831 00dd 13       		.uleb128 0x13
 832 00de 00       		.byte	0
 833 00df 00       		.byte	0
 834 00e0 12       		.uleb128 0x12
 835 00e1 05       		.uleb128 0x5
 836 00e2 00       		.byte	0
 837 00e3 31       		.uleb128 0x31
 838 00e4 13       		.uleb128 0x13
 839 00e5 02       		.uleb128 0x2
 840 00e6 18       		.uleb128 0x18
 841 00e7 00       		.byte	0
 842 00e8 00       		.byte	0
 843 00e9 13       		.uleb128 0x13
 844 00ea 2E       		.uleb128 0x2e
 845 00eb 01       		.byte	0x1
 846 00ec 03       		.uleb128 0x3
 847 00ed 0E       		.uleb128 0xe
 848 00ee 3A       		.uleb128 0x3a
 849 00ef 0B       		.uleb128 0xb
 850 00f0 3B       		.uleb128 0x3b
 851 00f1 0B       		.uleb128 0xb
 852 00f2 27       		.uleb128 0x27
 853 00f3 19       		.uleb128 0x19
 854 00f4 11       		.uleb128 0x11
ARM GAS  /tmp/ccbuXset.s 			page 16


 855 00f5 01       		.uleb128 0x1
 856 00f6 12       		.uleb128 0x12
 857 00f7 06       		.uleb128 0x6
 858 00f8 40       		.uleb128 0x40
 859 00f9 18       		.uleb128 0x18
 860 00fa 9742     		.uleb128 0x2117
 861 00fc 19       		.uleb128 0x19
 862 00fd 01       		.uleb128 0x1
 863 00fe 13       		.uleb128 0x13
 864 00ff 00       		.byte	0
 865 0100 00       		.byte	0
 866 0101 14       		.uleb128 0x14
 867 0102 05       		.uleb128 0x5
 868 0103 00       		.byte	0
 869 0104 03       		.uleb128 0x3
 870 0105 08       		.uleb128 0x8
 871 0106 3A       		.uleb128 0x3a
 872 0107 0B       		.uleb128 0xb
 873 0108 3B       		.uleb128 0x3b
 874 0109 0B       		.uleb128 0xb
 875 010a 49       		.uleb128 0x49
 876 010b 13       		.uleb128 0x13
 877 010c 02       		.uleb128 0x2
 878 010d 18       		.uleb128 0x18
 879 010e 00       		.byte	0
 880 010f 00       		.byte	0
 881 0110 15       		.uleb128 0x15
 882 0111 34       		.uleb128 0x34
 883 0112 00       		.byte	0
 884 0113 03       		.uleb128 0x3
 885 0114 08       		.uleb128 0x8
 886 0115 3A       		.uleb128 0x3a
 887 0116 0B       		.uleb128 0xb
 888 0117 3B       		.uleb128 0x3b
 889 0118 0B       		.uleb128 0xb
 890 0119 49       		.uleb128 0x49
 891 011a 13       		.uleb128 0x13
 892 011b 02       		.uleb128 0x2
 893 011c 17       		.uleb128 0x17
 894 011d 00       		.byte	0
 895 011e 00       		.byte	0
 896 011f 16       		.uleb128 0x16
 897 0120 2E       		.uleb128 0x2e
 898 0121 01       		.byte	0x1
 899 0122 3F       		.uleb128 0x3f
 900 0123 19       		.uleb128 0x19
 901 0124 03       		.uleb128 0x3
 902 0125 0E       		.uleb128 0xe
 903 0126 3A       		.uleb128 0x3a
 904 0127 0B       		.uleb128 0xb
 905 0128 3B       		.uleb128 0x3b
 906 0129 0B       		.uleb128 0xb
 907 012a 27       		.uleb128 0x27
 908 012b 19       		.uleb128 0x19
 909 012c 11       		.uleb128 0x11
 910 012d 01       		.uleb128 0x1
 911 012e 12       		.uleb128 0x12
ARM GAS  /tmp/ccbuXset.s 			page 17


 912 012f 06       		.uleb128 0x6
 913 0130 40       		.uleb128 0x40
 914 0131 18       		.uleb128 0x18
 915 0132 9742     		.uleb128 0x2117
 916 0134 19       		.uleb128 0x19
 917 0135 01       		.uleb128 0x1
 918 0136 13       		.uleb128 0x13
 919 0137 00       		.byte	0
 920 0138 00       		.byte	0
 921 0139 17       		.uleb128 0x17
 922 013a 34       		.uleb128 0x34
 923 013b 00       		.byte	0
 924 013c 03       		.uleb128 0x3
 925 013d 08       		.uleb128 0x8
 926 013e 3A       		.uleb128 0x3a
 927 013f 0B       		.uleb128 0xb
 928 0140 3B       		.uleb128 0x3b
 929 0141 0B       		.uleb128 0xb
 930 0142 49       		.uleb128 0x49
 931 0143 13       		.uleb128 0x13
 932 0144 02       		.uleb128 0x2
 933 0145 18       		.uleb128 0x18
 934 0146 00       		.byte	0
 935 0147 00       		.byte	0
 936 0148 18       		.uleb128 0x18
 937 0149 1D       		.uleb128 0x1d
 938 014a 01       		.byte	0x1
 939 014b 31       		.uleb128 0x31
 940 014c 13       		.uleb128 0x13
 941 014d 52       		.uleb128 0x52
 942 014e 01       		.uleb128 0x1
 943 014f 55       		.uleb128 0x55
 944 0150 17       		.uleb128 0x17
 945 0151 58       		.uleb128 0x58
 946 0152 0B       		.uleb128 0xb
 947 0153 59       		.uleb128 0x59
 948 0154 0B       		.uleb128 0xb
 949 0155 01       		.uleb128 0x1
 950 0156 13       		.uleb128 0x13
 951 0157 00       		.byte	0
 952 0158 00       		.byte	0
 953 0159 19       		.uleb128 0x19
 954 015a 05       		.uleb128 0x5
 955 015b 00       		.byte	0
 956 015c 31       		.uleb128 0x31
 957 015d 13       		.uleb128 0x13
 958 015e 02       		.uleb128 0x2
 959 015f 17       		.uleb128 0x17
 960 0160 00       		.byte	0
 961 0161 00       		.byte	0
 962 0162 1A       		.uleb128 0x1a
 963 0163 898201   		.uleb128 0x4109
 964 0166 01       		.byte	0x1
 965 0167 11       		.uleb128 0x11
 966 0168 01       		.uleb128 0x1
 967 0169 31       		.uleb128 0x31
 968 016a 13       		.uleb128 0x13
ARM GAS  /tmp/ccbuXset.s 			page 18


 969 016b 00       		.byte	0
 970 016c 00       		.byte	0
 971 016d 1B       		.uleb128 0x1b
 972 016e 8A8201   		.uleb128 0x410a
 973 0171 00       		.byte	0
 974 0172 02       		.uleb128 0x2
 975 0173 18       		.uleb128 0x18
 976 0174 9142     		.uleb128 0x2111
 977 0176 18       		.uleb128 0x18
 978 0177 00       		.byte	0
 979 0178 00       		.byte	0
 980 0179 1C       		.uleb128 0x1c
 981 017a 34       		.uleb128 0x34
 982 017b 00       		.byte	0
 983 017c 03       		.uleb128 0x3
 984 017d 0E       		.uleb128 0xe
 985 017e 3A       		.uleb128 0x3a
 986 017f 0B       		.uleb128 0xb
 987 0180 3B       		.uleb128 0x3b
 988 0181 0B       		.uleb128 0xb
 989 0182 49       		.uleb128 0x49
 990 0183 13       		.uleb128 0x13
 991 0184 02       		.uleb128 0x2
 992 0185 18       		.uleb128 0x18
 993 0186 00       		.byte	0
 994 0187 00       		.byte	0
 995 0188 1D       		.uleb128 0x1d
 996 0189 34       		.uleb128 0x34
 997 018a 00       		.byte	0
 998 018b 03       		.uleb128 0x3
 999 018c 0E       		.uleb128 0xe
 1000 018d 3A       		.uleb128 0x3a
 1001 018e 0B       		.uleb128 0xb
 1002 018f 3B       		.uleb128 0x3b
 1003 0190 05       		.uleb128 0x5
 1004 0191 49       		.uleb128 0x49
 1005 0192 13       		.uleb128 0x13
 1006 0193 3F       		.uleb128 0x3f
 1007 0194 19       		.uleb128 0x19
 1008 0195 3C       		.uleb128 0x3c
 1009 0196 19       		.uleb128 0x19
 1010 0197 00       		.byte	0
 1011 0198 00       		.byte	0
 1012 0199 00       		.byte	0
 1013              		.section	.debug_loc,"",%progbits
 1014              	.Ldebug_loc0:
 1015              	.LLST0:
 1016 0000 08000000 		.4byte	.LVL2
 1017 0004 10000000 		.4byte	.LVL3
 1018 0008 0100     		.2byte	0x1
 1019 000a 53       		.byte	0x53
 1020 000b 00000000 		.4byte	0
 1021 000f 00000000 		.4byte	0
 1022              	.LLST1:
 1023 0013 16000000 		.4byte	.LVL4
 1024 0017 20000000 		.4byte	.LVL5
 1025 001b 0300     		.2byte	0x3
ARM GAS  /tmp/ccbuXset.s 			page 19


 1026 001d 91       		.byte	0x91
 1027 001e 64       		.sleb128 -28
 1028 001f 9F       		.byte	0x9f
 1029 0020 20000000 		.4byte	.LVL5
 1030 0024 25000000 		.4byte	.LVL6-1
 1031 0028 0100     		.2byte	0x1
 1032 002a 50       		.byte	0x50
 1033 002b 25000000 		.4byte	.LVL6-1
 1034 002f 2E000000 		.4byte	.LVL7
 1035 0033 0300     		.2byte	0x3
 1036 0035 91       		.byte	0x91
 1037 0036 64       		.sleb128 -28
 1038 0037 9F       		.byte	0x9f
 1039 0038 2E000000 		.4byte	.LVL7
 1040 003c 40000000 		.4byte	.LFE120
 1041 0040 0300     		.2byte	0x3
 1042 0042 7D       		.byte	0x7d
 1043 0043 64       		.sleb128 -28
 1044 0044 9F       		.byte	0x9f
 1045 0045 00000000 		.4byte	0
 1046 0049 00000000 		.4byte	0
 1047              		.section	.debug_aranges,"",%progbits
 1048 0000 34000000 		.4byte	0x34
 1049 0004 0200     		.2byte	0x2
 1050 0006 00000000 		.4byte	.Ldebug_info0
 1051 000a 04       		.byte	0x4
 1052 000b 00       		.byte	0
 1053 000c 0000     		.2byte	0
 1054 000e 0000     		.2byte	0
 1055 0010 00000000 		.4byte	.LFB118
 1056 0014 0C000000 		.4byte	.LFE118-.LFB118
 1057 0018 00000000 		.4byte	.LFB119
 1058 001c 38000000 		.4byte	.LFE119-.LFB119
 1059 0020 00000000 		.4byte	.LFB120
 1060 0024 40000000 		.4byte	.LFE120-.LFB120
 1061 0028 00000000 		.4byte	.LFB121
 1062 002c 20000000 		.4byte	.LFE121-.LFB121
 1063 0030 00000000 		.4byte	0
 1064 0034 00000000 		.4byte	0
 1065              		.section	.debug_ranges,"",%progbits
 1066              	.Ldebug_ranges0:
 1067 0000 06000000 		.4byte	.LBB8
 1068 0004 08000000 		.4byte	.LBE8
 1069 0008 0A000000 		.4byte	.LBB19
 1070 000c 10000000 		.4byte	.LBE19
 1071 0010 12000000 		.4byte	.LBB20
 1072 0014 14000000 		.4byte	.LBE20
 1073 0018 16000000 		.4byte	.LBB21
 1074 001c 18000000 		.4byte	.LBE21
 1075 0020 1A000000 		.4byte	.LBB23
 1076 0024 1C000000 		.4byte	.LBE23
 1077 0028 20000000 		.4byte	.LBB25
 1078 002c 22000000 		.4byte	.LBE25
 1079 0030 00000000 		.4byte	0
 1080 0034 00000000 		.4byte	0
 1081 0038 08000000 		.4byte	.LBB15
 1082 003c 0A000000 		.4byte	.LBE15
ARM GAS  /tmp/ccbuXset.s 			page 20


 1083 0040 18000000 		.4byte	.LBB22
 1084 0044 1A000000 		.4byte	.LBE22
 1085 0048 1C000000 		.4byte	.LBB24
 1086 004c 1E000000 		.4byte	.LBE24
 1087 0050 00000000 		.4byte	0
 1088 0054 00000000 		.4byte	0
 1089 0058 00000000 		.4byte	.LFB118
 1090 005c 0C000000 		.4byte	.LFE118
 1091 0060 00000000 		.4byte	.LFB119
 1092 0064 38000000 		.4byte	.LFE119
 1093 0068 00000000 		.4byte	.LFB120
 1094 006c 40000000 		.4byte	.LFE120
 1095 0070 00000000 		.4byte	.LFB121
 1096 0074 20000000 		.4byte	.LFE121
 1097 0078 00000000 		.4byte	0
 1098 007c 00000000 		.4byte	0
 1099              		.section	.debug_line,"",%progbits
 1100              	.Ldebug_line0:
 1101 0000 98010000 		.section	.debug_str,"MS",%progbits,1
 1101      02000D01 
 1101      00000201 
 1101      FB0E0D00 
 1101      01010101 
 1102              	.LASF28:
 1103 0000 6C617374 		.ascii	"last\000"
 1103      00
 1104              	.LASF21:
 1105 0005 50435352 		.ascii	"PCSR\000"
 1105      00
 1106              	.LASF37:
 1107 000a 746D5F73 		.ascii	"tm_stop\000"
 1107      746F7000 
 1108              	.LASF26:
 1109 0012 73746172 		.ascii	"start\000"
 1109      7400
 1110              	.LASF33:
 1111 0018 2E2E2F2E 		.ascii	"../../../os/hal/src/tm.c\000"
 1111      2E2F2E2E 
 1111      2F6F732F 
 1111      68616C2F 
 1111      7372632F 
 1112              	.LASF32:
 1113 0031 474E5520 		.ascii	"GNU C 4.8.3 20131129 (release) [ARM/embedded-4_8-br"
 1113      4320342E 
 1113      382E3320 
 1113      32303133 
 1113      31313239 
 1114 0064 616E6368 		.ascii	"anch revision 205641] -mcpu=cortex-m4 -mno-thumb-in"
 1114      20726576 
 1114      6973696F 
 1114      6E203230 
 1114      35363431 
 1115 0097 74657277 		.ascii	"terwork -mthumb -ggdb -O2 -fomit-frame-pointer -fal"
 1115      6F726B20 
 1115      2D6D7468 
 1115      756D6220 
 1115      2D676764 
ARM GAS  /tmp/ccbuXset.s 			page 21


 1116 00ca 69676E2D 		.ascii	"ign-functions=16 -ffunction-sections -fdata-section"
 1116      66756E63 
 1116      74696F6E 
 1116      733D3136 
 1116      202D6666 
 1117 00fd 73202D66 		.ascii	"s -fno-common\000"
 1117      6E6F2D63 
 1117      6F6D6D6F 
 1117      6E00
 1118              	.LASF18:
 1119 010b 534C4545 		.ascii	"SLEEPCNT\000"
 1119      50434E54 
 1119      00
 1120              	.LASF27:
 1121 0114 73746F70 		.ascii	"stop\000"
 1121      00
 1122              	.LASF10:
 1123 0119 6C6F6E67 		.ascii	"long long unsigned int\000"
 1123      206C6F6E 
 1123      6720756E 
 1123      7369676E 
 1123      65642069 
 1124              	.LASF2:
 1125 0130 756E7369 		.ascii	"unsigned char\000"
 1125      676E6564 
 1125      20636861 
 1125      7200
 1126              	.LASF15:
 1127 013e 43594343 		.ascii	"CYCCNT\000"
 1127      4E5400
 1128              	.LASF38:
 1129 0145 746D496E 		.ascii	"tmInit\000"
 1129      697400
 1130              	.LASF8:
 1131 014c 6C6F6E67 		.ascii	"long unsigned int\000"
 1131      20756E73 
 1131      69676E65 
 1131      6420696E 
 1131      7400
 1132              	.LASF35:
 1133 015e 746D4F62 		.ascii	"tmObjectInit\000"
 1133      6A656374 
 1133      496E6974 
 1133      00
 1134              	.LASF4:
 1135 016b 73686F72 		.ascii	"short unsigned int\000"
 1135      7420756E 
 1135      7369676E 
 1135      65642069 
 1135      6E7400
 1136              	.LASF7:
 1137 017e 75696E74 		.ascii	"uint32_t\000"
 1137      33325F74 
 1137      00
 1138              	.LASF16:
 1139 0187 43504943 		.ascii	"CPICNT\000"
 1139      4E5400
ARM GAS  /tmp/ccbuXset.s 			page 22


 1140              	.LASF39:
 1141 018e 49544D5F 		.ascii	"ITM_RxBuffer\000"
 1141      52784275 
 1141      66666572 
 1141      00
 1142              	.LASF20:
 1143 019b 464F4C44 		.ascii	"FOLDCNT\000"
 1143      434E5400 
 1144              	.LASF29:
 1145 01a3 776F7273 		.ascii	"worst\000"
 1145      7400
 1146              	.LASF19:
 1147 01a9 4C535543 		.ascii	"LSUCNT\000"
 1147      4E5400
 1148              	.LASF0:
 1149 01b0 756E7369 		.ascii	"unsigned int\000"
 1149      676E6564 
 1149      20696E74 
 1149      00
 1150              	.LASF24:
 1151 01bd 68616C72 		.ascii	"halrtcnt_t\000"
 1151      74636E74 
 1151      5F7400
 1152              	.LASF23:
 1153 01c8 63686172 		.ascii	"char\000"
 1153      00
 1154              	.LASF36:
 1155 01cd 746D5F73 		.ascii	"tm_start\000"
 1155      74617274 
 1155      00
 1156              	.LASF14:
 1157 01d6 4354524C 		.ascii	"CTRL\000"
 1157      00
 1158              	.LASF17:
 1159 01db 45584343 		.ascii	"EXCCNT\000"
 1159      4E5400
 1160              	.LASF6:
 1161 01e2 696E7433 		.ascii	"int32_t\000"
 1161      325F7400 
 1162              	.LASF13:
 1163 01ea 73697A65 		.ascii	"sizetype\000"
 1163      74797065 
 1163      00
 1164              	.LASF9:
 1165 01f3 6C6F6E67 		.ascii	"long long int\000"
 1165      206C6F6E 
 1165      6720696E 
 1165      7400
 1166              	.LASF12:
 1167 0201 494F5245 		.ascii	"IOREG32\000"
 1167      47333200 
 1168              	.LASF31:
 1169 0209 6D656173 		.ascii	"measurement_offset\000"
 1169      7572656D 
 1169      656E745F 
 1169      6F666673 
 1169      657400
ARM GAS  /tmp/ccbuXset.s 			page 23


 1170              	.LASF3:
 1171 021c 73686F72 		.ascii	"short int\000"
 1171      7420696E 
 1171      7400
 1172              	.LASF22:
 1173 0226 434D785F 		.ascii	"CMx_DWT\000"
 1173      44575400 
 1174              	.LASF30:
 1175 022e 62657374 		.ascii	"best\000"
 1175      00
 1176              	.LASF34:
 1177 0233 2F686F6D 		.ascii	"/home/john/git/ChibiOS-RT/testhal/STM32F30x/USB_CDC"
 1177      652F6A6F 
 1177      686E2F67 
 1177      69742F43 
 1177      68696269 
 1178 0266 00       		.ascii	"\000"
 1179              	.LASF5:
 1180 0267 6C6F6E67 		.ascii	"long int\000"
 1180      20696E74 
 1180      00
 1181              	.LASF1:
 1182 0270 7369676E 		.ascii	"signed char\000"
 1182      65642063 
 1182      68617200 
 1183              	.LASF25:
 1184 027c 54696D65 		.ascii	"TimeMeasurement\000"
 1184      4D656173 
 1184      7572656D 
 1184      656E7400 
 1185              	.LASF11:
 1186 028c 5F426F6F 		.ascii	"_Bool\000"
 1186      6C00
 1187              		.ident	"GCC: (GNU Tools for ARM Embedded Processors) 4.8.3 20131129 (release) [ARM/embedded-4_8-br
ARM GAS  /tmp/ccbuXset.s 			page 24


DEFINED SYMBOLS
                            *ABS*:0000000000000000 tm.c
     /tmp/ccbuXset.s:19     .text.tm_start:0000000000000000 $t
     /tmp/ccbuXset.s:24     .text.tm_start:0000000000000000 tm_start
     /tmp/ccbuXset.s:41     .text.tm_start:0000000000000008 $d
     /tmp/ccbuXset.s:46     .text.tm_stop:0000000000000000 $t
     /tmp/ccbuXset.s:51     .text.tm_stop:0000000000000000 tm_stop
     /tmp/ccbuXset.s:105    .text.tm_stop:0000000000000030 $d
     /tmp/ccbuXset.s:111    .text.tmInit:0000000000000000 $t
     /tmp/ccbuXset.s:117    .text.tmInit:0000000000000000 tmInit
     /tmp/ccbuXset.s:209    .text.tmInit:0000000000000030 $d
     /tmp/ccbuXset.s:217    .text.tmObjectInit:0000000000000000 $t
     /tmp/ccbuXset.s:223    .text.tmObjectInit:0000000000000000 tmObjectInit
     /tmp/ccbuXset.s:253    .text.tmObjectInit:0000000000000018 $d
     /tmp/ccbuXset.s:259    .bss.measurement_offset:0000000000000000 $d
     /tmp/ccbuXset.s:263    .bss.measurement_offset:0000000000000000 measurement_offset
                     .debug_frame:0000000000000010 $d
     /tmp/ccbuXset.s:45     .text.tm_start:000000000000000c $t
     /tmp/ccbuXset.s:110    .text.tm_stop:0000000000000038 $t

NO UNDEFINED SYMBOLS
