ARM GAS  /tmp/cc7PkecD.s 			page 1


   1              		.syntax unified
   2              		.cpu cortex-m4
   3              		.fpu softvfp
   4              		.eabi_attribute 20, 1
   5              		.eabi_attribute 21, 1
   6              		.eabi_attribute 23, 3
   7              		.eabi_attribute 24, 1
   8              		.eabi_attribute 25, 1
   9              		.eabi_attribute 26, 1
  10              		.eabi_attribute 30, 2
  11              		.eabi_attribute 34, 1
  12              		.eabi_attribute 18, 4
  13              		.thumb
  14              		.file	"main.c"
  15              		.text
  16              	.Ltext0:
  17              		.cfi_sections	.debug_frame
  18              		.section	.text.ledoff,"ax",%progbits
  19              		.align	2
  20              		.p2align 4,,15
  21              		.thumb
  22              		.thumb_func
  23              		.type	ledoff, %function
  24              	ledoff:
  25              	.LFB119:
  26              		.file 1 "main.c"
  27              		.loc 1 31 0
  28              		.cfi_startproc
  29              		@ args = 0, pretend = 0, frame = 0
  30              		@ frame_needed = 0, uses_anonymous_args = 0
  31              		@ link register save eliminated.
  32              	.LVL0:
  33              		.loc 1 34 0
  34 0000 024B     		ldr	r3, .L2
  35 0002 4FF40072 		mov	r2, #512
  36 0006 5A83     		strh	r2, [r3, #26]	@ movhi
  37 0008 7047     		bx	lr
  38              	.L3:
  39 000a 00BF     		.align	2
  40              	.L2:
  41 000c 00100048 		.word	1207963648
  42              		.cfi_endproc
  43              	.LFE119:
  44              		.size	ledoff, .-ledoff
  45              		.section	.text.txend1,"ax",%progbits
  46              		.align	2
  47              		.p2align 4,,15
  48              		.thumb
  49              		.thumb_func
  50              		.type	txend1, %function
  51              	txend1:
  52              	.LFB120:
  53              		.loc 1 41 0
  54              		.cfi_startproc
  55              		@ args = 0, pretend = 0, frame = 0
  56              		@ frame_needed = 0, uses_anonymous_args = 0
  57              		@ link register save eliminated.
ARM GAS  /tmp/cc7PkecD.s 			page 2


  58              	.LVL1:
  59              		.loc 1 44 0
  60 0000 024B     		ldr	r3, .L5
  61 0002 4FF40072 		mov	r2, #512
  62 0006 1A83     		strh	r2, [r3, #24]	@ movhi
  63 0008 7047     		bx	lr
  64              	.L6:
  65 000a 00BF     		.align	2
  66              	.L5:
  67 000c 00100048 		.word	1207963648
  68              		.cfi_endproc
  69              	.LFE120:
  70              		.size	txend1, .-txend1
  71              		.section	.text.rxerr,"ax",%progbits
  72              		.align	2
  73              		.p2align 4,,15
  74              		.thumb
  75              		.thumb_func
  76              		.type	rxerr, %function
  77              	rxerr:
  78              	.LFB122:
  79              		.loc 1 65 0
  80              		.cfi_startproc
  81              		@ args = 0, pretend = 0, frame = 0
  82              		@ frame_needed = 0, uses_anonymous_args = 0
  83              		@ link register save eliminated.
  84              	.LVL2:
  85 0000 7047     		bx	lr
  86              		.cfi_endproc
  87              	.LFE122:
  88              		.size	rxerr, .-rxerr
  89 0002 00BFAFF3 		.section	.text.rxend,"ax",%progbits
  89      0080AFF3 
  89      0080AFF3 
  89      0080
  90              		.align	2
  91              		.p2align 4,,15
  92              		.thumb
  93              		.thumb_func
  94              		.type	rxend, %function
  95              	rxend:
  96              	.LFB124:
  97              		.loc 1 91 0
  98              		.cfi_startproc
  99              		@ args = 0, pretend = 0, frame = 0
 100              		@ frame_needed = 0, uses_anonymous_args = 0
 101              		@ link register save eliminated.
 102              	.LVL3:
 103 0000 7047     		bx	lr
 104              		.cfi_endproc
 105              	.LFE124:
 106              		.size	rxend, .-rxend
 107 0002 00BFAFF3 		.section	.text.rxchar,"ax",%progbits
 107      0080AFF3 
 107      0080AFF3 
 107      0080
 108              		.align	2
ARM GAS  /tmp/cc7PkecD.s 			page 3


 109              		.p2align 4,,15
 110              		.thumb
 111              		.thumb_func
 112              		.type	rxchar, %function
 113              	rxchar:
 114              	.LFB123:
 115              		.loc 1 75 0
 116              		.cfi_startproc
 117              		@ args = 0, pretend = 0, frame = 0
 118              		@ frame_needed = 0, uses_anonymous_args = 0
 119              	.LVL4:
 120              		.loc 1 75 0
 121 0000 08B5     		push	{r3, lr}
 122              		.cfi_def_cfa_offset 8
 123              		.cfi_offset 3, -8
 124              		.cfi_offset 14, -4
 125              		.loc 1 80 0
 126 0002 0D4B     		ldr	r3, .L15
 127 0004 4FF40072 		mov	r2, #512
 128 0008 1A83     		strh	r2, [r3, #24]	@ movhi
 129              	.LBB2:
 130              		.loc 1 81 0
 131 000a 2023     		movs	r3, #32
 132              	@ 81 "main.c" 1
 133 000c 83F31188 		msr     BASEPRI, r3
 134              	@ 0 "" 2
 135              		.thumb
 136              	.LBE2:
 137 0010 FFF7FEFF 		bl	dbg_check_lock_from_isr
 138              	.LVL5:
 139              		.loc 1 82 0
 140 0014 0948     		ldr	r0, .L15+4
 141 0016 C368     		ldr	r3, [r0, #12]
 142 0018 0BB1     		cbz	r3, .L10
 143              		.loc 1 83 0
 144 001a FFF7FEFF 		bl	chVTResetI
 145              	.LVL6:
 146              	.L10:
 147              		.loc 1 84 0
 148 001e 0748     		ldr	r0, .L15+4
 149 0020 074A     		ldr	r2, .L15+8
 150 0022 C821     		movs	r1, #200
 151 0024 0023     		movs	r3, #0
 152 0026 FFF7FEFF 		bl	chVTSetI
 153              	.LVL7:
 154              		.loc 1 85 0
 155 002a FFF7FEFF 		bl	dbg_check_unlock_from_isr
 156              	.LVL8:
 157              	.LBB3:
 158 002e 0023     		movs	r3, #0
 159              	@ 85 "main.c" 1
 160 0030 83F31188 		msr     BASEPRI, r3
 161              	@ 0 "" 2
 162              		.thumb
 163 0034 08BD     		pop	{r3, pc}
 164              	.L16:
 165 0036 00BF     		.align	2
ARM GAS  /tmp/cc7PkecD.s 			page 4


 166              	.L15:
 167 0038 00100048 		.word	1207963648
 168 003c 00000000 		.word	.LANCHOR0
 169 0040 00000000 		.word	ledoff
 170              	.LBE3:
 171              		.cfi_endproc
 172              	.LFE123:
 173              		.size	rxchar, .-rxchar
 174 0044 AFF30080 		.section	.text.txend2,"ax",%progbits
 174      AFF30080 
 174      AFF30080 
 175              		.align	2
 176              		.p2align 4,,15
 177              		.thumb
 178              		.thumb_func
 179              		.type	txend2, %function
 180              	txend2:
 181              	.LFB121:
 182              		.loc 1 50 0
 183              		.cfi_startproc
 184              		@ args = 0, pretend = 0, frame = 0
 185              		@ frame_needed = 0, uses_anonymous_args = 0
 186              	.LVL9:
 187 0000 08B5     		push	{r3, lr}
 188              		.cfi_def_cfa_offset 8
 189              		.cfi_offset 3, -8
 190              		.cfi_offset 14, -4
 191              		.loc 1 53 0
 192 0002 0D4B     		ldr	r3, .L22
 193 0004 4FF40072 		mov	r2, #512
 194 0008 5A83     		strh	r2, [r3, #26]	@ movhi
 195              	.LBB4:
 196              		.loc 1 54 0
 197 000a 2023     		movs	r3, #32
 198              	@ 54 "main.c" 1
 199 000c 83F31188 		msr     BASEPRI, r3
 200              	@ 0 "" 2
 201              		.thumb
 202              	.LBE4:
 203 0010 FFF7FEFF 		bl	dbg_check_lock_from_isr
 204              	.LVL10:
 205              		.loc 1 55 0
 206 0014 0948     		ldr	r0, .L22+4
 207 0016 C368     		ldr	r3, [r0, #12]
 208 0018 0BB1     		cbz	r3, .L18
 209              		.loc 1 56 0
 210 001a FFF7FEFF 		bl	chVTResetI
 211              	.LVL11:
 212              	.L18:
 213              		.loc 1 57 0
 214 001e 0748     		ldr	r0, .L22+4
 215 0020 074A     		ldr	r2, .L22+8
 216 0022 41F28831 		movw	r1, #5000
 217 0026 0023     		movs	r3, #0
 218 0028 FFF7FEFF 		bl	chVTSetI
 219              	.LVL12:
 220              		.loc 1 58 0
ARM GAS  /tmp/cc7PkecD.s 			page 5


 221 002c FFF7FEFF 		bl	dbg_check_unlock_from_isr
 222              	.LVL13:
 223              	.LBB5:
 224 0030 0023     		movs	r3, #0
 225              	@ 58 "main.c" 1
 226 0032 83F31188 		msr     BASEPRI, r3
 227              	@ 0 "" 2
 228              		.thumb
 229 0036 08BD     		pop	{r3, pc}
 230              	.L23:
 231              		.align	2
 232              	.L22:
 233 0038 00100048 		.word	1207963648
 234 003c 00000000 		.word	.LANCHOR1
 235 0040 00000000 		.word	restart
 236              	.LBE5:
 237              		.cfi_endproc
 238              	.LFE121:
 239              		.size	txend2, .-txend2
 240 0044 AFF30080 		.section	.text.restart,"ax",%progbits
 240      AFF30080 
 240      AFF30080 
 241              		.align	2
 242              		.p2align 4,,15
 243              		.thumb
 244              		.thumb_func
 245              		.type	restart, %function
 246              	restart:
 247              	.LFB118:
 248              		.loc 1 22 0
 249              		.cfi_startproc
 250              		@ args = 0, pretend = 0, frame = 0
 251              		@ frame_needed = 0, uses_anonymous_args = 0
 252              	.LVL14:
 253 0000 08B5     		push	{r3, lr}
 254              		.cfi_def_cfa_offset 8
 255              		.cfi_offset 3, -8
 256              		.cfi_offset 14, -4
 257              	.LBB6:
 258              		.loc 1 26 0
 259 0002 2023     		movs	r3, #32
 260              	@ 26 "main.c" 1
 261 0004 83F31188 		msr     BASEPRI, r3
 262              	@ 0 "" 2
 263              		.thumb
 264              	.LBE6:
 265 0008 FFF7FEFF 		bl	dbg_check_lock_from_isr
 266              	.LVL15:
 267              		.loc 1 27 0
 268 000c 0548     		ldr	r0, .L25
 269 000e 064A     		ldr	r2, .L25+4
 270 0010 0E21     		movs	r1, #14
 271 0012 FFF7FEFF 		bl	uartStartSendI
 272              	.LVL16:
 273              		.loc 1 28 0
 274 0016 FFF7FEFF 		bl	dbg_check_unlock_from_isr
 275              	.LVL17:
ARM GAS  /tmp/cc7PkecD.s 			page 6


 276              	.LBB7:
 277 001a 0023     		movs	r3, #0
 278              	@ 28 "main.c" 1
 279 001c 83F31188 		msr     BASEPRI, r3
 280              	@ 0 "" 2
 281              		.thumb
 282 0020 08BD     		pop	{r3, pc}
 283              	.L26:
 284 0022 00BF     		.align	2
 285              	.L25:
 286 0024 00000000 		.word	UARTD1
 287 0028 00000000 		.word	.LC0
 288              	.LBE7:
 289              		.cfi_endproc
 290              	.LFE118:
 291              		.size	restart, .-restart
 292 002c AFF30080 		.section	.text.startup.main,"ax",%progbits
 293              		.align	2
 294              		.p2align 4,,15
 295              		.global	main
 296              		.thumb
 297              		.thumb_func
 298              		.type	main, %function
 299              	main:
 300              	.LFB125:
 301              		.loc 1 114 0
 302              		.cfi_startproc
 303              		@ Volatile: function does not return.
 304              		@ args = 0, pretend = 0, frame = 0
 305              		@ frame_needed = 0, uses_anonymous_args = 0
 306 0000 08B5     		push	{r3, lr}
 307              		.cfi_def_cfa_offset 8
 308              		.cfi_offset 3, -8
 309              		.cfi_offset 14, -4
 310              		.loc 1 123 0
 311 0002 FFF7FEFF 		bl	halInit
 312              	.LVL18:
 313              		.loc 1 124 0
 314 0006 FFF7FEFF 		bl	chSysInit
 315              	.LVL19:
 316              		.loc 1 129 0
 317 000a 0F48     		ldr	r0, .L29
 318 000c 0F49     		ldr	r1, .L29+4
 319 000e FFF7FEFF 		bl	uartStart
 320              	.LVL20:
 321              		.loc 1 130 0
 322 0012 4FF09040 		mov	r0, #1207959552
 323 0016 4FF40071 		mov	r1, #512
 324 001a 40F28232 		movw	r2, #898
 325 001e FFF7FEFF 		bl	_pal_lld_setgroupmode
 326              	.LVL21:
 327              		.loc 1 131 0
 328 0022 4FF09040 		mov	r0, #1207959552
 329 0026 4FF48061 		mov	r1, #1024
 330 002a 40F28232 		movw	r2, #898
 331 002e FFF7FEFF 		bl	_pal_lld_setgroupmode
 332              	.LVL22:
ARM GAS  /tmp/cc7PkecD.s 			page 7


 333              		.loc 1 136 0
 334 0032 0548     		ldr	r0, .L29
 335 0034 064A     		ldr	r2, .L29+8
 336 0036 0D21     		movs	r1, #13
 337 0038 FFF7FEFF 		bl	uartStartSend
 338              	.LVL23:
 339              	.L28:
 340              		.loc 1 142 0 discriminator 1
 341 003c 4FF4FA70 		mov	r0, #500
 342 0040 FFF7FEFF 		bl	chThdSleep
 343              	.LVL24:
 344 0044 FAE7     		b	.L28
 345              	.L30:
 346 0046 00BF     		.align	2
 347              	.L29:
 348 0048 00000000 		.word	UARTD1
 349 004c 00000000 		.word	.LANCHOR2
 350 0050 10000000 		.word	.LC1
 351              		.cfi_endproc
 352              	.LFE125:
 353              		.size	main, .-main
 354 0054 AFF30080 		.section	.bss.vt1,"aw",%nobits
 354      AFF30080 
 354      AFF30080 
 355              		.align	2
 356              		.set	.LANCHOR1,. + 0
 357              		.type	vt1, %object
 358              		.size	vt1, 20
 359              	vt1:
 360 0000 00000000 		.space	20
 360      00000000 
 360      00000000 
 360      00000000 
 360      00000000 
 361              		.section	.bss.vt2,"aw",%nobits
 362              		.align	2
 363              		.set	.LANCHOR0,. + 0
 364              		.type	vt2, %object
 365              		.size	vt2, 20
 366              	vt2:
 367 0000 00000000 		.space	20
 367      00000000 
 367      00000000 
 367      00000000 
 367      00000000 
 368              		.section	.rodata.str1.4,"aMS",%progbits,1
 369              		.align	2
 370              	.LC0:
 371 0000 48656C6C 		.ascii	"Hello World!\015\012\000"
 371      6F20576F 
 371      726C6421 
 371      0D0A00
 372 000f 00       		.space	1
 373              	.LC1:
 374 0010 53746172 		.ascii	"Starting...\015\012\000"
 374      74696E67 
 374      2E2E2E0D 
ARM GAS  /tmp/cc7PkecD.s 			page 8


 374      0A00
 375 001e 0000     		.section	.data.uart_cfg_1,"aw",%progbits
 376              		.align	2
 377              		.set	.LANCHOR2,. + 0
 378              		.type	uart_cfg_1, %object
 379              		.size	uart_cfg_1, 36
 380              	uart_cfg_1:
 381 0000 00000000 		.word	txend1
 382 0004 00000000 		.word	txend2
 383 0008 00000000 		.word	rxend
 384 000c 00000000 		.word	rxchar
 385 0010 00000000 		.word	rxerr
 386 0014 00960000 		.word	38400
 387 0018 00000000 		.word	0
 388 001c 00400000 		.word	16384
 389 0020 00000000 		.word	0
 390              		.text
 391              	.Letext0:
 392              		.file 2 "/usr/lib/gcc/arm-none-eabi/4.8.3/include/stddef.h"
 393              		.file 3 "/usr/arm-none-eabi/include/stdint.h"
 394              		.file 4 "../../../os/ports/GCC/ARMCMx/chtypes.h"
 395              		.file 5 "../../../os/kernel/include/chvt.h"
 396              		.file 6 "../../../os/hal/platforms/STM32F30x/stm32f30x.h"
 397              		.file 7 "../../../os/hal/platforms/STM32F30x/stm32_dma.h"
 398              		.file 8 "../../../os/hal/platforms/STM32/GPIOv2/pal_lld.h"
 399              		.file 9 "../../../os/hal/include/uart.h"
 400              		.file 10 "../../../os/hal/platforms/STM32/USARTv2/uart_lld.h"
 401              		.file 11 "../../../os/ports/common/ARMCMx/CMSIS/include/core_cm4.h"
 402              		.file 12 "../../../os/kernel/include/chdebug.h"
 403              		.file 13 "../../../os/hal/include/hal.h"
 404              		.file 14 "../../../os/kernel/include/chsys.h"
 405              		.file 15 "../../../os/kernel/include/chthreads.h"