ARM GAS  /tmp/cc7PkecD.s 			page 1


   1              		.syntax unified
   2              		.cpu cortex-m4
   3              		.fpu softvfp
   4              		.eabi_attribute 20, 1
   5              		.eabi_attribute 21, 1
   6              		.eabi_attribute 23, 3
   7              		.eabi_attribute 24, 1
   8              		.eabi_attribute 25, 1
   9              		.eabi_attribute 26, 1
  10              		.eabi_attribute 30, 2
  11              		.eabi_attribute 34, 1
  12              		.eabi_attribute 18, 4
  13              		.thumb
  14              		.file	"main.c"
  15              		.text
  16              	.Ltext0:
  17              		.cfi_sections	.debug_frame
  18              		.section	.text.ledoff,"ax",%progbits
  19              		.align	2
  20              		.p2align 4,,15
  21              		.thumb
  22              		.thumb_func
  23              		.type	ledoff, %function
  24              	ledoff:
  25              	.LFB119:
  26              		.file 1 "main.c"
  27              		.loc 1 31 0
  28              		.cfi_startproc
  29              		@ args = 0, pretend = 0, frame = 0
  30              		@ frame_needed = 0, uses_anonymous_args = 0
  31              		@ link register save eliminated.
  32              	.LVL0:
  33              		.loc 1 34 0
  34 0000 024B     		ldr	r3, .L2
  35 0002 4FF40072 		mov	r2, #512
  36 0006 5A83     		strh	r2, [r3, #26]	@ movhi
  37 0008 7047     		bx	lr
  38              	.L3:
  39 000a 00BF     		.align	2
  40              	.L2:
  41 000c 00100048 		.word	1207963648
  42              		.cfi_endproc
  43              	.LFE119:
  44              		.size	ledoff, .-ledoff
  45              		.section	.text.txend1,"ax",%progbits
  46              		.align	2
  47              		.p2align 4,,15
  48              		.thumb
  49              		.thumb_func
  50              		.type	txend1, %function
  51              	txend1:
  52              	.LFB120:
  53              		.loc 1 41 0
  54              		.cfi_startproc
  55              		@ args = 0, pretend = 0, frame = 0
  56              		@ frame_needed = 0, uses_anonymous_args = 0
  57              		@ link register save eliminated.
ARM GAS  /tmp/cc7PkecD.s 			page 2


  58              	.LVL1:
  59              		.loc 1 44 0
  60 0000 024B     		ldr	r3, .L5
  61 0002 4FF40072 		mov	r2, #512
  62 0006 1A83     		strh	r2, [r3, #24]	@ movhi
  63 0008 7047     		bx	lr
  64              	.L6:
  65 000a 00BF     		.align	2
  66              	.L5:
  67 000c 00100048 		.word	1207963648
  68              		.cfi_endproc
  69              	.LFE120:
  70              		.size	txend1, .-txend1
  71              		.section	.text.rxerr,"ax",%progbits
  72              		.align	2
  73              		.p2align 4,,15
  74              		.thumb
  75              		.thumb_func
  76              		.type	rxerr, %function
  77              	rxerr:
  78              	.LFB122:
  79              		.loc 1 65 0
  80              		.cfi_startproc
  81              		@ args = 0, pretend = 0, frame = 0
  82              		@ frame_needed = 0, uses_anonymous_args = 0
  83              		@ link register save eliminated.
  84              	.LVL2:
  85 0000 7047     		bx	lr
  86              		.cfi_endproc
  87              	.LFE122:
  88              		.size	rxerr, .-rxerr
  89 0002 00BFAFF3 		.section	.text.rxend,"ax",%progbits
  89      0080AFF3 
  89      0080AFF3 
  89      0080
  90              		.align	2
  91              		.p2align 4,,15
  92              		.thumb
  93              		.thumb_func
  94              		.type	rxend, %function
  95              	rxend:
  96              	.LFB124:
  97              		.loc 1 91 0
  98              		.cfi_startproc
  99              		@ args = 0, pretend = 0, frame = 0
 100              		@ frame_needed = 0, uses_anonymous_args = 0
 101              		@ link register save eliminated.
 102              	.LVL3:
 103 0000 7047     		bx	lr
 104              		.cfi_endproc
 105              	.LFE124:
 106              		.size	rxend, .-rxend
 107 0002 00BFAFF3 		.section	.text.rxchar,"ax",%progbits
 107      0080AFF3 
 107      0080AFF3 
 107      0080
 108              		.align	2
ARM GAS  /tmp/cc7PkecD.s 			page 3


 109              		.p2align 4,,15
 110              		.thumb
 111              		.thumb_func
 112              		.type	rxchar, %function
 113              	rxchar:
 114              	.LFB123:
 115              		.loc 1 75 0
 116              		.cfi_startproc
 117              		@ args = 0, pretend = 0, frame = 0
 118              		@ frame_needed = 0, uses_anonymous_args = 0
 119              	.LVL4:
 120              		.loc 1 75 0
 121 0000 08B5     		push	{r3, lr}
 122              		.cfi_def_cfa_offset 8
 123              		.cfi_offset 3, -8
 124              		.cfi_offset 14, -4
 125              		.loc 1 80 0
 126 0002 0D4B     		ldr	r3, .L15
 127 0004 4FF40072 		mov	r2, #512
 128 0008 1A83     		strh	r2, [r3, #24]	@ movhi
 129              	.LBB2:
 130              		.loc 1 81 0
 131 000a 2023     		movs	r3, #32
 132              	@ 81 "main.c" 1
 133 000c 83F31188 		msr     BASEPRI, r3
 134              	@ 0 "" 2
 135              		.thumb
 136              	.LBE2:
 137 0010 FFF7FEFF 		bl	dbg_check_lock_from_isr
 138              	.LVL5:
 139              		.loc 1 82 0
 140 0014 0948     		ldr	r0, .L15+4
 141 0016 C368     		ldr	r3, [r0, #12]
 142 0018 0BB1     		cbz	r3, .L10
 143              		.loc 1 83 0
 144 001a FFF7FEFF 		bl	chVTResetI
 145              	.LVL6:
 146              	.L10:
 147              		.loc 1 84 0
 148 001e 0748     		ldr	r0, .L15+4
 149 0020 074A     		ldr	r2, .L15+8
 150 0022 C821     		movs	r1, #200
 151 0024 0023     		movs	r3, #0
 152 0026 FFF7FEFF 		bl	chVTSetI
 153              	.LVL7:
 154              		.loc 1 85 0
 155 002a FFF7FEFF 		bl	dbg_check_unlock_from_isr
 156              	.LVL8:
 157              	.LBB3:
 158 002e 0023     		movs	r3, #0
 159              	@ 85 "main.c" 1
 160 0030 83F31188 		msr     BASEPRI, r3
 161              	@ 0 "" 2
 162              		.thumb
 163 0034 08BD     		pop	{r3, pc}
 164              	.L16:
 165 0036 00BF     		.align	2
ARM GAS  /tmp/cc7PkecD.s 			page 4


 166              	.L15:
 167 0038 00100048 		.word	1207963648
 168 003c 00000000 		.word	.LANCHOR0
 169 0040 00000000 		.word	ledoff
 170              	.LBE3:
 171              		.cfi_endproc
 172              	.LFE123:
 173              		.size	rxchar, .-rxchar
 174 0044 AFF30080 		.section	.text.txend2,"ax",%progbits
 174      AFF30080 
 174      AFF30080 
 175              		.align	2
 176              		.p2align 4,,15
 177              		.thumb
 178              		.thumb_func
 179              		.type	txend2, %function
 180              	txend2:
 181              	.LFB121:
 182              		.loc 1 50 0
 183              		.cfi_startproc
 184              		@ args = 0, pretend = 0, frame = 0
 185              		@ frame_needed = 0, uses_anonymous_args = 0
 186              	.LVL9:
 187 0000 08B5     		push	{r3, lr}
 188              		.cfi_def_cfa_offset 8
 189              		.cfi_offset 3, -8
 190              		.cfi_offset 14, -4
 191              		.loc 1 53 0
 192 0002 0D4B     		ldr	r3, .L22
 193 0004 4FF40072 		mov	r2, #512
 194 0008 5A83     		strh	r2, [r3, #26]	@ movhi
 195              	.LBB4:
 196              		.loc 1 54 0
 197 000a 2023     		movs	r3, #32
 198              	@ 54 "main.c" 1
 199 000c 83F31188 		msr     BASEPRI, r3
 200              	@ 0 "" 2
 201              		.thumb
 202              	.LBE4:
 203 0010 FFF7FEFF 		bl	dbg_check_lock_from_isr
 204              	.LVL10:
 205              		.loc 1 55 0
 206 0014 0948     		ldr	r0, .L22+4
 207 0016 C368     		ldr	r3, [r0, #12]
 208 0018 0BB1     		cbz	r3, .L18
 209              		.loc 1 56 0
 210 001a FFF7FEFF 		bl	chVTResetI
 211              	.LVL11:
 212              	.L18:
 213              		.loc 1 57 0
 214 001e 0748     		ldr	r0, .L22+4
 215 0020 074A     		ldr	r2, .L22+8
 216 0022 41F28831 		movw	r1, #5000
 217 0026 0023     		movs	r3, #0
 218 0028 FFF7FEFF 		bl	chVTSetI
 219              	.LVL12:
 220              		.loc 1 58 0
ARM GAS  /tmp/cc7PkecD.s 			page 5


 221 002c FFF7FEFF 		bl	dbg_check_unlock_from_isr
 222              	.LVL13:
 223              	.LBB5:
 224 0030 0023     		movs	r3, #0
 225              	@ 58 "main.c" 1
 226 0032 83F31188 		msr     BASEPRI, r3
 227              	@ 0 "" 2
 228              		.thumb
 229 0036 08BD     		pop	{r3, pc}
 230              	.L23:
 231              		.align	2
 232              	.L22:
 233 0038 00100048 		.word	1207963648
 234 003c 00000000 		.word	.LANCHOR1
 235 0040 00000000 		.word	restart
 236              	.LBE5:
 237              		.cfi_endproc
 238              	.LFE121:
 239              		.size	txend2, .-txend2
 240 0044 AFF30080 		.section	.text.restart,"ax",%progbits
 240      AFF30080 
 240      AFF30080 
 241              		.align	2
 242              		.p2align 4,,15
 243              		.thumb
 244              		.thumb_func
 245              		.type	restart, %function
 246              	restart:
 247              	.LFB118:
 248              		.loc 1 22 0
 249              		.cfi_startproc
 250              		@ args = 0, pretend = 0, frame = 0
 251              		@ frame_needed = 0, uses_anonymous_args = 0
 252              	.LVL14:
 253 0000 08B5     		push	{r3, lr}
 254              		.cfi_def_cfa_offset 8
 255              		.cfi_offset 3, -8
 256              		.cfi_offset 14, -4
 257              	.LBB6:
 258              		.loc 1 26 0
 259 0002 2023     		movs	r3, #32
 260              	@ 26 "main.c" 1
 261 0004 83F31188 		msr     BASEPRI, r3
 262              	@ 0 "" 2
 263              		.thumb
 264              	.LBE6:
 265 0008 FFF7FEFF 		bl	dbg_check_lock_from_isr
 266              	.LVL15:
 267              		.loc 1 27 0
 268 000c 0548     		ldr	r0, .L25
 269 000e 064A     		ldr	r2, .L25+4
 270 0010 0E21     		movs	r1, #14
 271 0012 FFF7FEFF 		bl	uartStartSendI
 272              	.LVL16:
 273              		.loc 1 28 0
 274 0016 FFF7FEFF 		bl	dbg_check_unlock_from_isr
 275              	.LVL17:
ARM GAS  /tmp/cc7PkecD.s 			page 6


 276              	.LBB7:
 277 001a 0023     		movs	r3, #0
 278              	@ 28 "main.c" 1
 279 001c 83F31188 		msr     BASEPRI, r3
 280              	@ 0 "" 2
 281              		.thumb
 282 0020 08BD     		pop	{r3, pc}
 283              	.L26:
 284 0022 00BF     		.align	2
 285              	.L25:
 286 0024 00000000 		.word	UARTD1
 287 0028 00000000 		.word	.LC0
 288              	.LBE7:
 289              		.cfi_endproc
 290              	.LFE118:
 291              		.size	restart, .-restart
 292 002c AFF30080 		.section	.text.startup.main,"ax",%progbits
 293              		.align	2
 294              		.p2align 4,,15
 295              		.global	main
 296              		.thumb
 297              		.thumb_func
 298              		.type	main, %function
 299              	main:
 300              	.LFB125:
 301              		.loc 1 114 0
 302              		.cfi_startproc
 303              		@ Volatile: function does not return.
 304              		@ args = 0, pretend = 0, frame = 0
 305              		@ frame_needed = 0, uses_anonymous_args = 0
 306 0000 08B5     		push	{r3, lr}
 307              		.cfi_def_cfa_offset 8
 308              		.cfi_offset 3, -8
 309              		.cfi_offset 14, -4
 310              		.loc 1 123 0
 311 0002 FFF7FEFF 		bl	halInit
 312              	.LVL18:
 313              		.loc 1 124 0
 314 0006 FFF7FEFF 		bl	chSysInit
 315              	.LVL19:
 316              		.loc 1 129 0
 317 000a 0F48     		ldr	r0, .L29
 318 000c 0F49     		ldr	r1, .L29+4
 319 000e FFF7FEFF 		bl	uartStart
 320              	.LVL20:
 321              		.loc 1 130 0
 322 0012 4FF09040 		mov	r0, #1207959552
 323 0016 4FF40071 		mov	r1, #512
 324 001a 40F28232 		movw	r2, #898
 325 001e FFF7FEFF 		bl	_pal_lld_setgroupmode
 326              	.LVL21:
 327              		.loc 1 131 0
 328 0022 4FF09040 		mov	r0, #1207959552
 329 0026 4FF48061 		mov	r1, #1024
 330 002a 40F28232 		movw	r2, #898
 331 002e FFF7FEFF 		bl	_pal_lld_setgroupmode
 332              	.LVL22:
ARM GAS  /tmp/cc7PkecD.s 			page 7


 333              		.loc 1 136 0
 334 0032 0548     		ldr	r0, .L29
 335 0034 064A     		ldr	r2, .L29+8
 336 0036 0D21     		movs	r1, #13
 337 0038 FFF7FEFF 		bl	uartStartSend
 338              	.LVL23:
 339              	.L28:
 340              		.loc 1 142 0 discriminator 1
 341 003c 4FF4FA70 		mov	r0, #500
 342 0040 FFF7FEFF 		bl	chThdSleep
 343              	.LVL24:
 344 0044 FAE7     		b	.L28
 345              	.L30:
 346 0046 00BF     		.align	2
 347              	.L29:
 348 0048 00000000 		.word	UARTD1
 349 004c 00000000 		.word	.LANCHOR2
 350 0050 10000000 		.word	.LC1
 351              		.cfi_endproc
 352              	.LFE125:
 353              		.size	main, .-main
 354 0054 AFF30080 		.section	.bss.vt1,"aw",%nobits
 354      AFF30080 
 354      AFF30080 
 355              		.align	2
 356              		.set	.LANCHOR1,. + 0
 357              		.type	vt1, %object
 358              		.size	vt1, 20
 359              	vt1:
 360 0000 00000000 		.space	20
 360      00000000 
 360      00000000 
 360      00000000 
 360      00000000 
 361              		.section	.bss.vt2,"aw",%nobits
 362              		.align	2
 363              		.set	.LANCHOR0,. + 0
 364              		.type	vt2, %object
 365              		.size	vt2, 20
 366              	vt2:
 367 0000 00000000 		.space	20
 367      00000000 
 367      00000000 
 367      00000000 
 367      00000000 
 368              		.section	.rodata.str1.4,"aMS",%progbits,1
 369              		.align	2
 370              	.LC0:
 371 0000 48656C6C 		.ascii	"Hello World!\015\012\000"
 371      6F20576F 
 371      726C6421 
 371      0D0A00
 372 000f 00       		.space	1
 373              	.LC1:
 374 0010 53746172 		.ascii	"Starting...\015\012\000"
 374      74696E67 
 374      2E2E2E0D 
ARM GAS  /tmp/cc7PkecD.s 			page 8


 374      0A00
 375 001e 0000     		.section	.data.uart_cfg_1,"aw",%progbits
 376              		.align	2
 377              		.set	.LANCHOR2,. + 0
 378              		.type	uart_cfg_1, %object
 379              		.size	uart_cfg_1, 36
 380              	uart_cfg_1:
 381 0000 00000000 		.word	txend1
 382 0004 00000000 		.word	txend2
 383 0008 00000000 		.word	rxend
 384 000c 00000000 		.word	rxchar
 385 0010 00000000 		.word	rxerr
 386 0014 00960000 		.word	38400
 387 0018 00000000 		.word	0
 388 001c 00400000 		.word	16384
 389 0020 00000000 		.word	0
 390              		.text
 391              	.Letext0:
 392              		.file 2 "/usr/lib/gcc/arm-none-eabi/4.8.3/include/stddef.h"
 393              		.file 3 "/usr/arm-none-eabi/include/stdint.h"
 394              		.file 4 "../../../os/ports/GCC/ARMCMx/chtypes.h"
 395              		.file 5 "../../../os/kernel/include/chvt.h"
 396              		.file 6 "../../../os/hal/platforms/STM32F30x/stm32f30x.h"
 397              		.file 7 "../../../os/hal/platforms/STM32F30x/stm32_dma.h"
 398              		.file 8 "../../../os/hal/platforms/STM32/GPIOv2/pal_lld.h"
 399              		.file 9 "../../../os/hal/include/uart.h"
 400              		.file 10 "../../../os/hal/platforms/STM32/USARTv2/uart_lld.h"
 401              		.file 11 "../../../os/ports/common/ARMCMx/CMSIS/include/core_cm4.h"
 402              		.file 12 "../../../os/kernel/include/chdebug.h"
 403              		.file 13 "../../../os/hal/include/hal.h"
 404              		.file 14 "../../../os/kernel/include/chsys.h"
 405              		.file 15 "../../../os/kernel/include/chthreads.h"
 406              		.section	.debug_info,"",%progbits
 407              	.Ldebug_info0:
 408 0000 340A0000 		.4byte	0xa34
 409 0004 0400     		.2byte	0x4
 410 0006 00000000 		.4byte	.Ldebug_abbrev0
 411 000a 04       		.byte	0x4
 412 000b 01       		.uleb128 0x1
 413 000c 26030000 		.4byte	.LASF110
 414 0010 01       		.byte	0x1
 415 0011 9F020000 		.4byte	.LASF111
 416 0015 F8000000 		.4byte	.LASF112
 417 0019 00000000 		.4byte	.Ldebug_ranges0+0
 418 001d 00000000 		.4byte	0
 419 0021 00000000 		.4byte	.Ldebug_line0
 420 0025 02       		.uleb128 0x2
 421 0026 04       		.byte	0x4
 422 0027 05       		.byte	0x5
 423 0028 696E7400 		.ascii	"int\000"
 424 002c 03       		.uleb128 0x3
 425 002d 2B000000 		.4byte	.LASF2
 426 0031 02       		.byte	0x2
 427 0032 D4       		.byte	0xd4
 428 0033 37000000 		.4byte	0x37
 429 0037 04       		.uleb128 0x4
 430 0038 04       		.byte	0x4
ARM GAS  /tmp/cc7PkecD.s 			page 9


 431 0039 07       		.byte	0x7
 432 003a 99010000 		.4byte	.LASF0
 433 003e 04       		.uleb128 0x4
 434 003f 01       		.byte	0x1
 435 0040 06       		.byte	0x6
 436 0041 AA000000 		.4byte	.LASF1
 437 0045 03       		.uleb128 0x3
 438 0046 1D050000 		.4byte	.LASF3
 439 004a 03       		.byte	0x3
 440 004b 2A       		.byte	0x2a
 441 004c 50000000 		.4byte	0x50
 442 0050 04       		.uleb128 0x4
 443 0051 01       		.byte	0x1
 444 0052 08       		.byte	0x8
 445 0053 0E040000 		.4byte	.LASF4
 446 0057 04       		.uleb128 0x4
 447 0058 02       		.byte	0x2
 448 0059 05       		.byte	0x5
 449 005a 1C040000 		.4byte	.LASF5
 450 005e 03       		.uleb128 0x3
 451 005f AE010000 		.4byte	.LASF6
 452 0063 03       		.byte	0x3
 453 0064 36       		.byte	0x36
 454 0065 69000000 		.4byte	0x69
 455 0069 04       		.uleb128 0x4
 456 006a 02       		.byte	0x2
 457 006b 07       		.byte	0x7
 458 006c F4010000 		.4byte	.LASF7
 459 0070 03       		.uleb128 0x3
 460 0071 06040000 		.4byte	.LASF8
 461 0075 03       		.byte	0x3
 462 0076 4F       		.byte	0x4f
 463 0077 7B000000 		.4byte	0x7b
 464 007b 04       		.uleb128 0x4
 465 007c 04       		.byte	0x4
 466 007d 05       		.byte	0x5
 467 007e EF000000 		.4byte	.LASF9
 468 0082 03       		.uleb128 0x3
 469 0083 4A040000 		.4byte	.LASF10
 470 0087 03       		.byte	0x3
 471 0088 50       		.byte	0x50
 472 0089 8D000000 		.4byte	0x8d
 473 008d 04       		.uleb128 0x4
 474 008e 04       		.byte	0x4
 475 008f 07       		.byte	0x7
 476 0090 BC010000 		.4byte	.LASF11
 477 0094 04       		.uleb128 0x4
 478 0095 08       		.byte	0x8
 479 0096 05       		.byte	0x5
 480 0097 9C000000 		.4byte	.LASF12
 481 009b 04       		.uleb128 0x4
 482 009c 08       		.byte	0x8
 483 009d 07       		.byte	0x7
 484 009e 56000000 		.4byte	.LASF13
 485 00a2 04       		.uleb128 0x4
 486 00a3 01       		.byte	0x1
 487 00a4 02       		.byte	0x2
ARM GAS  /tmp/cc7PkecD.s 			page 10


 488 00a5 00040000 		.4byte	.LASF14
 489 00a9 03       		.uleb128 0x3
 490 00aa 88040000 		.4byte	.LASF15
 491 00ae 04       		.byte	0x4
 492 00af 2E       		.byte	0x2e
 493 00b0 82000000 		.4byte	0x82
 494 00b4 05       		.uleb128 0x5
 495 00b5 04       		.byte	0x4
 496 00b6 06       		.uleb128 0x6
 497 00b7 82000000 		.4byte	0x82
 498 00bb 04       		.uleb128 0x4
 499 00bc 04       		.byte	0x4
 500 00bd 07       		.byte	0x7
 501 00be 45020000 		.4byte	.LASF16
 502 00c2 03       		.uleb128 0x3
 503 00c3 99040000 		.4byte	.LASF17
 504 00c7 05       		.byte	0x5
 505 00c8 51       		.byte	0x51
 506 00c9 CD000000 		.4byte	0xcd
 507 00cd 07       		.uleb128 0x7
 508 00ce 04       		.byte	0x4
 509 00cf D3000000 		.4byte	0xd3
 510 00d3 08       		.uleb128 0x8
 511 00d4 DE000000 		.4byte	0xde
 512 00d8 09       		.uleb128 0x9
 513 00d9 B4000000 		.4byte	0xb4
 514 00dd 00       		.byte	0
 515 00de 03       		.uleb128 0x3
 516 00df 53040000 		.4byte	.LASF18
 517 00e3 05       		.byte	0x5
 518 00e4 56       		.byte	0x56
 519 00e5 E9000000 		.4byte	0xe9
 520 00e9 0A       		.uleb128 0xa
 521 00ea 53040000 		.4byte	.LASF18
 522 00ee 14       		.byte	0x14
 523 00ef 05       		.byte	0x5
 524 00f0 5D       		.byte	0x5d
 525 00f1 32010000 		.4byte	0x132
 526 00f5 0B       		.uleb128 0xb
 527 00f6 A6010000 		.4byte	.LASF19
 528 00fa 05       		.byte	0x5
 529 00fb 5E       		.byte	0x5e
 530 00fc 32010000 		.4byte	0x132
 531 0100 00       		.byte	0
 532 0101 0B       		.uleb128 0xb
 533 0102 6A010000 		.4byte	.LASF20
 534 0106 05       		.byte	0x5
 535 0107 60       		.byte	0x60
 536 0108 32010000 		.4byte	0x132
 537 010c 04       		.byte	0x4
 538 010d 0B       		.uleb128 0xb
 539 010e 3D020000 		.4byte	.LASF21
 540 0112 05       		.byte	0x5
 541 0113 62       		.byte	0x62
 542 0114 A9000000 		.4byte	0xa9
 543 0118 08       		.byte	0x8
 544 0119 0B       		.uleb128 0xb
ARM GAS  /tmp/cc7PkecD.s 			page 11


 545 011a 59050000 		.4byte	.LASF22
 546 011e 05       		.byte	0x5
 547 011f 63       		.byte	0x63
 548 0120 C2000000 		.4byte	0xc2
 549 0124 0C       		.byte	0xc
 550 0125 0B       		.uleb128 0xb
 551 0126 01050000 		.4byte	.LASF23
 552 012a 05       		.byte	0x5
 553 012b 65       		.byte	0x65
 554 012c B4000000 		.4byte	0xb4
 555 0130 10       		.byte	0x10
 556 0131 00       		.byte	0
 557 0132 07       		.uleb128 0x7
 558 0133 04       		.byte	0x4
 559 0134 DE000000 		.4byte	0xde
 560 0138 04       		.uleb128 0x4
 561 0139 01       		.byte	0x1
 562 013a 08       		.byte	0x8
 563 013b 65040000 		.4byte	.LASF24
 564 013f 06       		.uleb128 0x6
 565 0140 5E000000 		.4byte	0x5e
 566 0144 06       		.uleb128 0x6
 567 0145 70000000 		.4byte	0x70
 568 0149 0C       		.uleb128 0xc
 569 014a 10       		.byte	0x10
 570 014b 06       		.byte	0x6
 571 014c E501     		.2byte	0x1e5
 572 014e 87010000 		.4byte	0x187
 573 0152 0D       		.uleb128 0xd
 574 0153 43435200 		.ascii	"CCR\000"
 575 0157 06       		.byte	0x6
 576 0158 E701     		.2byte	0x1e7
 577 015a B6000000 		.4byte	0xb6
 578 015e 00       		.byte	0
 579 015f 0E       		.uleb128 0xe
 580 0160 08050000 		.4byte	.LASF25
 581 0164 06       		.byte	0x6
 582 0165 E801     		.2byte	0x1e8
 583 0167 B6000000 		.4byte	0xb6
 584 016b 04       		.byte	0x4
 585 016c 0E       		.uleb128 0xe
 586 016d B7010000 		.4byte	.LASF26
 587 0171 06       		.byte	0x6
 588 0172 E901     		.2byte	0x1e9
 589 0174 B6000000 		.4byte	0xb6
 590 0178 08       		.byte	0x8
 591 0179 0E       		.uleb128 0xe
 592 017a 2B020000 		.4byte	.LASF27
 593 017e 06       		.byte	0x6
 594 017f EA01     		.2byte	0x1ea
 595 0181 B6000000 		.4byte	0xb6
 596 0185 0C       		.byte	0xc
 597 0186 00       		.byte	0
 598 0187 0F       		.uleb128 0xf
 599 0188 B8020000 		.4byte	.LASF28
 600 018c 06       		.byte	0x6
 601 018d EB01     		.2byte	0x1eb
ARM GAS  /tmp/cc7PkecD.s 			page 12


 602 018f 49010000 		.4byte	0x149
 603 0193 0C       		.uleb128 0xc
 604 0194 2C       		.byte	0x2c
 605 0195 06       		.byte	0x6
 606 0196 1B03     		.2byte	0x31b
 607 0198 6D020000 		.4byte	0x26d
 608 019c 0D       		.uleb128 0xd
 609 019d 43523100 		.ascii	"CR1\000"
 610 01a1 06       		.byte	0x6
 611 01a2 1D03     		.2byte	0x31d
 612 01a4 B6000000 		.4byte	0xb6
 613 01a8 00       		.byte	0
 614 01a9 0D       		.uleb128 0xd
 615 01aa 43523200 		.ascii	"CR2\000"
 616 01ae 06       		.byte	0x6
 617 01af 1E03     		.2byte	0x31e
 618 01b1 B6000000 		.4byte	0xb6
 619 01b5 04       		.byte	0x4
 620 01b6 0D       		.uleb128 0xd
 621 01b7 43523300 		.ascii	"CR3\000"
 622 01bb 06       		.byte	0x6
 623 01bc 1F03     		.2byte	0x31f
 624 01be B6000000 		.4byte	0xb6
 625 01c2 08       		.byte	0x8
 626 01c3 0D       		.uleb128 0xd
 627 01c4 42525200 		.ascii	"BRR\000"
 628 01c8 06       		.byte	0x6
 629 01c9 2003     		.2byte	0x320
 630 01cb 3F010000 		.4byte	0x13f
 631 01cf 0C       		.byte	0xc
 632 01d0 0E       		.uleb128 0xe
 633 01d1 D7020000 		.4byte	.LASF29
 634 01d5 06       		.byte	0x6
 635 01d6 2103     		.2byte	0x321
 636 01d8 5E000000 		.4byte	0x5e
 637 01dc 0E       		.byte	0xe
 638 01dd 0E       		.uleb128 0xe
 639 01de CE000000 		.4byte	.LASF30
 640 01e2 06       		.byte	0x6
 641 01e3 2203     		.2byte	0x322
 642 01e5 3F010000 		.4byte	0x13f
 643 01e9 10       		.byte	0x10
 644 01ea 0E       		.uleb128 0xe
 645 01eb E1020000 		.4byte	.LASF31
 646 01ef 06       		.byte	0x6
 647 01f0 2303     		.2byte	0x323
 648 01f2 5E000000 		.4byte	0x5e
 649 01f6 12       		.byte	0x12
 650 01f7 0E       		.uleb128 0xe
 651 01f8 B7040000 		.4byte	.LASF32
 652 01fc 06       		.byte	0x6
 653 01fd 2403     		.2byte	0x324
 654 01ff B6000000 		.4byte	0xb6
 655 0203 14       		.byte	0x14
 656 0204 0D       		.uleb128 0xd
 657 0205 52515200 		.ascii	"RQR\000"
 658 0209 06       		.byte	0x6
ARM GAS  /tmp/cc7PkecD.s 			page 13


 659 020a 2503     		.2byte	0x325
 660 020c 3F010000 		.4byte	0x13f
 661 0210 18       		.byte	0x18
 662 0211 0E       		.uleb128 0xe
 663 0212 EB020000 		.4byte	.LASF33
 664 0216 06       		.byte	0x6
 665 0217 2603     		.2byte	0x326
 666 0219 5E000000 		.4byte	0x5e
 667 021d 1A       		.byte	0x1a
 668 021e 0D       		.uleb128 0xd
 669 021f 49535200 		.ascii	"ISR\000"
 670 0223 06       		.byte	0x6
 671 0224 2703     		.2byte	0x327
 672 0226 B6000000 		.4byte	0xb6
 673 022a 1C       		.byte	0x1c
 674 022b 0D       		.uleb128 0xd
 675 022c 49435200 		.ascii	"ICR\000"
 676 0230 06       		.byte	0x6
 677 0231 2803     		.2byte	0x328
 678 0233 B6000000 		.4byte	0xb6
 679 0237 20       		.byte	0x20
 680 0238 0D       		.uleb128 0xd
 681 0239 52445200 		.ascii	"RDR\000"
 682 023d 06       		.byte	0x6
 683 023e 2903     		.2byte	0x329
 684 0240 3F010000 		.4byte	0x13f
 685 0244 24       		.byte	0x24
 686 0245 0E       		.uleb128 0xe
 687 0246 F5020000 		.4byte	.LASF34
 688 024a 06       		.byte	0x6
 689 024b 2A03     		.2byte	0x32a
 690 024d 5E000000 		.4byte	0x5e
 691 0251 26       		.byte	0x26
 692 0252 0D       		.uleb128 0xd
 693 0253 54445200 		.ascii	"TDR\000"
 694 0257 06       		.byte	0x6
 695 0258 2B03     		.2byte	0x32b
 696 025a 3F010000 		.4byte	0x13f
 697 025e 28       		.byte	0x28
 698 025f 0E       		.uleb128 0xe
 699 0260 FF020000 		.4byte	.LASF35
 700 0264 06       		.byte	0x6
 701 0265 2C03     		.2byte	0x32c
 702 0267 5E000000 		.4byte	0x5e
 703 026b 2A       		.byte	0x2a
 704 026c 00       		.byte	0
 705 026d 0F       		.uleb128 0xf
 706 026e 1D020000 		.4byte	.LASF36
 707 0272 06       		.byte	0x6
 708 0273 2D03     		.2byte	0x32d
 709 0275 93010000 		.4byte	0x193
 710 0279 10       		.uleb128 0x10
 711 027a 0C       		.byte	0xc
 712 027b 07       		.byte	0x7
 713 027c C1       		.byte	0xc1
 714 027d BE020000 		.4byte	0x2be
 715 0281 0B       		.uleb128 0xb
ARM GAS  /tmp/cc7PkecD.s 			page 14


 716 0282 32040000 		.4byte	.LASF37
 717 0286 07       		.byte	0x7
 718 0287 C2       		.byte	0xc2
 719 0288 BE020000 		.4byte	0x2be
 720 028c 00       		.byte	0
 721 028d 0B       		.uleb128 0xb
 722 028e 45040000 		.4byte	.LASF38
 723 0292 07       		.byte	0x7
 724 0293 C3       		.byte	0xc3
 725 0294 C4020000 		.4byte	0x2c4
 726 0298 04       		.byte	0x4
 727 0299 0B       		.uleb128 0xb
 728 029a ED010000 		.4byte	.LASF39
 729 029e 07       		.byte	0x7
 730 029f C4       		.byte	0xc4
 731 02a0 45000000 		.4byte	0x45
 732 02a4 08       		.byte	0x8
 733 02a5 0B       		.uleb128 0xb
 734 02a6 F7040000 		.4byte	.LASF40
 735 02aa 07       		.byte	0x7
 736 02ab C6       		.byte	0xc6
 737 02ac 45000000 		.4byte	0x45
 738 02b0 09       		.byte	0x9
 739 02b1 0B       		.uleb128 0xb
 740 02b2 77000000 		.4byte	.LASF41
 741 02b6 07       		.byte	0x7
 742 02b7 C7       		.byte	0xc7
 743 02b8 45000000 		.4byte	0x45
 744 02bc 0A       		.byte	0xa
 745 02bd 00       		.byte	0
 746 02be 07       		.uleb128 0x7
 747 02bf 04       		.byte	0x4
 748 02c0 87010000 		.4byte	0x187
 749 02c4 07       		.uleb128 0x7
 750 02c5 04       		.byte	0x4
 751 02c6 B6000000 		.4byte	0xb6
 752 02ca 03       		.uleb128 0x3
 753 02cb 09030000 		.4byte	.LASF42
 754 02cf 07       		.byte	0x7
 755 02d0 C8       		.byte	0xc8
 756 02d1 79020000 		.4byte	0x279
 757 02d5 10       		.uleb128 0x10
 758 02d6 04       		.byte	0x4
 759 02d7 08       		.byte	0x8
 760 02d8 96       		.byte	0x96
 761 02d9 F6020000 		.4byte	0x2f6
 762 02dd 11       		.uleb128 0x11
 763 02de 73657400 		.ascii	"set\000"
 764 02e2 08       		.byte	0x8
 765 02e3 97       		.byte	0x97
 766 02e4 5E000000 		.4byte	0x5e
 767 02e8 00       		.byte	0
 768 02e9 0B       		.uleb128 0xb
 769 02ea 4E020000 		.4byte	.LASF43
 770 02ee 08       		.byte	0x8
 771 02ef 98       		.byte	0x98
 772 02f0 5E000000 		.4byte	0x5e
ARM GAS  /tmp/cc7PkecD.s 			page 15


 773 02f4 02       		.byte	0x2
 774 02f5 00       		.byte	0
 775 02f6 12       		.uleb128 0x12
 776 02f7 04       		.byte	0x4
 777 02f8 08       		.byte	0x8
 778 02f9 94       		.byte	0x94
 779 02fa 11030000 		.4byte	0x311
 780 02fe 13       		.uleb128 0x13
 781 02ff 5700     		.ascii	"W\000"
 782 0301 08       		.byte	0x8
 783 0302 95       		.byte	0x95
 784 0303 82000000 		.4byte	0x82
 785 0307 13       		.uleb128 0x13
 786 0308 4800     		.ascii	"H\000"
 787 030a 08       		.byte	0x8
 788 030b 99       		.byte	0x99
 789 030c D5020000 		.4byte	0x2d5
 790 0310 00       		.byte	0
 791 0311 10       		.uleb128 0x10
 792 0312 28       		.byte	0x28
 793 0313 08       		.byte	0x8
 794 0314 8C       		.byte	0x8c
 795 0315 92030000 		.4byte	0x392
 796 0319 0B       		.uleb128 0xb
 797 031a 50000000 		.4byte	.LASF44
 798 031e 08       		.byte	0x8
 799 031f 8E       		.byte	0x8e
 800 0320 B6000000 		.4byte	0xb6
 801 0324 00       		.byte	0
 802 0325 0B       		.uleb128 0xb
 803 0326 3C000000 		.4byte	.LASF45
 804 032a 08       		.byte	0x8
 805 032b 8F       		.byte	0x8f
 806 032c B6000000 		.4byte	0xb6
 807 0330 04       		.byte	0x4
 808 0331 0B       		.uleb128 0xb
 809 0332 56010000 		.4byte	.LASF46
 810 0336 08       		.byte	0x8
 811 0337 90       		.byte	0x90
 812 0338 B6000000 		.4byte	0xb6
 813 033c 08       		.byte	0x8
 814 033d 0B       		.uleb128 0xb
 815 033e 06000000 		.4byte	.LASF47
 816 0342 08       		.byte	0x8
 817 0343 91       		.byte	0x91
 818 0344 B6000000 		.4byte	0xb6
 819 0348 0C       		.byte	0xc
 820 0349 11       		.uleb128 0x11
 821 034a 49445200 		.ascii	"IDR\000"
 822 034e 08       		.byte	0x8
 823 034f 92       		.byte	0x92
 824 0350 B6000000 		.4byte	0xb6
 825 0354 10       		.byte	0x10
 826 0355 11       		.uleb128 0x11
 827 0356 4F445200 		.ascii	"ODR\000"
 828 035a 08       		.byte	0x8
 829 035b 93       		.byte	0x93
ARM GAS  /tmp/cc7PkecD.s 			page 16


 830 035c B6000000 		.4byte	0xb6
 831 0360 14       		.byte	0x14
 832 0361 0B       		.uleb128 0xb
 833 0362 BF000000 		.4byte	.LASF48
 834 0366 08       		.byte	0x8
 835 0367 9A       		.byte	0x9a
 836 0368 92030000 		.4byte	0x392
 837 036c 18       		.byte	0x18
 838 036d 0B       		.uleb128 0xb
 839 036e 17000000 		.4byte	.LASF49
 840 0372 08       		.byte	0x8
 841 0373 9B       		.byte	0x9b
 842 0374 B6000000 		.4byte	0xb6
 843 0378 1C       		.byte	0x1c
 844 0379 0B       		.uleb128 0xb
 845 037a CC020000 		.4byte	.LASF50
 846 037e 08       		.byte	0x8
 847 037f 9C       		.byte	0x9c
 848 0380 B6000000 		.4byte	0xb6
 849 0384 20       		.byte	0x20
 850 0385 0B       		.uleb128 0xb
 851 0386 60040000 		.4byte	.LASF51
 852 038a 08       		.byte	0x8
 853 038b 9D       		.byte	0x9d
 854 038c B6000000 		.4byte	0xb6
 855 0390 24       		.byte	0x24
 856 0391 00       		.byte	0
 857 0392 06       		.uleb128 0x6
 858 0393 F6020000 		.4byte	0x2f6
 859 0397 03       		.uleb128 0x3
 860 0398 CE010000 		.4byte	.LASF52
 861 039c 08       		.byte	0x8
 862 039d 9E       		.byte	0x9e
 863 039e 11030000 		.4byte	0x311
 864 03a2 03       		.uleb128 0x3
 865 03a3 43000000 		.4byte	.LASF53
 866 03a7 08       		.byte	0x8
 867 03a8 F0       		.byte	0xf0
 868 03a9 82000000 		.4byte	0x82
 869 03ad 03       		.uleb128 0x3
 870 03ae 50050000 		.4byte	.LASF54
 871 03b2 08       		.byte	0x8
 872 03b3 F5       		.byte	0xf5
 873 03b4 82000000 		.4byte	0x82
 874 03b8 03       		.uleb128 0x3
 875 03b9 BC040000 		.4byte	.LASF55
 876 03bd 08       		.byte	0x8
 877 03be FD       		.byte	0xfd
 878 03bf C3030000 		.4byte	0x3c3
 879 03c3 07       		.uleb128 0x7
 880 03c4 04       		.byte	0x4
 881 03c5 97030000 		.4byte	0x397
 882 03c9 14       		.uleb128 0x14
 883 03ca 01       		.byte	0x1
 884 03cb 09       		.byte	0x9
 885 03cc 41       		.byte	0x41
 886 03cd E4030000 		.4byte	0x3e4
ARM GAS  /tmp/cc7PkecD.s 			page 17


 887 03d1 15       		.uleb128 0x15
 888 03d2 07020000 		.4byte	.LASF56
 889 03d6 00       		.sleb128 0
 890 03d7 15       		.uleb128 0x15
 891 03d8 13020000 		.4byte	.LASF57
 892 03dc 01       		.sleb128 1
 893 03dd 15       		.uleb128 0x15
 894 03de 79010000 		.4byte	.LASF58
 895 03e2 02       		.sleb128 2
 896 03e3 00       		.byte	0
 897 03e4 03       		.uleb128 0x3
 898 03e5 26040000 		.4byte	.LASF59
 899 03e9 09       		.byte	0x9
 900 03ea 45       		.byte	0x45
 901 03eb C9030000 		.4byte	0x3c9
 902 03ef 14       		.uleb128 0x14
 903 03f0 01       		.byte	0x1
 904 03f1 09       		.byte	0x9
 905 03f2 4A       		.byte	0x4a
 906 03f3 0A040000 		.4byte	0x40a
 907 03f7 15       		.uleb128 0x15
 908 03f8 AA040000 		.4byte	.LASF60
 909 03fc 00       		.sleb128 0
 910 03fd 15       		.uleb128 0x15
 911 03fe 84010000 		.4byte	.LASF61
 912 0402 01       		.sleb128 1
 913 0403 15       		.uleb128 0x15
 914 0404 61050000 		.4byte	.LASF62
 915 0408 02       		.sleb128 2
 916 0409 00       		.byte	0
 917 040a 03       		.uleb128 0x3
 918 040b 8A020000 		.4byte	.LASF63
 919 040f 09       		.byte	0x9
 920 0410 4E       		.byte	0x4e
 921 0411 EF030000 		.4byte	0x3ef
 922 0415 14       		.uleb128 0x14
 923 0416 01       		.byte	0x1
 924 0417 09       		.byte	0x9
 925 0418 53       		.byte	0x53
 926 0419 30040000 		.4byte	0x430
 927 041d 15       		.uleb128 0x15
 928 041e 71040000 		.4byte	.LASF64
 929 0422 00       		.sleb128 0
 930 0423 15       		.uleb128 0x15
 931 0424 1C000000 		.4byte	.LASF65
 932 0428 01       		.sleb128 1
 933 0429 15       		.uleb128 0x15
 934 042a 54020000 		.4byte	.LASF66
 935 042e 02       		.sleb128 2
 936 042f 00       		.byte	0
 937 0430 03       		.uleb128 0x3
 938 0431 37010000 		.4byte	.LASF67
 939 0435 09       		.byte	0x9
 940 0436 57       		.byte	0x57
 941 0437 15040000 		.4byte	0x415
 942 043b 0F       		.uleb128 0xf
 943 043c 5E010000 		.4byte	.LASF68
ARM GAS  /tmp/cc7PkecD.s 			page 18


 944 0440 0A       		.byte	0xa
 945 0441 2C01     		.2byte	0x12c
 946 0443 82000000 		.4byte	0x82
 947 0447 0F       		.uleb128 0xf
 948 0448 4B010000 		.4byte	.LASF69
 949 044c 0A       		.byte	0xa
 950 044d 3101     		.2byte	0x131
 951 044f 53040000 		.4byte	0x453
 952 0453 16       		.uleb128 0x16
 953 0454 4B010000 		.4byte	.LASF69
 954 0458 1C       		.byte	0x1c
 955 0459 0A       		.byte	0xa
 956 045a 7901     		.2byte	0x179
 957 045c D6040000 		.4byte	0x4d6
 958 0460 0E       		.uleb128 0xe
 959 0461 E1000000 		.4byte	.LASF70
 960 0465 0A       		.byte	0xa
 961 0466 7D01     		.2byte	0x17d
 962 0468 E4030000 		.4byte	0x3e4
 963 046c 00       		.byte	0
 964 046d 0E       		.uleb128 0xe
 965 046e E7000000 		.4byte	.LASF71
 966 0472 0A       		.byte	0xa
 967 0473 8101     		.2byte	0x181
 968 0475 0A040000 		.4byte	0x40a
 969 0479 01       		.byte	0x1
 970 047a 0E       		.uleb128 0xe
 971 047b D9000000 		.4byte	.LASF72
 972 047f 0A       		.byte	0xa
 973 0480 8501     		.2byte	0x185
 974 0482 30040000 		.4byte	0x430
 975 0486 02       		.byte	0x2
 976 0487 0E       		.uleb128 0xe
 977 0488 6A040000 		.4byte	.LASF73
 978 048c 0A       		.byte	0xa
 979 048d 8901     		.2byte	0x189
 980 048f C8050000 		.4byte	0x5c8
 981 0493 04       		.byte	0x4
 982 0494 0E       		.uleb128 0xe
 983 0495 93010000 		.4byte	.LASF74
 984 0499 0A       		.byte	0xa
 985 049a 9101     		.2byte	0x191
 986 049c D3050000 		.4byte	0x5d3
 987 04a0 08       		.byte	0x8
 988 04a1 0E       		.uleb128 0xe
 989 04a2 3D050000 		.4byte	.LASF75
 990 04a6 0A       		.byte	0xa
 991 04a7 9501     		.2byte	0x195
 992 04a9 82000000 		.4byte	0x82
 993 04ad 0C       		.byte	0xc
 994 04ae 0E       		.uleb128 0xe
 995 04af 00000000 		.4byte	.LASF76
 996 04b3 0A       		.byte	0xa
 997 04b4 9901     		.2byte	0x199
 998 04b6 D9050000 		.4byte	0x5d9
 999 04ba 10       		.byte	0x10
 1000 04bb 0E       		.uleb128 0xe
ARM GAS  /tmp/cc7PkecD.s 			page 19


 1001 04bc 45010000 		.4byte	.LASF77
 1002 04c0 0A       		.byte	0xa
 1003 04c1 9D01     		.2byte	0x19d
 1004 04c3 D9050000 		.4byte	0x5d9
 1005 04c7 14       		.byte	0x14
 1006 04c8 0E       		.uleb128 0xe
 1007 04c9 96000000 		.4byte	.LASF78
 1008 04cd 0A       		.byte	0xa
 1009 04ce A101     		.2byte	0x1a1
 1010 04d0 3F010000 		.4byte	0x13f
 1011 04d4 18       		.byte	0x18
 1012 04d5 00       		.byte	0
 1013 04d6 0F       		.uleb128 0xf
 1014 04d7 B6000000 		.4byte	.LASF79
 1015 04db 0A       		.byte	0xa
 1016 04dc 3801     		.2byte	0x138
 1017 04de E2040000 		.4byte	0x4e2
 1018 04e2 07       		.uleb128 0x7
 1019 04e3 04       		.byte	0x4
 1020 04e4 E8040000 		.4byte	0x4e8
 1021 04e8 08       		.uleb128 0x8
 1022 04e9 F3040000 		.4byte	0x4f3
 1023 04ed 09       		.uleb128 0x9
 1024 04ee F3040000 		.4byte	0x4f3
 1025 04f2 00       		.byte	0
 1026 04f3 07       		.uleb128 0x7
 1027 04f4 04       		.byte	0x4
 1028 04f5 47040000 		.4byte	0x447
 1029 04f9 0F       		.uleb128 0xf
 1030 04fa 6D000000 		.4byte	.LASF80
 1031 04fe 0A       		.byte	0xa
 1032 04ff 4001     		.2byte	0x140
 1033 0501 05050000 		.4byte	0x505
 1034 0505 07       		.uleb128 0x7
 1035 0506 04       		.byte	0x4
 1036 0507 0B050000 		.4byte	0x50b
 1037 050b 08       		.uleb128 0x8
 1038 050c 1B050000 		.4byte	0x51b
 1039 0510 09       		.uleb128 0x9
 1040 0511 F3040000 		.4byte	0x4f3
 1041 0515 09       		.uleb128 0x9
 1042 0516 5E000000 		.4byte	0x5e
 1043 051a 00       		.byte	0
 1044 051b 0F       		.uleb128 0xf
 1045 051c E3010000 		.4byte	.LASF81
 1046 0520 0A       		.byte	0xa
 1047 0521 4801     		.2byte	0x148
 1048 0523 27050000 		.4byte	0x527
 1049 0527 07       		.uleb128 0x7
 1050 0528 04       		.byte	0x4
 1051 0529 2D050000 		.4byte	0x52d
 1052 052d 08       		.uleb128 0x8
 1053 052e 3D050000 		.4byte	0x53d
 1054 0532 09       		.uleb128 0x9
 1055 0533 F3040000 		.4byte	0x4f3
 1056 0537 09       		.uleb128 0x9
 1057 0538 3B040000 		.4byte	0x43b
ARM GAS  /tmp/cc7PkecD.s 			page 20


 1058 053c 00       		.byte	0
 1059 053d 0C       		.uleb128 0xc
 1060 053e 24       		.byte	0x24
 1061 053f 0A       		.byte	0xa
 1062 0540 4E01     		.2byte	0x14e
 1063 0542 BC050000 		.4byte	0x5bc
 1064 0546 0E       		.uleb128 0xe
 1065 0547 7E040000 		.4byte	.LASF82
 1066 054b 0A       		.byte	0xa
 1067 054c 5201     		.2byte	0x152
 1068 054e D6040000 		.4byte	0x4d6
 1069 0552 00       		.byte	0
 1070 0553 0E       		.uleb128 0xe
 1071 0554 1C030000 		.4byte	.LASF83
 1072 0558 0A       		.byte	0xa
 1073 0559 5601     		.2byte	0x156
 1074 055b D6040000 		.4byte	0x4d6
 1075 055f 04       		.byte	0x4
 1076 0560 0E       		.uleb128 0xe
 1077 0561 81020000 		.4byte	.LASF84
 1078 0565 0A       		.byte	0xa
 1079 0566 5A01     		.2byte	0x15a
 1080 0568 D6040000 		.4byte	0x4d6
 1081 056c 08       		.byte	0x8
 1082 056d 0E       		.uleb128 0xe
 1083 056e 32000000 		.4byte	.LASF85
 1084 0572 0A       		.byte	0xa
 1085 0573 5E01     		.2byte	0x15e
 1086 0575 F9040000 		.4byte	0x4f9
 1087 0579 0C       		.byte	0xc
 1088 057a 0E       		.uleb128 0xe
 1089 057b 65020000 		.4byte	.LASF86
 1090 057f 0A       		.byte	0xa
 1091 0580 6201     		.2byte	0x162
 1092 0582 1B050000 		.4byte	0x51b
 1093 0586 10       		.byte	0x10
 1094 0587 0E       		.uleb128 0xe
 1095 0588 45050000 		.4byte	.LASF87
 1096 058c 0A       		.byte	0xa
 1097 058d 6701     		.2byte	0x167
 1098 058f 82000000 		.4byte	0x82
 1099 0593 14       		.byte	0x14
 1100 0594 0D       		.uleb128 0xd
 1101 0595 63723100 		.ascii	"cr1\000"
 1102 0599 0A       		.byte	0xa
 1103 059a 6B01     		.2byte	0x16b
 1104 059c 82000000 		.4byte	0x82
 1105 05a0 18       		.byte	0x18
 1106 05a1 0D       		.uleb128 0xd
 1107 05a2 63723200 		.ascii	"cr2\000"
 1108 05a6 0A       		.byte	0xa
 1109 05a7 6F01     		.2byte	0x16f
 1110 05a9 82000000 		.4byte	0x82
 1111 05ad 1C       		.byte	0x1c
 1112 05ae 0D       		.uleb128 0xd
 1113 05af 63723300 		.ascii	"cr3\000"
 1114 05b3 0A       		.byte	0xa
ARM GAS  /tmp/cc7PkecD.s 			page 21


 1115 05b4 7301     		.2byte	0x173
 1116 05b6 82000000 		.4byte	0x82
 1117 05ba 20       		.byte	0x20
 1118 05bb 00       		.byte	0
 1119 05bc 0F       		.uleb128 0xf
 1120 05bd 7E000000 		.4byte	.LASF88
 1121 05c1 0A       		.byte	0xa
 1122 05c2 7401     		.2byte	0x174
 1123 05c4 3D050000 		.4byte	0x53d
 1124 05c8 07       		.uleb128 0x7
 1125 05c9 04       		.byte	0x4
 1126 05ca CE050000 		.4byte	0x5ce
 1127 05ce 17       		.uleb128 0x17
 1128 05cf BC050000 		.4byte	0x5bc
 1129 05d3 07       		.uleb128 0x7
 1130 05d4 04       		.byte	0x4
 1131 05d5 6D020000 		.4byte	0x26d
 1132 05d9 07       		.uleb128 0x7
 1133 05da 04       		.byte	0x4
 1134 05db DF050000 		.4byte	0x5df
 1135 05df 17       		.uleb128 0x17
 1136 05e0 CA020000 		.4byte	0x2ca
 1137 05e4 18       		.uleb128 0x18
 1138 05e5 98020000 		.4byte	.LASF89
 1139 05e9 01       		.byte	0x1
 1140 05ea 1F       		.byte	0x1f
 1141 05eb 00000000 		.4byte	.LFB119
 1142 05ef 10000000 		.4byte	.LFE119-.LFB119
 1143 05f3 01       		.uleb128 0x1
 1144 05f4 9C       		.byte	0x9c
 1145 05f5 05060000 		.4byte	0x605
 1146 05f9 19       		.uleb128 0x19
 1147 05fa 7000     		.ascii	"p\000"
 1148 05fc 01       		.byte	0x1
 1149 05fd 1F       		.byte	0x1f
 1150 05fe B4000000 		.4byte	0xb4
 1151 0602 01       		.uleb128 0x1
 1152 0603 50       		.byte	0x50
 1153 0604 00       		.byte	0
 1154 0605 18       		.uleb128 0x18
 1155 0606 72010000 		.4byte	.LASF90
 1156 060a 01       		.byte	0x1
 1157 060b 29       		.byte	0x29
 1158 060c 00000000 		.4byte	.LFB120
 1159 0610 10000000 		.4byte	.LFE120-.LFB120
 1160 0614 01       		.uleb128 0x1
 1161 0615 9C       		.byte	0x9c
 1162 0616 28060000 		.4byte	0x628
 1163 061a 1A       		.uleb128 0x1a
 1164 061b 37020000 		.4byte	.LASF91
 1165 061f 01       		.byte	0x1
 1166 0620 29       		.byte	0x29
 1167 0621 F3040000 		.4byte	0x4f3
 1168 0625 01       		.uleb128 0x1
 1169 0626 50       		.byte	0x50
 1170 0627 00       		.byte	0
 1171 0628 18       		.uleb128 0x18
ARM GAS  /tmp/cc7PkecD.s 			page 22


 1172 0629 D3000000 		.4byte	.LASF92
 1173 062d 01       		.byte	0x1
 1174 062e 41       		.byte	0x41
 1175 062f 00000000 		.4byte	.LFB122
 1176 0633 02000000 		.4byte	.LFE122-.LFB122
 1177 0637 01       		.uleb128 0x1
 1178 0638 9C       		.byte	0x9c
 1179 0639 56060000 		.4byte	0x656
 1180 063d 1A       		.uleb128 0x1a
 1181 063e 37020000 		.4byte	.LASF91
 1182 0642 01       		.byte	0x1
 1183 0643 41       		.byte	0x41
 1184 0644 F3040000 		.4byte	0x4f3
 1185 0648 01       		.uleb128 0x1
 1186 0649 50       		.byte	0x50
 1187 064a 19       		.uleb128 0x19
 1188 064b 6500     		.ascii	"e\000"
 1189 064d 01       		.byte	0x1
 1190 064e 41       		.byte	0x41
 1191 064f 3B040000 		.4byte	0x43b
 1192 0653 01       		.uleb128 0x1
 1193 0654 51       		.byte	0x51
 1194 0655 00       		.byte	0
 1195 0656 18       		.uleb128 0x18
 1196 0657 D1020000 		.4byte	.LASF93
 1197 065b 01       		.byte	0x1
 1198 065c 5B       		.byte	0x5b
 1199 065d 00000000 		.4byte	.LFB124
 1200 0661 02000000 		.4byte	.LFE124-.LFB124
 1201 0665 01       		.uleb128 0x1
 1202 0666 9C       		.byte	0x9c
 1203 0667 79060000 		.4byte	0x679
 1204 066b 1A       		.uleb128 0x1a
 1205 066c 37020000 		.4byte	.LASF91
 1206 0670 01       		.byte	0x1
 1207 0671 5B       		.byte	0x5b
 1208 0672 F3040000 		.4byte	0x4f3
 1209 0676 01       		.uleb128 0x1
 1210 0677 50       		.byte	0x50
 1211 0678 00       		.byte	0
 1212 0679 18       		.uleb128 0x18
 1213 067a B1020000 		.4byte	.LASF94
 1214 067e 01       		.byte	0x1
 1215 067f 4B       		.byte	0x4b
 1216 0680 00000000 		.4byte	.LFB123
 1217 0684 44000000 		.4byte	.LFE123-.LFB123
 1218 0688 01       		.uleb128 0x1
 1219 0689 9C       		.byte	0x9c
 1220 068a 35070000 		.4byte	0x735
 1221 068e 1B       		.uleb128 0x1b
 1222 068f 37020000 		.4byte	.LASF91
 1223 0693 01       		.byte	0x1
 1224 0694 4B       		.byte	0x4b
 1225 0695 F3040000 		.4byte	0x4f3
 1226 0699 00000000 		.4byte	.LLST0
 1227 069d 1C       		.uleb128 0x1c
 1228 069e 6300     		.ascii	"c\000"
ARM GAS  /tmp/cc7PkecD.s 			page 23


 1229 06a0 01       		.byte	0x1
 1230 06a1 4B       		.byte	0x4b
 1231 06a2 5E000000 		.4byte	0x5e
 1232 06a6 21000000 		.4byte	.LLST1
 1233 06aa 1D       		.uleb128 0x1d
 1234 06ab 0A000000 		.4byte	.LBB2
 1235 06af 06000000 		.4byte	.LBE2-.LBB2
 1236 06b3 C5060000 		.4byte	0x6c5
 1237 06b7 1E       		.uleb128 0x1e
 1238 06b8 746D7000 		.ascii	"tmp\000"
 1239 06bc 01       		.byte	0x1
 1240 06bd 51       		.byte	0x51
 1241 06be 82000000 		.4byte	0x82
 1242 06c2 01       		.uleb128 0x1
 1243 06c3 53       		.byte	0x53
 1244 06c4 00       		.byte	0
 1245 06c5 1D       		.uleb128 0x1d
 1246 06c6 2E000000 		.4byte	.LBB3
 1247 06ca 16000000 		.4byte	.LBE3-.LBB3
 1248 06ce E0060000 		.4byte	0x6e0
 1249 06d2 1E       		.uleb128 0x1e
 1250 06d3 746D7000 		.ascii	"tmp\000"
 1251 06d7 01       		.byte	0x1
 1252 06d8 55       		.byte	0x55
 1253 06d9 82000000 		.4byte	0x82
 1254 06dd 01       		.uleb128 0x1
 1255 06de 53       		.byte	0x53
 1256 06df 00       		.byte	0
 1257 06e0 1F       		.uleb128 0x1f
 1258 06e1 14000000 		.4byte	.LVL5
 1259 06e5 6D090000 		.4byte	0x96d
 1260 06e9 20       		.uleb128 0x20
 1261 06ea 1E000000 		.4byte	.LVL6
 1262 06ee 74090000 		.4byte	0x974
 1263 06f2 00070000 		.4byte	0x700
 1264 06f6 21       		.uleb128 0x21
 1265 06f7 01       		.uleb128 0x1
 1266 06f8 50       		.byte	0x50
 1267 06f9 05       		.uleb128 0x5
 1268 06fa 03       		.byte	0x3
 1269 06fb 00000000 		.4byte	.LANCHOR0
 1270 06ff 00       		.byte	0
 1271 0700 20       		.uleb128 0x20
 1272 0701 2A000000 		.4byte	.LVL7
 1273 0705 85090000 		.4byte	0x985
 1274 0709 2B070000 		.4byte	0x72b
 1275 070d 21       		.uleb128 0x21
 1276 070e 01       		.uleb128 0x1
 1277 070f 53       		.byte	0x53
 1278 0710 01       		.uleb128 0x1
 1279 0711 30       		.byte	0x30
 1280 0712 21       		.uleb128 0x21
 1281 0713 01       		.uleb128 0x1
 1282 0714 52       		.byte	0x52
 1283 0715 05       		.uleb128 0x5
 1284 0716 03       		.byte	0x3
 1285 0717 00000000 		.4byte	ledoff
ARM GAS  /tmp/cc7PkecD.s 			page 24


 1286 071b 21       		.uleb128 0x21
 1287 071c 01       		.uleb128 0x1
 1288 071d 51       		.byte	0x51
 1289 071e 02       		.uleb128 0x2
 1290 071f 08       		.byte	0x8
 1291 0720 C8       		.byte	0xc8
 1292 0721 21       		.uleb128 0x21
 1293 0722 01       		.uleb128 0x1
 1294 0723 50       		.byte	0x50
 1295 0724 05       		.uleb128 0x5
 1296 0725 03       		.byte	0x3
 1297 0726 00000000 		.4byte	.LANCHOR0
 1298 072a 00       		.byte	0
 1299 072b 1F       		.uleb128 0x1f
 1300 072c 2E000000 		.4byte	.LVL8
 1301 0730 A5090000 		.4byte	0x9a5
 1302 0734 00       		.byte	0
 1303 0735 18       		.uleb128 0x18
 1304 0736 92040000 		.4byte	.LASF95
 1305 073a 01       		.byte	0x1
 1306 073b 32       		.byte	0x32
 1307 073c 00000000 		.4byte	.LFB121
 1308 0740 44000000 		.4byte	.LFE121-.LFB121
 1309 0744 01       		.uleb128 0x1
 1310 0745 9C       		.byte	0x9c
 1311 0746 E5070000 		.4byte	0x7e5
 1312 074a 1B       		.uleb128 0x1b
 1313 074b 37020000 		.4byte	.LASF91
 1314 074f 01       		.byte	0x1
 1315 0750 32       		.byte	0x32
 1316 0751 F3040000 		.4byte	0x4f3
 1317 0755 42000000 		.4byte	.LLST2
 1318 0759 1D       		.uleb128 0x1d
 1319 075a 0A000000 		.4byte	.LBB4
 1320 075e 06000000 		.4byte	.LBE4-.LBB4
 1321 0762 74070000 		.4byte	0x774
 1322 0766 1E       		.uleb128 0x1e
 1323 0767 746D7000 		.ascii	"tmp\000"
 1324 076b 01       		.byte	0x1
 1325 076c 36       		.byte	0x36
 1326 076d 82000000 		.4byte	0x82
 1327 0771 01       		.uleb128 0x1
 1328 0772 53       		.byte	0x53
 1329 0773 00       		.byte	0
 1330 0774 1D       		.uleb128 0x1d
 1331 0775 30000000 		.4byte	.LBB5
 1332 0779 14000000 		.4byte	.LBE5-.LBB5
 1333 077d 8F070000 		.4byte	0x78f
 1334 0781 1E       		.uleb128 0x1e
 1335 0782 746D7000 		.ascii	"tmp\000"
 1336 0786 01       		.byte	0x1
 1337 0787 3A       		.byte	0x3a
 1338 0788 82000000 		.4byte	0x82
 1339 078c 01       		.uleb128 0x1
 1340 078d 53       		.byte	0x53
 1341 078e 00       		.byte	0
 1342 078f 1F       		.uleb128 0x1f
ARM GAS  /tmp/cc7PkecD.s 			page 25


 1343 0790 14000000 		.4byte	.LVL10
 1344 0794 6D090000 		.4byte	0x96d
 1345 0798 20       		.uleb128 0x20
 1346 0799 1E000000 		.4byte	.LVL11
 1347 079d 74090000 		.4byte	0x974
 1348 07a1 AF070000 		.4byte	0x7af
 1349 07a5 21       		.uleb128 0x21
 1350 07a6 01       		.uleb128 0x1
 1351 07a7 50       		.byte	0x50
 1352 07a8 05       		.uleb128 0x5
 1353 07a9 03       		.byte	0x3
 1354 07aa 00000000 		.4byte	.LANCHOR1
 1355 07ae 00       		.byte	0
 1356 07af 20       		.uleb128 0x20
 1357 07b0 2C000000 		.4byte	.LVL12
 1358 07b4 85090000 		.4byte	0x985
 1359 07b8 DB070000 		.4byte	0x7db
 1360 07bc 21       		.uleb128 0x21
 1361 07bd 01       		.uleb128 0x1
 1362 07be 53       		.byte	0x53
 1363 07bf 01       		.uleb128 0x1
 1364 07c0 30       		.byte	0x30
 1365 07c1 21       		.uleb128 0x21
 1366 07c2 01       		.uleb128 0x1
 1367 07c3 52       		.byte	0x52
 1368 07c4 05       		.uleb128 0x5
 1369 07c5 03       		.byte	0x3
 1370 07c6 00000000 		.4byte	restart
 1371 07ca 21       		.uleb128 0x21
 1372 07cb 01       		.uleb128 0x1
 1373 07cc 51       		.byte	0x51
 1374 07cd 03       		.uleb128 0x3
 1375 07ce 0A       		.byte	0xa
 1376 07cf 8813     		.2byte	0x1388
 1377 07d1 21       		.uleb128 0x21
 1378 07d2 01       		.uleb128 0x1
 1379 07d3 50       		.byte	0x50
 1380 07d4 05       		.uleb128 0x5
 1381 07d5 03       		.byte	0x3
 1382 07d6 00000000 		.4byte	.LANCHOR1
 1383 07da 00       		.byte	0
 1384 07db 1F       		.uleb128 0x1f
 1385 07dc 30000000 		.4byte	.LVL13
 1386 07e0 A5090000 		.4byte	0x9a5
 1387 07e4 00       		.byte	0
 1388 07e5 18       		.uleb128 0x18
 1389 07e6 A2040000 		.4byte	.LASF96
 1390 07ea 01       		.byte	0x1
 1391 07eb 16       		.byte	0x16
 1392 07ec 00000000 		.4byte	.LFB118
 1393 07f0 2C000000 		.4byte	.LFE118-.LFB118
 1394 07f4 01       		.uleb128 0x1
 1395 07f5 9C       		.byte	0x9c
 1396 07f6 6C080000 		.4byte	0x86c
 1397 07fa 1C       		.uleb128 0x1c
 1398 07fb 7000     		.ascii	"p\000"
 1399 07fd 01       		.byte	0x1
ARM GAS  /tmp/cc7PkecD.s 			page 26


 1400 07fe 16       		.byte	0x16
 1401 07ff B4000000 		.4byte	0xb4
 1402 0803 63000000 		.4byte	.LLST3
 1403 0807 1D       		.uleb128 0x1d
 1404 0808 02000000 		.4byte	.LBB6
 1405 080c 06000000 		.4byte	.LBE6-.LBB6
 1406 0810 22080000 		.4byte	0x822
 1407 0814 1E       		.uleb128 0x1e
 1408 0815 746D7000 		.ascii	"tmp\000"
 1409 0819 01       		.byte	0x1
 1410 081a 1A       		.byte	0x1a
 1411 081b 82000000 		.4byte	0x82
 1412 081f 01       		.uleb128 0x1
 1413 0820 53       		.byte	0x53
 1414 0821 00       		.byte	0
 1415 0822 1D       		.uleb128 0x1d
 1416 0823 1A000000 		.4byte	.LBB7
 1417 0827 12000000 		.4byte	.LBE7-.LBB7
 1418 082b 3D080000 		.4byte	0x83d
 1419 082f 1E       		.uleb128 0x1e
 1420 0830 746D7000 		.ascii	"tmp\000"
 1421 0834 01       		.byte	0x1
 1422 0835 1C       		.byte	0x1c
 1423 0836 82000000 		.4byte	0x82
 1424 083a 01       		.uleb128 0x1
 1425 083b 53       		.byte	0x53
 1426 083c 00       		.byte	0
 1427 083d 1F       		.uleb128 0x1f
 1428 083e 0C000000 		.4byte	.LVL15
 1429 0842 6D090000 		.4byte	0x96d
 1430 0846 20       		.uleb128 0x20
 1431 0847 16000000 		.4byte	.LVL16
 1432 084b AC090000 		.4byte	0x9ac
 1433 084f 62080000 		.4byte	0x862
 1434 0853 21       		.uleb128 0x21
 1435 0854 01       		.uleb128 0x1
 1436 0855 52       		.byte	0x52
 1437 0856 05       		.uleb128 0x5
 1438 0857 03       		.byte	0x3
 1439 0858 00000000 		.4byte	.LC0
 1440 085c 21       		.uleb128 0x21
 1441 085d 01       		.uleb128 0x1
 1442 085e 51       		.byte	0x51
 1443 085f 01       		.uleb128 0x1
 1444 0860 3E       		.byte	0x3e
 1445 0861 00       		.byte	0
 1446 0862 1F       		.uleb128 0x1f
 1447 0863 1A000000 		.4byte	.LVL17
 1448 0867 A5090000 		.4byte	0x9a5
 1449 086b 00       		.byte	0
 1450 086c 22       		.uleb128 0x22
 1451 086d 4B050000 		.4byte	.LASF113
 1452 0871 01       		.byte	0x1
 1453 0872 72       		.byte	0x72
 1454 0873 25000000 		.4byte	0x25
 1455 0877 00000000 		.4byte	.LFB125
 1456 087b 54000000 		.4byte	.LFE125-.LFB125
ARM GAS  /tmp/cc7PkecD.s 			page 27


 1457 087f 01       		.uleb128 0x1
 1458 0880 9C       		.byte	0x9c
 1459 0881 22090000 		.4byte	0x922
 1460 0885 1F       		.uleb128 0x1f
 1461 0886 06000000 		.4byte	.LVL18
 1462 088a CE090000 		.4byte	0x9ce
 1463 088e 1F       		.uleb128 0x1f
 1464 088f 0A000000 		.4byte	.LVL19
 1465 0893 D5090000 		.4byte	0x9d5
 1466 0897 20       		.uleb128 0x20
 1467 0898 12000000 		.4byte	.LVL20
 1468 089c DC090000 		.4byte	0x9dc
 1469 08a0 AE080000 		.4byte	0x8ae
 1470 08a4 21       		.uleb128 0x21
 1471 08a5 01       		.uleb128 0x1
 1472 08a6 51       		.byte	0x51
 1473 08a7 05       		.uleb128 0x5
 1474 08a8 03       		.byte	0x3
 1475 08a9 00000000 		.4byte	.LANCHOR2
 1476 08ad 00       		.byte	0
 1477 08ae 20       		.uleb128 0x20
 1478 08af 22000000 		.4byte	.LVL21
 1479 08b3 F2090000 		.4byte	0x9f2
 1480 08b7 D1080000 		.4byte	0x8d1
 1481 08bb 21       		.uleb128 0x21
 1482 08bc 01       		.uleb128 0x1
 1483 08bd 52       		.byte	0x52
 1484 08be 03       		.uleb128 0x3
 1485 08bf 0A       		.byte	0xa
 1486 08c0 8203     		.2byte	0x382
 1487 08c2 21       		.uleb128 0x21
 1488 08c3 01       		.uleb128 0x1
 1489 08c4 51       		.byte	0x51
 1490 08c5 03       		.uleb128 0x3
 1491 08c6 0A       		.byte	0xa
 1492 08c7 0002     		.2byte	0x200
 1493 08c9 21       		.uleb128 0x21
 1494 08ca 01       		.uleb128 0x1
 1495 08cb 50       		.byte	0x50
 1496 08cc 03       		.uleb128 0x3
 1497 08cd 42       		.byte	0x42
 1498 08ce 4A       		.byte	0x4a
 1499 08cf 24       		.byte	0x24
 1500 08d0 00       		.byte	0
 1501 08d1 20       		.uleb128 0x20
 1502 08d2 32000000 		.4byte	.LVL22
 1503 08d6 F2090000 		.4byte	0x9f2
 1504 08da F4080000 		.4byte	0x8f4
 1505 08de 21       		.uleb128 0x21
 1506 08df 01       		.uleb128 0x1
 1507 08e0 52       		.byte	0x52
 1508 08e1 03       		.uleb128 0x3
 1509 08e2 0A       		.byte	0xa
 1510 08e3 8203     		.2byte	0x382
 1511 08e5 21       		.uleb128 0x21
 1512 08e6 01       		.uleb128 0x1
 1513 08e7 51       		.byte	0x51
ARM GAS  /tmp/cc7PkecD.s 			page 28


 1514 08e8 03       		.uleb128 0x3
 1515 08e9 0A       		.byte	0xa
 1516 08ea 0004     		.2byte	0x400
 1517 08ec 21       		.uleb128 0x21
 1518 08ed 01       		.uleb128 0x1
 1519 08ee 50       		.byte	0x50
 1520 08ef 03       		.uleb128 0x3
 1521 08f0 42       		.byte	0x42
 1522 08f1 4A       		.byte	0x4a
 1523 08f2 24       		.byte	0x24
 1524 08f3 00       		.byte	0
 1525 08f4 20       		.uleb128 0x20
 1526 08f5 3C000000 		.4byte	.LVL23
 1527 08f9 0E0A0000 		.4byte	0xa0e
 1528 08fd 10090000 		.4byte	0x910
 1529 0901 21       		.uleb128 0x21
 1530 0902 01       		.uleb128 0x1
 1531 0903 52       		.byte	0x52
 1532 0904 05       		.uleb128 0x5
 1533 0905 03       		.byte	0x3
 1534 0906 10000000 		.4byte	.LC1
 1535 090a 21       		.uleb128 0x21
 1536 090b 01       		.uleb128 0x1
 1537 090c 51       		.byte	0x51
 1538 090d 01       		.uleb128 0x1
 1539 090e 3D       		.byte	0x3d
 1540 090f 00       		.byte	0
 1541 0910 23       		.uleb128 0x23
 1542 0911 44000000 		.4byte	.LVL24
 1543 0915 290A0000 		.4byte	0xa29
 1544 0919 21       		.uleb128 0x21
 1545 091a 01       		.uleb128 0x1
 1546 091b 50       		.byte	0x50
 1547 091c 03       		.uleb128 0x3
 1548 091d 0A       		.byte	0xa
 1549 091e F401     		.2byte	0x1f4
 1550 0920 00       		.byte	0
 1551 0921 00       		.byte	0
 1552 0922 1E       		.uleb128 0x1e
 1553 0923 76743100 		.ascii	"vt1\000"
 1554 0927 01       		.byte	0x1
 1555 0928 14       		.byte	0x14
 1556 0929 DE000000 		.4byte	0xde
 1557 092d 05       		.uleb128 0x5
 1558 092e 03       		.byte	0x3
 1559 092f 00000000 		.4byte	vt1
 1560 0933 1E       		.uleb128 0x1e
 1561 0934 76743200 		.ascii	"vt2\000"
 1562 0938 01       		.byte	0x1
 1563 0939 14       		.byte	0x14
 1564 093a DE000000 		.4byte	0xde
 1565 093e 05       		.uleb128 0x5
 1566 093f 03       		.byte	0x3
 1567 0940 00000000 		.4byte	vt2
 1568 0944 24       		.uleb128 0x24
 1569 0945 A6020000 		.4byte	.LASF97
 1570 0949 01       		.byte	0x1
ARM GAS  /tmp/cc7PkecD.s 			page 29


 1571 094a 63       		.byte	0x63
 1572 094b BC050000 		.4byte	0x5bc
 1573 094f 05       		.uleb128 0x5
 1574 0950 03       		.byte	0x3
 1575 0951 00000000 		.4byte	uart_cfg_1
 1576 0955 25       		.uleb128 0x25
 1577 0956 89000000 		.4byte	.LASF98
 1578 095a 0B       		.byte	0xb
 1579 095b 9806     		.2byte	0x698
 1580 095d 44010000 		.4byte	0x144
 1581 0961 25       		.uleb128 0x25
 1582 0962 30020000 		.4byte	.LASF99
 1583 0966 0A       		.byte	0xa
 1584 0967 AD01     		.2byte	0x1ad
 1585 0969 47040000 		.4byte	0x447
 1586 096d 26       		.uleb128 0x26
 1587 096e 25050000 		.4byte	.LASF102
 1588 0972 0C       		.byte	0xc
 1589 0973 E2       		.byte	0xe2
 1590 0974 27       		.uleb128 0x27
 1591 0975 3A040000 		.4byte	.LASF100
 1592 0979 05       		.byte	0x5
 1593 097a F8       		.byte	0xf8
 1594 097b 85090000 		.4byte	0x985
 1595 097f 09       		.uleb128 0x9
 1596 0980 32010000 		.4byte	0x132
 1597 0984 00       		.byte	0
 1598 0985 27       		.uleb128 0x27
 1599 0986 6E020000 		.4byte	.LASF101
 1600 098a 05       		.byte	0x5
 1601 098b F7       		.byte	0xf7
 1602 098c A5090000 		.4byte	0x9a5
 1603 0990 09       		.uleb128 0x9
 1604 0991 32010000 		.4byte	0x132
 1605 0995 09       		.uleb128 0x9
 1606 0996 A9000000 		.4byte	0xa9
 1607 099a 09       		.uleb128 0x9
 1608 099b C2000000 		.4byte	0xc2
 1609 099f 09       		.uleb128 0x9
 1610 09a0 B4000000 		.4byte	0xb4
 1611 09a4 00       		.byte	0
 1612 09a5 26       		.uleb128 0x26
 1613 09a6 DD040000 		.4byte	.LASF103
 1614 09aa 0C       		.byte	0xc
 1615 09ab E3       		.byte	0xe3
 1616 09ac 27       		.uleb128 0x27
 1617 09ad 0E050000 		.4byte	.LASF104
 1618 09b1 09       		.byte	0x9
 1619 09b2 6B       		.byte	0x6b
 1620 09b3 C7090000 		.4byte	0x9c7
 1621 09b7 09       		.uleb128 0x9
 1622 09b8 F3040000 		.4byte	0x4f3
 1623 09bc 09       		.uleb128 0x9
 1624 09bd 2C000000 		.4byte	0x2c
 1625 09c1 09       		.uleb128 0x9
 1626 09c2 C7090000 		.4byte	0x9c7
 1627 09c6 00       		.byte	0
ARM GAS  /tmp/cc7PkecD.s 			page 30


 1628 09c7 07       		.uleb128 0x7
 1629 09c8 04       		.byte	0x4
 1630 09c9 CD090000 		.4byte	0x9cd
 1631 09cd 28       		.uleb128 0x28
 1632 09ce 26       		.uleb128 0x26
 1633 09cf DB010000 		.4byte	.LASF105
 1634 09d3 0D       		.byte	0xd
 1635 09d4 CA       		.byte	0xca
 1636 09d5 26       		.uleb128 0x26
 1637 09d6 C4000000 		.4byte	.LASF106
 1638 09da 0E       		.byte	0xe
 1639 09db EF       		.byte	0xef
 1640 09dc 27       		.uleb128 0x27
 1641 09dd 77020000 		.4byte	.LASF107
 1642 09e1 09       		.byte	0x9
 1643 09e2 68       		.byte	0x68
 1644 09e3 F2090000 		.4byte	0x9f2
 1645 09e7 09       		.uleb128 0x9
 1646 09e8 F3040000 		.4byte	0x4f3
 1647 09ec 09       		.uleb128 0x9
 1648 09ed C8050000 		.4byte	0x5c8
 1649 09f1 00       		.byte	0
 1650 09f2 29       		.uleb128 0x29
 1651 09f3 C7040000 		.4byte	.LASF108
 1652 09f7 08       		.byte	0x8
 1653 09f8 C201     		.2byte	0x1c2
 1654 09fa 0E0A0000 		.4byte	0xa0e
 1655 09fe 09       		.uleb128 0x9
 1656 09ff B8030000 		.4byte	0x3b8
 1657 0a03 09       		.uleb128 0x9
 1658 0a04 A2030000 		.4byte	0x3a2
 1659 0a08 09       		.uleb128 0x9
 1660 0a09 AD030000 		.4byte	0x3ad
 1661 0a0d 00       		.byte	0
 1662 0a0e 27       		.uleb128 0x27
 1663 0a0f 29010000 		.4byte	.LASF109
 1664 0a13 09       		.byte	0x9
 1665 0a14 6A       		.byte	0x6a
 1666 0a15 290A0000 		.4byte	0xa29
 1667 0a19 09       		.uleb128 0x9
 1668 0a1a F3040000 		.4byte	0x4f3
 1669 0a1e 09       		.uleb128 0x9
 1670 0a1f 2C000000 		.4byte	0x2c
 1671 0a23 09       		.uleb128 0x9
 1672 0a24 C7090000 		.4byte	0x9c7
 1673 0a28 00       		.byte	0
 1674 0a29 2A       		.uleb128 0x2a
 1675 0a2a 0C000000 		.4byte	.LASF114
 1676 0a2e 0F       		.byte	0xf
 1677 0a2f 6E01     		.2byte	0x16e
 1678 0a31 09       		.uleb128 0x9
 1679 0a32 A9000000 		.4byte	0xa9
 1680 0a36 00       		.byte	0
 1681 0a37 00       		.byte	0
 1682              		.section	.debug_abbrev,"",%progbits
 1683              	.Ldebug_abbrev0:
 1684 0000 01       		.uleb128 0x1
ARM GAS  /tmp/cc7PkecD.s 			page 31


 1685 0001 11       		.uleb128 0x11
 1686 0002 01       		.byte	0x1
 1687 0003 25       		.uleb128 0x25
 1688 0004 0E       		.uleb128 0xe
 1689 0005 13       		.uleb128 0x13
 1690 0006 0B       		.uleb128 0xb
 1691 0007 03       		.uleb128 0x3
 1692 0008 0E       		.uleb128 0xe
 1693 0009 1B       		.uleb128 0x1b
 1694 000a 0E       		.uleb128 0xe
 1695 000b 55       		.uleb128 0x55
 1696 000c 17       		.uleb128 0x17
 1697 000d 11       		.uleb128 0x11
 1698 000e 01       		.uleb128 0x1
 1699 000f 10       		.uleb128 0x10
 1700 0010 17       		.uleb128 0x17
 1701 0011 00       		.byte	0
 1702 0012 00       		.byte	0
 1703 0013 02       		.uleb128 0x2
 1704 0014 24       		.uleb128 0x24
 1705 0015 00       		.byte	0
 1706 0016 0B       		.uleb128 0xb
 1707 0017 0B       		.uleb128 0xb
 1708 0018 3E       		.uleb128 0x3e
 1709 0019 0B       		.uleb128 0xb
 1710 001a 03       		.uleb128 0x3
 1711 001b 08       		.uleb128 0x8
 1712 001c 00       		.byte	0
 1713 001d 00       		.byte	0
 1714 001e 03       		.uleb128 0x3
 1715 001f 16       		.uleb128 0x16
 1716 0020 00       		.byte	0
 1717 0021 03       		.uleb128 0x3
 1718 0022 0E       		.uleb128 0xe
 1719 0023 3A       		.uleb128 0x3a
 1720 0024 0B       		.uleb128 0xb
 1721 0025 3B       		.uleb128 0x3b
 1722 0026 0B       		.uleb128 0xb
 1723 0027 49       		.uleb128 0x49
 1724 0028 13       		.uleb128 0x13
 1725 0029 00       		.byte	0
 1726 002a 00       		.byte	0
 1727 002b 04       		.uleb128 0x4
 1728 002c 24       		.uleb128 0x24
 1729 002d 00       		.byte	0
 1730 002e 0B       		.uleb128 0xb
 1731 002f 0B       		.uleb128 0xb
 1732 0030 3E       		.uleb128 0x3e
 1733 0031 0B       		.uleb128 0xb
 1734 0032 03       		.uleb128 0x3
 1735 0033 0E       		.uleb128 0xe
 1736 0034 00       		.byte	0
 1737 0035 00       		.byte	0
 1738 0036 05       		.uleb128 0x5
 1739 0037 0F       		.uleb128 0xf
 1740 0038 00       		.byte	0
 1741 0039 0B       		.uleb128 0xb
ARM GAS  /tmp/cc7PkecD.s 			page 32


 1742 003a 0B       		.uleb128 0xb
 1743 003b 00       		.byte	0
 1744 003c 00       		.byte	0
 1745 003d 06       		.uleb128 0x6
 1746 003e 35       		.uleb128 0x35
 1747 003f 00       		.byte	0
 1748 0040 49       		.uleb128 0x49
 1749 0041 13       		.uleb128 0x13
 1750 0042 00       		.byte	0
 1751 0043 00       		.byte	0
 1752 0044 07       		.uleb128 0x7
 1753 0045 0F       		.uleb128 0xf
 1754 0046 00       		.byte	0
 1755 0047 0B       		.uleb128 0xb
 1756 0048 0B       		.uleb128 0xb
 1757 0049 49       		.uleb128 0x49
 1758 004a 13       		.uleb128 0x13
 1759 004b 00       		.byte	0
 1760 004c 00       		.byte	0
 1761 004d 08       		.uleb128 0x8
 1762 004e 15       		.uleb128 0x15
 1763 004f 01       		.byte	0x1
 1764 0050 27       		.uleb128 0x27
 1765 0051 19       		.uleb128 0x19
 1766 0052 01       		.uleb128 0x1
 1767 0053 13       		.uleb128 0x13
 1768 0054 00       		.byte	0
 1769 0055 00       		.byte	0
 1770 0056 09       		.uleb128 0x9
 1771 0057 05       		.uleb128 0x5
 1772 0058 00       		.byte	0
 1773 0059 49       		.uleb128 0x49
 1774 005a 13       		.uleb128 0x13
 1775 005b 00       		.byte	0
 1776 005c 00       		.byte	0
 1777 005d 0A       		.uleb128 0xa
 1778 005e 13       		.uleb128 0x13
 1779 005f 01       		.byte	0x1
 1780 0060 03       		.uleb128 0x3
 1781 0061 0E       		.uleb128 0xe
 1782 0062 0B       		.uleb128 0xb
 1783 0063 0B       		.uleb128 0xb
 1784 0064 3A       		.uleb128 0x3a
 1785 0065 0B       		.uleb128 0xb
 1786 0066 3B       		.uleb128 0x3b
 1787 0067 0B       		.uleb128 0xb
 1788 0068 01       		.uleb128 0x1
 1789 0069 13       		.uleb128 0x13
 1790 006a 00       		.byte	0
 1791 006b 00       		.byte	0
 1792 006c 0B       		.uleb128 0xb
 1793 006d 0D       		.uleb128 0xd
 1794 006e 00       		.byte	0
 1795 006f 03       		.uleb128 0x3
 1796 0070 0E       		.uleb128 0xe
 1797 0071 3A       		.uleb128 0x3a
 1798 0072 0B       		.uleb128 0xb
ARM GAS  /tmp/cc7PkecD.s 			page 33


 1799 0073 3B       		.uleb128 0x3b
 1800 0074 0B       		.uleb128 0xb
 1801 0075 49       		.uleb128 0x49
 1802 0076 13       		.uleb128 0x13
 1803 0077 38       		.uleb128 0x38
 1804 0078 0B       		.uleb128 0xb
 1805 0079 00       		.byte	0
 1806 007a 00       		.byte	0
 1807 007b 0C       		.uleb128 0xc
 1808 007c 13       		.uleb128 0x13
 1809 007d 01       		.byte	0x1
 1810 007e 0B       		.uleb128 0xb
 1811 007f 0B       		.uleb128 0xb
 1812 0080 3A       		.uleb128 0x3a
 1813 0081 0B       		.uleb128 0xb
 1814 0082 3B       		.uleb128 0x3b
 1815 0083 05       		.uleb128 0x5
 1816 0084 01       		.uleb128 0x1
 1817 0085 13       		.uleb128 0x13
 1818 0086 00       		.byte	0
 1819 0087 00       		.byte	0
 1820 0088 0D       		.uleb128 0xd
 1821 0089 0D       		.uleb128 0xd
 1822 008a 00       		.byte	0
 1823 008b 03       		.uleb128 0x3
 1824 008c 08       		.uleb128 0x8
 1825 008d 3A       		.uleb128 0x3a
 1826 008e 0B       		.uleb128 0xb
 1827 008f 3B       		.uleb128 0x3b
 1828 0090 05       		.uleb128 0x5
 1829 0091 49       		.uleb128 0x49
 1830 0092 13       		.uleb128 0x13
 1831 0093 38       		.uleb128 0x38
 1832 0094 0B       		.uleb128 0xb
 1833 0095 00       		.byte	0
 1834 0096 00       		.byte	0
 1835 0097 0E       		.uleb128 0xe
 1836 0098 0D       		.uleb128 0xd
 1837 0099 00       		.byte	0
 1838 009a 03       		.uleb128 0x3
 1839 009b 0E       		.uleb128 0xe
 1840 009c 3A       		.uleb128 0x3a
 1841 009d 0B       		.uleb128 0xb
 1842 009e 3B       		.uleb128 0x3b
 1843 009f 05       		.uleb128 0x5
 1844 00a0 49       		.uleb128 0x49
 1845 00a1 13       		.uleb128 0x13
 1846 00a2 38       		.uleb128 0x38
 1847 00a3 0B       		.uleb128 0xb
 1848 00a4 00       		.byte	0
 1849 00a5 00       		.byte	0
 1850 00a6 0F       		.uleb128 0xf
 1851 00a7 16       		.uleb128 0x16
 1852 00a8 00       		.byte	0
 1853 00a9 03       		.uleb128 0x3
 1854 00aa 0E       		.uleb128 0xe
 1855 00ab 3A       		.uleb128 0x3a
ARM GAS  /tmp/cc7PkecD.s 			page 34


 1856 00ac 0B       		.uleb128 0xb
 1857 00ad 3B       		.uleb128 0x3b
 1858 00ae 05       		.uleb128 0x5
 1859 00af 49       		.uleb128 0x49
 1860 00b0 13       		.uleb128 0x13
 1861 00b1 00       		.byte	0
 1862 00b2 00       		.byte	0
 1863 00b3 10       		.uleb128 0x10
 1864 00b4 13       		.uleb128 0x13
 1865 00b5 01       		.byte	0x1
 1866 00b6 0B       		.uleb128 0xb
 1867 00b7 0B       		.uleb128 0xb
 1868 00b8 3A       		.uleb128 0x3a
 1869 00b9 0B       		.uleb128 0xb
 1870 00ba 3B       		.uleb128 0x3b
 1871 00bb 0B       		.uleb128 0xb
 1872 00bc 01       		.uleb128 0x1
 1873 00bd 13       		.uleb128 0x13
 1874 00be 00       		.byte	0
 1875 00bf 00       		.byte	0
 1876 00c0 11       		.uleb128 0x11
 1877 00c1 0D       		.uleb128 0xd
 1878 00c2 00       		.byte	0
 1879 00c3 03       		.uleb128 0x3
 1880 00c4 08       		.uleb128 0x8
 1881 00c5 3A       		.uleb128 0x3a
 1882 00c6 0B       		.uleb128 0xb
 1883 00c7 3B       		.uleb128 0x3b
 1884 00c8 0B       		.uleb128 0xb
 1885 00c9 49       		.uleb128 0x49
 1886 00ca 13       		.uleb128 0x13
 1887 00cb 38       		.uleb128 0x38
 1888 00cc 0B       		.uleb128 0xb
 1889 00cd 00       		.byte	0
 1890 00ce 00       		.byte	0
 1891 00cf 12       		.uleb128 0x12
 1892 00d0 17       		.uleb128 0x17
 1893 00d1 01       		.byte	0x1
 1894 00d2 0B       		.uleb128 0xb
 1895 00d3 0B       		.uleb128 0xb
 1896 00d4 3A       		.uleb128 0x3a
 1897 00d5 0B       		.uleb128 0xb
 1898 00d6 3B       		.uleb128 0x3b
 1899 00d7 0B       		.uleb128 0xb
 1900 00d8 01       		.uleb128 0x1
 1901 00d9 13       		.uleb128 0x13
 1902 00da 00       		.byte	0
 1903 00db 00       		.byte	0
 1904 00dc 13       		.uleb128 0x13
 1905 00dd 0D       		.uleb128 0xd
 1906 00de 00       		.byte	0
 1907 00df 03       		.uleb128 0x3
 1908 00e0 08       		.uleb128 0x8
 1909 00e1 3A       		.uleb128 0x3a
 1910 00e2 0B       		.uleb128 0xb
 1911 00e3 3B       		.uleb128 0x3b
 1912 00e4 0B       		.uleb128 0xb
ARM GAS  /tmp/cc7PkecD.s 			page 35


 1913 00e5 49       		.uleb128 0x49
 1914 00e6 13       		.uleb128 0x13
 1915 00e7 00       		.byte	0
 1916 00e8 00       		.byte	0
 1917 00e9 14       		.uleb128 0x14
 1918 00ea 04       		.uleb128 0x4
 1919 00eb 01       		.byte	0x1
 1920 00ec 0B       		.uleb128 0xb
 1921 00ed 0B       		.uleb128 0xb
 1922 00ee 3A       		.uleb128 0x3a
 1923 00ef 0B       		.uleb128 0xb
 1924 00f0 3B       		.uleb128 0x3b
 1925 00f1 0B       		.uleb128 0xb
 1926 00f2 01       		.uleb128 0x1
 1927 00f3 13       		.uleb128 0x13
 1928 00f4 00       		.byte	0
 1929 00f5 00       		.byte	0
 1930 00f6 15       		.uleb128 0x15
 1931 00f7 28       		.uleb128 0x28
 1932 00f8 00       		.byte	0
 1933 00f9 03       		.uleb128 0x3
 1934 00fa 0E       		.uleb128 0xe
 1935 00fb 1C       		.uleb128 0x1c
 1936 00fc 0D       		.uleb128 0xd
 1937 00fd 00       		.byte	0
 1938 00fe 00       		.byte	0
 1939 00ff 16       		.uleb128 0x16
 1940 0100 13       		.uleb128 0x13
 1941 0101 01       		.byte	0x1
 1942 0102 03       		.uleb128 0x3
 1943 0103 0E       		.uleb128 0xe
 1944 0104 0B       		.uleb128 0xb
 1945 0105 0B       		.uleb128 0xb
 1946 0106 3A       		.uleb128 0x3a
 1947 0107 0B       		.uleb128 0xb
 1948 0108 3B       		.uleb128 0x3b
 1949 0109 05       		.uleb128 0x5
 1950 010a 01       		.uleb128 0x1
 1951 010b 13       		.uleb128 0x13
 1952 010c 00       		.byte	0
 1953 010d 00       		.byte	0
 1954 010e 17       		.uleb128 0x17
 1955 010f 26       		.uleb128 0x26
 1956 0110 00       		.byte	0
 1957 0111 49       		.uleb128 0x49
 1958 0112 13       		.uleb128 0x13
 1959 0113 00       		.byte	0
 1960 0114 00       		.byte	0
 1961 0115 18       		.uleb128 0x18
 1962 0116 2E       		.uleb128 0x2e
 1963 0117 01       		.byte	0x1
 1964 0118 03       		.uleb128 0x3
 1965 0119 0E       		.uleb128 0xe
 1966 011a 3A       		.uleb128 0x3a
 1967 011b 0B       		.uleb128 0xb
 1968 011c 3B       		.uleb128 0x3b
 1969 011d 0B       		.uleb128 0xb
ARM GAS  /tmp/cc7PkecD.s 			page 36


 1970 011e 27       		.uleb128 0x27
 1971 011f 19       		.uleb128 0x19
 1972 0120 11       		.uleb128 0x11
 1973 0121 01       		.uleb128 0x1
 1974 0122 12       		.uleb128 0x12
 1975 0123 06       		.uleb128 0x6
 1976 0124 40       		.uleb128 0x40
 1977 0125 18       		.uleb128 0x18
 1978 0126 9742     		.uleb128 0x2117
 1979 0128 19       		.uleb128 0x19
 1980 0129 01       		.uleb128 0x1
 1981 012a 13       		.uleb128 0x13
 1982 012b 00       		.byte	0
 1983 012c 00       		.byte	0
 1984 012d 19       		.uleb128 0x19
 1985 012e 05       		.uleb128 0x5
 1986 012f 00       		.byte	0
 1987 0130 03       		.uleb128 0x3
 1988 0131 08       		.uleb128 0x8
 1989 0132 3A       		.uleb128 0x3a
 1990 0133 0B       		.uleb128 0xb
 1991 0134 3B       		.uleb128 0x3b
 1992 0135 0B       		.uleb128 0xb
 1993 0136 49       		.uleb128 0x49
 1994 0137 13       		.uleb128 0x13
 1995 0138 02       		.uleb128 0x2
 1996 0139 18       		.uleb128 0x18
 1997 013a 00       		.byte	0
 1998 013b 00       		.byte	0
 1999 013c 1A       		.uleb128 0x1a
 2000 013d 05       		.uleb128 0x5
 2001 013e 00       		.byte	0
 2002 013f 03       		.uleb128 0x3
 2003 0140 0E       		.uleb128 0xe
 2004 0141 3A       		.uleb128 0x3a
 2005 0142 0B       		.uleb128 0xb
 2006 0143 3B       		.uleb128 0x3b
 2007 0144 0B       		.uleb128 0xb
 2008 0145 49       		.uleb128 0x49
 2009 0146 13       		.uleb128 0x13
 2010 0147 02       		.uleb128 0x2
 2011 0148 18       		.uleb128 0x18
 2012 0149 00       		.byte	0
 2013 014a 00       		.byte	0
 2014 014b 1B       		.uleb128 0x1b
 2015 014c 05       		.uleb128 0x5
 2016 014d 00       		.byte	0
 2017 014e 03       		.uleb128 0x3
 2018 014f 0E       		.uleb128 0xe
 2019 0150 3A       		.uleb128 0x3a
 2020 0151 0B       		.uleb128 0xb
 2021 0152 3B       		.uleb128 0x3b
 2022 0153 0B       		.uleb128 0xb
 2023 0154 49       		.uleb128 0x49
 2024 0155 13       		.uleb128 0x13
 2025 0156 02       		.uleb128 0x2
 2026 0157 17       		.uleb128 0x17
ARM GAS  /tmp/cc7PkecD.s 			page 37


 2027 0158 00       		.byte	0
 2028 0159 00       		.byte	0
 2029 015a 1C       		.uleb128 0x1c
 2030 015b 05       		.uleb128 0x5
 2031 015c 00       		.byte	0
 2032 015d 03       		.uleb128 0x3
 2033 015e 08       		.uleb128 0x8
 2034 015f 3A       		.uleb128 0x3a
 2035 0160 0B       		.uleb128 0xb
 2036 0161 3B       		.uleb128 0x3b
 2037 0162 0B       		.uleb128 0xb
 2038 0163 49       		.uleb128 0x49
 2039 0164 13       		.uleb128 0x13
 2040 0165 02       		.uleb128 0x2
 2041 0166 17       		.uleb128 0x17
 2042 0167 00       		.byte	0
 2043 0168 00       		.byte	0
 2044 0169 1D       		.uleb128 0x1d
 2045 016a 0B       		.uleb128 0xb
 2046 016b 01       		.byte	0x1
 2047 016c 11       		.uleb128 0x11
 2048 016d 01       		.uleb128 0x1
 2049 016e 12       		.uleb128 0x12
 2050 016f 06       		.uleb128 0x6
 2051 0170 01       		.uleb128 0x1
 2052 0171 13       		.uleb128 0x13
 2053 0172 00       		.byte	0
 2054 0173 00       		.byte	0
 2055 0174 1E       		.uleb128 0x1e
 2056 0175 34       		.uleb128 0x34
 2057 0176 00       		.byte	0
 2058 0177 03       		.uleb128 0x3
 2059 0178 08       		.uleb128 0x8
 2060 0179 3A       		.uleb128 0x3a
 2061 017a 0B       		.uleb128 0xb
 2062 017b 3B       		.uleb128 0x3b
 2063 017c 0B       		.uleb128 0xb
 2064 017d 49       		.uleb128 0x49
 2065 017e 13       		.uleb128 0x13
 2066 017f 02       		.uleb128 0x2
 2067 0180 18       		.uleb128 0x18
 2068 0181 00       		.byte	0
 2069 0182 00       		.byte	0
 2070 0183 1F       		.uleb128 0x1f
 2071 0184 898201   		.uleb128 0x4109
 2072 0187 00       		.byte	0
 2073 0188 11       		.uleb128 0x11
 2074 0189 01       		.uleb128 0x1
 2075 018a 31       		.uleb128 0x31
 2076 018b 13       		.uleb128 0x13
 2077 018c 00       		.byte	0
 2078 018d 00       		.byte	0
 2079 018e 20       		.uleb128 0x20
 2080 018f 898201   		.uleb128 0x4109
 2081 0192 01       		.byte	0x1
 2082 0193 11       		.uleb128 0x11
 2083 0194 01       		.uleb128 0x1
ARM GAS  /tmp/cc7PkecD.s 			page 38


 2084 0195 31       		.uleb128 0x31
 2085 0196 13       		.uleb128 0x13
 2086 0197 01       		.uleb128 0x1
 2087 0198 13       		.uleb128 0x13
 2088 0199 00       		.byte	0
 2089 019a 00       		.byte	0
 2090 019b 21       		.uleb128 0x21
 2091 019c 8A8201   		.uleb128 0x410a
 2092 019f 00       		.byte	0
 2093 01a0 02       		.uleb128 0x2
 2094 01a1 18       		.uleb128 0x18
 2095 01a2 9142     		.uleb128 0x2111
 2096 01a4 18       		.uleb128 0x18
 2097 01a5 00       		.byte	0
 2098 01a6 00       		.byte	0
 2099 01a7 22       		.uleb128 0x22
 2100 01a8 2E       		.uleb128 0x2e
 2101 01a9 01       		.byte	0x1
 2102 01aa 3F       		.uleb128 0x3f
 2103 01ab 19       		.uleb128 0x19
 2104 01ac 03       		.uleb128 0x3
 2105 01ad 0E       		.uleb128 0xe
 2106 01ae 3A       		.uleb128 0x3a
 2107 01af 0B       		.uleb128 0xb
 2108 01b0 3B       		.uleb128 0x3b
 2109 01b1 0B       		.uleb128 0xb
 2110 01b2 27       		.uleb128 0x27
 2111 01b3 19       		.uleb128 0x19
 2112 01b4 49       		.uleb128 0x49
 2113 01b5 13       		.uleb128 0x13
 2114 01b6 11       		.uleb128 0x11
 2115 01b7 01       		.uleb128 0x1
 2116 01b8 12       		.uleb128 0x12
 2117 01b9 06       		.uleb128 0x6
 2118 01ba 40       		.uleb128 0x40
 2119 01bb 18       		.uleb128 0x18
 2120 01bc 9742     		.uleb128 0x2117
 2121 01be 19       		.uleb128 0x19
 2122 01bf 01       		.uleb128 0x1
 2123 01c0 13       		.uleb128 0x13
 2124 01c1 00       		.byte	0
 2125 01c2 00       		.byte	0
 2126 01c3 23       		.uleb128 0x23
 2127 01c4 898201   		.uleb128 0x4109
 2128 01c7 01       		.byte	0x1
 2129 01c8 11       		.uleb128 0x11
 2130 01c9 01       		.uleb128 0x1
 2131 01ca 31       		.uleb128 0x31
 2132 01cb 13       		.uleb128 0x13
 2133 01cc 00       		.byte	0
 2134 01cd 00       		.byte	0
 2135 01ce 24       		.uleb128 0x24
 2136 01cf 34       		.uleb128 0x34
 2137 01d0 00       		.byte	0
 2138 01d1 03       		.uleb128 0x3
 2139 01d2 0E       		.uleb128 0xe
 2140 01d3 3A       		.uleb128 0x3a
ARM GAS  /tmp/cc7PkecD.s 			page 39


 2141 01d4 0B       		.uleb128 0xb
 2142 01d5 3B       		.uleb128 0x3b
 2143 01d6 0B       		.uleb128 0xb
 2144 01d7 49       		.uleb128 0x49
 2145 01d8 13       		.uleb128 0x13
 2146 01d9 02       		.uleb128 0x2
 2147 01da 18       		.uleb128 0x18
 2148 01db 00       		.byte	0
 2149 01dc 00       		.byte	0
 2150 01dd 25       		.uleb128 0x25
 2151 01de 34       		.uleb128 0x34
 2152 01df 00       		.byte	0
 2153 01e0 03       		.uleb128 0x3
 2154 01e1 0E       		.uleb128 0xe
 2155 01e2 3A       		.uleb128 0x3a
 2156 01e3 0B       		.uleb128 0xb
 2157 01e4 3B       		.uleb128 0x3b
 2158 01e5 05       		.uleb128 0x5
 2159 01e6 49       		.uleb128 0x49
 2160 01e7 13       		.uleb128 0x13
 2161 01e8 3F       		.uleb128 0x3f
 2162 01e9 19       		.uleb128 0x19
 2163 01ea 3C       		.uleb128 0x3c
 2164 01eb 19       		.uleb128 0x19
 2165 01ec 00       		.byte	0
 2166 01ed 00       		.byte	0
 2167 01ee 26       		.uleb128 0x26
 2168 01ef 2E       		.uleb128 0x2e
 2169 01f0 00       		.byte	0
 2170 01f1 3F       		.uleb128 0x3f
 2171 01f2 19       		.uleb128 0x19
 2172 01f3 03       		.uleb128 0x3
 2173 01f4 0E       		.uleb128 0xe
 2174 01f5 3A       		.uleb128 0x3a
 2175 01f6 0B       		.uleb128 0xb
 2176 01f7 3B       		.uleb128 0x3b
 2177 01f8 0B       		.uleb128 0xb
 2178 01f9 27       		.uleb128 0x27
 2179 01fa 19       		.uleb128 0x19
 2180 01fb 3C       		.uleb128 0x3c
 2181 01fc 19       		.uleb128 0x19
 2182 01fd 00       		.byte	0
 2183 01fe 00       		.byte	0
 2184 01ff 27       		.uleb128 0x27
 2185 0200 2E       		.uleb128 0x2e
 2186 0201 01       		.byte	0x1
 2187 0202 3F       		.uleb128 0x3f
 2188 0203 19       		.uleb128 0x19
 2189 0204 03       		.uleb128 0x3
 2190 0205 0E       		.uleb128 0xe
 2191 0206 3A       		.uleb128 0x3a
 2192 0207 0B       		.uleb128 0xb
 2193 0208 3B       		.uleb128 0x3b
 2194 0209 0B       		.uleb128 0xb
 2195 020a 27       		.uleb128 0x27
 2196 020b 19       		.uleb128 0x19
 2197 020c 3C       		.uleb128 0x3c
ARM GAS  /tmp/cc7PkecD.s 			page 40


 2198 020d 19       		.uleb128 0x19
 2199 020e 01       		.uleb128 0x1
 2200 020f 13       		.uleb128 0x13
 2201 0210 00       		.byte	0
 2202 0211 00       		.byte	0
 2203 0212 28       		.uleb128 0x28
 2204 0213 26       		.uleb128 0x26
 2205 0214 00       		.byte	0
 2206 0215 00       		.byte	0
 2207 0216 00       		.byte	0
 2208 0217 29       		.uleb128 0x29
 2209 0218 2E       		.uleb128 0x2e
 2210 0219 01       		.byte	0x1
 2211 021a 3F       		.uleb128 0x3f
 2212 021b 19       		.uleb128 0x19
 2213 021c 03       		.uleb128 0x3
 2214 021d 0E       		.uleb128 0xe
 2215 021e 3A       		.uleb128 0x3a
 2216 021f 0B       		.uleb128 0xb
 2217 0220 3B       		.uleb128 0x3b
 2218 0221 05       		.uleb128 0x5
 2219 0222 27       		.uleb128 0x27
 2220 0223 19       		.uleb128 0x19
 2221 0224 3C       		.uleb128 0x3c
 2222 0225 19       		.uleb128 0x19
 2223 0226 01       		.uleb128 0x1
 2224 0227 13       		.uleb128 0x13
 2225 0228 00       		.byte	0
 2226 0229 00       		.byte	0
 2227 022a 2A       		.uleb128 0x2a
 2228 022b 2E       		.uleb128 0x2e
 2229 022c 01       		.byte	0x1
 2230 022d 3F       		.uleb128 0x3f
 2231 022e 19       		.uleb128 0x19
 2232 022f 03       		.uleb128 0x3
 2233 0230 0E       		.uleb128 0xe
 2234 0231 3A       		.uleb128 0x3a
 2235 0232 0B       		.uleb128 0xb
 2236 0233 3B       		.uleb128 0x3b
 2237 0234 05       		.uleb128 0x5
 2238 0235 27       		.uleb128 0x27
 2239 0236 19       		.uleb128 0x19
 2240 0237 3C       		.uleb128 0x3c
 2241 0238 19       		.uleb128 0x19
 2242 0239 00       		.byte	0
 2243 023a 00       		.byte	0
 2244 023b 00       		.byte	0
 2245              		.section	.debug_loc,"",%progbits
 2246              	.Ldebug_loc0:
 2247              	.LLST0:
 2248 0000 00000000 		.4byte	.LVL4
 2249 0004 13000000 		.4byte	.LVL5-1
 2250 0008 0100     		.2byte	0x1
 2251 000a 50       		.byte	0x50
 2252 000b 13000000 		.4byte	.LVL5-1
 2253 000f 44000000 		.4byte	.LFE123
 2254 0013 0400     		.2byte	0x4
ARM GAS  /tmp/cc7PkecD.s 			page 41


 2255 0015 F3       		.byte	0xf3
 2256 0016 01       		.uleb128 0x1
 2257 0017 50       		.byte	0x50
 2258 0018 9F       		.byte	0x9f
 2259 0019 00000000 		.4byte	0
 2260 001d 00000000 		.4byte	0
 2261              	.LLST1:
 2262 0021 00000000 		.4byte	.LVL4
 2263 0025 13000000 		.4byte	.LVL5-1
 2264 0029 0100     		.2byte	0x1
 2265 002b 51       		.byte	0x51
 2266 002c 13000000 		.4byte	.LVL5-1
 2267 0030 44000000 		.4byte	.LFE123
 2268 0034 0400     		.2byte	0x4
 2269 0036 F3       		.byte	0xf3
 2270 0037 01       		.uleb128 0x1
 2271 0038 51       		.byte	0x51
 2272 0039 9F       		.byte	0x9f
 2273 003a 00000000 		.4byte	0
 2274 003e 00000000 		.4byte	0
 2275              	.LLST2:
 2276 0042 00000000 		.4byte	.LVL9
 2277 0046 13000000 		.4byte	.LVL10-1
 2278 004a 0100     		.2byte	0x1
 2279 004c 50       		.byte	0x50
 2280 004d 13000000 		.4byte	.LVL10-1
 2281 0051 44000000 		.4byte	.LFE121
 2282 0055 0400     		.2byte	0x4
 2283 0057 F3       		.byte	0xf3
 2284 0058 01       		.uleb128 0x1
 2285 0059 50       		.byte	0x50
 2286 005a 9F       		.byte	0x9f
 2287 005b 00000000 		.4byte	0
 2288 005f 00000000 		.4byte	0
 2289              	.LLST3:
 2290 0063 00000000 		.4byte	.LVL14
 2291 0067 0B000000 		.4byte	.LVL15-1
 2292 006b 0100     		.2byte	0x1
 2293 006d 50       		.byte	0x50
 2294 006e 0B000000 		.4byte	.LVL15-1
 2295 0072 2C000000 		.4byte	.LFE118
 2296 0076 0400     		.2byte	0x4
 2297 0078 F3       		.byte	0xf3
 2298 0079 01       		.uleb128 0x1
 2299 007a 50       		.byte	0x50
 2300 007b 9F       		.byte	0x9f
 2301 007c 00000000 		.4byte	0
 2302 0080 00000000 		.4byte	0
 2303              		.section	.debug_aranges,"",%progbits
 2304 0000 54000000 		.4byte	0x54
 2305 0004 0200     		.2byte	0x2
 2306 0006 00000000 		.4byte	.Ldebug_info0
 2307 000a 04       		.byte	0x4
 2308 000b 00       		.byte	0
 2309 000c 0000     		.2byte	0
 2310 000e 0000     		.2byte	0
 2311 0010 00000000 		.4byte	.LFB119
ARM GAS  /tmp/cc7PkecD.s 			page 42


 2312 0014 10000000 		.4byte	.LFE119-.LFB119
 2313 0018 00000000 		.4byte	.LFB120
 2314 001c 10000000 		.4byte	.LFE120-.LFB120
 2315 0020 00000000 		.4byte	.LFB122
 2316 0024 02000000 		.4byte	.LFE122-.LFB122
 2317 0028 00000000 		.4byte	.LFB124
 2318 002c 02000000 		.4byte	.LFE124-.LFB124
 2319 0030 00000000 		.4byte	.LFB123
 2320 0034 44000000 		.4byte	.LFE123-.LFB123
 2321 0038 00000000 		.4byte	.LFB121
 2322 003c 44000000 		.4byte	.LFE121-.LFB121
 2323 0040 00000000 		.4byte	.LFB118
 2324 0044 2C000000 		.4byte	.LFE118-.LFB118
 2325 0048 00000000 		.4byte	.LFB125
 2326 004c 54000000 		.4byte	.LFE125-.LFB125
 2327 0050 00000000 		.4byte	0
 2328 0054 00000000 		.4byte	0
 2329              		.section	.debug_ranges,"",%progbits
 2330              	.Ldebug_ranges0:
 2331 0000 00000000 		.4byte	.LFB119
 2332 0004 10000000 		.4byte	.LFE119
 2333 0008 00000000 		.4byte	.LFB120
 2334 000c 10000000 		.4byte	.LFE120
 2335 0010 00000000 		.4byte	.LFB122
 2336 0014 02000000 		.4byte	.LFE122
 2337 0018 00000000 		.4byte	.LFB124
 2338 001c 02000000 		.4byte	.LFE124
 2339 0020 00000000 		.4byte	.LFB123
 2340 0024 44000000 		.4byte	.LFE123
 2341 0028 00000000 		.4byte	.LFB121
 2342 002c 44000000 		.4byte	.LFE121
 2343 0030 00000000 		.4byte	.LFB118
 2344 0034 2C000000 		.4byte	.LFE118
 2345 0038 00000000 		.4byte	.LFB125
 2346 003c 54000000 		.4byte	.LFE125
 2347 0040 00000000 		.4byte	0
 2348 0044 00000000 		.4byte	0
 2349              		.section	.debug_line,"",%progbits
 2350              	.Ldebug_line0:
 2351 0000 A3020000 		.section	.debug_str,"MS",%progbits,1
 2351      02000202 
 2351      00000201 
 2351      FB0E0D00 
 2351      01010101 
 2352              	.LASF76:
 2353 0000 646D6172 		.ascii	"dmarx\000"
 2353      7800
 2354              	.LASF47:
 2355 0006 50555044 		.ascii	"PUPDR\000"
 2355      5200
 2356              	.LASF114:
 2357 000c 63685468 		.ascii	"chThdSleep\000"
 2357      64536C65 
 2357      657000
 2358              	.LASF49:
 2359 0017 4C434B52 		.ascii	"LCKR\000"
 2359      00
ARM GAS  /tmp/cc7PkecD.s 			page 43


 2360              	.LASF65:
 2361 001c 55415254 		.ascii	"UART_RX_ACTIVE\000"
 2361      5F52585F 
 2361      41435449 
 2361      564500
 2362              	.LASF2:
 2363 002b 73697A65 		.ascii	"size_t\000"
 2363      5F7400
 2364              	.LASF85:
 2365 0032 72786368 		.ascii	"rxchar_cb\000"
 2365      61725F63 
 2365      6200
 2366              	.LASF45:
 2367 003c 4F545950 		.ascii	"OTYPER\000"
 2367      455200
 2368              	.LASF53:
 2369 0043 696F706F 		.ascii	"ioportmask_t\000"
 2369      72746D61 
 2369      736B5F74 
 2369      00
 2370              	.LASF44:
 2371 0050 4D4F4445 		.ascii	"MODER\000"
 2371      5200
 2372              	.LASF13:
 2373 0056 6C6F6E67 		.ascii	"long long unsigned int\000"
 2373      206C6F6E 
 2373      6720756E 
 2373      7369676E 
 2373      65642069 
 2374              	.LASF80:
 2375 006d 75617274 		.ascii	"uartccb_t\000"
 2375      6363625F 
 2375      7400
 2376              	.LASF41:
 2377 0077 76656374 		.ascii	"vector\000"
 2377      6F7200
 2378              	.LASF88:
 2379 007e 55415254 		.ascii	"UARTConfig\000"
 2379      436F6E66 
 2379      696700
 2380              	.LASF98:
 2381 0089 49544D5F 		.ascii	"ITM_RxBuffer\000"
 2381      52784275 
 2381      66666572 
 2381      00
 2382              	.LASF78:
 2383 0096 72786275 		.ascii	"rxbuf\000"
 2383      6600
 2384              	.LASF12:
 2385 009c 6C6F6E67 		.ascii	"long long int\000"
 2385      206C6F6E 
 2385      6720696E 
 2385      7400
 2386              	.LASF1:
 2387 00aa 7369676E 		.ascii	"signed char\000"
 2387      65642063 
 2387      68617200 
ARM GAS  /tmp/cc7PkecD.s 			page 44


 2388              	.LASF79:
 2389 00b6 75617274 		.ascii	"uartcb_t\000"
 2389      63625F74 
 2389      00
 2390              	.LASF48:
 2391 00bf 42535252 		.ascii	"BSRR\000"
 2391      00
 2392              	.LASF106:
 2393 00c4 63685379 		.ascii	"chSysInit\000"
 2393      73496E69 
 2393      7400
 2394              	.LASF30:
 2395 00ce 47545052 		.ascii	"GTPR\000"
 2395      00
 2396              	.LASF92:
 2397 00d3 72786572 		.ascii	"rxerr\000"
 2397      7200
 2398              	.LASF72:
 2399 00d9 72787374 		.ascii	"rxstate\000"
 2399      61746500 
 2400              	.LASF70:
 2401 00e1 73746174 		.ascii	"state\000"
 2401      6500
 2402              	.LASF71:
 2403 00e7 74787374 		.ascii	"txstate\000"
 2403      61746500 
 2404              	.LASF9:
 2405 00ef 6C6F6E67 		.ascii	"long int\000"
 2405      20696E74 
 2405      00
 2406              	.LASF112:
 2407 00f8 2F686F6D 		.ascii	"/home/john/git/ChibiOS-RT/testhal/STM32F30x/UART\000"
 2407      652F6A6F 
 2407      686E2F67 
 2407      69742F43 
 2407      68696269 
 2408              	.LASF109:
 2409 0129 75617274 		.ascii	"uartStartSend\000"
 2409      53746172 
 2409      7453656E 
 2409      6400
 2410              	.LASF67:
 2411 0137 75617274 		.ascii	"uartrxstate_t\000"
 2411      72787374 
 2411      6174655F 
 2411      7400
 2412              	.LASF77:
 2413 0145 646D6174 		.ascii	"dmatx\000"
 2413      7800
 2414              	.LASF69:
 2415 014b 55415254 		.ascii	"UARTDriver\000"
 2415      44726976 
 2415      657200
 2416              	.LASF46:
 2417 0156 4F535045 		.ascii	"OSPEEDR\000"
 2417      45445200 
 2418              	.LASF68:
ARM GAS  /tmp/cc7PkecD.s 			page 45


 2419 015e 75617274 		.ascii	"uartflags_t\000"
 2419      666C6167 
 2419      735F7400 
 2420              	.LASF20:
 2421 016a 76745F70 		.ascii	"vt_prev\000"
 2421      72657600 
 2422              	.LASF90:
 2423 0172 7478656E 		.ascii	"txend1\000"
 2423      643100
 2424              	.LASF58:
 2425 0179 55415254 		.ascii	"UART_READY\000"
 2425      5F524541 
 2425      445900
 2426              	.LASF61:
 2427 0184 55415254 		.ascii	"UART_TX_ACTIVE\000"
 2427      5F54585F 
 2427      41435449 
 2427      564500
 2428              	.LASF74:
 2429 0193 75736172 		.ascii	"usart\000"
 2429      7400
 2430              	.LASF0:
 2431 0199 756E7369 		.ascii	"unsigned int\000"
 2431      676E6564 
 2431      20696E74 
 2431      00
 2432              	.LASF19:
 2433 01a6 76745F6E 		.ascii	"vt_next\000"
 2433      65787400 
 2434              	.LASF6:
 2435 01ae 75696E74 		.ascii	"uint16_t\000"
 2435      31365F74 
 2435      00
 2436              	.LASF26:
 2437 01b7 43504152 		.ascii	"CPAR\000"
 2437      00
 2438              	.LASF11:
 2439 01bc 6C6F6E67 		.ascii	"long unsigned int\000"
 2439      20756E73 
 2439      69676E65 
 2439      6420696E 
 2439      7400
 2440              	.LASF52:
 2441 01ce 4750494F 		.ascii	"GPIO_TypeDef\000"
 2441      5F547970 
 2441      65446566 
 2441      00
 2442              	.LASF105:
 2443 01db 68616C49 		.ascii	"halInit\000"
 2443      6E697400 
 2444              	.LASF81:
 2445 01e3 75617274 		.ascii	"uartecb_t\000"
 2445      6563625F 
 2445      7400
 2446              	.LASF39:
 2447 01ed 69736869 		.ascii	"ishift\000"
 2447      667400
ARM GAS  /tmp/cc7PkecD.s 			page 46


 2448              	.LASF7:
 2449 01f4 73686F72 		.ascii	"short unsigned int\000"
 2449      7420756E 
 2449      7369676E 
 2449      65642069 
 2449      6E7400
 2450              	.LASF56:
 2451 0207 55415254 		.ascii	"UART_UNINIT\000"
 2451      5F554E49 
 2451      4E495400 
 2452              	.LASF57:
 2453 0213 55415254 		.ascii	"UART_STOP\000"
 2453      5F53544F 
 2453      5000
 2454              	.LASF36:
 2455 021d 55534152 		.ascii	"USART_TypeDef\000"
 2455      545F5479 
 2455      70654465 
 2455      6600
 2456              	.LASF27:
 2457 022b 434D4152 		.ascii	"CMAR\000"
 2457      00
 2458              	.LASF99:
 2459 0230 55415254 		.ascii	"UARTD1\000"
 2459      443100
 2460              	.LASF91:
 2461 0237 75617274 		.ascii	"uartp\000"
 2461      7000
 2462              	.LASF21:
 2463 023d 76745F74 		.ascii	"vt_time\000"
 2463      696D6500 
 2464              	.LASF16:
 2465 0245 73697A65 		.ascii	"sizetype\000"
 2465      74797065 
 2465      00
 2466              	.LASF43:
 2467 024e 636C6561 		.ascii	"clear\000"
 2467      7200
 2468              	.LASF66:
 2469 0254 55415254 		.ascii	"UART_RX_COMPLETE\000"
 2469      5F52585F 
 2469      434F4D50 
 2469      4C455445 
 2469      00
 2470              	.LASF86:
 2471 0265 72786572 		.ascii	"rxerr_cb\000"
 2471      725F6362 
 2471      00
 2472              	.LASF101:
 2473 026e 63685654 		.ascii	"chVTSetI\000"
 2473      53657449 
 2473      00
 2474              	.LASF107:
 2475 0277 75617274 		.ascii	"uartStart\000"
 2475      53746172 
 2475      7400
 2476              	.LASF84:
ARM GAS  /tmp/cc7PkecD.s 			page 47


 2477 0281 7278656E 		.ascii	"rxend_cb\000"
 2477      645F6362 
 2477      00
 2478              	.LASF63:
 2479 028a 75617274 		.ascii	"uarttxstate_t\000"
 2479      74787374 
 2479      6174655F 
 2479      7400
 2480              	.LASF89:
 2481 0298 6C65646F 		.ascii	"ledoff\000"
 2481      666600
 2482              	.LASF111:
 2483 029f 6D61696E 		.ascii	"main.c\000"
 2483      2E6300
 2484              	.LASF97:
 2485 02a6 75617274 		.ascii	"uart_cfg_1\000"
 2485      5F636667 
 2485      5F3100
 2486              	.LASF94:
 2487 02b1 72786368 		.ascii	"rxchar\000"
 2487      617200
 2488              	.LASF28:
 2489 02b8 444D415F 		.ascii	"DMA_Channel_TypeDef\000"
 2489      4368616E 
 2489      6E656C5F 
 2489      54797065 
 2489      44656600 
 2490              	.LASF50:
 2491 02cc 4146524C 		.ascii	"AFRL\000"
 2491      00
 2492              	.LASF93:
 2493 02d1 7278656E 		.ascii	"rxend\000"
 2493      6400
 2494              	.LASF29:
 2495 02d7 52455345 		.ascii	"RESERVED1\000"
 2495      52564544 
 2495      3100
 2496              	.LASF31:
 2497 02e1 52455345 		.ascii	"RESERVED2\000"
 2497      52564544 
 2497      3200
 2498              	.LASF33:
 2499 02eb 52455345 		.ascii	"RESERVED3\000"
 2499      52564544 
 2499      3300
 2500              	.LASF34:
 2501 02f5 52455345 		.ascii	"RESERVED4\000"
 2501      52564544 
 2501      3400
 2502              	.LASF35:
 2503 02ff 52455345 		.ascii	"RESERVED5\000"
 2503      52564544 
 2503      3500
 2504              	.LASF42:
 2505 0309 73746D33 		.ascii	"stm32_dma_stream_t\000"
 2505      325F646D 
 2505      615F7374 
ARM GAS  /tmp/cc7PkecD.s 			page 48


 2505      7265616D 
 2505      5F7400
 2506              	.LASF83:
 2507 031c 7478656E 		.ascii	"txend2_cb\000"
 2507      64325F63 
 2507      6200
 2508              	.LASF110:
 2509 0326 474E5520 		.ascii	"GNU C 4.8.3 20131129 (release) [ARM/embedded-4_8-br"
 2509      4320342E 
 2509      382E3320 
 2509      32303133 
 2509      31313239 
 2510 0359 616E6368 		.ascii	"anch revision 205641] -mcpu=cortex-m4 -mno-thumb-in"
 2510      20726576 
 2510      6973696F 
 2510      6E203230 
 2510      35363431 
 2511 038c 74657277 		.ascii	"terwork -mthumb -ggdb -O2 -fomit-frame-pointer -fal"
 2511      6F726B20 
 2511      2D6D7468 
 2511      756D6220 
 2511      2D676764 
 2512 03bf 69676E2D 		.ascii	"ign-functions=16 -ffunction-sections -fdata-section"
 2512      66756E63 
 2512      74696F6E 
 2512      733D3136 
 2512      202D6666 
 2513 03f2 73202D66 		.ascii	"s -fno-common\000"
 2513      6E6F2D63 
 2513      6F6D6D6F 
 2513      6E00
 2514              	.LASF14:
 2515 0400 5F426F6F 		.ascii	"_Bool\000"
 2515      6C00
 2516              	.LASF8:
 2517 0406 696E7433 		.ascii	"int32_t\000"
 2517      325F7400 
 2518              	.LASF4:
 2519 040e 756E7369 		.ascii	"unsigned char\000"
 2519      676E6564 
 2519      20636861 
 2519      7200
 2520              	.LASF5:
 2521 041c 73686F72 		.ascii	"short int\000"
 2521      7420696E 
 2521      7400
 2522              	.LASF59:
 2523 0426 75617274 		.ascii	"uartstate_t\000"
 2523      73746174 
 2523      655F7400 
 2524              	.LASF37:
 2525 0432 6368616E 		.ascii	"channel\000"
 2525      6E656C00 
 2526              	.LASF100:
 2527 043a 63685654 		.ascii	"chVTResetI\000"
 2527      52657365 
 2527      744900
ARM GAS  /tmp/cc7PkecD.s 			page 49


 2528              	.LASF38:
 2529 0445 69666372 		.ascii	"ifcr\000"
 2529      00
 2530              	.LASF10:
 2531 044a 75696E74 		.ascii	"uint32_t\000"
 2531      33325F74 
 2531      00
 2532              	.LASF18:
 2533 0453 56697274 		.ascii	"VirtualTimer\000"
 2533      75616C54 
 2533      696D6572 
 2533      00
 2534              	.LASF51:
 2535 0460 41465248 		.ascii	"AFRH\000"
 2535      00
 2536              	.LASF24:
 2537 0465 63686172 		.ascii	"char\000"
 2537      00
 2538              	.LASF73:
 2539 046a 636F6E66 		.ascii	"config\000"
 2539      696700
 2540              	.LASF64:
 2541 0471 55415254 		.ascii	"UART_RX_IDLE\000"
 2541      5F52585F 
 2541      49444C45 
 2541      00
 2542              	.LASF82:
 2543 047e 7478656E 		.ascii	"txend1_cb\000"
 2543      64315F63 
 2543      6200
 2544              	.LASF15:
 2545 0488 73797374 		.ascii	"systime_t\000"
 2545      696D655F 
 2545      7400
 2546              	.LASF95:
 2547 0492 7478656E 		.ascii	"txend2\000"
 2547      643200
 2548              	.LASF17:
 2549 0499 76746675 		.ascii	"vtfunc_t\000"
 2549      6E635F74 
 2549      00
 2550              	.LASF96:
 2551 04a2 72657374 		.ascii	"restart\000"
 2551      61727400 
 2552              	.LASF60:
 2553 04aa 55415254 		.ascii	"UART_TX_IDLE\000"
 2553      5F54585F 
 2553      49444C45 
 2553      00
 2554              	.LASF32:
 2555 04b7 52544F52 		.ascii	"RTOR\000"
 2555      00
 2556              	.LASF55:
 2557 04bc 696F706F 		.ascii	"ioportid_t\000"
 2557      72746964 
 2557      5F7400
 2558              	.LASF108:
ARM GAS  /tmp/cc7PkecD.s 			page 50


 2559 04c7 5F70616C 		.ascii	"_pal_lld_setgroupmode\000"
 2559      5F6C6C64 
 2559      5F736574 
 2559      67726F75 
 2559      706D6F64 
 2560              	.LASF103:
 2561 04dd 6462675F 		.ascii	"dbg_check_unlock_from_isr\000"
 2561      63686563 
 2561      6B5F756E 
 2561      6C6F636B 
 2561      5F66726F 
 2562              	.LASF40:
 2563 04f7 73656C66 		.ascii	"selfindex\000"
 2563      696E6465 
 2563      7800
 2564              	.LASF23:
 2565 0501 76745F70 		.ascii	"vt_par\000"
 2565      617200
 2566              	.LASF25:
 2567 0508 434E4454 		.ascii	"CNDTR\000"
 2567      5200
 2568              	.LASF104:
 2569 050e 75617274 		.ascii	"uartStartSendI\000"
 2569      53746172 
 2569      7453656E 
 2569      644900
 2570              	.LASF3:
 2571 051d 75696E74 		.ascii	"uint8_t\000"
 2571      385F7400 
 2572              	.LASF102:
 2573 0525 6462675F 		.ascii	"dbg_check_lock_from_isr\000"
 2573      63686563 
 2573      6B5F6C6F 
 2573      636B5F66 
 2573      726F6D5F 
 2574              	.LASF75:
 2575 053d 646D616D 		.ascii	"dmamode\000"
 2575      6F646500 
 2576              	.LASF87:
 2577 0545 73706565 		.ascii	"speed\000"
 2577      6400
 2578              	.LASF113:
 2579 054b 6D61696E 		.ascii	"main\000"
 2579      00
 2580              	.LASF54:
 2581 0550 696F6D6F 		.ascii	"iomode_t\000"
 2581      64655F74 
 2581      00
 2582              	.LASF22:
 2583 0559 76745F66 		.ascii	"vt_func\000"
 2583      756E6300 
 2584              	.LASF62:
 2585 0561 55415254 		.ascii	"UART_TX_COMPLETE\000"
 2585      5F54585F 
 2585      434F4D50 
 2585      4C455445 
 2585      00
ARM GAS  /tmp/cc7PkecD.s 			page 51


 2586              		.ident	"GCC: (GNU Tools for ARM Embedded Processors) 4.8.3 20131129 (release) [ARM/embedded-4_8-br
ARM GAS  /tmp/cc7PkecD.s 			page 52


DEFINED SYMBOLS
                            *ABS*:0000000000000000 main.c
     /tmp/cc7PkecD.s:19     .text.ledoff:0000000000000000 $t
     /tmp/cc7PkecD.s:24     .text.ledoff:0000000000000000 ledoff
     /tmp/cc7PkecD.s:41     .text.ledoff:000000000000000c $d
     /tmp/cc7PkecD.s:46     .text.txend1:0000000000000000 $t
     /tmp/cc7PkecD.s:51     .text.txend1:0000000000000000 txend1
     /tmp/cc7PkecD.s:67     .text.txend1:000000000000000c $d
     /tmp/cc7PkecD.s:72     .text.rxerr:0000000000000000 $t
     /tmp/cc7PkecD.s:77     .text.rxerr:0000000000000000 rxerr
     /tmp/cc7PkecD.s:90     .text.rxend:0000000000000000 $t
     /tmp/cc7PkecD.s:95     .text.rxend:0000000000000000 rxend
     /tmp/cc7PkecD.s:108    .text.rxchar:0000000000000000 $t
     /tmp/cc7PkecD.s:113    .text.rxchar:0000000000000000 rxchar
     /tmp/cc7PkecD.s:167    .text.rxchar:0000000000000038 $d
     /tmp/cc7PkecD.s:175    .text.txend2:0000000000000000 $t
     /tmp/cc7PkecD.s:180    .text.txend2:0000000000000000 txend2
     /tmp/cc7PkecD.s:233    .text.txend2:0000000000000038 $d
     /tmp/cc7PkecD.s:246    .text.restart:0000000000000000 restart
     /tmp/cc7PkecD.s:241    .text.restart:0000000000000000 $t
     /tmp/cc7PkecD.s:286    .text.restart:0000000000000024 $d
     /tmp/cc7PkecD.s:293    .text.startup.main:0000000000000000 $t
     /tmp/cc7PkecD.s:299    .text.startup.main:0000000000000000 main
     /tmp/cc7PkecD.s:348    .text.startup.main:0000000000000048 $d
     /tmp/cc7PkecD.s:355    .bss.vt1:0000000000000000 $d
     /tmp/cc7PkecD.s:359    .bss.vt1:0000000000000000 vt1
     /tmp/cc7PkecD.s:362    .bss.vt2:0000000000000000 $d
     /tmp/cc7PkecD.s:366    .bss.vt2:0000000000000000 vt2
     /tmp/cc7PkecD.s:369    .rodata.str1.4:0000000000000000 $d
     /tmp/cc7PkecD.s:376    .data.uart_cfg_1:0000000000000000 $d
     /tmp/cc7PkecD.s:380    .data.uart_cfg_1:0000000000000000 uart_cfg_1
                     .debug_frame:0000000000000010 $d
     /tmp/cc7PkecD.s:174    .text.rxchar:0000000000000044 $t
     /tmp/cc7PkecD.s:240    .text.txend2:0000000000000044 $t
     /tmp/cc7PkecD.s:292    .text.restart:000000000000002c $t
     /tmp/cc7PkecD.s:354    .text.startup.main:0000000000000054 $t

UNDEFINED SYMBOLS
dbg_check_lock_from_isr
chVTResetI
chVTSetI
dbg_check_unlock_from_isr
uartStartSendI
UARTD1
halInit
chSysInit
uartStart
_pal_lld_setgroupmode
uartStartSend
chThdSleep
