ARM GAS  /tmp/ccatWSMR.s 			page 1


   1              		.syntax unified
   2              		.cpu cortex-m4
   3              		.fpu softvfp
   4              		.eabi_attribute 20, 1
   5              		.eabi_attribute 21, 1
   6              		.eabi_attribute 23, 3
   7              		.eabi_attribute 24, 1
   8              		.eabi_attribute 25, 1
   9              		.eabi_attribute 26, 1
  10              		.eabi_attribute 30, 2
  11              		.eabi_attribute 34, 1
  12              		.eabi_attribute 18, 4
  13              		.thumb
  14              		.file	"testmtx.c"
  15              		.text
  16              	.Ltext0:
  17              		.cfi_sections	.debug_frame
  18              		.section	.text.mtx1_execute,"ax",%progbits
  19              		.align	2
  20              		.p2align 4,,15
  21              		.thumb
  22              		.thumb_func
  23              		.type	mtx1_execute, %function
  24              	mtx1_execute:
  25              	.LFB9:
  26              		.file 1 "../../../test/testmtx.c"
  27              		.loc 1 97 0
  28              		.cfi_startproc
  29              		@ args = 0, pretend = 0, frame = 0
  30              		@ frame_needed = 0, uses_anonymous_args = 0
  31 0000 F0B5     		push	{r4, r5, r6, r7, lr}
  32              		.cfi_def_cfa_offset 20
  33              		.cfi_offset 4, -20
  34              		.cfi_offset 5, -16
  35              		.cfi_offset 6, -12
  36              		.cfi_offset 7, -8
  37              		.cfi_offset 14, -4
  38              		.loc 1 99 0
  39 0002 2A4F     		ldr	r7, .L5
  40              		.loc 1 101 0
  41 0004 2A4E     		ldr	r6, .L5+4
  42              		.loc 1 99 0
  43 0006 BB69     		ldr	r3, [r7, #24]
  44              		.loc 1 100 0
  45 0008 2A48     		ldr	r0, .L5+8
  46              		.loc 1 99 0
  47 000a 9C68     		ldr	r4, [r3, #8]
  48              	.LVL0:
  49              		.loc 1 101 0
  50 000c 2A4D     		ldr	r5, .L5+12
  51              		.loc 1 97 0
  52 000e 83B0     		sub	sp, sp, #12
  53              		.cfi_def_cfa_offset 32
  54              		.loc 1 100 0
  55 0010 FFF7FEFF 		bl	chMtxLock
  56              	.LVL1:
  57              		.loc 1 101 0
ARM GAS  /tmp/ccatWSMR.s 			page 2


  58 0014 294B     		ldr	r3, .L5+16
  59 0016 0093     		str	r3, [sp]
  60 0018 621C     		adds	r2, r4, #1
  61 001a 4FF49871 		mov	r1, #304
  62 001e 284B     		ldr	r3, .L5+20
  63 0020 3068     		ldr	r0, [r6]
  64 0022 FFF7FEFF 		bl	chThdCreateStatic
  65              	.LVL2:
  66              		.loc 1 102 0
  67 0026 7368     		ldr	r3, [r6, #4]
  68 0028 2649     		ldr	r1, .L5+24
  69              		.loc 1 101 0
  70 002a 2860     		str	r0, [r5]
  71              		.loc 1 102 0
  72 002c A21C     		adds	r2, r4, #2
  73 002e 1846     		mov	r0, r3
  74 0030 0091     		str	r1, [sp]
  75 0032 234B     		ldr	r3, .L5+20
  76 0034 4FF49871 		mov	r1, #304
  77 0038 FFF7FEFF 		bl	chThdCreateStatic
  78              	.LVL3:
  79              		.loc 1 103 0
  80 003c B368     		ldr	r3, [r6, #8]
  81 003e 2249     		ldr	r1, .L5+28
  82              		.loc 1 102 0
  83 0040 6860     		str	r0, [r5, #4]
  84              		.loc 1 103 0
  85 0042 E21C     		adds	r2, r4, #3
  86 0044 1846     		mov	r0, r3
  87 0046 0091     		str	r1, [sp]
  88 0048 1D4B     		ldr	r3, .L5+20
  89 004a 4FF49871 		mov	r1, #304
  90 004e FFF7FEFF 		bl	chThdCreateStatic
  91              	.LVL4:
  92              		.loc 1 104 0
  93 0052 F368     		ldr	r3, [r6, #12]
  94 0054 1D49     		ldr	r1, .L5+32
  95              		.loc 1 103 0
  96 0056 A860     		str	r0, [r5, #8]
  97              		.loc 1 104 0
  98 0058 221D     		adds	r2, r4, #4
  99 005a 1846     		mov	r0, r3
 100 005c 0091     		str	r1, [sp]
 101 005e 184B     		ldr	r3, .L5+20
 102 0060 4FF49871 		mov	r1, #304
 103 0064 FFF7FEFF 		bl	chThdCreateStatic
 104              	.LVL5:
 105              		.loc 1 105 0
 106 0068 3369     		ldr	r3, [r6, #16]
 107 006a 1949     		ldr	r1, .L5+36
 108              		.loc 1 104 0
 109 006c E860     		str	r0, [r5, #12]
 110              		.loc 1 105 0
 111 006e 621D     		adds	r2, r4, #5
 112 0070 1846     		mov	r0, r3
 113 0072 0091     		str	r1, [sp]
 114 0074 124B     		ldr	r3, .L5+20
ARM GAS  /tmp/ccatWSMR.s 			page 3


 115 0076 4FF49871 		mov	r1, #304
 116 007a FFF7FEFF 		bl	chThdCreateStatic
 117              	.LVL6:
 118 007e 2861     		str	r0, [r5, #16]
 119              		.loc 1 106 0
 120 0080 FFF7FEFF 		bl	chMtxUnlock
 121              	.LVL7:
 122              		.loc 1 107 0
 123 0084 FFF7FEFF 		bl	test_wait_threads
 124              	.LVL8:
 125              		.loc 1 108 0
 126 0088 BB69     		ldr	r3, [r7, #24]
 127 008a 9968     		ldr	r1, [r3, #8]
 128 008c 0B1B     		subs	r3, r1, r4
 129 008e 5942     		rsbs	r1, r3, #0
 130 0090 5941     		adcs	r1, r1, r3
 131 0092 0120     		movs	r0, #1
 132 0094 FFF7FEFF 		bl	_test_assert
 133              	.LVL9:
 134 0098 08B1     		cbz	r0, .L4
 135              		.loc 1 110 0
 136 009a 03B0     		add	sp, sp, #12
 137              		@ sp needed
 138 009c F0BD     		pop	{r4, r5, r6, r7, pc}
 139              	.LVL10:
 140              	.L4:
 141              		.loc 1 109 0
 142 009e 0D49     		ldr	r1, .L5+40
 143 00a0 0220     		movs	r0, #2
 144              		.loc 1 110 0
 145 00a2 03B0     		add	sp, sp, #12
 146              		@ sp needed
 147 00a4 BDE8F040 		pop	{r4, r5, r6, r7, lr}
 148              	.LVL11:
 149              		.loc 1 109 0
 150 00a8 FFF7FEBF 		b	_test_assert_sequence
 151              	.LVL12:
 152              	.L6:
 153              		.align	2
 154              	.L5:
 155 00ac 00000000 		.word	rlist
 156 00b0 00000000 		.word	wa
 157 00b4 00000000 		.word	.LANCHOR0
 158 00b8 00000000 		.word	threads
 159 00bc 00000000 		.word	.LC0
 160 00c0 00000000 		.word	thread1
 161 00c4 04000000 		.word	.LC1
 162 00c8 08000000 		.word	.LC2
 163 00cc 0C000000 		.word	.LC3
 164 00d0 10000000 		.word	.LC4
 165 00d4 14000000 		.word	.LC5
 166              		.cfi_endproc
 167              	.LFE9:
 168              		.size	mtx1_execute, .-mtx1_execute
 169 00d8 AFF30080 		.section	.text.thread1,"ax",%progbits
 169      AFF30080 
 170              		.align	2
ARM GAS  /tmp/ccatWSMR.s 			page 4


 171              		.p2align 4,,15
 172              		.thumb
 173              		.thumb_func
 174              		.type	thread1, %function
 175              	thread1:
 176              	.LFB8:
 177              		.loc 1 89 0
 178              		.cfi_startproc
 179              		@ args = 0, pretend = 0, frame = 0
 180              		@ frame_needed = 0, uses_anonymous_args = 0
 181              	.LVL13:
 182 0000 10B5     		push	{r4, lr}
 183              		.cfi_def_cfa_offset 8
 184              		.cfi_offset 4, -8
 185              		.cfi_offset 14, -4
 186              		.loc 1 89 0
 187 0002 0446     		mov	r4, r0
 188              		.loc 1 91 0
 189 0004 0448     		ldr	r0, .L8
 190              	.LVL14:
 191 0006 FFF7FEFF 		bl	chMtxLock
 192              	.LVL15:
 193              		.loc 1 92 0
 194 000a 2078     		ldrb	r0, [r4]	@ zero_extendqisi2
 195 000c FFF7FEFF 		bl	test_emit_token
 196              	.LVL16:
 197              		.loc 1 93 0
 198 0010 FFF7FEFF 		bl	chMtxUnlock
 199              	.LVL17:
 200              		.loc 1 95 0
 201 0014 0020     		movs	r0, #0
 202 0016 10BD     		pop	{r4, pc}
 203              	.LVL18:
 204              	.L9:
 205              		.align	2
 206              	.L8:
 207 0018 00000000 		.word	.LANCHOR0
 208              		.cfi_endproc
 209              	.LFE8:
 210              		.size	thread1, .-thread1
 211 001c AFF30080 		.section	.text.thread12,"ax",%progbits
 212              		.align	2
 213              		.p2align 4,,15
 214              		.thumb
 215              		.thumb_func
 216              		.type	thread12, %function
 217              	thread12:
 218              	.LFB35:
 219              		.loc 1 588 0
 220              		.cfi_startproc
 221              		@ args = 0, pretend = 0, frame = 0
 222              		@ frame_needed = 0, uses_anonymous_args = 0
 223              	.LVL19:
 224 0000 10B5     		push	{r4, lr}
 225              		.cfi_def_cfa_offset 8
 226              		.cfi_offset 4, -8
 227              		.cfi_offset 14, -4
ARM GAS  /tmp/ccatWSMR.s 			page 5


 228              		.loc 1 588 0
 229 0002 0446     		mov	r4, r0
 230              		.loc 1 590 0
 231 0004 0448     		ldr	r0, .L11
 232              	.LVL20:
 233 0006 FFF7FEFF 		bl	chMtxLock
 234              	.LVL21:
 235              		.loc 1 591 0
 236 000a 2078     		ldrb	r0, [r4]	@ zero_extendqisi2
 237 000c FFF7FEFF 		bl	test_emit_token
 238              	.LVL22:
 239              		.loc 1 592 0
 240 0010 FFF7FEFF 		bl	chMtxUnlock
 241              	.LVL23:
 242              		.loc 1 594 0
 243 0014 0020     		movs	r0, #0
 244 0016 10BD     		pop	{r4, pc}
 245              	.LVL24:
 246              	.L12:
 247              		.align	2
 248              	.L11:
 249 0018 00000000 		.word	.LANCHOR1
 250              		.cfi_endproc
 251              	.LFE35:
 252              		.size	thread12, .-thread12
 253 001c AFF30080 		.section	.text.mtx1_setup,"ax",%progbits
 254              		.align	2
 255              		.p2align 4,,15
 256              		.thumb
 257              		.thumb_func
 258              		.type	mtx1_setup, %function
 259              	mtx1_setup:
 260              	.LFB7:
 261              		.loc 1 84 0
 262              		.cfi_startproc
 263              		@ args = 0, pretend = 0, frame = 0
 264              		@ frame_needed = 0, uses_anonymous_args = 0
 265              		@ link register save eliminated.
 266              		.loc 1 86 0
 267 0000 0148     		ldr	r0, .L14
 268 0002 FFF7FEBF 		b	chMtxInit
 269              	.LVL25:
 270              	.L15:
 271 0006 00BF     		.align	2
 272              	.L14:
 273 0008 00000000 		.word	.LANCHOR0
 274              		.cfi_endproc
 275              	.LFE7:
 276              		.size	mtx1_setup, .-mtx1_setup
 277 000c AFF30080 		.section	.text.mtx2_setup,"ax",%progbits
 278              		.align	2
 279              		.p2align 4,,15
 280              		.thumb
 281              		.thumb_func
 282              		.type	mtx2_setup, %function
 283              	mtx2_setup:
 284              	.LFB10:
ARM GAS  /tmp/ccatWSMR.s 			page 6


 285              		.loc 1 151 0
 286              		.cfi_startproc
 287              		@ args = 0, pretend = 0, frame = 0
 288              		@ frame_needed = 0, uses_anonymous_args = 0
 289              		@ link register save eliminated.
 290              		.loc 1 153 0
 291 0000 0148     		ldr	r0, .L17
 292 0002 FFF7FEBF 		b	chMtxInit
 293              	.LVL26:
 294              	.L18:
 295 0006 00BF     		.align	2
 296              	.L17:
 297 0008 00000000 		.word	.LANCHOR0
 298              		.cfi_endproc
 299              	.LFE10:
 300              		.size	mtx2_setup, .-mtx2_setup
 301 000c AFF30080 		.section	.text.mtx3_setup,"ax",%progbits
 302              		.align	2
 303              		.p2align 4,,15
 304              		.thumb
 305              		.thumb_func
 306              		.type	mtx3_setup, %function
 307              	mtx3_setup:
 308              	.LFB15:
 309              		.loc 1 241 0
 310              		.cfi_startproc
 311              		@ args = 0, pretend = 0, frame = 0
 312              		@ frame_needed = 0, uses_anonymous_args = 0
 313 0000 08B5     		push	{r3, lr}
 314              		.cfi_def_cfa_offset 8
 315              		.cfi_offset 3, -8
 316              		.cfi_offset 14, -4
 317              		.loc 1 243 0
 318 0002 0448     		ldr	r0, .L20
 319 0004 FFF7FEFF 		bl	chMtxInit
 320              	.LVL27:
 321              		.loc 1 244 0
 322 0008 0348     		ldr	r0, .L20+4
 323              		.loc 1 245 0
 324 000a BDE80840 		pop	{r3, lr}
 325              		.loc 1 244 0
 326 000e FFF7FEBF 		b	chMtxInit
 327              	.LVL28:
 328              	.L21:
 329 0012 00BF     		.align	2
 330              	.L20:
 331 0014 00000000 		.word	.LANCHOR0
 332 0018 00000000 		.word	.LANCHOR1
 333              		.cfi_endproc
 334              	.LFE15:
 335              		.size	mtx3_setup, .-mtx3_setup
 336 001c AFF30080 		.section	.text.mtx4_setup,"ax",%progbits
 337              		.align	2
 338              		.p2align 4,,15
 339              		.thumb
 340              		.thumb_func
 341              		.type	mtx4_setup, %function
ARM GAS  /tmp/ccatWSMR.s 			page 7


 342              	mtx4_setup:
 343              	.LFB22:
 344              		.loc 1 341 0
 345              		.cfi_startproc
 346              		@ args = 0, pretend = 0, frame = 0
 347              		@ frame_needed = 0, uses_anonymous_args = 0
 348 0000 08B5     		push	{r3, lr}
 349              		.cfi_def_cfa_offset 8
 350              		.cfi_offset 3, -8
 351              		.cfi_offset 14, -4
 352              		.loc 1 343 0
 353 0002 0448     		ldr	r0, .L23
 354 0004 FFF7FEFF 		bl	chMtxInit
 355              	.LVL29:
 356              		.loc 1 344 0
 357 0008 0348     		ldr	r0, .L23+4
 358              		.loc 1 345 0
 359 000a BDE80840 		pop	{r3, lr}
 360              		.loc 1 344 0
 361 000e FFF7FEBF 		b	chMtxInit
 362              	.LVL30:
 363              	.L24:
 364 0012 00BF     		.align	2
 365              	.L23:
 366 0014 00000000 		.word	.LANCHOR0
 367 0018 00000000 		.word	.LANCHOR1
 368              		.cfi_endproc
 369              	.LFE22:
 370              		.size	mtx4_setup, .-mtx4_setup
 371 001c AFF30080 		.section	.text.mtx5_setup,"ax",%progbits
 372              		.align	2
 373              		.p2align 4,,15
 374              		.thumb
 375              		.thumb_func
 376              		.type	mtx5_setup, %function
 377              	mtx5_setup:
 378              	.LFB26:
 379              		.loc 1 429 0
 380              		.cfi_startproc
 381              		@ args = 0, pretend = 0, frame = 0
 382              		@ frame_needed = 0, uses_anonymous_args = 0
 383              		@ link register save eliminated.
 384              		.loc 1 431 0
 385 0000 0148     		ldr	r0, .L26
 386 0002 FFF7FEBF 		b	chMtxInit
 387              	.LVL31:
 388              	.L27:
 389 0006 00BF     		.align	2
 390              	.L26:
 391 0008 00000000 		.word	.LANCHOR0
 392              		.cfi_endproc
 393              	.LFE26:
 394              		.size	mtx5_setup, .-mtx5_setup
 395 000c AFF30080 		.section	.text.mtx2_execute,"ax",%progbits
 396              		.align	2
 397              		.p2align 4,,15
 398              		.thumb
ARM GAS  /tmp/ccatWSMR.s 			page 8


 399              		.thumb_func
 400              		.type	mtx2_execute, %function
 401              	mtx2_execute:
 402              	.LFB14:
 403              		.loc 1 190 0
 404              		.cfi_startproc
 405              		@ args = 0, pretend = 0, frame = 0
 406              		@ frame_needed = 0, uses_anonymous_args = 0
 407 0000 2DE9F041 		push	{r4, r5, r6, r7, r8, lr}
 408              		.cfi_def_cfa_offset 24
 409              		.cfi_offset 4, -24
 410              		.cfi_offset 5, -20
 411              		.cfi_offset 6, -16
 412              		.cfi_offset 7, -12
 413              		.cfi_offset 8, -8
 414              		.cfi_offset 14, -4
 415              		.loc 1 195 0
 416 0004 204E     		ldr	r6, .L31
 417 0006 214F     		ldr	r7, .L31+4
 418 0008 214C     		ldr	r4, .L31+8
 419              		.loc 1 190 0
 420 000a 82B0     		sub	sp, sp, #8
 421              		.cfi_def_cfa_offset 32
 422              		.loc 1 193 0
 423 000c FFF7FEFF 		bl	test_wait_tick
 424              	.LVL32:
 425              		.loc 1 195 0
 426 0010 B369     		ldr	r3, [r6, #24]
 427              		.loc 1 194 0
 428 0012 2049     		ldr	r1, .L31+12
 429              		.loc 1 195 0
 430 0014 9A68     		ldr	r2, [r3, #8]
 431              		.loc 1 194 0
 432 0016 D1F80C80 		ldr	r8, [r1, #12]
 433              	.LVL33:
 434              		.loc 1 195 0
 435 001a 1F4B     		ldr	r3, .L31+16
 436 001c 3868     		ldr	r0, [r7]
 437 001e 0025     		movs	r5, #0
 438 0020 013A     		subs	r2, r2, #1
 439 0022 4FF49871 		mov	r1, #304
 440 0026 0095     		str	r5, [sp]
 441 0028 FFF7FEFF 		bl	chThdCreateStatic
 442              	.LVL34:
 443              		.loc 1 196 0
 444 002c B269     		ldr	r2, [r6, #24]
 445 002e 7B68     		ldr	r3, [r7, #4]
 446 0030 9268     		ldr	r2, [r2, #8]
 447              		.loc 1 195 0
 448 0032 2060     		str	r0, [r4]
 449              		.loc 1 196 0
 450 0034 023A     		subs	r2, r2, #2
 451 0036 1846     		mov	r0, r3
 452 0038 4FF49871 		mov	r1, #304
 453 003c 174B     		ldr	r3, .L31+20
 454 003e 0095     		str	r5, [sp]
 455 0040 FFF7FEFF 		bl	chThdCreateStatic
ARM GAS  /tmp/ccatWSMR.s 			page 9


 456              	.LVL35:
 457              		.loc 1 197 0
 458 0044 B269     		ldr	r2, [r6, #24]
 459 0046 BB68     		ldr	r3, [r7, #8]
 460 0048 9268     		ldr	r2, [r2, #8]
 461              		.loc 1 196 0
 462 004a 6060     		str	r0, [r4, #4]
 463              		.loc 1 197 0
 464 004c 4FF49871 		mov	r1, #304
 465 0050 033A     		subs	r2, r2, #3
 466 0052 1846     		mov	r0, r3
 467 0054 0095     		str	r5, [sp]
 468 0056 124B     		ldr	r3, .L31+24
 469 0058 FFF7FEFF 		bl	chThdCreateStatic
 470              	.LVL36:
 471 005c A060     		str	r0, [r4, #8]
 472              		.loc 1 198 0
 473 005e FFF7FEFF 		bl	test_wait_threads
 474              	.LVL37:
 475              		.loc 1 199 0
 476 0062 0120     		movs	r0, #1
 477 0064 0F49     		ldr	r1, .L31+28
 478 0066 FFF7FEFF 		bl	_test_assert_sequence
 479              	.LVL38:
 480 006a 10B1     		cbz	r0, .L30
 481              		.loc 1 201 0
 482 006c 02B0     		add	sp, sp, #8
 483              		@ sp needed
 484 006e BDE8F081 		pop	{r4, r5, r6, r7, r8, pc}
 485              	.LVL39:
 486              	.L30:
 487              		.loc 1 200 0
 488 0072 0220     		movs	r0, #2
 489 0074 08F16401 		add	r1, r8, #100
 490 0078 08F16902 		add	r2, r8, #105
 491              		.loc 1 201 0
 492 007c 02B0     		add	sp, sp, #8
 493              		@ sp needed
 494 007e BDE8F041 		pop	{r4, r5, r6, r7, r8, lr}
 495              	.LVL40:
 496              		.loc 1 200 0
 497 0082 FFF7FEBF 		b	_test_assert_time_window
 498              	.LVL41:
 499              	.L32:
 500 0086 00BF     		.align	2
 501              	.L31:
 502 0088 00000000 		.word	rlist
 503 008c 00000000 		.word	wa
 504 0090 00000000 		.word	threads
 505 0094 00000000 		.word	vtlist
 506 0098 00000000 		.word	thread2H
 507 009c 00000000 		.word	thread2M
 508 00a0 00000000 		.word	thread2L
 509 00a4 1C000000 		.word	.LC6
 510              		.cfi_endproc
 511              	.LFE14:
 512              		.size	mtx2_execute, .-mtx2_execute
ARM GAS  /tmp/ccatWSMR.s 			page 10


 513 00a8 AFF30080 		.section	.text.mtx3_execute,"ax",%progbits
 513      AFF30080 
 514              		.align	2
 515              		.p2align 4,,15
 516              		.thumb
 517              		.thumb_func
 518              		.type	mtx3_execute, %function
 519              	mtx3_execute:
 520              	.LFB21:
 521              		.loc 1 308 0
 522              		.cfi_startproc
 523              		@ args = 0, pretend = 0, frame = 0
 524              		@ frame_needed = 0, uses_anonymous_args = 0
 525 0000 2DE9F041 		push	{r4, r5, r6, r7, r8, lr}
 526              		.cfi_def_cfa_offset 24
 527              		.cfi_offset 4, -24
 528              		.cfi_offset 5, -20
 529              		.cfi_offset 6, -16
 530              		.cfi_offset 7, -12
 531              		.cfi_offset 8, -8
 532              		.cfi_offset 14, -4
 533              		.loc 1 313 0
 534 0004 2C4E     		ldr	r6, .L36
 535 0006 2D4F     		ldr	r7, .L36+4
 536 0008 2D4C     		ldr	r4, .L36+8
 537              		.loc 1 308 0
 538 000a 82B0     		sub	sp, sp, #8
 539              		.cfi_def_cfa_offset 32
 540              		.loc 1 311 0
 541 000c FFF7FEFF 		bl	test_wait_tick
 542              	.LVL42:
 543              		.loc 1 313 0
 544 0010 B369     		ldr	r3, [r6, #24]
 545              		.loc 1 312 0
 546 0012 2C49     		ldr	r1, .L36+12
 547              		.loc 1 313 0
 548 0014 9A68     		ldr	r2, [r3, #8]
 549              		.loc 1 312 0
 550 0016 D1F80C80 		ldr	r8, [r1, #12]
 551              	.LVL43:
 552              		.loc 1 313 0
 553 001a 2B4B     		ldr	r3, .L36+16
 554 001c 3868     		ldr	r0, [r7]
 555 001e 0025     		movs	r5, #0
 556 0020 053A     		subs	r2, r2, #5
 557 0022 4FF49871 		mov	r1, #304
 558 0026 0095     		str	r5, [sp]
 559 0028 FFF7FEFF 		bl	chThdCreateStatic
 560              	.LVL44:
 561              		.loc 1 314 0
 562 002c B269     		ldr	r2, [r6, #24]
 563 002e 7B68     		ldr	r3, [r7, #4]
 564 0030 9268     		ldr	r2, [r2, #8]
 565              		.loc 1 313 0
 566 0032 2060     		str	r0, [r4]
 567              		.loc 1 314 0
 568 0034 043A     		subs	r2, r2, #4
ARM GAS  /tmp/ccatWSMR.s 			page 11


 569 0036 1846     		mov	r0, r3
 570 0038 4FF49871 		mov	r1, #304
 571 003c 234B     		ldr	r3, .L36+20
 572 003e 0095     		str	r5, [sp]
 573 0040 FFF7FEFF 		bl	chThdCreateStatic
 574              	.LVL45:
 575              		.loc 1 315 0
 576 0044 B269     		ldr	r2, [r6, #24]
 577 0046 BB68     		ldr	r3, [r7, #8]
 578 0048 9268     		ldr	r2, [r2, #8]
 579              		.loc 1 314 0
 580 004a 6060     		str	r0, [r4, #4]
 581              		.loc 1 315 0
 582 004c 033A     		subs	r2, r2, #3
 583 004e 1846     		mov	r0, r3
 584 0050 4FF49871 		mov	r1, #304
 585 0054 1E4B     		ldr	r3, .L36+24
 586 0056 0095     		str	r5, [sp]
 587 0058 FFF7FEFF 		bl	chThdCreateStatic
 588              	.LVL46:
 589              		.loc 1 316 0
 590 005c B269     		ldr	r2, [r6, #24]
 591 005e FB68     		ldr	r3, [r7, #12]
 592 0060 9268     		ldr	r2, [r2, #8]
 593              		.loc 1 315 0
 594 0062 A060     		str	r0, [r4, #8]
 595              		.loc 1 316 0
 596 0064 023A     		subs	r2, r2, #2
 597 0066 1846     		mov	r0, r3
 598 0068 4FF49871 		mov	r1, #304
 599 006c 194B     		ldr	r3, .L36+28
 600 006e 0095     		str	r5, [sp]
 601 0070 FFF7FEFF 		bl	chThdCreateStatic
 602              	.LVL47:
 603              		.loc 1 317 0
 604 0074 B269     		ldr	r2, [r6, #24]
 605 0076 3B69     		ldr	r3, [r7, #16]
 606 0078 9268     		ldr	r2, [r2, #8]
 607              		.loc 1 316 0
 608 007a E060     		str	r0, [r4, #12]
 609              		.loc 1 317 0
 610 007c 4FF49871 		mov	r1, #304
 611 0080 013A     		subs	r2, r2, #1
 612 0082 1846     		mov	r0, r3
 613 0084 0095     		str	r5, [sp]
 614 0086 144B     		ldr	r3, .L36+32
 615 0088 FFF7FEFF 		bl	chThdCreateStatic
 616              	.LVL48:
 617 008c 2061     		str	r0, [r4, #16]
 618              		.loc 1 318 0
 619 008e FFF7FEFF 		bl	test_wait_threads
 620              	.LVL49:
 621              		.loc 1 319 0
 622 0092 0120     		movs	r0, #1
 623 0094 1149     		ldr	r1, .L36+36
 624 0096 FFF7FEFF 		bl	_test_assert_sequence
 625              	.LVL50:
ARM GAS  /tmp/ccatWSMR.s 			page 12


 626 009a 10B1     		cbz	r0, .L35
 627              		.loc 1 321 0
 628 009c 02B0     		add	sp, sp, #8
 629              		@ sp needed
 630 009e BDE8F081 		pop	{r4, r5, r6, r7, r8, pc}
 631              	.LVL51:
 632              	.L35:
 633              		.loc 1 320 0
 634 00a2 0220     		movs	r0, #2
 635 00a4 08F16E01 		add	r1, r8, #110
 636 00a8 08F17302 		add	r2, r8, #115
 637              		.loc 1 321 0
 638 00ac 02B0     		add	sp, sp, #8
 639              		@ sp needed
 640 00ae BDE8F041 		pop	{r4, r5, r6, r7, r8, lr}
 641              	.LVL52:
 642              		.loc 1 320 0
 643 00b2 FFF7FEBF 		b	_test_assert_time_window
 644              	.LVL53:
 645              	.L37:
 646 00b6 00BF     		.align	2
 647              	.L36:
 648 00b8 00000000 		.word	rlist
 649 00bc 00000000 		.word	wa
 650 00c0 00000000 		.word	threads
 651 00c4 00000000 		.word	vtlist
 652 00c8 00000000 		.word	thread3LL
 653 00cc 00000000 		.word	thread3L
 654 00d0 00000000 		.word	thread3M
 655 00d4 00000000 		.word	thread3H
 656 00d8 00000000 		.word	thread3HH
 657 00dc 14000000 		.word	.LC5
 658              		.cfi_endproc
 659              	.LFE21:
 660              		.size	mtx3_execute, .-mtx3_execute
 661              		.section	.text.thread2L,"ax",%progbits
 662              		.align	2
 663              		.p2align 4,,15
 664              		.thumb
 665              		.thumb_func
 666              		.type	thread2L, %function
 667              	thread2L:
 668              	.LFB11:
 669              		.loc 1 157 0
 670              		.cfi_startproc
 671              		@ args = 0, pretend = 0, frame = 0
 672              		@ frame_needed = 0, uses_anonymous_args = 0
 673              	.LVL54:
 674 0000 08B5     		push	{r3, lr}
 675              		.cfi_def_cfa_offset 8
 676              		.cfi_offset 3, -8
 677              		.cfi_offset 14, -4
 678              		.loc 1 160 0
 679 0002 0848     		ldr	r0, .L39
 680              	.LVL55:
 681 0004 FFF7FEFF 		bl	chMtxLock
 682              	.LVL56:
ARM GAS  /tmp/ccatWSMR.s 			page 13


 683              		.loc 1 161 0
 684 0008 2820     		movs	r0, #40
 685 000a FFF7FEFF 		bl	test_cpu_pulse
 686              	.LVL57:
 687              		.loc 1 162 0
 688 000e FFF7FEFF 		bl	chMtxUnlock
 689              	.LVL58:
 690              		.loc 1 163 0
 691 0012 0A20     		movs	r0, #10
 692 0014 FFF7FEFF 		bl	test_cpu_pulse
 693              	.LVL59:
 694              		.loc 1 164 0
 695 0018 4320     		movs	r0, #67
 696 001a FFF7FEFF 		bl	test_emit_token
 697              	.LVL60:
 698              		.loc 1 166 0
 699 001e 0020     		movs	r0, #0
 700 0020 08BD     		pop	{r3, pc}
 701              	.L40:
 702 0022 00BF     		.align	2
 703              	.L39:
 704 0024 00000000 		.word	.LANCHOR0
 705              		.cfi_endproc
 706              	.LFE11:
 707              		.size	thread2L, .-thread2L
 708 0028 AFF30080 		.section	.text.thread3LL,"ax",%progbits
 708      AFF30080 
 709              		.align	2
 710              		.p2align 4,,15
 711              		.thumb
 712              		.thumb_func
 713              		.type	thread3LL, %function
 714              	thread3LL:
 715              	.LFB16:
 716              		.loc 1 248 0
 717              		.cfi_startproc
 718              		@ args = 0, pretend = 0, frame = 0
 719              		@ frame_needed = 0, uses_anonymous_args = 0
 720              	.LVL61:
 721 0000 08B5     		push	{r3, lr}
 722              		.cfi_def_cfa_offset 8
 723              		.cfi_offset 3, -8
 724              		.cfi_offset 14, -4
 725              		.loc 1 251 0
 726 0002 0648     		ldr	r0, .L42
 727              	.LVL62:
 728 0004 FFF7FEFF 		bl	chMtxLock
 729              	.LVL63:
 730              		.loc 1 252 0
 731 0008 1E20     		movs	r0, #30
 732 000a FFF7FEFF 		bl	test_cpu_pulse
 733              	.LVL64:
 734              		.loc 1 253 0
 735 000e FFF7FEFF 		bl	chMtxUnlock
 736              	.LVL65:
 737              		.loc 1 254 0
 738 0012 4520     		movs	r0, #69
ARM GAS  /tmp/ccatWSMR.s 			page 14


 739 0014 FFF7FEFF 		bl	test_emit_token
 740              	.LVL66:
 741              		.loc 1 256 0
 742 0018 0020     		movs	r0, #0
 743 001a 08BD     		pop	{r3, pc}
 744              	.L43:
 745              		.align	2
 746              	.L42:
 747 001c 00000000 		.word	.LANCHOR0
 748              		.cfi_endproc
 749              	.LFE16:
 750              		.size	thread3LL, .-thread3LL
 751              		.section	.text.thread2M,"ax",%progbits
 752              		.align	2
 753              		.p2align 4,,15
 754              		.thumb
 755              		.thumb_func
 756              		.type	thread2M, %function
 757              	thread2M:
 758              	.LFB12:
 759              		.loc 1 169 0
 760              		.cfi_startproc
 761              		@ args = 0, pretend = 0, frame = 0
 762              		@ frame_needed = 0, uses_anonymous_args = 0
 763              	.LVL67:
 764 0000 08B5     		push	{r3, lr}
 765              		.cfi_def_cfa_offset 8
 766              		.cfi_offset 3, -8
 767              		.cfi_offset 14, -4
 768              		.loc 1 172 0
 769 0002 1420     		movs	r0, #20
 770              	.LVL68:
 771 0004 FFF7FEFF 		bl	chThdSleep
 772              	.LVL69:
 773              		.loc 1 173 0
 774 0008 2820     		movs	r0, #40
 775 000a FFF7FEFF 		bl	test_cpu_pulse
 776              	.LVL70:
 777              		.loc 1 174 0
 778 000e 4220     		movs	r0, #66
 779 0010 FFF7FEFF 		bl	test_emit_token
 780              	.LVL71:
 781              		.loc 1 176 0
 782 0014 0020     		movs	r0, #0
 783 0016 08BD     		pop	{r3, pc}
 784              		.cfi_endproc
 785              	.LFE12:
 786              		.size	thread2M, .-thread2M
 787 0018 AFF30080 		.section	.text.thread2H,"ax",%progbits
 787      AFF30080 
 788              		.align	2
 789              		.p2align 4,,15
 790              		.thumb
 791              		.thumb_func
 792              		.type	thread2H, %function
 793              	thread2H:
 794              	.LFB13:
ARM GAS  /tmp/ccatWSMR.s 			page 15


 795              		.loc 1 179 0
 796              		.cfi_startproc
 797              		@ args = 0, pretend = 0, frame = 0
 798              		@ frame_needed = 0, uses_anonymous_args = 0
 799              	.LVL72:
 800 0000 08B5     		push	{r3, lr}
 801              		.cfi_def_cfa_offset 8
 802              		.cfi_offset 3, -8
 803              		.cfi_offset 14, -4
 804              		.loc 1 182 0
 805 0002 2820     		movs	r0, #40
 806              	.LVL73:
 807 0004 FFF7FEFF 		bl	chThdSleep
 808              	.LVL74:
 809              		.loc 1 183 0
 810 0008 0648     		ldr	r0, .L46
 811 000a FFF7FEFF 		bl	chMtxLock
 812              	.LVL75:
 813              		.loc 1 184 0
 814 000e 0A20     		movs	r0, #10
 815 0010 FFF7FEFF 		bl	test_cpu_pulse
 816              	.LVL76:
 817              		.loc 1 185 0
 818 0014 FFF7FEFF 		bl	chMtxUnlock
 819              	.LVL77:
 820              		.loc 1 186 0
 821 0018 4120     		movs	r0, #65
 822 001a FFF7FEFF 		bl	test_emit_token
 823              	.LVL78:
 824              		.loc 1 188 0
 825 001e 0020     		movs	r0, #0
 826 0020 08BD     		pop	{r3, pc}
 827              	.L47:
 828 0022 00BF     		.align	2
 829              	.L46:
 830 0024 00000000 		.word	.LANCHOR0
 831              		.cfi_endproc
 832              	.LFE13:
 833              		.size	thread2H, .-thread2H
 834 0028 AFF30080 		.section	.text.thread3HH,"ax",%progbits
 834      AFF30080 
 835              		.align	2
 836              		.p2align 4,,15
 837              		.thumb
 838              		.thumb_func
 839              		.type	thread3HH, %function
 840              	thread3HH:
 841              	.LFB20:
 842              		.loc 1 297 0
 843              		.cfi_startproc
 844              		@ args = 0, pretend = 0, frame = 0
 845              		@ frame_needed = 0, uses_anonymous_args = 0
 846              	.LVL79:
 847 0000 08B5     		push	{r3, lr}
 848              		.cfi_def_cfa_offset 8
 849              		.cfi_offset 3, -8
 850              		.cfi_offset 14, -4
ARM GAS  /tmp/ccatWSMR.s 			page 16


 851              		.loc 1 300 0
 852 0002 3220     		movs	r0, #50
 853              	.LVL80:
 854 0004 FFF7FEFF 		bl	chThdSleep
 855              	.LVL81:
 856              		.loc 1 301 0
 857 0008 0648     		ldr	r0, .L49
 858 000a FFF7FEFF 		bl	chMtxLock
 859              	.LVL82:
 860              		.loc 1 302 0
 861 000e 0A20     		movs	r0, #10
 862 0010 FFF7FEFF 		bl	test_cpu_pulse
 863              	.LVL83:
 864              		.loc 1 303 0
 865 0014 FFF7FEFF 		bl	chMtxUnlock
 866              	.LVL84:
 867              		.loc 1 304 0
 868 0018 4120     		movs	r0, #65
 869 001a FFF7FEFF 		bl	test_emit_token
 870              	.LVL85:
 871              		.loc 1 306 0
 872 001e 0020     		movs	r0, #0
 873 0020 08BD     		pop	{r3, pc}
 874              	.L50:
 875 0022 00BF     		.align	2
 876              	.L49:
 877 0024 00000000 		.word	.LANCHOR1
 878              		.cfi_endproc
 879              	.LFE20:
 880              		.size	thread3HH, .-thread3HH
 881 0028 AFF30080 		.section	.text.thread3H,"ax",%progbits
 881      AFF30080 
 882              		.align	2
 883              		.p2align 4,,15
 884              		.thumb
 885              		.thumb_func
 886              		.type	thread3H, %function
 887              	thread3H:
 888              	.LFB19:
 889              		.loc 1 287 0
 890              		.cfi_startproc
 891              		@ args = 0, pretend = 0, frame = 0
 892              		@ frame_needed = 0, uses_anonymous_args = 0
 893              	.LVL86:
 894 0000 08B5     		push	{r3, lr}
 895              		.cfi_def_cfa_offset 8
 896              		.cfi_offset 3, -8
 897              		.cfi_offset 14, -4
 898              		.loc 1 290 0
 899 0002 2820     		movs	r0, #40
 900              	.LVL87:
 901 0004 FFF7FEFF 		bl	chThdSleep
 902              	.LVL88:
 903              		.loc 1 291 0
 904 0008 1420     		movs	r0, #20
 905 000a FFF7FEFF 		bl	test_cpu_pulse
 906              	.LVL89:
ARM GAS  /tmp/ccatWSMR.s 			page 17


 907              		.loc 1 292 0
 908 000e 4220     		movs	r0, #66
 909 0010 FFF7FEFF 		bl	test_emit_token
 910              	.LVL90:
 911              		.loc 1 294 0
 912 0014 0020     		movs	r0, #0
 913 0016 08BD     		pop	{r3, pc}
 914              		.cfi_endproc
 915              	.LFE19:
 916              		.size	thread3H, .-thread3H
 917 0018 AFF30080 		.section	.text.thread3M,"ax",%progbits
 917      AFF30080 
 918              		.align	2
 919              		.p2align 4,,15
 920              		.thumb
 921              		.thumb_func
 922              		.type	thread3M, %function
 923              	thread3M:
 924              	.LFB18:
 925              		.loc 1 275 0
 926              		.cfi_startproc
 927              		@ args = 0, pretend = 0, frame = 0
 928              		@ frame_needed = 0, uses_anonymous_args = 0
 929              	.LVL91:
 930 0000 08B5     		push	{r3, lr}
 931              		.cfi_def_cfa_offset 8
 932              		.cfi_offset 3, -8
 933              		.cfi_offset 14, -4
 934              		.loc 1 278 0
 935 0002 1420     		movs	r0, #20
 936              	.LVL92:
 937 0004 FFF7FEFF 		bl	chThdSleep
 938              	.LVL93:
 939              		.loc 1 279 0
 940 0008 0648     		ldr	r0, .L53
 941 000a FFF7FEFF 		bl	chMtxLock
 942              	.LVL94:
 943              		.loc 1 280 0
 944 000e 0A20     		movs	r0, #10
 945 0010 FFF7FEFF 		bl	test_cpu_pulse
 946              	.LVL95:
 947              		.loc 1 281 0
 948 0014 FFF7FEFF 		bl	chMtxUnlock
 949              	.LVL96:
 950              		.loc 1 282 0
 951 0018 4320     		movs	r0, #67
 952 001a FFF7FEFF 		bl	test_emit_token
 953              	.LVL97:
 954              		.loc 1 284 0
 955 001e 0020     		movs	r0, #0
 956 0020 08BD     		pop	{r3, pc}
 957              	.L54:
 958 0022 00BF     		.align	2
 959              	.L53:
 960 0024 00000000 		.word	.LANCHOR1
 961              		.cfi_endproc
 962              	.LFE18:
ARM GAS  /tmp/ccatWSMR.s 			page 18


 963              		.size	thread3M, .-thread3M
 964 0028 AFF30080 		.section	.text.thread3L,"ax",%progbits
 964      AFF30080 
 965              		.align	2
 966              		.p2align 4,,15
 967              		.thumb
 968              		.thumb_func
 969              		.type	thread3L, %function
 970              	thread3L:
 971              	.LFB17:
 972              		.loc 1 259 0
 973              		.cfi_startproc
 974              		@ args = 0, pretend = 0, frame = 0
 975              		@ frame_needed = 0, uses_anonymous_args = 0
 976              	.LVL98:
 977 0000 08B5     		push	{r3, lr}
 978              		.cfi_def_cfa_offset 8
 979              		.cfi_offset 3, -8
 980              		.cfi_offset 14, -4
 981              		.loc 1 262 0
 982 0002 0A20     		movs	r0, #10
 983              	.LVL99:
 984 0004 FFF7FEFF 		bl	chThdSleep
 985              	.LVL100:
 986              		.loc 1 263 0
 987 0008 0B48     		ldr	r0, .L56
 988 000a FFF7FEFF 		bl	chMtxLock
 989              	.LVL101:
 990              		.loc 1 264 0
 991 000e 1420     		movs	r0, #20
 992 0010 FFF7FEFF 		bl	test_cpu_pulse
 993              	.LVL102:
 994              		.loc 1 265 0
 995 0014 0948     		ldr	r0, .L56+4
 996 0016 FFF7FEFF 		bl	chMtxLock
 997              	.LVL103:
 998              		.loc 1 266 0
 999 001a 0A20     		movs	r0, #10
 1000 001c FFF7FEFF 		bl	test_cpu_pulse
 1001              	.LVL104:
 1002              		.loc 1 267 0
 1003 0020 FFF7FEFF 		bl	chMtxUnlock
 1004              	.LVL105:
 1005              		.loc 1 268 0
 1006 0024 0A20     		movs	r0, #10
 1007 0026 FFF7FEFF 		bl	test_cpu_pulse
 1008              	.LVL106:
 1009              		.loc 1 269 0
 1010 002a FFF7FEFF 		bl	chMtxUnlock
 1011              	.LVL107:
 1012              		.loc 1 270 0
 1013 002e 4420     		movs	r0, #68
 1014 0030 FFF7FEFF 		bl	test_emit_token
 1015              	.LVL108:
 1016              		.loc 1 272 0
 1017 0034 0020     		movs	r0, #0
 1018 0036 08BD     		pop	{r3, pc}
ARM GAS  /tmp/ccatWSMR.s 			page 19


 1019              	.L57:
 1020              		.align	2
 1021              	.L56:
 1022 0038 00000000 		.word	.LANCHOR1
 1023 003c 00000000 		.word	.LANCHOR0
 1024              		.cfi_endproc
 1025              	.LFE17:
 1026              		.size	thread3L, .-thread3L
 1027              		.section	.text.thread4b,"ax",%progbits
 1028              		.align	2
 1029              		.p2align 4,,15
 1030              		.thumb
 1031              		.thumb_func
 1032              		.type	thread4b, %function
 1033              	thread4b:
 1034              	.LFB24:
 1035              		.loc 1 356 0
 1036              		.cfi_startproc
 1037              		@ args = 0, pretend = 0, frame = 0
 1038              		@ frame_needed = 0, uses_anonymous_args = 0
 1039              	.LVL109:
 1040 0000 08B5     		push	{r3, lr}
 1041              		.cfi_def_cfa_offset 8
 1042              		.cfi_offset 3, -8
 1043              		.cfi_offset 14, -4
 1044              		.loc 1 359 0
 1045 0002 9620     		movs	r0, #150
 1046              	.LVL110:
 1047 0004 FFF7FEFF 		bl	chThdSleep
 1048              	.LVL111:
 1049              		.loc 1 360 0
 1050 0008 0348     		ldr	r0, .L59
 1051 000a FFF7FEFF 		bl	chMtxLock
 1052              	.LVL112:
 1053              		.loc 1 361 0
 1054 000e FFF7FEFF 		bl	chMtxUnlock
 1055              	.LVL113:
 1056              		.loc 1 363 0
 1057 0012 0020     		movs	r0, #0
 1058 0014 08BD     		pop	{r3, pc}
 1059              	.L60:
 1060 0016 00BF     		.align	2
 1061              	.L59:
 1062 0018 00000000 		.word	.LANCHOR0
 1063              		.cfi_endproc
 1064              	.LFE24:
 1065              		.size	thread4b, .-thread4b
 1066 001c AFF30080 		.section	.text.thread4a,"ax",%progbits
 1067              		.align	2
 1068              		.p2align 4,,15
 1069              		.thumb
 1070              		.thumb_func
 1071              		.type	thread4a, %function
 1072              	thread4a:
 1073              	.LFB23:
 1074              		.loc 1 347 0
 1075              		.cfi_startproc
ARM GAS  /tmp/ccatWSMR.s 			page 20


 1076              		@ args = 0, pretend = 0, frame = 0
 1077              		@ frame_needed = 0, uses_anonymous_args = 0
 1078              	.LVL114:
 1079 0000 08B5     		push	{r3, lr}
 1080              		.cfi_def_cfa_offset 8
 1081              		.cfi_offset 3, -8
 1082              		.cfi_offset 14, -4
 1083              		.loc 1 350 0
 1084 0002 3220     		movs	r0, #50
 1085              	.LVL115:
 1086 0004 FFF7FEFF 		bl	chThdSleep
 1087              	.LVL116:
 1088              		.loc 1 351 0
 1089 0008 0348     		ldr	r0, .L62
 1090 000a FFF7FEFF 		bl	chMtxLock
 1091              	.LVL117:
 1092              		.loc 1 352 0
 1093 000e FFF7FEFF 		bl	chMtxUnlock
 1094              	.LVL118:
 1095              		.loc 1 354 0
 1096 0012 0020     		movs	r0, #0
 1097 0014 08BD     		pop	{r3, pc}
 1098              	.L63:
 1099 0016 00BF     		.align	2
 1100              	.L62:
 1101 0018 00000000 		.word	.LANCHOR1
 1102              		.cfi_endproc
 1103              	.LFE23:
 1104              		.size	thread4a, .-thread4a
 1105 001c AFF30080 		.section	.text.mtx4_execute,"ax",%progbits
 1106              		.align	2
 1107              		.p2align 4,,15
 1108              		.thumb
 1109              		.thumb_func
 1110              		.type	mtx4_execute, %function
 1111              	mtx4_execute:
 1112              	.LFB25:
 1113              		.loc 1 365 0
 1114              		.cfi_startproc
 1115              		@ args = 0, pretend = 0, frame = 8
 1116              		@ frame_needed = 0, uses_anonymous_args = 0
 1117 0000 2DE9F046 		push	{r4, r5, r6, r7, r9, r10, lr}
 1118              		.cfi_def_cfa_offset 28
 1119              		.cfi_offset 4, -28
 1120              		.cfi_offset 5, -24
 1121              		.cfi_offset 6, -20
 1122              		.cfi_offset 7, -16
 1123              		.cfi_offset 9, -12
 1124              		.cfi_offset 10, -8
 1125              		.cfi_offset 14, -4
 1126              		.loc 1 368 0
 1127 0004 8C4D     		ldr	r5, .L69
 1128              		.loc 1 371 0
 1129 0006 8D4E     		ldr	r6, .L69+4
 1130              		.loc 1 368 0
 1131 0008 AB69     		ldr	r3, [r5, #24]
 1132              		.loc 1 371 0
ARM GAS  /tmp/ccatWSMR.s 			page 21


 1133 000a 3268     		ldr	r2, [r6]
 1134              		.loc 1 368 0
 1135 000c 9C68     		ldr	r4, [r3, #8]
 1136              	.LVL119:
 1137              		.loc 1 371 0
 1138 000e 8C4B     		ldr	r3, .L69+8
 1139 0010 8C4F     		ldr	r7, .L69+12
 1140              		.loc 1 365 0
 1141 0012 85B0     		sub	sp, sp, #20
 1142              		.cfi_def_cfa_offset 48
 1143              		.loc 1 369 0
 1144 0014 04F10109 		add	r9, r4, #1
 1145              	.LVL120:
 1146              		.loc 1 371 0
 1147 0018 0392     		str	r2, [sp, #12]
 1148 001a 0093     		str	r3, [sp]
 1149 001c 4A46     		mov	r2, r9
 1150 001e 4FF49871 		mov	r1, #304
 1151 0022 894B     		ldr	r3, .L69+16
 1152 0024 0398     		ldr	r0, [sp, #12]
 1153 0026 FFF7FEFF 		bl	chThdCreateStatic
 1154              	.LVL121:
 1155              		.loc 1 372 0
 1156 002a 7668     		ldr	r6, [r6, #4]
 1157 002c 874B     		ldr	r3, .L69+20
 1158              		.loc 1 371 0
 1159 002e 3860     		str	r0, [r7]
 1160              		.loc 1 370 0
 1161 0030 04F1020A 		add	r10, r4, #2
 1162              	.LVL122:
 1163              		.loc 1 372 0
 1164 0034 4FF49871 		mov	r1, #304
 1165 0038 5246     		mov	r2, r10
 1166 003a 0093     		str	r3, [sp]
 1167 003c 3046     		mov	r0, r6
 1168 003e 844B     		ldr	r3, .L69+24
 1169 0040 FFF7FEFF 		bl	chThdCreateStatic
 1170              	.LVL123:
 1171 0044 7860     		str	r0, [r7, #4]
 1172              		.loc 1 373 0
 1173 0046 8348     		ldr	r0, .L69+28
 1174 0048 FFF7FEFF 		bl	chMtxLock
 1175              	.LVL124:
 1176              		.loc 1 374 0
 1177 004c AB69     		ldr	r3, [r5, #24]
 1178 004e 9968     		ldr	r1, [r3, #8]
 1179 0050 B1EB040C 		subs	ip, r1, r4
 1180 0054 DCF10001 		rsbs	r1, ip, #0
 1181 0058 51EB0C01 		adcs	r1, r1, ip
 1182 005c 0120     		movs	r0, #1
 1183 005e FFF7FEFF 		bl	_test_assert
 1184              	.LVL125:
 1185 0062 10B1     		cbz	r0, .L68
 1186              	.L64:
 1187              		.loc 1 410 0
 1188 0064 05B0     		add	sp, sp, #20
 1189              		@ sp needed
ARM GAS  /tmp/ccatWSMR.s 			page 22


 1190 0066 BDE8F086 		pop	{r4, r5, r6, r7, r9, r10, pc}
 1191              	.LVL126:
 1192              	.L68:
 1193              		.loc 1 375 0
 1194 006a 6420     		movs	r0, #100
 1195 006c FFF7FEFF 		bl	chThdSleep
 1196              	.LVL127:
 1197              		.loc 1 376 0
 1198 0070 AB69     		ldr	r3, [r5, #24]
 1199 0072 9968     		ldr	r1, [r3, #8]
 1200 0074 B1EB090E 		subs	lr, r1, r9
 1201 0078 DEF10001 		rsbs	r1, lr, #0
 1202 007c 51EB0E01 		adcs	r1, r1, lr
 1203 0080 0220     		movs	r0, #2
 1204 0082 FFF7FEFF 		bl	_test_assert
 1205              	.LVL128:
 1206 0086 0028     		cmp	r0, #0
 1207 0088 ECD1     		bne	.L64
 1208              		.loc 1 377 0
 1209 008a 7348     		ldr	r0, .L69+32
 1210 008c FFF7FEFF 		bl	chMtxLock
 1211              	.LVL129:
 1212              		.loc 1 378 0
 1213 0090 AB69     		ldr	r3, [r5, #24]
 1214 0092 9968     		ldr	r1, [r3, #8]
 1215 0094 B1EB0902 		subs	r2, r1, r9
 1216 0098 5142     		rsbs	r1, r2, #0
 1217 009a 5141     		adcs	r1, r1, r2
 1218 009c 0320     		movs	r0, #3
 1219 009e FFF7FEFF 		bl	_test_assert
 1220              	.LVL130:
 1221 00a2 0028     		cmp	r0, #0
 1222 00a4 DED1     		bne	.L64
 1223              		.loc 1 379 0
 1224 00a6 6420     		movs	r0, #100
 1225 00a8 FFF7FEFF 		bl	chThdSleep
 1226              	.LVL131:
 1227              		.loc 1 380 0
 1228 00ac AB69     		ldr	r3, [r5, #24]
 1229 00ae 9968     		ldr	r1, [r3, #8]
 1230 00b0 B1EB0A03 		subs	r3, r1, r10
 1231 00b4 5942     		rsbs	r1, r3, #0
 1232 00b6 5941     		adcs	r1, r1, r3
 1233 00b8 0420     		movs	r0, #4
 1234 00ba FFF7FEFF 		bl	_test_assert
 1235              	.LVL132:
 1236 00be 0028     		cmp	r0, #0
 1237 00c0 D0D1     		bne	.L64
 1238              		.loc 1 381 0
 1239 00c2 FFF7FEFF 		bl	chMtxUnlock
 1240              	.LVL133:
 1241              		.loc 1 382 0
 1242 00c6 AB69     		ldr	r3, [r5, #24]
 1243 00c8 9968     		ldr	r1, [r3, #8]
 1244 00ca B1EB090C 		subs	ip, r1, r9
 1245 00ce DCF10001 		rsbs	r1, ip, #0
 1246 00d2 51EB0C01 		adcs	r1, r1, ip
ARM GAS  /tmp/ccatWSMR.s 			page 23


 1247 00d6 0520     		movs	r0, #5
 1248 00d8 FFF7FEFF 		bl	_test_assert
 1249              	.LVL134:
 1250 00dc 0028     		cmp	r0, #0
 1251 00de C1D1     		bne	.L64
 1252              		.loc 1 383 0
 1253 00e0 6420     		movs	r0, #100
 1254 00e2 FFF7FEFF 		bl	chThdSleep
 1255              	.LVL135:
 1256              		.loc 1 384 0
 1257 00e6 AB69     		ldr	r3, [r5, #24]
 1258 00e8 9968     		ldr	r1, [r3, #8]
 1259 00ea B1EB090E 		subs	lr, r1, r9
 1260 00ee DEF10001 		rsbs	r1, lr, #0
 1261 00f2 51EB0E01 		adcs	r1, r1, lr
 1262 00f6 0620     		movs	r0, #6
 1263 00f8 FFF7FEFF 		bl	_test_assert
 1264              	.LVL136:
 1265 00fc 0028     		cmp	r0, #0
 1266 00fe B1D1     		bne	.L64
 1267              		.loc 1 385 0
 1268 0100 FFF7FEFF 		bl	chMtxUnlockAll
 1269              	.LVL137:
 1270              		.loc 1 386 0
 1271 0104 AB69     		ldr	r3, [r5, #24]
 1272 0106 9968     		ldr	r1, [r3, #8]
 1273 0108 0A1B     		subs	r2, r1, r4
 1274 010a 5142     		rsbs	r1, r2, #0
 1275 010c 5141     		adcs	r1, r1, r2
 1276 010e 0720     		movs	r0, #7
 1277 0110 FFF7FEFF 		bl	_test_assert
 1278              	.LVL138:
 1279 0114 0028     		cmp	r0, #0
 1280 0116 A5D1     		bne	.L64
 1281              		.loc 1 387 0
 1282 0118 FFF7FEFF 		bl	test_wait_threads
 1283              	.LVL139:
 1284              		.loc 1 390 0
 1285 011c 4F4B     		ldr	r3, .L69+36
 1286 011e 0093     		str	r3, [sp]
 1287 0120 4FF49871 		mov	r1, #304
 1288 0124 4A46     		mov	r2, r9
 1289 0126 484B     		ldr	r3, .L69+16
 1290 0128 0398     		ldr	r0, [sp, #12]
 1291 012a FFF7FEFF 		bl	chThdCreateStatic
 1292              	.LVL140:
 1293              		.loc 1 391 0
 1294 012e 4C4B     		ldr	r3, .L69+40
 1295              		.loc 1 390 0
 1296 0130 3860     		str	r0, [r7]
 1297              		.loc 1 391 0
 1298 0132 4FF49871 		mov	r1, #304
 1299 0136 0093     		str	r3, [sp]
 1300 0138 5246     		mov	r2, r10
 1301 013a 454B     		ldr	r3, .L69+24
 1302 013c 3046     		mov	r0, r6
 1303 013e FFF7FEFF 		bl	chThdCreateStatic
ARM GAS  /tmp/ccatWSMR.s 			page 24


 1304              	.LVL141:
 1305 0142 7860     		str	r0, [r7, #4]
 1306              		.loc 1 392 0
 1307 0144 4348     		ldr	r0, .L69+28
 1308 0146 FFF7FEFF 		bl	chMtxLock
 1309              	.LVL142:
 1310              		.loc 1 393 0
 1311 014a AB69     		ldr	r3, [r5, #24]
 1312 014c 9968     		ldr	r1, [r3, #8]
 1313 014e 0B1B     		subs	r3, r1, r4
 1314 0150 5942     		rsbs	r1, r3, #0
 1315 0152 5941     		adcs	r1, r1, r3
 1316 0154 0820     		movs	r0, #8
 1317 0156 FFF7FEFF 		bl	_test_assert
 1318              	.LVL143:
 1319 015a 0028     		cmp	r0, #0
 1320 015c 82D1     		bne	.L64
 1321              		.loc 1 394 0
 1322 015e 6420     		movs	r0, #100
 1323 0160 FFF7FEFF 		bl	chThdSleep
 1324              	.LVL144:
 1325              		.loc 1 395 0
 1326 0164 AB69     		ldr	r3, [r5, #24]
 1327 0166 9968     		ldr	r1, [r3, #8]
 1328 0168 B1EB090C 		subs	ip, r1, r9
 1329 016c DCF10001 		rsbs	r1, ip, #0
 1330 0170 51EB0C01 		adcs	r1, r1, ip
 1331 0174 0920     		movs	r0, #9
 1332 0176 FFF7FEFF 		bl	_test_assert
 1333              	.LVL145:
 1334 017a 0028     		cmp	r0, #0
 1335 017c 7FF472AF 		bne	.L64
 1336              		.loc 1 396 0
 1337 0180 3548     		ldr	r0, .L69+32
 1338 0182 FFF7FEFF 		bl	chMtxLock
 1339              	.LVL146:
 1340              		.loc 1 397 0
 1341 0186 AB69     		ldr	r3, [r5, #24]
 1342 0188 9968     		ldr	r1, [r3, #8]
 1343 018a B1EB090E 		subs	lr, r1, r9
 1344 018e DEF10001 		rsbs	r1, lr, #0
 1345 0192 51EB0E01 		adcs	r1, r1, lr
 1346 0196 0A20     		movs	r0, #10
 1347 0198 FFF7FEFF 		bl	_test_assert
 1348              	.LVL147:
 1349 019c 0028     		cmp	r0, #0
 1350 019e 7FF461AF 		bne	.L64
 1351              		.loc 1 398 0
 1352 01a2 6420     		movs	r0, #100
 1353 01a4 FFF7FEFF 		bl	chThdSleep
 1354              	.LVL148:
 1355              		.loc 1 399 0
 1356 01a8 AB69     		ldr	r3, [r5, #24]
 1357 01aa 9968     		ldr	r1, [r3, #8]
 1358 01ac B1EB0A07 		subs	r7, r1, r10
 1359 01b0 7942     		rsbs	r1, r7, #0
 1360 01b2 7941     		adcs	r1, r1, r7
ARM GAS  /tmp/ccatWSMR.s 			page 25


 1361 01b4 0B20     		movs	r0, #11
 1362 01b6 FFF7FEFF 		bl	_test_assert
 1363              	.LVL149:
 1364 01ba 0028     		cmp	r0, #0
 1365 01bc 7FF452AF 		bne	.L64
 1366              	.LBB2:
 1367              		.loc 1 400 0
 1368 01c0 2023     		movs	r3, #32
 1369              	@ 400 "../../../test/testmtx.c" 1
 1370 01c2 83F31188 		msr     BASEPRI, r3
 1371              	@ 0 "" 2
 1372              		.thumb
 1373              	.LBE2:
 1374 01c6 FFF7FEFF 		bl	dbg_check_lock
 1375              	.LVL150:
 1376              		.loc 1 401 0
 1377 01ca FFF7FEFF 		bl	chMtxUnlockS
 1378              	.LVL151:
 1379              		.loc 1 402 0
 1380 01ce FFF7FEFF 		bl	chSchRescheduleS
 1381              	.LVL152:
 1382              		.loc 1 403 0
 1383 01d2 FFF7FEFF 		bl	dbg_check_unlock
 1384              	.LVL153:
 1385              	.LBB3:
 1386 01d6 0023     		movs	r3, #0
 1387              	@ 403 "../../../test/testmtx.c" 1
 1388 01d8 83F31188 		msr     BASEPRI, r3
 1389              	@ 0 "" 2
 1390              		.thumb
 1391              	.LBE3:
 1392              		.loc 1 404 0
 1393 01dc AB69     		ldr	r3, [r5, #24]
 1394 01de 9968     		ldr	r1, [r3, #8]
 1395 01e0 B1EB0906 		subs	r6, r1, r9
 1396 01e4 7142     		rsbs	r1, r6, #0
 1397 01e6 7141     		adcs	r1, r1, r6
 1398 01e8 0C20     		movs	r0, #12
 1399 01ea FFF7FEFF 		bl	_test_assert
 1400              	.LVL154:
 1401 01ee 0028     		cmp	r0, #0
 1402 01f0 7FF438AF 		bne	.L64
 1403              		.loc 1 405 0
 1404 01f4 6420     		movs	r0, #100
 1405 01f6 FFF7FEFF 		bl	chThdSleep
 1406              	.LVL155:
 1407              		.loc 1 406 0
 1408 01fa AB69     		ldr	r3, [r5, #24]
 1409 01fc 9968     		ldr	r1, [r3, #8]
 1410 01fe B1EB0902 		subs	r2, r1, r9
 1411 0202 5142     		rsbs	r1, r2, #0
 1412 0204 5141     		adcs	r1, r1, r2
 1413 0206 0D20     		movs	r0, #13
 1414 0208 FFF7FEFF 		bl	_test_assert
 1415              	.LVL156:
 1416 020c 0028     		cmp	r0, #0
 1417 020e 7FF429AF 		bne	.L64
ARM GAS  /tmp/ccatWSMR.s 			page 26


 1418              		.loc 1 407 0
 1419 0212 FFF7FEFF 		bl	chMtxUnlockAll
 1420              	.LVL157:
 1421              		.loc 1 408 0
 1422 0216 AB69     		ldr	r3, [r5, #24]
 1423 0218 9968     		ldr	r1, [r3, #8]
 1424 021a 0B1B     		subs	r3, r1, r4
 1425 021c 5942     		rsbs	r1, r3, #0
 1426 021e 5941     		adcs	r1, r1, r3
 1427 0220 0E20     		movs	r0, #14
 1428 0222 FFF7FEFF 		bl	_test_assert
 1429              	.LVL158:
 1430 0226 0028     		cmp	r0, #0
 1431 0228 7FF41CAF 		bne	.L64
 1432              		.loc 1 410 0
 1433 022c 05B0     		add	sp, sp, #20
 1434              		@ sp needed
 1435 022e BDE8F046 		pop	{r4, r5, r6, r7, r9, r10, lr}
 1436              	.LVL159:
 1437              		.loc 1 409 0
 1438 0232 FFF7FEBF 		b	test_wait_threads
 1439              	.LVL160:
 1440              	.L70:
 1441 0236 00BF     		.align	2
 1442              	.L69:
 1443 0238 00000000 		.word	rlist
 1444 023c 00000000 		.word	wa
 1445 0240 0C000000 		.word	.LC3
 1446 0244 00000000 		.word	threads
 1447 0248 00000000 		.word	thread4a
 1448 024c 10000000 		.word	.LC4
 1449 0250 00000000 		.word	thread4b
 1450 0254 00000000 		.word	.LANCHOR1
 1451 0258 00000000 		.word	.LANCHOR0
 1452 025c 04000000 		.word	.LC1
 1453 0260 08000000 		.word	.LC2
 1454              		.cfi_endproc
 1455              	.LFE25:
 1456              		.size	mtx4_execute, .-mtx4_execute
 1457 0264 AFF30080 		.section	.text.mtx5_execute,"ax",%progbits
 1457      AFF30080 
 1457      AFF30080 
 1458              		.align	2
 1459              		.p2align 4,,15
 1460              		.thumb
 1461              		.thumb_func
 1462              		.type	mtx5_execute, %function
 1463              	mtx5_execute:
 1464              	.LFB27:
 1465              		.loc 1 434 0
 1466              		.cfi_startproc
 1467              		@ args = 0, pretend = 0, frame = 0
 1468              		@ frame_needed = 0, uses_anonymous_args = 0
 1469 0000 F8B5     		push	{r3, r4, r5, r6, r7, lr}
 1470              		.cfi_def_cfa_offset 24
 1471              		.cfi_offset 3, -24
 1472              		.cfi_offset 4, -20
ARM GAS  /tmp/ccatWSMR.s 			page 27


 1473              		.cfi_offset 5, -16
 1474              		.cfi_offset 6, -12
 1475              		.cfi_offset 7, -8
 1476              		.cfi_offset 14, -4
 1477              		.loc 1 438 0
 1478 0002 2D4D     		ldr	r5, .L76
 1479              		.loc 1 440 0
 1480 0004 2D4C     		ldr	r4, .L76+4
 1481              		.loc 1 438 0
 1482 0006 AB69     		ldr	r3, [r5, #24]
 1483              		.loc 1 440 0
 1484 0008 2046     		mov	r0, r4
 1485              		.loc 1 438 0
 1486 000a 9E68     		ldr	r6, [r3, #8]
 1487              	.LVL161:
 1488              		.loc 1 440 0
 1489 000c FFF7FEFF 		bl	chMtxTryLock
 1490              	.LVL162:
 1491              		.loc 1 441 0
 1492 0010 0146     		mov	r1, r0
 1493 0012 0120     		movs	r0, #1
 1494              	.LVL163:
 1495 0014 FFF7FEFF 		bl	_test_assert
 1496              	.LVL164:
 1497 0018 00B1     		cbz	r0, .L75
 1498              	.L71:
 1499 001a F8BD     		pop	{r3, r4, r5, r6, r7, pc}
 1500              	.LVL165:
 1501              	.L75:
 1502              		.loc 1 443 0
 1503 001c 2046     		mov	r0, r4
 1504 001e FFF7FEFF 		bl	chMtxTryLock
 1505              	.LVL166:
 1506              		.loc 1 444 0
 1507 0022 80F00101 		eor	r1, r0, #1
 1508 0026 C9B2     		uxtb	r1, r1
 1509 0028 0220     		movs	r0, #2
 1510              	.LVL167:
 1511 002a FFF7FEFF 		bl	_test_assert
 1512              	.LVL168:
 1513 002e 0028     		cmp	r0, #0
 1514 0030 F3D1     		bne	.L71
 1515              	.LBB4:
 1516              		.loc 1 446 0
 1517 0032 2023     		movs	r3, #32
 1518              	@ 446 "../../../test/testmtx.c" 1
 1519 0034 83F31188 		msr     BASEPRI, r3
 1520              	@ 0 "" 2
 1521              		.thumb
 1522              	.LBE4:
 1523 0038 FFF7FEFF 		bl	dbg_check_lock
 1524              	.LVL169:
 1525              		.loc 1 447 0
 1526 003c FFF7FEFF 		bl	chMtxUnlockS
 1527              	.LVL170:
 1528              		.loc 1 448 0
 1529 0040 FFF7FEFF 		bl	dbg_check_unlock
ARM GAS  /tmp/ccatWSMR.s 			page 28


 1530              	.LVL171:
 1531              	.LBB5:
 1532 0044 0023     		movs	r3, #0
 1533              	@ 448 "../../../test/testmtx.c" 1
 1534 0046 83F31188 		msr     BASEPRI, r3
 1535              	@ 0 "" 2
 1536              		.thumb
 1537              	.LBE5:
 1538              		.loc 1 450 0
 1539 004a 2168     		ldr	r1, [r4]
 1540 004c 081B     		subs	r0, r1, r4
 1541 004e 4142     		rsbs	r1, r0, #0
 1542 0050 4141     		adcs	r1, r1, r0
 1543 0052 0320     		movs	r0, #3
 1544 0054 FFF7FEFF 		bl	_test_assert
 1545              	.LVL172:
 1546 0058 0028     		cmp	r0, #0
 1547 005a DED1     		bne	.L71
 1548              		.loc 1 451 0
 1549 005c A168     		ldr	r1, [r4, #8]
 1550 005e D1F10101 		rsbs	r1, r1, #1
 1551 0062 38BF     		it	cc
 1552 0064 0021     		movcc	r1, #0
 1553 0066 0420     		movs	r0, #4
 1554 0068 FFF7FEFF 		bl	_test_assert
 1555              	.LVL173:
 1556 006c 0028     		cmp	r0, #0
 1557 006e D4D1     		bne	.L71
 1558              		.loc 1 452 0
 1559 0070 AB69     		ldr	r3, [r5, #24]
 1560 0072 9968     		ldr	r1, [r3, #8]
 1561 0074 8A1B     		subs	r2, r1, r6
 1562 0076 5142     		rsbs	r1, r2, #0
 1563 0078 5141     		adcs	r1, r1, r2
 1564 007a 0520     		movs	r0, #5
 1565 007c FFF7FEFF 		bl	_test_assert
 1566              	.LVL174:
 1567 0080 0028     		cmp	r0, #0
 1568 0082 CAD1     		bne	.L71
 1569              		.loc 1 454 0
 1570 0084 2046     		mov	r0, r4
 1571 0086 FFF7FEFF 		bl	chMtxLock
 1572              	.LVL175:
 1573              		.loc 1 455 0
 1574 008a FFF7FEFF 		bl	chMtxUnlockAll
 1575              	.LVL176:
 1576              		.loc 1 456 0
 1577 008e 2168     		ldr	r1, [r4]
 1578 0090 0B1B     		subs	r3, r1, r4
 1579 0092 5942     		rsbs	r1, r3, #0
 1580 0094 5941     		adcs	r1, r1, r3
 1581 0096 0620     		movs	r0, #6
 1582 0098 FFF7FEFF 		bl	_test_assert
 1583              	.LVL177:
 1584 009c 0028     		cmp	r0, #0
 1585 009e BCD1     		bne	.L71
 1586              		.loc 1 457 0
ARM GAS  /tmp/ccatWSMR.s 			page 29


 1587 00a0 A168     		ldr	r1, [r4, #8]
 1588 00a2 D1F10101 		rsbs	r1, r1, #1
 1589 00a6 4FF00700 		mov	r0, #7
 1590 00aa 38BF     		it	cc
 1591 00ac 0021     		movcc	r1, #0
 1592              		.loc 1 458 0
 1593 00ae BDE8F840 		pop	{r3, r4, r5, r6, r7, lr}
 1594              	.LVL178:
 1595              		.loc 1 457 0
 1596 00b2 FFF7FEBF 		b	_test_assert
 1597              	.LVL179:
 1598              	.L77:
 1599 00b6 00BF     		.align	2
 1600              	.L76:
 1601 00b8 00000000 		.word	rlist
 1602 00bc 00000000 		.word	.LANCHOR0
 1603              		.cfi_endproc
 1604              	.LFE27:
 1605              		.size	mtx5_execute, .-mtx5_execute
 1606              		.section	.text.mtx6_execute,"ax",%progbits
 1607              		.align	2
 1608              		.p2align 4,,15
 1609              		.thumb
 1610              		.thumb_func
 1611              		.type	mtx6_execute, %function
 1612              	mtx6_execute:
 1613              	.LFB30:
 1614              		.loc 1 494 0
 1615              		.cfi_startproc
 1616              		@ args = 0, pretend = 0, frame = 0
 1617              		@ frame_needed = 0, uses_anonymous_args = 0
 1618 0000 F0B5     		push	{r4, r5, r6, r7, lr}
 1619              		.cfi_def_cfa_offset 20
 1620              		.cfi_offset 4, -20
 1621              		.cfi_offset 5, -16
 1622              		.cfi_offset 6, -12
 1623              		.cfi_offset 7, -8
 1624              		.cfi_offset 14, -4
 1625              		.loc 1 496 0
 1626 0002 314B     		ldr	r3, .L79
 1627              		.loc 1 497 0
 1628 0004 314F     		ldr	r7, .L79+4
 1629              		.loc 1 496 0
 1630 0006 9B69     		ldr	r3, [r3, #24]
 1631              		.loc 1 497 0
 1632 0008 314D     		ldr	r5, .L79+8
 1633              		.loc 1 496 0
 1634 000a 9E68     		ldr	r6, [r3, #8]
 1635              	.LVL180:
 1636              		.loc 1 497 0
 1637 000c 314B     		ldr	r3, .L79+12
 1638 000e 3868     		ldr	r0, [r7]
 1639 0010 314C     		ldr	r4, .L79+16
 1640              		.loc 1 494 0
 1641 0012 83B0     		sub	sp, sp, #12
 1642              		.cfi_def_cfa_offset 32
 1643              		.loc 1 497 0
ARM GAS  /tmp/ccatWSMR.s 			page 30


 1644 0014 721C     		adds	r2, r6, #1
 1645 0016 0093     		str	r3, [sp]
 1646 0018 4FF49871 		mov	r1, #304
 1647 001c 2B46     		mov	r3, r5
 1648 001e FFF7FEFF 		bl	chThdCreateStatic
 1649              	.LVL181:
 1650              		.loc 1 498 0
 1651 0022 7B68     		ldr	r3, [r7, #4]
 1652 0024 2D49     		ldr	r1, .L79+20
 1653              		.loc 1 497 0
 1654 0026 2060     		str	r0, [r4]
 1655              		.loc 1 498 0
 1656 0028 B21C     		adds	r2, r6, #2
 1657 002a 0091     		str	r1, [sp]
 1658 002c 1846     		mov	r0, r3
 1659 002e 4FF49871 		mov	r1, #304
 1660 0032 2B46     		mov	r3, r5
 1661 0034 FFF7FEFF 		bl	chThdCreateStatic
 1662              	.LVL182:
 1663              		.loc 1 499 0
 1664 0038 BB68     		ldr	r3, [r7, #8]
 1665 003a 2949     		ldr	r1, .L79+24
 1666              		.loc 1 498 0
 1667 003c 6060     		str	r0, [r4, #4]
 1668              		.loc 1 499 0
 1669 003e F21C     		adds	r2, r6, #3
 1670 0040 0091     		str	r1, [sp]
 1671 0042 1846     		mov	r0, r3
 1672 0044 4FF49871 		mov	r1, #304
 1673 0048 2B46     		mov	r3, r5
 1674 004a FFF7FEFF 		bl	chThdCreateStatic
 1675              	.LVL183:
 1676              		.loc 1 500 0
 1677 004e FB68     		ldr	r3, [r7, #12]
 1678 0050 2449     		ldr	r1, .L79+28
 1679              		.loc 1 499 0
 1680 0052 A060     		str	r0, [r4, #8]
 1681              		.loc 1 500 0
 1682 0054 321D     		adds	r2, r6, #4
 1683 0056 0091     		str	r1, [sp]
 1684 0058 1846     		mov	r0, r3
 1685 005a 4FF49871 		mov	r1, #304
 1686 005e 2B46     		mov	r3, r5
 1687 0060 FFF7FEFF 		bl	chThdCreateStatic
 1688              	.LVL184:
 1689              		.loc 1 501 0
 1690 0064 3B69     		ldr	r3, [r7, #16]
 1691 0066 2049     		ldr	r1, .L79+32
 1692              		.loc 1 500 0
 1693 0068 E060     		str	r0, [r4, #12]
 1694              		.loc 1 501 0
 1695 006a 721D     		adds	r2, r6, #5
 1696 006c 0091     		str	r1, [sp]
 1697 006e 1846     		mov	r0, r3
 1698 0070 4FF49871 		mov	r1, #304
 1699 0074 2B46     		mov	r3, r5
 1700 0076 FFF7FEFF 		bl	chThdCreateStatic
ARM GAS  /tmp/ccatWSMR.s 			page 31


 1701              	.LVL185:
 1702              	.LBB6:
 1703              		.loc 1 502 0
 1704 007a 2023     		movs	r3, #32
 1705              	.LBE6:
 1706              		.loc 1 501 0
 1707 007c 2061     		str	r0, [r4, #16]
 1708              	.LBB7:
 1709              		.loc 1 502 0
 1710              	@ 502 "../../../test/testmtx.c" 1
 1711 007e 83F31188 		msr     BASEPRI, r3
 1712              	@ 0 "" 2
 1713              		.thumb
 1714              	.LBE7:
 1715              		.loc 1 503 0
 1716 0082 1A4C     		ldr	r4, .L79+36
 1717              		.loc 1 502 0
 1718 0084 FFF7FEFF 		bl	dbg_check_lock
 1719              	.LVL186:
 1720              		.loc 1 503 0
 1721 0088 2046     		mov	r0, r4
 1722 008a FFF7FEFF 		bl	chCondSignalI
 1723              	.LVL187:
 1724              		.loc 1 504 0
 1725 008e 2046     		mov	r0, r4
 1726 0090 FFF7FEFF 		bl	chCondSignalI
 1727              	.LVL188:
 1728              		.loc 1 505 0
 1729 0094 2046     		mov	r0, r4
 1730 0096 FFF7FEFF 		bl	chCondSignalI
 1731              	.LVL189:
 1732              		.loc 1 506 0
 1733 009a 2046     		mov	r0, r4
 1734 009c FFF7FEFF 		bl	chCondSignalI
 1735              	.LVL190:
 1736              		.loc 1 507 0
 1737 00a0 2046     		mov	r0, r4
 1738 00a2 FFF7FEFF 		bl	chCondSignalI
 1739              	.LVL191:
 1740              		.loc 1 508 0
 1741 00a6 FFF7FEFF 		bl	chSchRescheduleS
 1742              	.LVL192:
 1743              		.loc 1 509 0
 1744 00aa FFF7FEFF 		bl	dbg_check_unlock
 1745              	.LVL193:
 1746              	.LBB8:
 1747 00ae 0023     		movs	r3, #0
 1748              	@ 509 "../../../test/testmtx.c" 1
 1749 00b0 83F31188 		msr     BASEPRI, r3
 1750              	@ 0 "" 2
 1751              		.thumb
 1752              	.LBE8:
 1753              		.loc 1 510 0
 1754 00b4 FFF7FEFF 		bl	test_wait_threads
 1755              	.LVL194:
 1756              		.loc 1 511 0
 1757 00b8 0D49     		ldr	r1, .L79+40
ARM GAS  /tmp/ccatWSMR.s 			page 32


 1758 00ba 0120     		movs	r0, #1
 1759              		.loc 1 512 0
 1760 00bc 03B0     		add	sp, sp, #12
 1761              		@ sp needed
 1762 00be BDE8F040 		pop	{r4, r5, r6, r7, lr}
 1763              	.LVL195:
 1764              		.loc 1 511 0
 1765 00c2 FFF7FEBF 		b	_test_assert_sequence
 1766              	.LVL196:
 1767              	.L80:
 1768 00c6 00BF     		.align	2
 1769              	.L79:
 1770 00c8 00000000 		.word	rlist
 1771 00cc 00000000 		.word	wa
 1772 00d0 00000000 		.word	thread10
 1773 00d4 00000000 		.word	.LC0
 1774 00d8 00000000 		.word	threads
 1775 00dc 04000000 		.word	.LC1
 1776 00e0 08000000 		.word	.LC2
 1777 00e4 0C000000 		.word	.LC3
 1778 00e8 10000000 		.word	.LC4
 1779 00ec 00000000 		.word	.LANCHOR2
 1780 00f0 14000000 		.word	.LC5
 1781              		.cfi_endproc
 1782              	.LFE30:
 1783              		.size	mtx6_execute, .-mtx6_execute
 1784 00f4 AFF30080 		.section	.text.thread10,"ax",%progbits
 1784      AFF30080 
 1784      AFF30080 
 1785              		.align	2
 1786              		.p2align 4,,15
 1787              		.thumb
 1788              		.thumb_func
 1789              		.type	thread10, %function
 1790              	thread10:
 1791              	.LFB29:
 1792              		.loc 1 485 0
 1793              		.cfi_startproc
 1794              		@ args = 0, pretend = 0, frame = 0
 1795              		@ frame_needed = 0, uses_anonymous_args = 0
 1796              	.LVL197:
 1797 0000 10B5     		push	{r4, lr}
 1798              		.cfi_def_cfa_offset 8
 1799              		.cfi_offset 4, -8
 1800              		.cfi_offset 14, -4
 1801              		.loc 1 485 0
 1802 0002 0446     		mov	r4, r0
 1803              		.loc 1 487 0
 1804 0004 0648     		ldr	r0, .L82
 1805              	.LVL198:
 1806 0006 FFF7FEFF 		bl	chMtxLock
 1807              	.LVL199:
 1808              		.loc 1 488 0
 1809 000a 0648     		ldr	r0, .L82+4
 1810 000c FFF7FEFF 		bl	chCondWait
 1811              	.LVL200:
 1812              		.loc 1 489 0
ARM GAS  /tmp/ccatWSMR.s 			page 33


 1813 0010 2078     		ldrb	r0, [r4]	@ zero_extendqisi2
 1814 0012 FFF7FEFF 		bl	test_emit_token
 1815              	.LVL201:
 1816              		.loc 1 490 0
 1817 0016 FFF7FEFF 		bl	chMtxUnlock
 1818              	.LVL202:
 1819              		.loc 1 492 0
 1820 001a 0020     		movs	r0, #0
 1821 001c 10BD     		pop	{r4, pc}
 1822              	.LVL203:
 1823              	.L83:
 1824 001e 00BF     		.align	2
 1825              	.L82:
 1826 0020 00000000 		.word	.LANCHOR0
 1827 0024 00000000 		.word	.LANCHOR2
 1828              		.cfi_endproc
 1829              	.LFE29:
 1830              		.size	thread10, .-thread10
 1831 0028 AFF30080 		.section	.text.mtx6_setup,"ax",%progbits
 1831      AFF30080 
 1832              		.align	2
 1833              		.p2align 4,,15
 1834              		.thumb
 1835              		.thumb_func
 1836              		.type	mtx6_setup, %function
 1837              	mtx6_setup:
 1838              	.LFB28:
 1839              		.loc 1 479 0
 1840              		.cfi_startproc
 1841              		@ args = 0, pretend = 0, frame = 0
 1842              		@ frame_needed = 0, uses_anonymous_args = 0
 1843 0000 08B5     		push	{r3, lr}
 1844              		.cfi_def_cfa_offset 8
 1845              		.cfi_offset 3, -8
 1846              		.cfi_offset 14, -4
 1847              		.loc 1 481 0
 1848 0002 0448     		ldr	r0, .L85
 1849 0004 FFF7FEFF 		bl	chCondInit
 1850              	.LVL204:
 1851              		.loc 1 482 0
 1852 0008 0348     		ldr	r0, .L85+4
 1853              		.loc 1 483 0
 1854 000a BDE80840 		pop	{r3, lr}
 1855              		.loc 1 482 0
 1856 000e FFF7FEBF 		b	chMtxInit
 1857              	.LVL205:
 1858              	.L86:
 1859 0012 00BF     		.align	2
 1860              	.L85:
 1861 0014 00000000 		.word	.LANCHOR2
 1862 0018 00000000 		.word	.LANCHOR0
 1863              		.cfi_endproc
 1864              	.LFE28:
 1865              		.size	mtx6_setup, .-mtx6_setup
 1866 001c AFF30080 		.section	.text.mtx7_setup,"ax",%progbits
 1867              		.align	2
 1868              		.p2align 4,,15
ARM GAS  /tmp/ccatWSMR.s 			page 34


 1869              		.thumb
 1870              		.thumb_func
 1871              		.type	mtx7_setup, %function
 1872              	mtx7_setup:
 1873              	.LFB31:
 1874              		.loc 1 531 0
 1875              		.cfi_startproc
 1876              		@ args = 0, pretend = 0, frame = 0
 1877              		@ frame_needed = 0, uses_anonymous_args = 0
 1878 0000 08B5     		push	{r3, lr}
 1879              		.cfi_def_cfa_offset 8
 1880              		.cfi_offset 3, -8
 1881              		.cfi_offset 14, -4
 1882              		.loc 1 533 0
 1883 0002 0448     		ldr	r0, .L88
 1884 0004 FFF7FEFF 		bl	chCondInit
 1885              	.LVL206:
 1886              		.loc 1 534 0
 1887 0008 0348     		ldr	r0, .L88+4
 1888              		.loc 1 535 0
 1889 000a BDE80840 		pop	{r3, lr}
 1890              		.loc 1 534 0
 1891 000e FFF7FEBF 		b	chMtxInit
 1892              	.LVL207:
 1893              	.L89:
 1894 0012 00BF     		.align	2
 1895              	.L88:
 1896 0014 00000000 		.word	.LANCHOR2
 1897 0018 00000000 		.word	.LANCHOR0
 1898              		.cfi_endproc
 1899              	.LFE31:
 1900              		.size	mtx7_setup, .-mtx7_setup
 1901 001c AFF30080 		.section	.text.mtx8_setup,"ax",%progbits
 1902              		.align	2
 1903              		.p2align 4,,15
 1904              		.thumb
 1905              		.thumb_func
 1906              		.type	mtx8_setup, %function
 1907              	mtx8_setup:
 1908              	.LFB33:
 1909              		.loc 1 566 0
 1910              		.cfi_startproc
 1911              		@ args = 0, pretend = 0, frame = 0
 1912              		@ frame_needed = 0, uses_anonymous_args = 0
 1913 0000 08B5     		push	{r3, lr}
 1914              		.cfi_def_cfa_offset 8
 1915              		.cfi_offset 3, -8
 1916              		.cfi_offset 14, -4
 1917              		.loc 1 568 0
 1918 0002 0548     		ldr	r0, .L91
 1919 0004 FFF7FEFF 		bl	chCondInit
 1920              	.LVL208:
 1921              		.loc 1 569 0
 1922 0008 0448     		ldr	r0, .L91+4
 1923 000a FFF7FEFF 		bl	chMtxInit
 1924              	.LVL209:
 1925              		.loc 1 570 0
ARM GAS  /tmp/ccatWSMR.s 			page 35


 1926 000e 0448     		ldr	r0, .L91+8
 1927              		.loc 1 571 0
 1928 0010 BDE80840 		pop	{r3, lr}
 1929              		.loc 1 570 0
 1930 0014 FFF7FEBF 		b	chMtxInit
 1931              	.LVL210:
 1932              	.L92:
 1933              		.align	2
 1934              	.L91:
 1935 0018 00000000 		.word	.LANCHOR2
 1936 001c 00000000 		.word	.LANCHOR0
 1937 0020 00000000 		.word	.LANCHOR1
 1938              		.cfi_endproc
 1939              	.LFE33:
 1940              		.size	mtx8_setup, .-mtx8_setup
 1941 0024 AFF30080 		.section	.text.mtx7_execute,"ax",%progbits
 1941      AFF30080 
 1941      AFF30080 
 1942              		.align	2
 1943              		.p2align 4,,15
 1944              		.thumb
 1945              		.thumb_func
 1946              		.type	mtx7_execute, %function
 1947              	mtx7_execute:
 1948              	.LFB32:
 1949              		.loc 1 537 0
 1950              		.cfi_startproc
 1951              		@ args = 0, pretend = 0, frame = 0
 1952              		@ frame_needed = 0, uses_anonymous_args = 0
 1953 0000 F0B5     		push	{r4, r5, r6, r7, lr}
 1954              		.cfi_def_cfa_offset 20
 1955              		.cfi_offset 4, -20
 1956              		.cfi_offset 5, -16
 1957              		.cfi_offset 6, -12
 1958              		.cfi_offset 7, -8
 1959              		.cfi_offset 14, -4
 1960              		.loc 1 539 0
 1961 0002 244B     		ldr	r3, .L94
 1962              		.loc 1 540 0
 1963 0004 244F     		ldr	r7, .L94+4
 1964              		.loc 1 539 0
 1965 0006 9B69     		ldr	r3, [r3, #24]
 1966              		.loc 1 540 0
 1967 0008 244D     		ldr	r5, .L94+8
 1968              		.loc 1 539 0
 1969 000a 9E68     		ldr	r6, [r3, #8]
 1970              	.LVL211:
 1971              		.loc 1 540 0
 1972 000c 244B     		ldr	r3, .L94+12
 1973 000e 3868     		ldr	r0, [r7]
 1974 0010 244C     		ldr	r4, .L94+16
 1975              		.loc 1 537 0
 1976 0012 83B0     		sub	sp, sp, #12
 1977              		.cfi_def_cfa_offset 32
 1978              		.loc 1 540 0
 1979 0014 721C     		adds	r2, r6, #1
 1980 0016 0093     		str	r3, [sp]
ARM GAS  /tmp/ccatWSMR.s 			page 36


 1981 0018 4FF49871 		mov	r1, #304
 1982 001c 2B46     		mov	r3, r5
 1983 001e FFF7FEFF 		bl	chThdCreateStatic
 1984              	.LVL212:
 1985              		.loc 1 541 0
 1986 0022 7B68     		ldr	r3, [r7, #4]
 1987 0024 2049     		ldr	r1, .L94+20
 1988              		.loc 1 540 0
 1989 0026 2060     		str	r0, [r4]
 1990              		.loc 1 541 0
 1991 0028 B21C     		adds	r2, r6, #2
 1992 002a 0091     		str	r1, [sp]
 1993 002c 1846     		mov	r0, r3
 1994 002e 4FF49871 		mov	r1, #304
 1995 0032 2B46     		mov	r3, r5
 1996 0034 FFF7FEFF 		bl	chThdCreateStatic
 1997              	.LVL213:
 1998              		.loc 1 542 0
 1999 0038 BB68     		ldr	r3, [r7, #8]
 2000 003a 1C49     		ldr	r1, .L94+24
 2001              		.loc 1 541 0
 2002 003c 6060     		str	r0, [r4, #4]
 2003              		.loc 1 542 0
 2004 003e F21C     		adds	r2, r6, #3
 2005 0040 0091     		str	r1, [sp]
 2006 0042 1846     		mov	r0, r3
 2007 0044 4FF49871 		mov	r1, #304
 2008 0048 2B46     		mov	r3, r5
 2009 004a FFF7FEFF 		bl	chThdCreateStatic
 2010              	.LVL214:
 2011              		.loc 1 543 0
 2012 004e FB68     		ldr	r3, [r7, #12]
 2013 0050 1749     		ldr	r1, .L94+28
 2014              		.loc 1 542 0
 2015 0052 A060     		str	r0, [r4, #8]
 2016              		.loc 1 543 0
 2017 0054 321D     		adds	r2, r6, #4
 2018 0056 0091     		str	r1, [sp]
 2019 0058 1846     		mov	r0, r3
 2020 005a 4FF49871 		mov	r1, #304
 2021 005e 2B46     		mov	r3, r5
 2022 0060 FFF7FEFF 		bl	chThdCreateStatic
 2023              	.LVL215:
 2024              		.loc 1 544 0
 2025 0064 3B69     		ldr	r3, [r7, #16]
 2026 0066 1349     		ldr	r1, .L94+32
 2027              		.loc 1 543 0
 2028 0068 E060     		str	r0, [r4, #12]
 2029              		.loc 1 544 0
 2030 006a 721D     		adds	r2, r6, #5
 2031 006c 0091     		str	r1, [sp]
 2032 006e 1846     		mov	r0, r3
 2033 0070 4FF49871 		mov	r1, #304
 2034 0074 2B46     		mov	r3, r5
 2035 0076 FFF7FEFF 		bl	chThdCreateStatic
 2036              	.LVL216:
 2037 007a 2061     		str	r0, [r4, #16]
ARM GAS  /tmp/ccatWSMR.s 			page 37


 2038              		.loc 1 545 0
 2039 007c 0E48     		ldr	r0, .L94+36
 2040 007e FFF7FEFF 		bl	chCondBroadcast
 2041              	.LVL217:
 2042              		.loc 1 546 0
 2043 0082 FFF7FEFF 		bl	test_wait_threads
 2044              	.LVL218:
 2045              		.loc 1 547 0
 2046 0086 0D49     		ldr	r1, .L94+40
 2047 0088 0120     		movs	r0, #1
 2048              		.loc 1 548 0
 2049 008a 03B0     		add	sp, sp, #12
 2050              		@ sp needed
 2051 008c BDE8F040 		pop	{r4, r5, r6, r7, lr}
 2052              	.LVL219:
 2053              		.loc 1 547 0
 2054 0090 FFF7FEBF 		b	_test_assert_sequence
 2055              	.LVL220:
 2056              	.L95:
 2057              		.align	2
 2058              	.L94:
 2059 0094 00000000 		.word	rlist
 2060 0098 00000000 		.word	wa
 2061 009c 00000000 		.word	thread10
 2062 00a0 00000000 		.word	.LC0
 2063 00a4 00000000 		.word	threads
 2064 00a8 04000000 		.word	.LC1
 2065 00ac 08000000 		.word	.LC2
 2066 00b0 0C000000 		.word	.LC3
 2067 00b4 10000000 		.word	.LC4
 2068 00b8 00000000 		.word	.LANCHOR2
 2069 00bc 14000000 		.word	.LC5
 2070              		.cfi_endproc
 2071              	.LFE32:
 2072              		.size	mtx7_execute, .-mtx7_execute
 2073              		.section	.text.mtx8_execute,"ax",%progbits
 2074              		.align	2
 2075              		.p2align 4,,15
 2076              		.thumb
 2077              		.thumb_func
 2078              		.type	mtx8_execute, %function
 2079              	mtx8_execute:
 2080              	.LFB36:
 2081              		.loc 1 596 0
 2082              		.cfi_startproc
 2083              		@ args = 0, pretend = 0, frame = 0
 2084              		@ frame_needed = 0, uses_anonymous_args = 0
 2085 0000 F0B5     		push	{r4, r5, r6, r7, lr}
 2086              		.cfi_def_cfa_offset 20
 2087              		.cfi_offset 4, -20
 2088              		.cfi_offset 5, -16
 2089              		.cfi_offset 6, -12
 2090              		.cfi_offset 7, -8
 2091              		.cfi_offset 14, -4
 2092              		.loc 1 598 0
 2093 0002 1B4B     		ldr	r3, .L97
 2094              		.loc 1 599 0
ARM GAS  /tmp/ccatWSMR.s 			page 38


 2095 0004 1B4E     		ldr	r6, .L97+4
 2096              		.loc 1 598 0
 2097 0006 9B69     		ldr	r3, [r3, #24]
 2098              		.loc 1 599 0
 2099 0008 3068     		ldr	r0, [r6]
 2100              		.loc 1 598 0
 2101 000a 9D68     		ldr	r5, [r3, #8]
 2102              	.LVL221:
 2103              		.loc 1 599 0
 2104 000c 1A4B     		ldr	r3, .L97+8
 2105 000e 1B4C     		ldr	r4, .L97+12
 2106              		.loc 1 602 0
 2107 0010 1B4F     		ldr	r7, .L97+16
 2108              		.loc 1 596 0
 2109 0012 83B0     		sub	sp, sp, #12
 2110              		.cfi_def_cfa_offset 32
 2111              		.loc 1 599 0
 2112 0014 6A1C     		adds	r2, r5, #1
 2113 0016 0093     		str	r3, [sp]
 2114 0018 4FF49871 		mov	r1, #304
 2115 001c 194B     		ldr	r3, .L97+20
 2116 001e FFF7FEFF 		bl	chThdCreateStatic
 2117              	.LVL222:
 2118              		.loc 1 600 0
 2119 0022 7368     		ldr	r3, [r6, #4]
 2120 0024 1849     		ldr	r1, .L97+24
 2121              		.loc 1 599 0
 2122 0026 2060     		str	r0, [r4]
 2123              		.loc 1 600 0
 2124 0028 AA1C     		adds	r2, r5, #2
 2125 002a 0091     		str	r1, [sp]
 2126 002c 1846     		mov	r0, r3
 2127 002e 4FF49871 		mov	r1, #304
 2128 0032 164B     		ldr	r3, .L97+28
 2129 0034 FFF7FEFF 		bl	chThdCreateStatic
 2130              	.LVL223:
 2131              		.loc 1 601 0
 2132 0038 B168     		ldr	r1, [r6, #8]
 2133 003a 154B     		ldr	r3, .L97+32
 2134              		.loc 1 600 0
 2135 003c 6060     		str	r0, [r4, #4]
 2136              		.loc 1 601 0
 2137 003e EA1C     		adds	r2, r5, #3
 2138 0040 0093     		str	r3, [sp]
 2139 0042 0846     		mov	r0, r1
 2140 0044 134B     		ldr	r3, .L97+36
 2141 0046 4FF49871 		mov	r1, #304
 2142 004a FFF7FEFF 		bl	chThdCreateStatic
 2143              	.LVL224:
 2144 004e A060     		str	r0, [r4, #8]
 2145              		.loc 1 602 0
 2146 0050 3846     		mov	r0, r7
 2147 0052 FFF7FEFF 		bl	chCondSignal
 2148              	.LVL225:
 2149              		.loc 1 603 0
 2150 0056 3846     		mov	r0, r7
 2151 0058 FFF7FEFF 		bl	chCondSignal
ARM GAS  /tmp/ccatWSMR.s 			page 39


 2152              	.LVL226:
 2153              		.loc 1 604 0
 2154 005c FFF7FEFF 		bl	test_wait_threads
 2155              	.LVL227:
 2156              		.loc 1 605 0
 2157 0060 0D49     		ldr	r1, .L97+40
 2158 0062 0120     		movs	r0, #1
 2159              		.loc 1 606 0
 2160 0064 03B0     		add	sp, sp, #12
 2161              		@ sp needed
 2162 0066 BDE8F040 		pop	{r4, r5, r6, r7, lr}
 2163              	.LVL228:
 2164              		.loc 1 605 0
 2165 006a FFF7FEBF 		b	_test_assert_sequence
 2166              	.LVL229:
 2167              	.L98:
 2168 006e 00BF     		.align	2
 2169              	.L97:
 2170 0070 00000000 		.word	rlist
 2171 0074 00000000 		.word	wa
 2172 0078 10000000 		.word	.LC4
 2173 007c 00000000 		.word	threads
 2174 0080 00000000 		.word	.LANCHOR2
 2175 0084 00000000 		.word	thread11
 2176 0088 08000000 		.word	.LC2
 2177 008c 00000000 		.word	thread10
 2178 0090 0C000000 		.word	.LC3
 2179 0094 00000000 		.word	thread12
 2180 0098 1C000000 		.word	.LC6
 2181              		.cfi_endproc
 2182              	.LFE36:
 2183              		.size	mtx8_execute, .-mtx8_execute
 2184 009c AFF30080 		.section	.text.thread11,"ax",%progbits
 2185              		.align	2
 2186              		.p2align 4,,15
 2187              		.thumb
 2188              		.thumb_func
 2189              		.type	thread11, %function
 2190              	thread11:
 2191              	.LFB34:
 2192              		.loc 1 573 0
 2193              		.cfi_startproc
 2194              		@ args = 0, pretend = 0, frame = 0
 2195              		@ frame_needed = 0, uses_anonymous_args = 0
 2196              	.LVL230:
 2197 0000 10B5     		push	{r4, lr}
 2198              		.cfi_def_cfa_offset 8
 2199              		.cfi_offset 4, -8
 2200              		.cfi_offset 14, -4
 2201              		.loc 1 573 0
 2202 0002 0446     		mov	r4, r0
 2203              		.loc 1 575 0
 2204 0004 0948     		ldr	r0, .L100
 2205              	.LVL231:
 2206 0006 FFF7FEFF 		bl	chMtxLock
 2207              	.LVL232:
 2208              		.loc 1 576 0
ARM GAS  /tmp/ccatWSMR.s 			page 40


 2209 000a 0948     		ldr	r0, .L100+4
 2210 000c FFF7FEFF 		bl	chMtxLock
 2211              	.LVL233:
 2212              		.loc 1 578 0
 2213 0010 4FF0FF31 		mov	r1, #-1
 2214 0014 0748     		ldr	r0, .L100+8
 2215 0016 FFF7FEFF 		bl	chCondWaitTimeout
 2216              	.LVL234:
 2217              		.loc 1 582 0
 2218 001a 2078     		ldrb	r0, [r4]	@ zero_extendqisi2
 2219 001c FFF7FEFF 		bl	test_emit_token
 2220              	.LVL235:
 2221              		.loc 1 583 0
 2222 0020 FFF7FEFF 		bl	chMtxUnlock
 2223              	.LVL236:
 2224              		.loc 1 584 0
 2225 0024 FFF7FEFF 		bl	chMtxUnlock
 2226              	.LVL237:
 2227              		.loc 1 586 0
 2228 0028 0020     		movs	r0, #0
 2229 002a 10BD     		pop	{r4, pc}
 2230              	.LVL238:
 2231              	.L101:
 2232              		.align	2
 2233              	.L100:
 2234 002c 00000000 		.word	.LANCHOR1
 2235 0030 00000000 		.word	.LANCHOR0
 2236 0034 00000000 		.word	.LANCHOR2
 2237              		.cfi_endproc
 2238              	.LFE34:
 2239              		.size	thread11, .-thread11
 2240              		.global	patternmtx
 2241              		.global	testmtx8
 2242              		.global	testmtx7
 2243              		.global	testmtx6
 2244              		.global	testmtx5
 2245              		.global	testmtx4
 2246              		.global	testmtx3
 2247              		.global	testmtx2
 2248              		.global	testmtx1
 2249 0038 AFF30080 		.section	.rodata.testmtx5,"a",%progbits
 2249      AFF30080 
 2250              		.align	2
 2251              		.type	testmtx5, %object
 2252              		.size	testmtx5, 16
 2253              	testmtx5:
 2254 0000 64000000 		.word	.LC10
 2255 0004 00000000 		.word	mtx5_setup
 2256 0008 00000000 		.word	0
 2257 000c 00000000 		.word	mtx5_execute
 2258              		.section	.rodata.testmtx6,"a",%progbits
 2259              		.align	2
 2260              		.type	testmtx6, %object
 2261              		.size	testmtx6, 16
 2262              	testmtx6:
 2263 0000 4C000000 		.word	.LC9
 2264 0004 00000000 		.word	mtx6_setup
ARM GAS  /tmp/ccatWSMR.s 			page 41


 2265 0008 00000000 		.word	0
 2266 000c 00000000 		.word	mtx6_execute
 2267              		.section	.rodata.testmtx7,"a",%progbits
 2268              		.align	2
 2269              		.type	testmtx7, %object
 2270              		.size	testmtx7, 16
 2271              	testmtx7:
 2272 0000 34000000 		.word	.LC8
 2273 0004 00000000 		.word	mtx7_setup
 2274 0008 00000000 		.word	0
 2275 000c 00000000 		.word	mtx7_execute
 2276              		.section	.rodata.testmtx8,"a",%progbits
 2277              		.align	2
 2278              		.type	testmtx8, %object
 2279              		.size	testmtx8, 16
 2280              	testmtx8:
 2281 0000 20000000 		.word	.LC7
 2282 0004 00000000 		.word	mtx8_setup
 2283 0008 00000000 		.word	0
 2284 000c 00000000 		.word	mtx8_execute
 2285              		.section	.data.m1,"aw",%progbits
 2286              		.align	2
 2287              		.set	.LANCHOR0,. + 0
 2288              		.type	m1, %object
 2289              		.size	m1, 16
 2290              	m1:
 2291 0000 00000000 		.word	m1
 2292 0004 00000000 		.word	m1
 2293 0008 00000000 		.word	0
 2294 000c 00000000 		.word	0
 2295              		.section	.data.m2,"aw",%progbits
 2296              		.align	2
 2297              		.set	.LANCHOR1,. + 0
 2298              		.type	m2, %object
 2299              		.size	m2, 16
 2300              	m2:
 2301 0000 00000000 		.word	m2
 2302 0004 00000000 		.word	m2
 2303 0008 00000000 		.word	0
 2304 000c 00000000 		.word	0
 2305              		.section	.rodata.str1.4,"aMS",%progbits,1
 2306              		.align	2
 2307              	.LC0:
 2308 0000 4500     		.ascii	"E\000"
 2309 0002 0000     		.space	2
 2310              	.LC1:
 2311 0004 4400     		.ascii	"D\000"
 2312 0006 0000     		.space	2
 2313              	.LC2:
 2314 0008 4300     		.ascii	"C\000"
 2315 000a 0000     		.space	2
 2316              	.LC3:
 2317 000c 4200     		.ascii	"B\000"
 2318 000e 0000     		.space	2
 2319              	.LC4:
 2320 0010 4100     		.ascii	"A\000"
 2321 0012 0000     		.space	2
ARM GAS  /tmp/ccatWSMR.s 			page 42


 2322              	.LC5:
 2323 0014 41424344 		.ascii	"ABCDE\000"
 2323      4500
 2324 001a 0000     		.space	2
 2325              	.LC6:
 2326 001c 41424300 		.ascii	"ABC\000"
 2327              	.LC7:
 2328 0020 436F6E64 		.ascii	"CondVar, boost test\000"
 2328      5661722C 
 2328      20626F6F 
 2328      73742074 
 2328      65737400 
 2329              	.LC8:
 2330 0034 436F6E64 		.ascii	"CondVar, broadcast test\000"
 2330      5661722C 
 2330      2062726F 
 2330      61646361 
 2330      73742074 
 2331              	.LC9:
 2332 004c 436F6E64 		.ascii	"CondVar, signal test\000"
 2332      5661722C 
 2332      20736967 
 2332      6E616C20 
 2332      74657374 
 2333 0061 000000   		.space	3
 2334              	.LC10:
 2335 0064 4D757465 		.ascii	"Mutexes, status\000"
 2335      7865732C 
 2335      20737461 
 2335      74757300 
 2336              	.LC11:
 2337 0074 4D757465 		.ascii	"Mutexes, priority return\000"
 2337      7865732C 
 2337      20707269 
 2337      6F726974 
 2337      79207265 
 2338 008d 000000   		.space	3
 2339              	.LC12:
 2340 0090 4D757465 		.ascii	"Mutexes, priority inheritance, complex case\000"
 2340      7865732C 
 2340      20707269 
 2340      6F726974 
 2340      7920696E 
 2341              	.LC13:
 2342 00bc 4D757465 		.ascii	"Mutexes, priority inheritance, simple case\000"
 2342      7865732C 
 2342      20707269 
 2342      6F726974 
 2342      7920696E 
 2343 00e7 00       		.space	1
 2344              	.LC14:
 2345 00e8 4D757465 		.ascii	"Mutexes, priority enqueuing test\000"
 2345      7865732C 
 2345      20707269 
 2345      6F726974 
 2345      7920656E 
 2346 0109 000000   		.section	.rodata.patternmtx,"a",%progbits
ARM GAS  /tmp/ccatWSMR.s 			page 43


 2347              		.align	2
 2348              		.type	patternmtx, %object
 2349              		.size	patternmtx, 36
 2350              	patternmtx:
 2351 0000 00000000 		.word	testmtx1
 2352 0004 00000000 		.word	testmtx2
 2353 0008 00000000 		.word	testmtx3
 2354 000c 00000000 		.word	testmtx4
 2355 0010 00000000 		.word	testmtx5
 2356 0014 00000000 		.word	testmtx6
 2357 0018 00000000 		.word	testmtx7
 2358 001c 00000000 		.word	testmtx8
 2359 0020 00000000 		.word	0
 2360              		.section	.data.c1,"aw",%progbits
 2361              		.align	2
 2362              		.set	.LANCHOR2,. + 0
 2363              		.type	c1, %object
 2364              		.size	c1, 8
 2365              	c1:
 2366 0000 00000000 		.word	c1
 2367 0004 00000000 		.word	c1
 2368              		.section	.rodata.testmtx1,"a",%progbits
 2369              		.align	2
 2370              		.type	testmtx1, %object
 2371              		.size	testmtx1, 16
 2372              	testmtx1:
 2373 0000 E8000000 		.word	.LC14
 2374 0004 00000000 		.word	mtx1_setup
 2375 0008 00000000 		.word	0
 2376 000c 00000000 		.word	mtx1_execute
 2377              		.section	.rodata.testmtx2,"a",%progbits
 2378              		.align	2
 2379              		.type	testmtx2, %object
 2380              		.size	testmtx2, 16
 2381              	testmtx2:
 2382 0000 BC000000 		.word	.LC13
 2383 0004 00000000 		.word	mtx2_setup
 2384 0008 00000000 		.word	0
 2385 000c 00000000 		.word	mtx2_execute
 2386              		.section	.rodata.testmtx3,"a",%progbits
 2387              		.align	2
 2388              		.type	testmtx3, %object
 2389              		.size	testmtx3, 16
 2390              	testmtx3:
 2391 0000 90000000 		.word	.LC12
 2392 0004 00000000 		.word	mtx3_setup
 2393 0008 00000000 		.word	0
 2394 000c 00000000 		.word	mtx3_execute
 2395              		.section	.rodata.testmtx4,"a",%progbits
 2396              		.align	2
 2397              		.type	testmtx4, %object
 2398              		.size	testmtx4, 16
 2399              	testmtx4:
 2400 0000 74000000 		.word	.LC11
 2401 0004 00000000 		.word	mtx4_setup
 2402 0008 00000000 		.word	0
 2403 000c 00000000 		.word	mtx4_execute
ARM GAS  /tmp/ccatWSMR.s 			page 44


 2404              		.text
 2405              	.Letext0:
 2406              		.file 2 "/usr/lib/gcc/arm-none-eabi/4.8.3/include/stddef.h"
 2407              		.file 3 "/usr/arm-none-eabi/include/stdint.h"
 2408              		.file 4 "../../../os/ports/GCC/ARMCMx/chtypes.h"
 2409              		.file 5 "../../../os/kernel/include/chlists.h"
 2410              		.file 6 "../../../os/kernel/include/chthreads.h"
 2411              		.file 7 "../../../os/ports/GCC/ARMCMx/chcore_v7m.h"
 2412              		.file 8 "../../../os/kernel/include/chvt.h"
 2413              		.file 9 "../../../os/kernel/include/chschd.h"
 2414              		.file 10 "../../../os/kernel/include/chmtx.h"
 2415              		.file 11 "../../../os/kernel/include/chcond.h"
 2416              		.file 12 "../../../test/test.h"
 2417              		.file 13 "../../../os/kernel/include/chdebug.h"