ARM GAS  /tmp/ccS3EMNv.s 			page 1


   1              		.syntax unified
   2              		.cpu cortex-m4
   3              		.fpu softvfp
   4              		.eabi_attribute 20, 1
   5              		.eabi_attribute 21, 1
   6              		.eabi_attribute 23, 3
   7              		.eabi_attribute 24, 1
   8              		.eabi_attribute 25, 1
   9              		.eabi_attribute 26, 1
  10              		.eabi_attribute 30, 2
  11              		.eabi_attribute 34, 1
  12              		.eabi_attribute 18, 4
  13              		.thumb
  14              		.file	"uart.c"
  15              		.text
  16              	.Ltext0:
  17              		.cfi_sections	.debug_frame
  18              		.section	.text.uartInit,"ax",%progbits
  19              		.align	2
  20              		.p2align 4,,15
  21              		.global	uartInit
  22              		.thumb
  23              		.thumb_func
  24              		.type	uartInit, %function
  25              	uartInit:
  26              	.LFB118:
  27              		.file 1 "../../../os/hal/src/uart.c"
  28              		.loc 1 61 0
  29              		.cfi_startproc
  30              		@ args = 0, pretend = 0, frame = 0
  31              		@ frame_needed = 0, uses_anonymous_args = 0
  32              		@ link register save eliminated.
  33              		.loc 1 63 0
  34 0000 FFF7FEBF 		b	uart_lld_init
  35              	.LVL0:
  36              		.cfi_endproc
  37              	.LFE118:
  38              		.size	uartInit, .-uartInit
  39 0004 AFF30080 		.section	.text.uartObjectInit,"ax",%progbits
  39      AFF30080 
  39      AFF30080 
  40              		.align	2
  41              		.p2align 4,,15
  42              		.global	uartObjectInit
  43              		.thumb
  44              		.thumb_func
  45              		.type	uartObjectInit, %function
  46              	uartObjectInit:
  47              	.LFB119:
  48              		.loc 1 73 0
  49              		.cfi_startproc
  50              		@ args = 0, pretend = 0, frame = 0
  51              		@ frame_needed = 0, uses_anonymous_args = 0
  52              		@ link register save eliminated.
  53              	.LVL1:
  54              		.loc 1 76 0
  55 0000 0023     		movs	r3, #0
ARM GAS  /tmp/ccS3EMNv.s 			page 2


  56              		.loc 1 75 0
  57 0002 0122     		movs	r2, #1
  58 0004 0270     		strb	r2, [r0]
  59              		.loc 1 76 0
  60 0006 4370     		strb	r3, [r0, #1]
  61              		.loc 1 77 0
  62 0008 8370     		strb	r3, [r0, #2]
  63              		.loc 1 78 0
  64 000a 4360     		str	r3, [r0, #4]
  65 000c 7047     		bx	lr
  66              		.cfi_endproc
  67              	.LFE119:
  68              		.size	uartObjectInit, .-uartObjectInit
  69 000e 00BF     		.section	.text.uartStart,"ax",%progbits
  70              		.align	2
  71              		.p2align 4,,15
  72              		.global	uartStart
  73              		.thumb
  74              		.thumb_func
  75              		.type	uartStart, %function
  76              	uartStart:
  77              	.LFB120:
  78              		.loc 1 93 0
  79              		.cfi_startproc
  80              		@ args = 0, pretend = 0, frame = 0
  81              		@ frame_needed = 0, uses_anonymous_args = 0
  82              	.LVL2:
  83 0000 38B5     		push	{r3, r4, r5, lr}
  84              		.cfi_def_cfa_offset 16
  85              		.cfi_offset 3, -16
  86              		.cfi_offset 4, -12
  87              		.cfi_offset 5, -8
  88              		.cfi_offset 14, -4
  89              		.loc 1 95 0
  90 0002 0446     		mov	r4, r0
  91              		.loc 1 93 0
  92 0004 0D46     		mov	r5, r1
  93              		.loc 1 95 0
  94 0006 C8B1     		cbz	r0, .L4
  95              		.loc 1 95 0 is_stmt 0 discriminator 2
  96 0008 C1B1     		cbz	r1, .L4
  97              	.LVL3:
  98              	.L5:
  99              	.LBB2:
 100              		.loc 1 97 0 is_stmt 1
 101 000a 2023     		movs	r3, #32
 102              	@ 97 "../../../os/hal/src/uart.c" 1
 103 000c 83F31188 		msr     BASEPRI, r3
 104              	@ 0 "" 2
 105              		.thumb
 106              	.LBE2:
 107 0010 FFF7FEFF 		bl	dbg_check_lock
 108              	.LVL4:
 109              		.loc 1 98 0
 110 0014 2378     		ldrb	r3, [r4]	@ zero_extendqisi2
 111 0016 013B     		subs	r3, r3, #1
 112 0018 DBB2     		uxtb	r3, r3
ARM GAS  /tmp/ccS3EMNv.s 			page 3


 113 001a 012B     		cmp	r3, #1
 114 001c 02D9     		bls	.L6
 115              		.loc 1 98 0 is_stmt 0 discriminator 1
 116 001e 0948     		ldr	r0, .L11
 117 0020 FFF7FEFF 		bl	chDbgPanic
 118              	.LVL5:
 119              	.L6:
 120              		.loc 1 102 0 is_stmt 1
 121 0024 2046     		mov	r0, r4
 122              		.loc 1 101 0
 123 0026 6560     		str	r5, [r4, #4]
 124              		.loc 1 102 0
 125 0028 FFF7FEFF 		bl	uart_lld_start
 126              	.LVL6:
 127              		.loc 1 103 0
 128 002c 0223     		movs	r3, #2
 129 002e 2370     		strb	r3, [r4]
 130              		.loc 1 104 0
 131 0030 FFF7FEFF 		bl	dbg_check_unlock
 132              	.LVL7:
 133              	.LBB3:
 134 0034 0023     		movs	r3, #0
 135              	@ 104 "../../../os/hal/src/uart.c" 1
 136 0036 83F31188 		msr     BASEPRI, r3
 137              	@ 0 "" 2
 138              		.thumb
 139 003a 38BD     		pop	{r3, r4, r5, pc}
 140              	.LVL8:
 141              	.L4:
 142              	.LBE3:
 143              		.loc 1 95 0 discriminator 1
 144 003c 0248     		ldr	r0, .L11+4
 145              	.LVL9:
 146 003e FFF7FEFF 		bl	chDbgPanic
 147              	.LVL10:
 148 0042 E2E7     		b	.L5
 149              	.L12:
 150              		.align	2
 151              	.L11:
 152 0044 10000000 		.word	.LC1
 153 0048 00000000 		.word	.LC0
 154              		.cfi_endproc
 155              	.LFE120:
 156              		.size	uartStart, .-uartStart
 157 004c AFF30080 		.section	.text.uartStop,"ax",%progbits
 158              		.align	2
 159              		.p2align 4,,15
 160              		.global	uartStop
 161              		.thumb
 162              		.thumb_func
 163              		.type	uartStop, %function
 164              	uartStop:
 165              	.LFB121:
 166              		.loc 1 114 0
 167              		.cfi_startproc
 168              		@ args = 0, pretend = 0, frame = 0
 169              		@ frame_needed = 0, uses_anonymous_args = 0
ARM GAS  /tmp/ccS3EMNv.s 			page 4


 170              	.LVL11:
 171 0000 38B5     		push	{r3, r4, r5, lr}
 172              		.cfi_def_cfa_offset 16
 173              		.cfi_offset 3, -16
 174              		.cfi_offset 4, -12
 175              		.cfi_offset 5, -8
 176              		.cfi_offset 14, -4
 177              		.loc 1 116 0
 178 0002 0446     		mov	r4, r0
 179 0004 D0B1     		cbz	r0, .L16
 180              	.LVL12:
 181              	.L14:
 182              	.LBB4:
 183              		.loc 1 118 0
 184 0006 2023     		movs	r3, #32
 185              	@ 118 "../../../os/hal/src/uart.c" 1
 186 0008 83F31188 		msr     BASEPRI, r3
 187              	@ 0 "" 2
 188              		.thumb
 189              	.LBE4:
 190 000c FFF7FEFF 		bl	dbg_check_lock
 191              	.LVL13:
 192              		.loc 1 119 0
 193 0010 2378     		ldrb	r3, [r4]	@ zero_extendqisi2
 194 0012 013B     		subs	r3, r3, #1
 195 0014 DBB2     		uxtb	r3, r3
 196 0016 012B     		cmp	r3, #1
 197 0018 02D9     		bls	.L15
 198              		.loc 1 119 0 is_stmt 0 discriminator 1
 199 001a 0A48     		ldr	r0, .L17
 200 001c FFF7FEFF 		bl	chDbgPanic
 201              	.LVL14:
 202              	.L15:
 203              		.loc 1 122 0 is_stmt 1
 204 0020 2046     		mov	r0, r4
 205 0022 FFF7FEFF 		bl	uart_lld_stop
 206              	.LVL15:
 207              		.loc 1 124 0
 208 0026 0025     		movs	r5, #0
 209              		.loc 1 123 0
 210 0028 0123     		movs	r3, #1
 211 002a 2370     		strb	r3, [r4]
 212              		.loc 1 124 0
 213 002c 6570     		strb	r5, [r4, #1]
 214              		.loc 1 125 0
 215 002e A570     		strb	r5, [r4, #2]
 216              		.loc 1 126 0
 217 0030 FFF7FEFF 		bl	dbg_check_unlock
 218              	.LVL16:
 219              	.LBB5:
 220 0034 2B46     		mov	r3, r5
 221              	@ 126 "../../../os/hal/src/uart.c" 1
 222 0036 83F31188 		msr     BASEPRI, r3
 223              	@ 0 "" 2
 224              		.thumb
 225 003a 38BD     		pop	{r3, r4, r5, pc}
 226              	.LVL17:
ARM GAS  /tmp/ccS3EMNv.s 			page 5


 227              	.L16:
 228              	.LBE5:
 229              		.loc 1 116 0 discriminator 1
 230 003c 0248     		ldr	r0, .L17+4
 231              	.LVL18:
 232 003e FFF7FEFF 		bl	chDbgPanic
 233              	.LVL19:
 234 0042 E0E7     		b	.L14
 235              	.L18:
 236              		.align	2
 237              	.L17:
 238 0044 30000000 		.word	.LC3
 239 0048 20000000 		.word	.LC2
 240              		.cfi_endproc
 241              	.LFE121:
 242              		.size	uartStop, .-uartStop
 243 004c AFF30080 		.section	.text.uartStartSend,"ax",%progbits
 244              		.align	2
 245              		.p2align 4,,15
 246              		.global	uartStartSend
 247              		.thumb
 248              		.thumb_func
 249              		.type	uartStartSend, %function
 250              	uartStartSend:
 251              	.LFB122:
 252              		.loc 1 140 0
 253              		.cfi_startproc
 254              		@ args = 0, pretend = 0, frame = 0
 255              		@ frame_needed = 0, uses_anonymous_args = 0
 256              	.LVL20:
 257 0000 70B5     		push	{r4, r5, r6, lr}
 258              		.cfi_def_cfa_offset 16
 259              		.cfi_offset 4, -16
 260              		.cfi_offset 5, -12
 261              		.cfi_offset 6, -8
 262              		.cfi_offset 14, -4
 263              		.loc 1 142 0
 264 0002 0446     		mov	r4, r0
 265              		.loc 1 140 0
 266 0004 0D46     		mov	r5, r1
 267 0006 1646     		mov	r6, r2
 268              		.loc 1 142 0
 269 0008 00B1     		cbz	r0, .L20
 270              		.loc 1 142 0 is_stmt 0 discriminator 2
 271 000a E9B9     		cbnz	r1, .L33
 272              	.L20:
 273              		.loc 1 142 0 discriminator 1
 274 000c 1248     		ldr	r0, .L35
 275              	.LVL21:
 276 000e FFF7FEFF 		bl	chDbgPanic
 277              	.LVL22:
 278              	.L21:
 279              	.LBB6:
 280              		.loc 1 145 0 is_stmt 1
 281 0012 2023     		movs	r3, #32
 282              	@ 145 "../../../os/hal/src/uart.c" 1
 283 0014 83F31188 		msr     BASEPRI, r3
ARM GAS  /tmp/ccS3EMNv.s 			page 6


 284              	@ 0 "" 2
 285              		.thumb
 286              	.LBE6:
 287 0018 FFF7FEFF 		bl	dbg_check_lock
 288              	.LVL23:
 289              		.loc 1 146 0
 290 001c 2378     		ldrb	r3, [r4]	@ zero_extendqisi2
 291 001e 022B     		cmp	r3, #2
 292 0020 02D0     		beq	.L22
 293              		.loc 1 146 0 is_stmt 0 discriminator 1
 294 0022 0E48     		ldr	r0, .L35+4
 295 0024 FFF7FEFF 		bl	chDbgPanic
 296              	.LVL24:
 297              	.L22:
 298              		.loc 1 148 0 is_stmt 1
 299 0028 6378     		ldrb	r3, [r4, #1]	@ zero_extendqisi2
 300 002a 012B     		cmp	r3, #1
 301 002c 0FD0     		beq	.L34
 302              	.L23:
 303              		.loc 1 151 0
 304 002e 2946     		mov	r1, r5
 305 0030 3246     		mov	r2, r6
 306 0032 2046     		mov	r0, r4
 307 0034 FFF7FEFF 		bl	uart_lld_start_send
 308              	.LVL25:
 309              		.loc 1 152 0
 310 0038 0123     		movs	r3, #1
 311 003a 6370     		strb	r3, [r4, #1]
 312              		.loc 1 153 0
 313 003c FFF7FEFF 		bl	dbg_check_unlock
 314              	.LVL26:
 315              	.LBB7:
 316 0040 0023     		movs	r3, #0
 317              	@ 153 "../../../os/hal/src/uart.c" 1
 318 0042 83F31188 		msr     BASEPRI, r3
 319              	@ 0 "" 2
 320              		.thumb
 321 0046 70BD     		pop	{r4, r5, r6, pc}
 322              	.LVL27:
 323              	.L33:
 324              	.LBE7:
 325              		.loc 1 142 0 discriminator 1
 326 0048 002A     		cmp	r2, #0
 327 004a E2D1     		bne	.L21
 328 004c DEE7     		b	.L20
 329              	.LVL28:
 330              	.L34:
 331              		.loc 1 148 0 discriminator 1
 332 004e 0448     		ldr	r0, .L35+8
 333 0050 FFF7FEFF 		bl	chDbgPanic
 334              	.LVL29:
 335 0054 EBE7     		b	.L23
 336              	.L36:
 337 0056 00BF     		.align	2
 338              	.L35:
 339 0058 40000000 		.word	.LC4
 340 005c 54000000 		.word	.LC5
ARM GAS  /tmp/ccS3EMNv.s 			page 7


 341 0060 68000000 		.word	.LC6
 342              		.cfi_endproc
 343              	.LFE122:
 344              		.size	uartStartSend, .-uartStartSend
 345 0064 AFF30080 		.section	.text.uartStartSendI,"ax",%progbits
 345      AFF30080 
 345      AFF30080 
 346              		.align	2
 347              		.p2align 4,,15
 348              		.global	uartStartSendI
 349              		.thumb
 350              		.thumb_func
 351              		.type	uartStartSendI, %function
 352              	uartStartSendI:
 353              	.LFB123:
 354              		.loc 1 168 0
 355              		.cfi_startproc
 356              		@ args = 0, pretend = 0, frame = 0
 357              		@ frame_needed = 0, uses_anonymous_args = 0
 358              	.LVL30:
 359 0000 70B5     		push	{r4, r5, r6, lr}
 360              		.cfi_def_cfa_offset 16
 361              		.cfi_offset 4, -16
 362              		.cfi_offset 5, -12
 363              		.cfi_offset 6, -8
 364              		.cfi_offset 14, -4
 365              		.loc 1 168 0
 366 0002 0446     		mov	r4, r0
 367 0004 0D46     		mov	r5, r1
 368 0006 1646     		mov	r6, r2
 369              		.loc 1 170 0
 370 0008 FFF7FEFF 		bl	chDbgCheckClassI
 371              	.LVL31:
 372              		.loc 1 171 0
 373 000c 04B1     		cbz	r4, .L38
 374              		.loc 1 171 0 is_stmt 0 discriminator 2
 375 000e 9DB9     		cbnz	r5, .L51
 376              	.L38:
 377              		.loc 1 171 0 discriminator 1
 378 0010 0D48     		ldr	r0, .L53
 379 0012 FFF7FEFF 		bl	chDbgPanic
 380              	.LVL32:
 381              	.L39:
 382              		.loc 1 173 0 is_stmt 1
 383 0016 2378     		ldrb	r3, [r4]	@ zero_extendqisi2
 384 0018 022B     		cmp	r3, #2
 385 001a 02D0     		beq	.L40
 386              		.loc 1 173 0 is_stmt 0 discriminator 1
 387 001c 0B48     		ldr	r0, .L53+4
 388 001e FFF7FEFF 		bl	chDbgPanic
 389              	.LVL33:
 390              	.L40:
 391              		.loc 1 175 0 is_stmt 1
 392 0022 6378     		ldrb	r3, [r4, #1]	@ zero_extendqisi2
 393 0024 012B     		cmp	r3, #1
 394 0026 0AD0     		beq	.L52
 395              	.L41:
ARM GAS  /tmp/ccS3EMNv.s 			page 8


 396              		.loc 1 178 0
 397 0028 2946     		mov	r1, r5
 398 002a 3246     		mov	r2, r6
 399 002c 2046     		mov	r0, r4
 400 002e FFF7FEFF 		bl	uart_lld_start_send
 401              	.LVL34:
 402              		.loc 1 179 0
 403 0032 0123     		movs	r3, #1
 404 0034 6370     		strb	r3, [r4, #1]
 405 0036 70BD     		pop	{r4, r5, r6, pc}
 406              	.LVL35:
 407              	.L51:
 408              		.loc 1 171 0 discriminator 1
 409 0038 002E     		cmp	r6, #0
 410 003a ECD1     		bne	.L39
 411 003c E8E7     		b	.L38
 412              	.L52:
 413              		.loc 1 175 0 discriminator 1
 414 003e 0448     		ldr	r0, .L53+8
 415 0040 FFF7FEFF 		bl	chDbgPanic
 416              	.LVL36:
 417 0044 F0E7     		b	.L41
 418              	.L54:
 419 0046 00BF     		.align	2
 420              	.L53:
 421 0048 7C000000 		.word	.LC7
 422 004c 90000000 		.word	.LC8
 423 0050 A8000000 		.word	.LC9
 424              		.cfi_endproc
 425              	.LFE123:
 426              		.size	uartStartSendI, .-uartStartSendI
 427 0054 AFF30080 		.section	.text.uartStopSend,"ax",%progbits
 427      AFF30080 
 427      AFF30080 
 428              		.align	2
 429              		.p2align 4,,15
 430              		.global	uartStopSend
 431              		.thumb
 432              		.thumb_func
 433              		.type	uartStopSend, %function
 434              	uartStopSend:
 435              	.LFB124:
 436              		.loc 1 194 0
 437              		.cfi_startproc
 438              		@ args = 0, pretend = 0, frame = 0
 439              		@ frame_needed = 0, uses_anonymous_args = 0
 440              	.LVL37:
 441 0000 38B5     		push	{r3, r4, r5, lr}
 442              		.cfi_def_cfa_offset 16
 443              		.cfi_offset 3, -16
 444              		.cfi_offset 4, -12
 445              		.cfi_offset 5, -8
 446              		.cfi_offset 14, -4
 447              		.loc 1 197 0
 448 0002 0446     		mov	r4, r0
 449 0004 E0B1     		cbz	r0, .L63
 450              	.LVL38:
ARM GAS  /tmp/ccS3EMNv.s 			page 9


 451              	.L56:
 452              	.LBB8:
 453              		.loc 1 199 0
 454 0006 2023     		movs	r3, #32
 455              	@ 199 "../../../os/hal/src/uart.c" 1
 456 0008 83F31188 		msr     BASEPRI, r3
 457              	@ 0 "" 2
 458              		.thumb
 459              	.LBE8:
 460 000c FFF7FEFF 		bl	dbg_check_lock
 461              	.LVL39:
 462              		.loc 1 200 0
 463 0010 2378     		ldrb	r3, [r4]	@ zero_extendqisi2
 464 0012 022B     		cmp	r3, #2
 465 0014 02D0     		beq	.L57
 466              		.loc 1 200 0 is_stmt 0 discriminator 1
 467 0016 0C48     		ldr	r0, .L65
 468 0018 FFF7FEFF 		bl	chDbgPanic
 469              	.LVL40:
 470              	.L57:
 471              		.loc 1 202 0 is_stmt 1
 472 001c 6378     		ldrb	r3, [r4, #1]	@ zero_extendqisi2
 473 001e 012B     		cmp	r3, #1
 474 0020 07D0     		beq	.L64
 475              		.loc 1 207 0
 476 0022 0025     		movs	r5, #0
 477              	.L58:
 478              	.LVL41:
 479              		.loc 1 208 0
 480 0024 FFF7FEFF 		bl	dbg_check_unlock
 481              	.LVL42:
 482              	.LBB9:
 483 0028 0023     		movs	r3, #0
 484              	@ 208 "../../../os/hal/src/uart.c" 1
 485 002a 83F31188 		msr     BASEPRI, r3
 486              	@ 0 "" 2
 487              		.thumb
 488              	.LBE9:
 489              		.loc 1 210 0
 490 002e 2846     		mov	r0, r5
 491 0030 38BD     		pop	{r3, r4, r5, pc}
 492              	.LVL43:
 493              	.L64:
 494              		.loc 1 203 0
 495 0032 2046     		mov	r0, r4
 496 0034 FFF7FEFF 		bl	uart_lld_stop_send
 497              	.LVL44:
 498              		.loc 1 204 0
 499 0038 0023     		movs	r3, #0
 500              		.loc 1 203 0
 501 003a 0546     		mov	r5, r0
 502              	.LVL45:
 503              		.loc 1 204 0
 504 003c 6370     		strb	r3, [r4, #1]
 505 003e F1E7     		b	.L58
 506              	.LVL46:
 507              	.L63:
ARM GAS  /tmp/ccS3EMNv.s 			page 10


 508              		.loc 1 197 0 discriminator 1
 509 0040 0248     		ldr	r0, .L65+4
 510              	.LVL47:
 511 0042 FFF7FEFF 		bl	chDbgPanic
 512              	.LVL48:
 513 0046 DEE7     		b	.L56
 514              	.L66:
 515              		.align	2
 516              	.L65:
 517 0048 D4000000 		.word	.LC11
 518 004c C0000000 		.word	.LC10
 519              		.cfi_endproc
 520              	.LFE124:
 521              		.size	uartStopSend, .-uartStopSend
 522              		.section	.text.uartStopSendI,"ax",%progbits
 523              		.align	2
 524              		.p2align 4,,15
 525              		.global	uartStopSendI
 526              		.thumb
 527              		.thumb_func
 528              		.type	uartStopSendI, %function
 529              	uartStopSendI:
 530              	.LFB125:
 531              		.loc 1 225 0
 532              		.cfi_startproc
 533              		@ args = 0, pretend = 0, frame = 0
 534              		@ frame_needed = 0, uses_anonymous_args = 0
 535              	.LVL49:
 536 0000 10B5     		push	{r4, lr}
 537              		.cfi_def_cfa_offset 8
 538              		.cfi_offset 4, -8
 539              		.cfi_offset 14, -4
 540              		.loc 1 225 0
 541 0002 0446     		mov	r4, r0
 542              		.loc 1 227 0
 543 0004 FFF7FEFF 		bl	chDbgCheckClassI
 544              	.LVL50:
 545              		.loc 1 228 0
 546 0008 84B1     		cbz	r4, .L75
 547              	.L68:
 548              		.loc 1 229 0
 549 000a 2378     		ldrb	r3, [r4]	@ zero_extendqisi2
 550 000c 022B     		cmp	r3, #2
 551 000e 02D0     		beq	.L69
 552              		.loc 1 229 0 is_stmt 0 discriminator 1
 553 0010 0848     		ldr	r0, .L77
 554 0012 FFF7FEFF 		bl	chDbgPanic
 555              	.LVL51:
 556              	.L69:
 557              		.loc 1 231 0 is_stmt 1
 558 0016 6378     		ldrb	r3, [r4, #1]	@ zero_extendqisi2
 559 0018 012B     		cmp	r3, #1
 560 001a 01D0     		beq	.L76
 561              		.loc 1 236 0
 562 001c 0020     		movs	r0, #0
 563              		.loc 1 237 0
 564 001e 10BD     		pop	{r4, pc}
ARM GAS  /tmp/ccS3EMNv.s 			page 11


 565              	.LVL52:
 566              	.L76:
 567              	.LBB10:
 568              		.loc 1 232 0
 569 0020 2046     		mov	r0, r4
 570 0022 FFF7FEFF 		bl	uart_lld_stop_send
 571              	.LVL53:
 572              		.loc 1 233 0
 573 0026 0023     		movs	r3, #0
 574 0028 6370     		strb	r3, [r4, #1]
 575              		.loc 1 234 0
 576 002a 10BD     		pop	{r4, pc}
 577              	.LVL54:
 578              	.L75:
 579              	.LBE10:
 580              		.loc 1 228 0 discriminator 1
 581 002c 0248     		ldr	r0, .L77+4
 582 002e FFF7FEFF 		bl	chDbgPanic
 583              	.LVL55:
 584 0032 EAE7     		b	.L68
 585              	.L78:
 586              		.align	2
 587              	.L77:
 588 0034 FC000000 		.word	.LC13
 589 0038 E8000000 		.word	.LC12
 590              		.cfi_endproc
 591              	.LFE125:
 592              		.size	uartStopSendI, .-uartStopSendI
 593 003c AFF30080 		.section	.text.uartStartReceive,"ax",%progbits
 594              		.align	2
 595              		.p2align 4,,15
 596              		.global	uartStartReceive
 597              		.thumb
 598              		.thumb_func
 599              		.type	uartStartReceive, %function
 600              	uartStartReceive:
 601              	.LFB126:
 602              		.loc 1 250 0
 603              		.cfi_startproc
 604              		@ args = 0, pretend = 0, frame = 0
 605              		@ frame_needed = 0, uses_anonymous_args = 0
 606              	.LVL56:
 607 0000 70B5     		push	{r4, r5, r6, lr}
 608              		.cfi_def_cfa_offset 16
 609              		.cfi_offset 4, -16
 610              		.cfi_offset 5, -12
 611              		.cfi_offset 6, -8
 612              		.cfi_offset 14, -4
 613              		.loc 1 252 0
 614 0002 0446     		mov	r4, r0
 615              		.loc 1 250 0
 616 0004 0D46     		mov	r5, r1
 617 0006 1646     		mov	r6, r2
 618              		.loc 1 252 0
 619 0008 00B1     		cbz	r0, .L80
 620              		.loc 1 252 0 is_stmt 0 discriminator 2
 621 000a E9B9     		cbnz	r1, .L93
ARM GAS  /tmp/ccS3EMNv.s 			page 12


 622              	.L80:
 623              		.loc 1 252 0 discriminator 1
 624 000c 1248     		ldr	r0, .L95
 625              	.LVL57:
 626 000e FFF7FEFF 		bl	chDbgPanic
 627              	.LVL58:
 628              	.L81:
 629              	.LBB11:
 630              		.loc 1 255 0 is_stmt 1
 631 0012 2023     		movs	r3, #32
 632              	@ 255 "../../../os/hal/src/uart.c" 1
 633 0014 83F31188 		msr     BASEPRI, r3
 634              	@ 0 "" 2
 635              		.thumb
 636              	.LBE11:
 637 0018 FFF7FEFF 		bl	dbg_check_lock
 638              	.LVL59:
 639              		.loc 1 256 0
 640 001c 2378     		ldrb	r3, [r4]	@ zero_extendqisi2
 641 001e 022B     		cmp	r3, #2
 642 0020 02D0     		beq	.L82
 643              		.loc 1 256 0 is_stmt 0 discriminator 1
 644 0022 0E48     		ldr	r0, .L95+4
 645 0024 FFF7FEFF 		bl	chDbgPanic
 646              	.LVL60:
 647              	.L82:
 648              		.loc 1 258 0 is_stmt 1
 649 0028 A378     		ldrb	r3, [r4, #2]	@ zero_extendqisi2
 650 002a 012B     		cmp	r3, #1
 651 002c 0FD0     		beq	.L94
 652              	.L83:
 653              		.loc 1 261 0
 654 002e 2946     		mov	r1, r5
 655 0030 3246     		mov	r2, r6
 656 0032 2046     		mov	r0, r4
 657 0034 FFF7FEFF 		bl	uart_lld_start_receive
 658              	.LVL61:
 659              		.loc 1 262 0
 660 0038 0123     		movs	r3, #1
 661 003a A370     		strb	r3, [r4, #2]
 662              		.loc 1 263 0
 663 003c FFF7FEFF 		bl	dbg_check_unlock
 664              	.LVL62:
 665              	.LBB12:
 666 0040 0023     		movs	r3, #0
 667              	@ 263 "../../../os/hal/src/uart.c" 1
 668 0042 83F31188 		msr     BASEPRI, r3
 669              	@ 0 "" 2
 670              		.thumb
 671 0046 70BD     		pop	{r4, r5, r6, pc}
 672              	.LVL63:
 673              	.L93:
 674              	.LBE12:
 675              		.loc 1 252 0 discriminator 1
 676 0048 002A     		cmp	r2, #0
 677 004a E2D1     		bne	.L81
 678 004c DEE7     		b	.L80
ARM GAS  /tmp/ccS3EMNv.s 			page 13


 679              	.LVL64:
 680              	.L94:
 681              		.loc 1 258 0 discriminator 1
 682 004e 0448     		ldr	r0, .L95+8
 683 0050 FFF7FEFF 		bl	chDbgPanic
 684              	.LVL65:
 685 0054 EBE7     		b	.L83
 686              	.L96:
 687 0056 00BF     		.align	2
 688              	.L95:
 689 0058 10010000 		.word	.LC14
 690 005c 28010000 		.word	.LC15
 691 0060 40010000 		.word	.LC16
 692              		.cfi_endproc
 693              	.LFE126:
 694              		.size	uartStartReceive, .-uartStartReceive
 695 0064 AFF30080 		.section	.text.uartStartReceiveI,"ax",%progbits
 695      AFF30080 
 695      AFF30080 
 696              		.align	2
 697              		.p2align 4,,15
 698              		.global	uartStartReceiveI
 699              		.thumb
 700              		.thumb_func
 701              		.type	uartStartReceiveI, %function
 702              	uartStartReceiveI:
 703              	.LFB127:
 704              		.loc 1 278 0
 705              		.cfi_startproc
 706              		@ args = 0, pretend = 0, frame = 0
 707              		@ frame_needed = 0, uses_anonymous_args = 0
 708              	.LVL66:
 709 0000 70B5     		push	{r4, r5, r6, lr}
 710              		.cfi_def_cfa_offset 16
 711              		.cfi_offset 4, -16
 712              		.cfi_offset 5, -12
 713              		.cfi_offset 6, -8
 714              		.cfi_offset 14, -4
 715              		.loc 1 278 0
 716 0002 0446     		mov	r4, r0
 717 0004 0D46     		mov	r5, r1
 718 0006 1646     		mov	r6, r2
 719              		.loc 1 280 0
 720 0008 FFF7FEFF 		bl	chDbgCheckClassI
 721              	.LVL67:
 722              		.loc 1 281 0
 723 000c 04B1     		cbz	r4, .L98
 724              		.loc 1 281 0 is_stmt 0 discriminator 2
 725 000e 9DB9     		cbnz	r5, .L111
 726              	.L98:
 727              		.loc 1 281 0 discriminator 1
 728 0010 0D48     		ldr	r0, .L113
 729 0012 FFF7FEFF 		bl	chDbgPanic
 730              	.LVL68:
 731              	.L99:
 732              		.loc 1 283 0 is_stmt 1
 733 0016 2378     		ldrb	r3, [r4]	@ zero_extendqisi2
ARM GAS  /tmp/ccS3EMNv.s 			page 14


 734 0018 022B     		cmp	r3, #2
 735 001a 02D0     		beq	.L100
 736              		.loc 1 283 0 is_stmt 0 discriminator 1
 737 001c 0B48     		ldr	r0, .L113+4
 738 001e FFF7FEFF 		bl	chDbgPanic
 739              	.LVL69:
 740              	.L100:
 741              		.loc 1 285 0 is_stmt 1
 742 0022 A378     		ldrb	r3, [r4, #2]	@ zero_extendqisi2
 743 0024 012B     		cmp	r3, #1
 744 0026 0AD0     		beq	.L112
 745              	.L101:
 746              		.loc 1 288 0
 747 0028 2946     		mov	r1, r5
 748 002a 3246     		mov	r2, r6
 749 002c 2046     		mov	r0, r4
 750 002e FFF7FEFF 		bl	uart_lld_start_receive
 751              	.LVL70:
 752              		.loc 1 289 0
 753 0032 0123     		movs	r3, #1
 754 0034 A370     		strb	r3, [r4, #2]
 755 0036 70BD     		pop	{r4, r5, r6, pc}
 756              	.LVL71:
 757              	.L111:
 758              		.loc 1 281 0 discriminator 1
 759 0038 002E     		cmp	r6, #0
 760 003a ECD1     		bne	.L99
 761 003c E8E7     		b	.L98
 762              	.L112:
 763              		.loc 1 285 0 discriminator 1
 764 003e 0448     		ldr	r0, .L113+8
 765 0040 FFF7FEFF 		bl	chDbgPanic
 766              	.LVL72:
 767 0044 F0E7     		b	.L101
 768              	.L114:
 769 0046 00BF     		.align	2
 770              	.L113:
 771 0048 58010000 		.word	.LC17
 772 004c 70010000 		.word	.LC18
 773 0050 88010000 		.word	.LC19
 774              		.cfi_endproc
 775              	.LFE127:
 776              		.size	uartStartReceiveI, .-uartStartReceiveI
 777 0054 AFF30080 		.section	.text.uartStopReceive,"ax",%progbits
 777      AFF30080 
 777      AFF30080 
 778              		.align	2
 779              		.p2align 4,,15
 780              		.global	uartStopReceive
 781              		.thumb
 782              		.thumb_func
 783              		.type	uartStopReceive, %function
 784              	uartStopReceive:
 785              	.LFB128:
 786              		.loc 1 304 0
 787              		.cfi_startproc
 788              		@ args = 0, pretend = 0, frame = 0
ARM GAS  /tmp/ccS3EMNv.s 			page 15


 789              		@ frame_needed = 0, uses_anonymous_args = 0
 790              	.LVL73:
 791 0000 38B5     		push	{r3, r4, r5, lr}
 792              		.cfi_def_cfa_offset 16
 793              		.cfi_offset 3, -16
 794              		.cfi_offset 4, -12
 795              		.cfi_offset 5, -8
 796              		.cfi_offset 14, -4
 797              		.loc 1 307 0
 798 0002 0446     		mov	r4, r0
 799 0004 E0B1     		cbz	r0, .L123
 800              	.LVL74:
 801              	.L116:
 802              	.LBB13:
 803              		.loc 1 309 0
 804 0006 2023     		movs	r3, #32
 805              	@ 309 "../../../os/hal/src/uart.c" 1
 806 0008 83F31188 		msr     BASEPRI, r3
 807              	@ 0 "" 2
 808              		.thumb
 809              	.LBE13:
 810 000c FFF7FEFF 		bl	dbg_check_lock
 811              	.LVL75:
 812              		.loc 1 310 0
 813 0010 2378     		ldrb	r3, [r4]	@ zero_extendqisi2
 814 0012 022B     		cmp	r3, #2
 815 0014 02D0     		beq	.L117
 816              		.loc 1 310 0 is_stmt 0 discriminator 1
 817 0016 0C48     		ldr	r0, .L125
 818 0018 FFF7FEFF 		bl	chDbgPanic
 819              	.LVL76:
 820              	.L117:
 821              		.loc 1 313 0 is_stmt 1
 822 001c A378     		ldrb	r3, [r4, #2]	@ zero_extendqisi2
 823 001e 012B     		cmp	r3, #1
 824 0020 07D0     		beq	.L124
 825              		.loc 1 318 0
 826 0022 0025     		movs	r5, #0
 827              	.L118:
 828              	.LVL77:
 829              		.loc 1 319 0
 830 0024 FFF7FEFF 		bl	dbg_check_unlock
 831              	.LVL78:
 832              	.LBB14:
 833 0028 0023     		movs	r3, #0
 834              	@ 319 "../../../os/hal/src/uart.c" 1
 835 002a 83F31188 		msr     BASEPRI, r3
 836              	@ 0 "" 2
 837              		.thumb
 838              	.LBE14:
 839              		.loc 1 321 0
 840 002e 2846     		mov	r0, r5
 841 0030 38BD     		pop	{r3, r4, r5, pc}
 842              	.LVL79:
 843              	.L124:
 844              		.loc 1 314 0
 845 0032 2046     		mov	r0, r4
ARM GAS  /tmp/ccS3EMNv.s 			page 16


 846 0034 FFF7FEFF 		bl	uart_lld_stop_receive
 847              	.LVL80:
 848              		.loc 1 315 0
 849 0038 0023     		movs	r3, #0
 850              		.loc 1 314 0
 851 003a 0546     		mov	r5, r0
 852              	.LVL81:
 853              		.loc 1 315 0
 854 003c A370     		strb	r3, [r4, #2]
 855 003e F1E7     		b	.L118
 856              	.LVL82:
 857              	.L123:
 858              		.loc 1 307 0 discriminator 1
 859 0040 0248     		ldr	r0, .L125+4
 860              	.LVL83:
 861 0042 FFF7FEFF 		bl	chDbgPanic
 862              	.LVL84:
 863 0046 DEE7     		b	.L116
 864              	.L126:
 865              		.align	2
 866              	.L125:
 867 0048 B4010000 		.word	.LC21
 868 004c A0010000 		.word	.LC20
 869              		.cfi_endproc
 870              	.LFE128:
 871              		.size	uartStopReceive, .-uartStopReceive
 872              		.section	.text.uartStopReceiveI,"ax",%progbits
 873              		.align	2
 874              		.p2align 4,,15
 875              		.global	uartStopReceiveI
 876              		.thumb
 877              		.thumb_func
 878              		.type	uartStopReceiveI, %function
 879              	uartStopReceiveI:
 880              	.LFB129:
 881              		.loc 1 336 0
 882              		.cfi_startproc
 883              		@ args = 0, pretend = 0, frame = 0
 884              		@ frame_needed = 0, uses_anonymous_args = 0
 885              	.LVL85:
 886 0000 10B5     		push	{r4, lr}
 887              		.cfi_def_cfa_offset 8
 888              		.cfi_offset 4, -8
 889              		.cfi_offset 14, -4
 890              		.loc 1 336 0
 891 0002 0446     		mov	r4, r0
 892              		.loc 1 338 0
 893 0004 FFF7FEFF 		bl	chDbgCheckClassI
 894              	.LVL86:
 895              		.loc 1 339 0
 896 0008 84B1     		cbz	r4, .L135
 897              	.L128:
 898              		.loc 1 340 0
 899 000a 2378     		ldrb	r3, [r4]	@ zero_extendqisi2
 900 000c 022B     		cmp	r3, #2
 901 000e 02D0     		beq	.L129
 902              		.loc 1 340 0 is_stmt 0 discriminator 1
ARM GAS  /tmp/ccS3EMNv.s 			page 17


 903 0010 0848     		ldr	r0, .L137
 904 0012 FFF7FEFF 		bl	chDbgPanic
 905              	.LVL87:
 906              	.L129:
 907              		.loc 1 343 0 is_stmt 1
 908 0016 A378     		ldrb	r3, [r4, #2]	@ zero_extendqisi2
 909 0018 012B     		cmp	r3, #1
 910 001a 01D0     		beq	.L136
 911              		.loc 1 348 0
 912 001c 0020     		movs	r0, #0
 913              		.loc 1 349 0
 914 001e 10BD     		pop	{r4, pc}
 915              	.LVL88:
 916              	.L136:
 917              	.LBB15:
 918              		.loc 1 344 0
 919 0020 2046     		mov	r0, r4
 920 0022 FFF7FEFF 		bl	uart_lld_stop_receive
 921              	.LVL89:
 922              		.loc 1 345 0
 923 0026 0023     		movs	r3, #0
 924 0028 A370     		strb	r3, [r4, #2]
 925              		.loc 1 346 0
 926 002a 10BD     		pop	{r4, pc}
 927              	.LVL90:
 928              	.L135:
 929              	.LBE15:
 930              		.loc 1 339 0 discriminator 1
 931 002c 0248     		ldr	r0, .L137+4
 932 002e FFF7FEFF 		bl	chDbgPanic
 933              	.LVL91:
 934 0032 EAE7     		b	.L128
 935              	.L138:
 936              		.align	2
 937              	.L137:
 938 0034 E4010000 		.word	.LC23
 939 0038 CC010000 		.word	.LC22
 940              		.cfi_endproc
 941              	.LFE129:
 942              		.size	uartStopReceiveI, .-uartStopReceiveI
 943 003c AFF30080 		.section	.rodata.str1.4,"aMS",%progbits,1
 944              		.align	2
 945              	.LC0:
 946 0000 22756172 		.ascii	"\"uartStart\"()\000"
 946      74537461 
 946      72742228 
 946      2900
 947 000e 0000     		.space	2
 948              	.LC1:
 949 0010 75617274 		.ascii	"uartStart(), #1\000"
 949      53746172 
 949      7428292C 
 949      20233100 
 950              	.LC2:
 951 0020 22756172 		.ascii	"\"uartStop\"()\000"
 951      7453746F 
 951      70222829 
ARM GAS  /tmp/ccS3EMNv.s 			page 18


 951      00
 952 002d 000000   		.space	3
 953              	.LC3:
 954 0030 75617274 		.ascii	"uartStop(), #1\000"
 954      53746F70 
 954      28292C20 
 954      233100
 955 003f 00       		.space	1
 956              	.LC4:
 957 0040 22756172 		.ascii	"\"uartStartSend\"()\000"
 957      74537461 
 957      72745365 
 957      6E642228 
 957      2900
 958 0052 0000     		.space	2
 959              	.LC5:
 960 0054 75617274 		.ascii	"uartStartSend(), #1\000"
 960      53746172 
 960      7453656E 
 960      6428292C 
 960      20233100 
 961              	.LC6:
 962 0068 75617274 		.ascii	"uartStartSend(), #2\000"
 962      53746172 
 962      7453656E 
 962      6428292C 
 962      20233200 
 963              	.LC7:
 964 007c 22756172 		.ascii	"\"uartStartSendI\"()\000"
 964      74537461 
 964      72745365 
 964      6E644922 
 964      282900
 965 008f 00       		.space	1
 966              	.LC8:
 967 0090 75617274 		.ascii	"uartStartSendI(), #1\000"
 967      53746172 
 967      7453656E 
 967      64492829 
 967      2C202331 
 968 00a5 000000   		.space	3
 969              	.LC9:
 970 00a8 75617274 		.ascii	"uartStartSendI(), #2\000"
 970      53746172 
 970      7453656E 
 970      64492829 
 970      2C202332 
 971 00bd 000000   		.space	3
 972              	.LC10:
 973 00c0 22756172 		.ascii	"\"uartStopSend\"()\000"
 973      7453746F 
 973      7053656E 
 973      64222829 
 973      00
 974 00d1 000000   		.space	3
 975              	.LC11:
 976 00d4 75617274 		.ascii	"uartStopSend(), #1\000"
ARM GAS  /tmp/ccS3EMNv.s 			page 19


 976      53746F70 
 976      53656E64 
 976      28292C20 
 976      233100
 977 00e7 00       		.space	1
 978              	.LC12:
 979 00e8 22756172 		.ascii	"\"uartStopSendI\"()\000"
 979      7453746F 
 979      7053656E 
 979      64492228 
 979      2900
 980 00fa 0000     		.space	2
 981              	.LC13:
 982 00fc 75617274 		.ascii	"uartStopSendI(), #1\000"
 982      53746F70 
 982      53656E64 
 982      4928292C 
 982      20233100 
 983              	.LC14:
 984 0110 22756172 		.ascii	"\"uartStartReceive\"()\000"
 984      74537461 
 984      72745265 
 984      63656976 
 984      65222829 
 985 0125 000000   		.space	3
 986              	.LC15:
 987 0128 75617274 		.ascii	"uartStartReceive(), #1\000"
 987      53746172 
 987      74526563 
 987      65697665 
 987      28292C20 
 988 013f 00       		.space	1
 989              	.LC16:
 990 0140 75617274 		.ascii	"uartStartReceive(), #2\000"
 990      53746172 
 990      74526563 
 990      65697665 
 990      28292C20 
 991 0157 00       		.space	1
 992              	.LC17:
 993 0158 22756172 		.ascii	"\"uartStartReceiveI\"()\000"
 993      74537461 
 993      72745265 
 993      63656976 
 993      65492228 
 994 016e 0000     		.space	2
 995              	.LC18:
 996 0170 75617274 		.ascii	"uartStartReceiveI(), #1\000"
 996      53746172 
 996      74526563 
 996      65697665 
 996      4928292C 
 997              	.LC19:
 998 0188 75617274 		.ascii	"uartStartReceiveI(), #2\000"
 998      53746172 
 998      74526563 
 998      65697665 
ARM GAS  /tmp/ccS3EMNv.s 			page 20


 998      4928292C 
 999              	.LC20:
 1000 01a0 22756172 		.ascii	"\"uartStopReceive\"()\000"
 1000      7453746F 
 1000      70526563 
 1000      65697665 
 1000      22282900 
 1001              	.LC21:
 1002 01b4 75617274 		.ascii	"uartStopReceive(), #1\000"
 1002      53746F70 
 1002      52656365 
 1002      69766528 
 1002      292C2023 
 1003 01ca 0000     		.space	2
 1004              	.LC22:
 1005 01cc 22756172 		.ascii	"\"uartStopReceiveI\"()\000"
 1005      7453746F 
 1005      70526563 
 1005      65697665 
 1005      49222829 
 1006 01e1 000000   		.space	3
 1007              	.LC23:
 1008 01e4 75617274 		.ascii	"uartStopReceiveI(), #1\000"
 1008      53746F70 
 1008      52656365 
 1008      69766549 
 1008      28292C20 
 1009 01fb 00       		.text
 1010              	.Letext0:
 1011              		.file 2 "/usr/lib/gcc/arm-none-eabi/4.8.3/include/stddef.h"
 1012              		.file 3 "/usr/arm-none-eabi/include/stdint.h"
 1013              		.file 4 "../../../os/hal/platforms/STM32F30x/stm32f30x.h"
 1014              		.file 5 "../../../os/hal/platforms/STM32F30x/stm32_dma.h"
 1015              		.file 6 "../../../os/hal/include/uart.h"
 1016              		.file 7 "../../../os/hal/platforms/STM32/USARTv2/uart_lld.h"
 1017              		.file 8 "../../../os/kernel/include/chdebug.h"
 1018              		.file 9 "../../../os/ports/common/ARMCMx/CMSIS/include/core_cm4.h"
 1019              		.section	.debug_info,"",%progbits
 1020              	.Ldebug_info0:
 1021 0000 A00C0000 		.4byte	0xca0
 1022 0004 0400     		.2byte	0x4
 1023 0006 00000000 		.4byte	.Ldebug_abbrev0
 1024 000a 04       		.byte	0x4
 1025 000b 01       		.uleb128 0x1
 1026 000c 3A030000 		.4byte	.LASF92
 1027 0010 01       		.byte	0x1
 1028 0011 D1040000 		.4byte	.LASF93
 1029 0015 94040000 		.4byte	.LASF94
 1030 0019 00000000 		.4byte	.Ldebug_ranges0+0
 1031 001d 00000000 		.4byte	0
 1032 0021 00000000 		.4byte	.Ldebug_line0
 1033 0025 02       		.uleb128 0x2
 1034 0026 04       		.byte	0x4
 1035 0027 05       		.byte	0x5
 1036 0028 696E7400 		.ascii	"int\000"
 1037 002c 03       		.uleb128 0x3
 1038 002d 5D000000 		.4byte	.LASF2
ARM GAS  /tmp/ccS3EMNv.s 			page 21


 1039 0031 02       		.byte	0x2
 1040 0032 D4       		.byte	0xd4
 1041 0033 37000000 		.4byte	0x37
 1042 0037 04       		.uleb128 0x4
 1043 0038 04       		.byte	0x4
 1044 0039 07       		.byte	0x7
 1045 003a 71020000 		.4byte	.LASF0
 1046 003e 04       		.uleb128 0x4
 1047 003f 01       		.byte	0x1
 1048 0040 06       		.byte	0x6
 1049 0041 2F010000 		.4byte	.LASF1
 1050 0045 03       		.uleb128 0x3
 1051 0046 07010000 		.4byte	.LASF3
 1052 004a 03       		.byte	0x3
 1053 004b 2A       		.byte	0x2a
 1054 004c 50000000 		.4byte	0x50
 1055 0050 04       		.uleb128 0x4
 1056 0051 01       		.byte	0x1
 1057 0052 08       		.byte	0x8
 1058 0053 FA010000 		.4byte	.LASF4
 1059 0057 04       		.uleb128 0x4
 1060 0058 02       		.byte	0x2
 1061 0059 05       		.byte	0x5
 1062 005a C4000000 		.4byte	.LASF5
 1063 005e 03       		.uleb128 0x3
 1064 005f 7E020000 		.4byte	.LASF6
 1065 0063 03       		.byte	0x3
 1066 0064 36       		.byte	0x36
 1067 0065 69000000 		.4byte	0x69
 1068 0069 04       		.uleb128 0x4
 1069 006a 02       		.byte	0x2
 1070 006b 07       		.byte	0x7
 1071 006c C9020000 		.4byte	.LASF7
 1072 0070 03       		.uleb128 0x3
 1073 0071 06030000 		.4byte	.LASF8
 1074 0075 03       		.byte	0x3
 1075 0076 4F       		.byte	0x4f
 1076 0077 7B000000 		.4byte	0x7b
 1077 007b 04       		.uleb128 0x4
 1078 007c 04       		.byte	0x4
 1079 007d 05       		.byte	0x5
 1080 007e 8A010000 		.4byte	.LASF9
 1081 0082 03       		.uleb128 0x3
 1082 0083 5E020000 		.4byte	.LASF10
 1083 0087 03       		.byte	0x3
 1084 0088 50       		.byte	0x50
 1085 0089 8D000000 		.4byte	0x8d
 1086 008d 04       		.uleb128 0x4
 1087 008e 04       		.byte	0x4
 1088 008f 07       		.byte	0x7
 1089 0090 28040000 		.4byte	.LASF11
 1090 0094 04       		.uleb128 0x4
 1091 0095 08       		.byte	0x8
 1092 0096 05       		.byte	0x5
 1093 0097 4F050000 		.4byte	.LASF12
 1094 009b 04       		.uleb128 0x4
 1095 009c 08       		.byte	0x8
ARM GAS  /tmp/ccS3EMNv.s 			page 22


 1096 009d 07       		.byte	0x7
 1097 009e 3F020000 		.4byte	.LASF13
 1098 00a2 04       		.uleb128 0x4
 1099 00a3 01       		.byte	0x1
 1100 00a4 02       		.byte	0x2
 1101 00a5 0E030000 		.4byte	.LASF14
 1102 00a9 05       		.uleb128 0x5
 1103 00aa 04       		.byte	0x4
 1104 00ab 06       		.uleb128 0x6
 1105 00ac 82000000 		.4byte	0x82
 1106 00b0 04       		.uleb128 0x4
 1107 00b1 04       		.byte	0x4
 1108 00b2 07       		.byte	0x7
 1109 00b3 6D000000 		.4byte	.LASF15
 1110 00b7 07       		.uleb128 0x7
 1111 00b8 04       		.byte	0x4
 1112 00b9 BD000000 		.4byte	0xbd
 1113 00bd 08       		.uleb128 0x8
 1114 00be C2000000 		.4byte	0xc2
 1115 00c2 04       		.uleb128 0x4
 1116 00c3 01       		.byte	0x1
 1117 00c4 08       		.byte	0x8
 1118 00c5 01030000 		.4byte	.LASF16
 1119 00c9 06       		.uleb128 0x6
 1120 00ca 5E000000 		.4byte	0x5e
 1121 00ce 06       		.uleb128 0x6
 1122 00cf 70000000 		.4byte	0x70
 1123 00d3 09       		.uleb128 0x9
 1124 00d4 10       		.byte	0x10
 1125 00d5 04       		.byte	0x4
 1126 00d6 E501     		.2byte	0x1e5
 1127 00d8 11010000 		.4byte	0x111
 1128 00dc 0A       		.uleb128 0xa
 1129 00dd 43435200 		.ascii	"CCR\000"
 1130 00e1 04       		.byte	0x4
 1131 00e2 E701     		.2byte	0x1e7
 1132 00e4 AB000000 		.4byte	0xab
 1133 00e8 00       		.byte	0
 1134 00e9 0B       		.uleb128 0xb
 1135 00ea FB020000 		.4byte	.LASF17
 1136 00ee 04       		.byte	0x4
 1137 00ef E801     		.2byte	0x1e8
 1138 00f1 AB000000 		.4byte	0xab
 1139 00f5 04       		.byte	0x4
 1140 00f6 0B       		.uleb128 0xb
 1141 00f7 D4010000 		.4byte	.LASF18
 1142 00fb 04       		.byte	0x4
 1143 00fc E901     		.2byte	0x1e9
 1144 00fe AB000000 		.4byte	0xab
 1145 0102 08       		.byte	0x8
 1146 0103 0B       		.uleb128 0xb
 1147 0104 51040000 		.4byte	.LASF19
 1148 0108 04       		.byte	0x4
 1149 0109 EA01     		.2byte	0x1ea
 1150 010b AB000000 		.4byte	0xab
 1151 010f 0C       		.byte	0xc
 1152 0110 00       		.byte	0
ARM GAS  /tmp/ccS3EMNv.s 			page 23


 1153 0111 0C       		.uleb128 0xc
 1154 0112 E1020000 		.4byte	.LASF20
 1155 0116 04       		.byte	0x4
 1156 0117 EB01     		.2byte	0x1eb
 1157 0119 D3000000 		.4byte	0xd3
 1158 011d 09       		.uleb128 0x9
 1159 011e 2C       		.byte	0x2c
 1160 011f 04       		.byte	0x4
 1161 0120 1B03     		.2byte	0x31b
 1162 0122 F7010000 		.4byte	0x1f7
 1163 0126 0A       		.uleb128 0xa
 1164 0127 43523100 		.ascii	"CR1\000"
 1165 012b 04       		.byte	0x4
 1166 012c 1D03     		.2byte	0x31d
 1167 012e AB000000 		.4byte	0xab
 1168 0132 00       		.byte	0
 1169 0133 0A       		.uleb128 0xa
 1170 0134 43523200 		.ascii	"CR2\000"
 1171 0138 04       		.byte	0x4
 1172 0139 1E03     		.2byte	0x31e
 1173 013b AB000000 		.4byte	0xab
 1174 013f 04       		.byte	0x4
 1175 0140 0A       		.uleb128 0xa
 1176 0141 43523300 		.ascii	"CR3\000"
 1177 0145 04       		.byte	0x4
 1178 0146 1F03     		.2byte	0x31f
 1179 0148 AB000000 		.4byte	0xab
 1180 014c 08       		.byte	0x8
 1181 014d 0A       		.uleb128 0xa
 1182 014e 42525200 		.ascii	"BRR\000"
 1183 0152 04       		.byte	0x4
 1184 0153 2003     		.2byte	0x320
 1185 0155 C9000000 		.4byte	0xc9
 1186 0159 0C       		.byte	0xc
 1187 015a 0B       		.uleb128 0xb
 1188 015b 26030000 		.4byte	.LASF21
 1189 015f 04       		.byte	0x4
 1190 0160 2103     		.2byte	0x321
 1191 0162 5E000000 		.4byte	0x5e
 1192 0166 0E       		.byte	0xe
 1193 0167 0B       		.uleb128 0xb
 1194 0168 D9010000 		.4byte	.LASF22
 1195 016c 04       		.byte	0x4
 1196 016d 2203     		.2byte	0x322
 1197 016f C9000000 		.4byte	0xc9
 1198 0173 10       		.byte	0x10
 1199 0174 0B       		.uleb128 0xb
 1200 0175 30030000 		.4byte	.LASF23
 1201 0179 04       		.byte	0x4
 1202 017a 2303     		.2byte	0x323
 1203 017c 5E000000 		.4byte	0x5e
 1204 0180 12       		.byte	0x12
 1205 0181 0B       		.uleb128 0xb
 1206 0182 DC020000 		.4byte	.LASF24
 1207 0186 04       		.byte	0x4
 1208 0187 2403     		.2byte	0x324
 1209 0189 AB000000 		.4byte	0xab
ARM GAS  /tmp/ccS3EMNv.s 			page 24


 1210 018d 14       		.byte	0x14
 1211 018e 0A       		.uleb128 0xa
 1212 018f 52515200 		.ascii	"RQR\000"
 1213 0193 04       		.byte	0x4
 1214 0194 2503     		.2byte	0x325
 1215 0196 C9000000 		.4byte	0xc9
 1216 019a 18       		.byte	0x18
 1217 019b 0B       		.uleb128 0xb
 1218 019c 1C030000 		.4byte	.LASF25
 1219 01a0 04       		.byte	0x4
 1220 01a1 2603     		.2byte	0x326
 1221 01a3 5E000000 		.4byte	0x5e
 1222 01a7 1A       		.byte	0x1a
 1223 01a8 0A       		.uleb128 0xa
 1224 01a9 49535200 		.ascii	"ISR\000"
 1225 01ad 04       		.byte	0x4
 1226 01ae 2703     		.2byte	0x327
 1227 01b0 AB000000 		.4byte	0xab
 1228 01b4 1C       		.byte	0x1c
 1229 01b5 0A       		.uleb128 0xa
 1230 01b6 49435200 		.ascii	"ICR\000"
 1231 01ba 04       		.byte	0x4
 1232 01bb 2803     		.2byte	0x328
 1233 01bd AB000000 		.4byte	0xab
 1234 01c1 20       		.byte	0x20
 1235 01c2 0A       		.uleb128 0xa
 1236 01c3 52445200 		.ascii	"RDR\000"
 1237 01c7 04       		.byte	0x4
 1238 01c8 2903     		.2byte	0x329
 1239 01ca C9000000 		.4byte	0xc9
 1240 01ce 24       		.byte	0x24
 1241 01cf 0B       		.uleb128 0xb
 1242 01d0 14040000 		.4byte	.LASF26
 1243 01d4 04       		.byte	0x4
 1244 01d5 2A03     		.2byte	0x32a
 1245 01d7 5E000000 		.4byte	0x5e
 1246 01db 26       		.byte	0x26
 1247 01dc 0A       		.uleb128 0xa
 1248 01dd 54445200 		.ascii	"TDR\000"
 1249 01e1 04       		.byte	0x4
 1250 01e2 2B03     		.2byte	0x32b
 1251 01e4 C9000000 		.4byte	0xc9
 1252 01e8 28       		.byte	0x28
 1253 01e9 0B       		.uleb128 0xb
 1254 01ea 1E040000 		.4byte	.LASF27
 1255 01ee 04       		.byte	0x4
 1256 01ef 2C03     		.2byte	0x32c
 1257 01f1 5E000000 		.4byte	0x5e
 1258 01f5 2A       		.byte	0x2a
 1259 01f6 00       		.byte	0
 1260 01f7 0C       		.uleb128 0xc
 1261 01f8 B6000000 		.4byte	.LASF28
 1262 01fc 04       		.byte	0x4
 1263 01fd 2D03     		.2byte	0x32d
 1264 01ff 1D010000 		.4byte	0x11d
 1265 0203 0D       		.uleb128 0xd
 1266 0204 0C       		.byte	0xc
ARM GAS  /tmp/ccS3EMNv.s 			page 25


 1267 0205 05       		.byte	0x5
 1268 0206 C1       		.byte	0xc1
 1269 0207 48020000 		.4byte	0x248
 1270 020b 0E       		.uleb128 0xe
 1271 020c 14030000 		.4byte	.LASF29
 1272 0210 05       		.byte	0x5
 1273 0211 C2       		.byte	0xc2
 1274 0212 48020000 		.4byte	0x248
 1275 0216 00       		.byte	0
 1276 0217 0E       		.uleb128 0xe
 1277 0218 3C050000 		.4byte	.LASF30
 1278 021c 05       		.byte	0x5
 1279 021d C3       		.byte	0xc3
 1280 021e 4E020000 		.4byte	0x24e
 1281 0222 04       		.byte	0x4
 1282 0223 0E       		.uleb128 0xe
 1283 0224 0D050000 		.4byte	.LASF31
 1284 0228 05       		.byte	0x5
 1285 0229 C4       		.byte	0xc4
 1286 022a 45000000 		.4byte	0x45
 1287 022e 08       		.byte	0x8
 1288 022f 0E       		.uleb128 0xe
 1289 0230 67020000 		.4byte	.LASF32
 1290 0234 05       		.byte	0x5
 1291 0235 C6       		.byte	0xc6
 1292 0236 45000000 		.4byte	0x45
 1293 023a 09       		.byte	0x9
 1294 023b 0E       		.uleb128 0xe
 1295 023c 0F010000 		.4byte	.LASF33
 1296 0240 05       		.byte	0x5
 1297 0241 C7       		.byte	0xc7
 1298 0242 45000000 		.4byte	0x45
 1299 0246 0A       		.byte	0xa
 1300 0247 00       		.byte	0
 1301 0248 07       		.uleb128 0x7
 1302 0249 04       		.byte	0x4
 1303 024a 11010000 		.4byte	0x111
 1304 024e 07       		.uleb128 0x7
 1305 024f 04       		.byte	0x4
 1306 0250 AB000000 		.4byte	0xab
 1307 0254 03       		.uleb128 0x3
 1308 0255 E3000000 		.4byte	.LASF34
 1309 0259 05       		.byte	0x5
 1310 025a C8       		.byte	0xc8
 1311 025b 03020000 		.4byte	0x203
 1312 025f 0F       		.uleb128 0xf
 1313 0260 01       		.byte	0x1
 1314 0261 06       		.byte	0x6
 1315 0262 41       		.byte	0x41
 1316 0263 7A020000 		.4byte	0x27a
 1317 0267 10       		.uleb128 0x10
 1318 0268 C5040000 		.4byte	.LASF35
 1319 026c 00       		.sleb128 0
 1320 026d 10       		.uleb128 0x10
 1321 026e 21050000 		.4byte	.LASF36
 1322 0272 01       		.sleb128 1
 1323 0273 10       		.uleb128 0x10
ARM GAS  /tmp/ccS3EMNv.s 			page 26


 1324 0274 56040000 		.4byte	.LASF37
 1325 0278 02       		.sleb128 2
 1326 0279 00       		.byte	0
 1327 027a 03       		.uleb128 0x3
 1328 027b BD020000 		.4byte	.LASF38
 1329 027f 06       		.byte	0x6
 1330 0280 45       		.byte	0x45
 1331 0281 5F020000 		.4byte	0x25f
 1332 0285 0F       		.uleb128 0xf
 1333 0286 01       		.byte	0x1
 1334 0287 06       		.byte	0x6
 1335 0288 4A       		.byte	0x4a
 1336 0289 A0020000 		.4byte	0x2a0
 1337 028d 10       		.uleb128 0x10
 1338 028e 4A010000 		.4byte	.LASF39
 1339 0292 00       		.sleb128 0
 1340 0293 10       		.uleb128 0x10
 1341 0294 57010000 		.4byte	.LASF40
 1342 0298 01       		.sleb128 1
 1343 0299 10       		.uleb128 0x10
 1344 029a 00000000 		.4byte	.LASF41
 1345 029e 02       		.sleb128 2
 1346 029f 00       		.byte	0
 1347 02a0 03       		.uleb128 0x3
 1348 02a1 DE010000 		.4byte	.LASF42
 1349 02a5 06       		.byte	0x6
 1350 02a6 4E       		.byte	0x4e
 1351 02a7 85020000 		.4byte	0x285
 1352 02ab 0F       		.uleb128 0xf
 1353 02ac 01       		.byte	0x1
 1354 02ad 06       		.byte	0x6
 1355 02ae 53       		.byte	0x53
 1356 02af C6020000 		.4byte	0x2c6
 1357 02b3 10       		.uleb128 0x10
 1358 02b4 6A040000 		.4byte	.LASF43
 1359 02b8 00       		.sleb128 0
 1360 02b9 10       		.uleb128 0x10
 1361 02ba 16010000 		.4byte	.LASF44
 1362 02be 01       		.sleb128 1
 1363 02bf 10       		.uleb128 0x10
 1364 02c0 97020000 		.4byte	.LASF45
 1365 02c4 02       		.sleb128 2
 1366 02c5 00       		.byte	0
 1367 02c6 03       		.uleb128 0x3
 1368 02c7 9C010000 		.4byte	.LASF46
 1369 02cb 06       		.byte	0x6
 1370 02cc 57       		.byte	0x57
 1371 02cd AB020000 		.4byte	0x2ab
 1372 02d1 0C       		.uleb128 0xc
 1373 02d2 A8020000 		.4byte	.LASF47
 1374 02d6 07       		.byte	0x7
 1375 02d7 2C01     		.2byte	0x12c
 1376 02d9 82000000 		.4byte	0x82
 1377 02dd 0C       		.uleb128 0xc
 1378 02de 31050000 		.4byte	.LASF48
 1379 02e2 07       		.byte	0x7
 1380 02e3 3101     		.2byte	0x131
ARM GAS  /tmp/ccS3EMNv.s 			page 27


 1381 02e5 E9020000 		.4byte	0x2e9
 1382 02e9 11       		.uleb128 0x11
 1383 02ea 31050000 		.4byte	.LASF48
 1384 02ee 1C       		.byte	0x1c
 1385 02ef 07       		.byte	0x7
 1386 02f0 7901     		.2byte	0x179
 1387 02f2 6C030000 		.4byte	0x36c
 1388 02f6 0B       		.uleb128 0xb
 1389 02f7 49000000 		.4byte	.LASF49
 1390 02fb 07       		.byte	0x7
 1391 02fc 7D01     		.2byte	0x17d
 1392 02fe 7A020000 		.4byte	0x27a
 1393 0302 00       		.byte	0
 1394 0303 0B       		.uleb128 0xb
 1395 0304 97000000 		.4byte	.LASF50
 1396 0308 07       		.byte	0x7
 1397 0309 8101     		.2byte	0x181
 1398 030b A0020000 		.4byte	0x2a0
 1399 030f 01       		.byte	0x1
 1400 0310 0B       		.uleb128 0xb
 1401 0311 41000000 		.4byte	.LASF51
 1402 0315 07       		.byte	0x7
 1403 0316 8501     		.2byte	0x185
 1404 0318 C6020000 		.4byte	0x2c6
 1405 031c 02       		.byte	0x2
 1406 031d 0B       		.uleb128 0xb
 1407 031e CE000000 		.4byte	.LASF52
 1408 0322 07       		.byte	0x7
 1409 0323 8901     		.2byte	0x189
 1410 0325 5E040000 		.4byte	0x45e
 1411 0329 04       		.byte	0x4
 1412 032a 0B       		.uleb128 0xb
 1413 032b 2C000000 		.4byte	.LASF53
 1414 032f 07       		.byte	0x7
 1415 0330 9101     		.2byte	0x191
 1416 0332 69040000 		.4byte	0x469
 1417 0336 08       		.byte	0x8
 1418 0337 0B       		.uleb128 0xb
 1419 0338 56020000 		.4byte	.LASF54
 1420 033c 07       		.byte	0x7
 1421 033d 9501     		.2byte	0x195
 1422 033f 82000000 		.4byte	0x82
 1423 0343 0C       		.byte	0xc
 1424 0344 0B       		.uleb128 0xb
 1425 0345 B4010000 		.4byte	.LASF55
 1426 0349 07       		.byte	0x7
 1427 034a 9901     		.2byte	0x199
 1428 034c 6F040000 		.4byte	0x46f
 1429 0350 10       		.byte	0x10
 1430 0351 0B       		.uleb128 0xb
 1431 0352 2A020000 		.4byte	.LASF56
 1432 0356 07       		.byte	0x7
 1433 0357 9D01     		.2byte	0x19d
 1434 0359 6F040000 		.4byte	0x46f
 1435 035d 14       		.byte	0x14
 1436 035e 0B       		.uleb128 0xb
 1437 035f F5040000 		.4byte	.LASF57
ARM GAS  /tmp/ccS3EMNv.s 			page 28


 1438 0363 07       		.byte	0x7
 1439 0364 A101     		.2byte	0x1a1
 1440 0366 C9000000 		.4byte	0xc9
 1441 036a 18       		.byte	0x18
 1442 036b 00       		.byte	0
 1443 036c 0C       		.uleb128 0xc
 1444 036d 93010000 		.4byte	.LASF58
 1445 0371 07       		.byte	0x7
 1446 0372 3801     		.2byte	0x138
 1447 0374 78030000 		.4byte	0x378
 1448 0378 07       		.uleb128 0x7
 1449 0379 04       		.byte	0x4
 1450 037a 7E030000 		.4byte	0x37e
 1451 037e 12       		.uleb128 0x12
 1452 037f 89030000 		.4byte	0x389
 1453 0383 13       		.uleb128 0x13
 1454 0384 89030000 		.4byte	0x389
 1455 0388 00       		.byte	0
 1456 0389 07       		.uleb128 0x7
 1457 038a 04       		.byte	0x4
 1458 038b DD020000 		.4byte	0x2dd
 1459 038f 0C       		.uleb128 0xc
 1460 0390 87020000 		.4byte	.LASF59
 1461 0394 07       		.byte	0x7
 1462 0395 4001     		.2byte	0x140
 1463 0397 9B030000 		.4byte	0x39b
 1464 039b 07       		.uleb128 0x7
 1465 039c 04       		.byte	0x4
 1466 039d A1030000 		.4byte	0x3a1
 1467 03a1 12       		.uleb128 0x12
 1468 03a2 B1030000 		.4byte	0x3b1
 1469 03a6 13       		.uleb128 0x13
 1470 03a7 89030000 		.4byte	0x389
 1471 03ab 13       		.uleb128 0x13
 1472 03ac 5E000000 		.4byte	0x5e
 1473 03b0 00       		.byte	0
 1474 03b1 0C       		.uleb128 0xc
 1475 03b2 25010000 		.4byte	.LASF60
 1476 03b6 07       		.byte	0x7
 1477 03b7 4801     		.2byte	0x148
 1478 03b9 BD030000 		.4byte	0x3bd
 1479 03bd 07       		.uleb128 0x7
 1480 03be 04       		.byte	0x4
 1481 03bf C3030000 		.4byte	0x3c3
 1482 03c3 12       		.uleb128 0x12
 1483 03c4 D3030000 		.4byte	0x3d3
 1484 03c8 13       		.uleb128 0x13
 1485 03c9 89030000 		.4byte	0x389
 1486 03cd 13       		.uleb128 0x13
 1487 03ce D1020000 		.4byte	0x2d1
 1488 03d2 00       		.byte	0
 1489 03d3 09       		.uleb128 0x9
 1490 03d4 24       		.byte	0x24
 1491 03d5 07       		.byte	0x7
 1492 03d6 4E01     		.2byte	0x14e
 1493 03d8 52040000 		.4byte	0x452
 1494 03dc 0B       		.uleb128 0xb
ARM GAS  /tmp/ccS3EMNv.s 			page 29


 1495 03dd AC000000 		.4byte	.LASF61
 1496 03e1 07       		.byte	0x7
 1497 03e2 5201     		.2byte	0x152
 1498 03e4 6C030000 		.4byte	0x36c
 1499 03e8 00       		.byte	0
 1500 03e9 0B       		.uleb128 0xb
 1501 03ea AA010000 		.4byte	.LASF62
 1502 03ee 07       		.byte	0x7
 1503 03ef 5601     		.2byte	0x156
 1504 03f1 6C030000 		.4byte	0x36c
 1505 03f5 04       		.byte	0x4
 1506 03f6 0B       		.uleb128 0xb
 1507 03f7 61040000 		.4byte	.LASF63
 1508 03fb 07       		.byte	0x7
 1509 03fc 5A01     		.2byte	0x15a
 1510 03fe 6C030000 		.4byte	0x36c
 1511 0402 08       		.byte	0x8
 1512 0403 0B       		.uleb128 0xb
 1513 0404 77040000 		.4byte	.LASF64
 1514 0408 07       		.byte	0x7
 1515 0409 5E01     		.2byte	0x15e
 1516 040b 8F030000 		.4byte	0x38f
 1517 040f 0C       		.byte	0xc
 1518 0410 0B       		.uleb128 0xb
 1519 0411 64000000 		.4byte	.LASF65
 1520 0415 07       		.byte	0x7
 1521 0416 6201     		.2byte	0x162
 1522 0418 B1030000 		.4byte	0x3b1
 1523 041c 10       		.byte	0x10
 1524 041d 0B       		.uleb128 0xb
 1525 041e 91020000 		.4byte	.LASF66
 1526 0422 07       		.byte	0x7
 1527 0423 6701     		.2byte	0x167
 1528 0425 82000000 		.4byte	0x82
 1529 0429 14       		.byte	0x14
 1530 042a 0A       		.uleb128 0xa
 1531 042b 63723100 		.ascii	"cr1\000"
 1532 042f 07       		.byte	0x7
 1533 0430 6B01     		.2byte	0x16b
 1534 0432 82000000 		.4byte	0x82
 1535 0436 18       		.byte	0x18
 1536 0437 0A       		.uleb128 0xa
 1537 0438 63723200 		.ascii	"cr2\000"
 1538 043c 07       		.byte	0x7
 1539 043d 6F01     		.2byte	0x16f
 1540 043f 82000000 		.4byte	0x82
 1541 0443 1C       		.byte	0x1c
 1542 0444 0A       		.uleb128 0xa
 1543 0445 63723300 		.ascii	"cr3\000"
 1544 0449 07       		.byte	0x7
 1545 044a 7301     		.2byte	0x173
 1546 044c 82000000 		.4byte	0x82
 1547 0450 20       		.byte	0x20
 1548 0451 00       		.byte	0
 1549 0452 0C       		.uleb128 0xc
 1550 0453 8C000000 		.4byte	.LASF67
 1551 0457 07       		.byte	0x7
ARM GAS  /tmp/ccS3EMNv.s 			page 30


 1552 0458 7401     		.2byte	0x174
 1553 045a D3030000 		.4byte	0x3d3
 1554 045e 07       		.uleb128 0x7
 1555 045f 04       		.byte	0x4
 1556 0460 64040000 		.4byte	0x464
 1557 0464 08       		.uleb128 0x8
 1558 0465 52040000 		.4byte	0x452
 1559 0469 07       		.uleb128 0x7
 1560 046a 04       		.byte	0x4
 1561 046b F7010000 		.4byte	0x1f7
 1562 046f 07       		.uleb128 0x7
 1563 0470 04       		.byte	0x4
 1564 0471 75040000 		.4byte	0x475
 1565 0475 08       		.uleb128 0x8
 1566 0476 54020000 		.4byte	0x254
 1567 047a 14       		.uleb128 0x14
 1568 047b B4020000 		.4byte	.LASF68
 1569 047f 01       		.byte	0x1
 1570 0480 3D       		.byte	0x3d
 1571 0481 00000000 		.4byte	.LFB118
 1572 0485 04000000 		.4byte	.LFE118-.LFB118
 1573 0489 01       		.uleb128 0x1
 1574 048a 9C       		.byte	0x9c
 1575 048b 99040000 		.4byte	0x499
 1576 048f 15       		.uleb128 0x15
 1577 0490 04000000 		.4byte	.LVL0
 1578 0494 F10B0000 		.4byte	0xbf1
 1579 0498 00       		.byte	0
 1580 0499 14       		.uleb128 0x14
 1581 049a 3B010000 		.4byte	.LASF69
 1582 049e 01       		.byte	0x1
 1583 049f 49       		.byte	0x49
 1584 04a0 00000000 		.4byte	.LFB119
 1585 04a4 0E000000 		.4byte	.LFE119-.LFB119
 1586 04a8 01       		.uleb128 0x1
 1587 04a9 9C       		.byte	0x9c
 1588 04aa BC040000 		.4byte	0x4bc
 1589 04ae 16       		.uleb128 0x16
 1590 04af 2B050000 		.4byte	.LASF71
 1591 04b3 01       		.byte	0x1
 1592 04b4 49       		.byte	0x49
 1593 04b5 89030000 		.4byte	0x389
 1594 04b9 01       		.uleb128 0x1
 1595 04ba 50       		.byte	0x50
 1596 04bb 00       		.byte	0
 1597 04bc 14       		.uleb128 0x14
 1598 04bd 22000000 		.4byte	.LASF70
 1599 04c1 01       		.byte	0x1
 1600 04c2 5D       		.byte	0x5d
 1601 04c3 00000000 		.4byte	.LFB120
 1602 04c7 4C000000 		.4byte	.LFE120-.LFB120
 1603 04cb 01       		.uleb128 0x1
 1604 04cc 9C       		.byte	0x9c
 1605 04cd 76050000 		.4byte	0x576
 1606 04d1 17       		.uleb128 0x17
 1607 04d2 2B050000 		.4byte	.LASF71
 1608 04d6 01       		.byte	0x1
ARM GAS  /tmp/ccS3EMNv.s 			page 31


 1609 04d7 5D       		.byte	0x5d
 1610 04d8 89030000 		.4byte	0x389
 1611 04dc 00000000 		.4byte	.LLST0
 1612 04e0 17       		.uleb128 0x17
 1613 04e1 CE000000 		.4byte	.LASF52
 1614 04e5 01       		.byte	0x1
 1615 04e6 5D       		.byte	0x5d
 1616 04e7 5E040000 		.4byte	0x45e
 1617 04eb 34000000 		.4byte	.LLST1
 1618 04ef 18       		.uleb128 0x18
 1619 04f0 0A000000 		.4byte	.LBB2
 1620 04f4 06000000 		.4byte	.LBE2-.LBB2
 1621 04f8 0A050000 		.4byte	0x50a
 1622 04fc 19       		.uleb128 0x19
 1623 04fd 746D7000 		.ascii	"tmp\000"
 1624 0501 01       		.byte	0x1
 1625 0502 61       		.byte	0x61
 1626 0503 82000000 		.4byte	0x82
 1627 0507 01       		.uleb128 0x1
 1628 0508 53       		.byte	0x53
 1629 0509 00       		.byte	0
 1630 050a 18       		.uleb128 0x18
 1631 050b 34000000 		.4byte	.LBB3
 1632 050f 08000000 		.4byte	.LBE3-.LBB3
 1633 0513 25050000 		.4byte	0x525
 1634 0517 19       		.uleb128 0x19
 1635 0518 746D7000 		.ascii	"tmp\000"
 1636 051c 01       		.byte	0x1
 1637 051d 68       		.byte	0x68
 1638 051e 82000000 		.4byte	0x82
 1639 0522 01       		.uleb128 0x1
 1640 0523 53       		.byte	0x53
 1641 0524 00       		.byte	0
 1642 0525 1A       		.uleb128 0x1a
 1643 0526 14000000 		.4byte	.LVL4
 1644 052a F90B0000 		.4byte	0xbf9
 1645 052e 1B       		.uleb128 0x1b
 1646 052f 24000000 		.4byte	.LVL5
 1647 0533 000C0000 		.4byte	0xc00
 1648 0537 45050000 		.4byte	0x545
 1649 053b 1C       		.uleb128 0x1c
 1650 053c 01       		.uleb128 0x1
 1651 053d 50       		.byte	0x50
 1652 053e 05       		.uleb128 0x5
 1653 053f 03       		.byte	0x3
 1654 0540 10000000 		.4byte	.LC1
 1655 0544 00       		.byte	0
 1656 0545 1B       		.uleb128 0x1b
 1657 0546 2C000000 		.4byte	.LVL6
 1658 054a 110C0000 		.4byte	0xc11
 1659 054e 59050000 		.4byte	0x559
 1660 0552 1C       		.uleb128 0x1c
 1661 0553 01       		.uleb128 0x1
 1662 0554 50       		.byte	0x50
 1663 0555 02       		.uleb128 0x2
 1664 0556 74       		.byte	0x74
 1665 0557 00       		.sleb128 0
ARM GAS  /tmp/ccS3EMNv.s 			page 32


 1666 0558 00       		.byte	0
 1667 0559 1A       		.uleb128 0x1a
 1668 055a 34000000 		.4byte	.LVL7
 1669 055e 230C0000 		.4byte	0xc23
 1670 0562 1D       		.uleb128 0x1d
 1671 0563 42000000 		.4byte	.LVL10
 1672 0567 000C0000 		.4byte	0xc00
 1673 056b 1C       		.uleb128 0x1c
 1674 056c 01       		.uleb128 0x1
 1675 056d 50       		.byte	0x50
 1676 056e 05       		.uleb128 0x5
 1677 056f 03       		.byte	0x3
 1678 0570 00000000 		.4byte	.LC0
 1679 0574 00       		.byte	0
 1680 0575 00       		.byte	0
 1681 0576 14       		.uleb128 0x14
 1682 0577 EC040000 		.4byte	.LASF72
 1683 057b 01       		.byte	0x1
 1684 057c 72       		.byte	0x72
 1685 057d 00000000 		.4byte	.LFB121
 1686 0581 4C000000 		.4byte	.LFE121-.LFB121
 1687 0585 01       		.uleb128 0x1
 1688 0586 9C       		.byte	0x9c
 1689 0587 21060000 		.4byte	0x621
 1690 058b 17       		.uleb128 0x17
 1691 058c 2B050000 		.4byte	.LASF71
 1692 0590 01       		.byte	0x1
 1693 0591 72       		.byte	0x72
 1694 0592 89030000 		.4byte	0x389
 1695 0596 68000000 		.4byte	.LLST2
 1696 059a 18       		.uleb128 0x18
 1697 059b 06000000 		.4byte	.LBB4
 1698 059f 06000000 		.4byte	.LBE4-.LBB4
 1699 05a3 B5050000 		.4byte	0x5b5
 1700 05a7 19       		.uleb128 0x19
 1701 05a8 746D7000 		.ascii	"tmp\000"
 1702 05ac 01       		.byte	0x1
 1703 05ad 76       		.byte	0x76
 1704 05ae 82000000 		.4byte	0x82
 1705 05b2 01       		.uleb128 0x1
 1706 05b3 53       		.byte	0x53
 1707 05b4 00       		.byte	0
 1708 05b5 18       		.uleb128 0x18
 1709 05b6 34000000 		.4byte	.LBB5
 1710 05ba 08000000 		.4byte	.LBE5-.LBB5
 1711 05be D0050000 		.4byte	0x5d0
 1712 05c2 19       		.uleb128 0x19
 1713 05c3 746D7000 		.ascii	"tmp\000"
 1714 05c7 01       		.byte	0x1
 1715 05c8 7E       		.byte	0x7e
 1716 05c9 82000000 		.4byte	0x82
 1717 05cd 01       		.uleb128 0x1
 1718 05ce 53       		.byte	0x53
 1719 05cf 00       		.byte	0
 1720 05d0 1A       		.uleb128 0x1a
 1721 05d1 10000000 		.4byte	.LVL13
 1722 05d5 F90B0000 		.4byte	0xbf9
ARM GAS  /tmp/ccS3EMNv.s 			page 33


 1723 05d9 1B       		.uleb128 0x1b
 1724 05da 20000000 		.4byte	.LVL14
 1725 05de 000C0000 		.4byte	0xc00
 1726 05e2 F0050000 		.4byte	0x5f0
 1727 05e6 1C       		.uleb128 0x1c
 1728 05e7 01       		.uleb128 0x1
 1729 05e8 50       		.byte	0x50
 1730 05e9 05       		.uleb128 0x5
 1731 05ea 03       		.byte	0x3
 1732 05eb 30000000 		.4byte	.LC3
 1733 05ef 00       		.byte	0
 1734 05f0 1B       		.uleb128 0x1b
 1735 05f1 26000000 		.4byte	.LVL15
 1736 05f5 2A0C0000 		.4byte	0xc2a
 1737 05f9 04060000 		.4byte	0x604
 1738 05fd 1C       		.uleb128 0x1c
 1739 05fe 01       		.uleb128 0x1
 1740 05ff 50       		.byte	0x50
 1741 0600 02       		.uleb128 0x2
 1742 0601 74       		.byte	0x74
 1743 0602 00       		.sleb128 0
 1744 0603 00       		.byte	0
 1745 0604 1A       		.uleb128 0x1a
 1746 0605 34000000 		.4byte	.LVL16
 1747 0609 230C0000 		.4byte	0xc23
 1748 060d 1D       		.uleb128 0x1d
 1749 060e 42000000 		.4byte	.LVL19
 1750 0612 000C0000 		.4byte	0xc00
 1751 0616 1C       		.uleb128 0x1c
 1752 0617 01       		.uleb128 0x1
 1753 0618 50       		.byte	0x50
 1754 0619 05       		.uleb128 0x5
 1755 061a 03       		.byte	0x3
 1756 061b 20000000 		.4byte	.LC2
 1757 061f 00       		.byte	0
 1758 0620 00       		.byte	0
 1759 0621 14       		.uleb128 0x14
 1760 0622 D5000000 		.4byte	.LASF73
 1761 0626 01       		.byte	0x1
 1762 0627 8C       		.byte	0x8c
 1763 0628 00000000 		.4byte	.LFB122
 1764 062c 64000000 		.4byte	.LFE122-.LFB122
 1765 0630 01       		.uleb128 0x1
 1766 0631 9C       		.byte	0x9c
 1767 0632 0B070000 		.4byte	0x70b
 1768 0636 17       		.uleb128 0x17
 1769 0637 2B050000 		.4byte	.LASF71
 1770 063b 01       		.byte	0x1
 1771 063c 8C       		.byte	0x8c
 1772 063d 89030000 		.4byte	0x389
 1773 0641 9C000000 		.4byte	.LLST3
 1774 0645 1E       		.uleb128 0x1e
 1775 0646 6E00     		.ascii	"n\000"
 1776 0648 01       		.byte	0x1
 1777 0649 8C       		.byte	0x8c
 1778 064a 2C000000 		.4byte	0x2c
 1779 064e D0000000 		.4byte	.LLST4
ARM GAS  /tmp/ccS3EMNv.s 			page 34


 1780 0652 17       		.uleb128 0x17
 1781 0653 F5020000 		.4byte	.LASF74
 1782 0657 01       		.byte	0x1
 1783 0658 8C       		.byte	0x8c
 1784 0659 0B070000 		.4byte	0x70b
 1785 065d 04010000 		.4byte	.LLST5
 1786 0661 18       		.uleb128 0x18
 1787 0662 12000000 		.4byte	.LBB6
 1788 0666 06000000 		.4byte	.LBE6-.LBB6
 1789 066a 7C060000 		.4byte	0x67c
 1790 066e 19       		.uleb128 0x19
 1791 066f 746D7000 		.ascii	"tmp\000"
 1792 0673 01       		.byte	0x1
 1793 0674 91       		.byte	0x91
 1794 0675 82000000 		.4byte	0x82
 1795 0679 01       		.uleb128 0x1
 1796 067a 53       		.byte	0x53
 1797 067b 00       		.byte	0
 1798 067c 18       		.uleb128 0x18
 1799 067d 40000000 		.4byte	.LBB7
 1800 0681 08000000 		.4byte	.LBE7-.LBB7
 1801 0685 97060000 		.4byte	0x697
 1802 0689 19       		.uleb128 0x19
 1803 068a 746D7000 		.ascii	"tmp\000"
 1804 068e 01       		.byte	0x1
 1805 068f 99       		.byte	0x99
 1806 0690 82000000 		.4byte	0x82
 1807 0694 01       		.uleb128 0x1
 1808 0695 53       		.byte	0x53
 1809 0696 00       		.byte	0
 1810 0697 1B       		.uleb128 0x1b
 1811 0698 12000000 		.4byte	.LVL22
 1812 069c 000C0000 		.4byte	0xc00
 1813 06a0 AE060000 		.4byte	0x6ae
 1814 06a4 1C       		.uleb128 0x1c
 1815 06a5 01       		.uleb128 0x1
 1816 06a6 50       		.byte	0x50
 1817 06a7 05       		.uleb128 0x5
 1818 06a8 03       		.byte	0x3
 1819 06a9 40000000 		.4byte	.LC4
 1820 06ad 00       		.byte	0
 1821 06ae 1A       		.uleb128 0x1a
 1822 06af 1C000000 		.4byte	.LVL23
 1823 06b3 F90B0000 		.4byte	0xbf9
 1824 06b7 1B       		.uleb128 0x1b
 1825 06b8 28000000 		.4byte	.LVL24
 1826 06bc 000C0000 		.4byte	0xc00
 1827 06c0 CE060000 		.4byte	0x6ce
 1828 06c4 1C       		.uleb128 0x1c
 1829 06c5 01       		.uleb128 0x1
 1830 06c6 50       		.byte	0x50
 1831 06c7 05       		.uleb128 0x5
 1832 06c8 03       		.byte	0x3
 1833 06c9 54000000 		.4byte	.LC5
 1834 06cd 00       		.byte	0
 1835 06ce 1B       		.uleb128 0x1b
 1836 06cf 38000000 		.4byte	.LVL25
ARM GAS  /tmp/ccS3EMNv.s 			page 35


 1837 06d3 3C0C0000 		.4byte	0xc3c
 1838 06d7 EE060000 		.4byte	0x6ee
 1839 06db 1C       		.uleb128 0x1c
 1840 06dc 01       		.uleb128 0x1
 1841 06dd 52       		.byte	0x52
 1842 06de 02       		.uleb128 0x2
 1843 06df 76       		.byte	0x76
 1844 06e0 00       		.sleb128 0
 1845 06e1 1C       		.uleb128 0x1c
 1846 06e2 01       		.uleb128 0x1
 1847 06e3 51       		.byte	0x51
 1848 06e4 02       		.uleb128 0x2
 1849 06e5 75       		.byte	0x75
 1850 06e6 00       		.sleb128 0
 1851 06e7 1C       		.uleb128 0x1c
 1852 06e8 01       		.uleb128 0x1
 1853 06e9 50       		.byte	0x50
 1854 06ea 02       		.uleb128 0x2
 1855 06eb 74       		.byte	0x74
 1856 06ec 00       		.sleb128 0
 1857 06ed 00       		.byte	0
 1858 06ee 1A       		.uleb128 0x1a
 1859 06ef 40000000 		.4byte	.LVL26
 1860 06f3 230C0000 		.4byte	0xc23
 1861 06f7 1D       		.uleb128 0x1d
 1862 06f8 54000000 		.4byte	.LVL29
 1863 06fc 000C0000 		.4byte	0xc00
 1864 0700 1C       		.uleb128 0x1c
 1865 0701 01       		.uleb128 0x1
 1866 0702 50       		.byte	0x50
 1867 0703 05       		.uleb128 0x5
 1868 0704 03       		.byte	0x3
 1869 0705 68000000 		.4byte	.LC6
 1870 0709 00       		.byte	0
 1871 070a 00       		.byte	0
 1872 070b 07       		.uleb128 0x7
 1873 070c 04       		.byte	0x4
 1874 070d 11070000 		.4byte	0x711
 1875 0711 1F       		.uleb128 0x1f
 1876 0712 14       		.uleb128 0x14
 1877 0713 32000000 		.4byte	.LASF75
 1878 0717 01       		.byte	0x1
 1879 0718 A8       		.byte	0xa8
 1880 0719 00000000 		.4byte	.LFB123
 1881 071d 54000000 		.4byte	.LFE123-.LFB123
 1882 0721 01       		.uleb128 0x1
 1883 0722 9C       		.byte	0x9c
 1884 0723 BD070000 		.4byte	0x7bd
 1885 0727 17       		.uleb128 0x17
 1886 0728 2B050000 		.4byte	.LASF71
 1887 072c 01       		.byte	0x1
 1888 072d A8       		.byte	0xa8
 1889 072e 89030000 		.4byte	0x389
 1890 0732 38010000 		.4byte	.LLST6
 1891 0736 1E       		.uleb128 0x1e
 1892 0737 6E00     		.ascii	"n\000"
 1893 0739 01       		.byte	0x1
ARM GAS  /tmp/ccS3EMNv.s 			page 36


 1894 073a A8       		.byte	0xa8
 1895 073b 2C000000 		.4byte	0x2c
 1896 073f 56010000 		.4byte	.LLST7
 1897 0743 17       		.uleb128 0x17
 1898 0744 F5020000 		.4byte	.LASF74
 1899 0748 01       		.byte	0x1
 1900 0749 A8       		.byte	0xa8
 1901 074a 0B070000 		.4byte	0x70b
 1902 074e 74010000 		.4byte	.LLST8
 1903 0752 1A       		.uleb128 0x1a
 1904 0753 0C000000 		.4byte	.LVL31
 1905 0757 580C0000 		.4byte	0xc58
 1906 075b 1B       		.uleb128 0x1b
 1907 075c 16000000 		.4byte	.LVL32
 1908 0760 000C0000 		.4byte	0xc00
 1909 0764 72070000 		.4byte	0x772
 1910 0768 1C       		.uleb128 0x1c
 1911 0769 01       		.uleb128 0x1
 1912 076a 50       		.byte	0x50
 1913 076b 05       		.uleb128 0x5
 1914 076c 03       		.byte	0x3
 1915 076d 7C000000 		.4byte	.LC7
 1916 0771 00       		.byte	0
 1917 0772 1B       		.uleb128 0x1b
 1918 0773 22000000 		.4byte	.LVL33
 1919 0777 000C0000 		.4byte	0xc00
 1920 077b 89070000 		.4byte	0x789
 1921 077f 1C       		.uleb128 0x1c
 1922 0780 01       		.uleb128 0x1
 1923 0781 50       		.byte	0x50
 1924 0782 05       		.uleb128 0x5
 1925 0783 03       		.byte	0x3
 1926 0784 90000000 		.4byte	.LC8
 1927 0788 00       		.byte	0
 1928 0789 1B       		.uleb128 0x1b
 1929 078a 32000000 		.4byte	.LVL34
 1930 078e 3C0C0000 		.4byte	0xc3c
 1931 0792 A9070000 		.4byte	0x7a9
 1932 0796 1C       		.uleb128 0x1c
 1933 0797 01       		.uleb128 0x1
 1934 0798 52       		.byte	0x52
 1935 0799 02       		.uleb128 0x2
 1936 079a 76       		.byte	0x76
 1937 079b 00       		.sleb128 0
 1938 079c 1C       		.uleb128 0x1c
 1939 079d 01       		.uleb128 0x1
 1940 079e 51       		.byte	0x51
 1941 079f 02       		.uleb128 0x2
 1942 07a0 75       		.byte	0x75
 1943 07a1 00       		.sleb128 0
 1944 07a2 1C       		.uleb128 0x1c
 1945 07a3 01       		.uleb128 0x1
 1946 07a4 50       		.byte	0x50
 1947 07a5 02       		.uleb128 0x2
 1948 07a6 74       		.byte	0x74
 1949 07a7 00       		.sleb128 0
 1950 07a8 00       		.byte	0
ARM GAS  /tmp/ccS3EMNv.s 			page 37


 1951 07a9 1D       		.uleb128 0x1d
 1952 07aa 44000000 		.4byte	.LVL36
 1953 07ae 000C0000 		.4byte	0xc00
 1954 07b2 1C       		.uleb128 0x1c
 1955 07b3 01       		.uleb128 0x1
 1956 07b4 50       		.byte	0x50
 1957 07b5 05       		.uleb128 0x5
 1958 07b6 03       		.byte	0x3
 1959 07b7 A8000000 		.4byte	.LC9
 1960 07bb 00       		.byte	0
 1961 07bc 00       		.byte	0
 1962 07bd 20       		.uleb128 0x20
 1963 07be 9F000000 		.4byte	.LASF76
 1964 07c2 01       		.byte	0x1
 1965 07c3 C2       		.byte	0xc2
 1966 07c4 2C000000 		.4byte	0x2c
 1967 07c8 00000000 		.4byte	.LFB124
 1968 07cc 50000000 		.4byte	.LFE124-.LFB124
 1969 07d0 01       		.uleb128 0x1
 1970 07d1 9C       		.byte	0x9c
 1971 07d2 79080000 		.4byte	0x879
 1972 07d6 17       		.uleb128 0x17
 1973 07d7 2B050000 		.4byte	.LASF71
 1974 07db 01       		.byte	0x1
 1975 07dc C2       		.byte	0xc2
 1976 07dd 89030000 		.4byte	0x389
 1977 07e1 92010000 		.4byte	.LLST9
 1978 07e5 21       		.uleb128 0x21
 1979 07e6 6E00     		.ascii	"n\000"
 1980 07e8 01       		.byte	0x1
 1981 07e9 C3       		.byte	0xc3
 1982 07ea 2C000000 		.4byte	0x2c
 1983 07ee C6010000 		.4byte	.LLST10
 1984 07f2 18       		.uleb128 0x18
 1985 07f3 06000000 		.4byte	.LBB8
 1986 07f7 06000000 		.4byte	.LBE8-.LBB8
 1987 07fb 0D080000 		.4byte	0x80d
 1988 07ff 19       		.uleb128 0x19
 1989 0800 746D7000 		.ascii	"tmp\000"
 1990 0804 01       		.byte	0x1
 1991 0805 C7       		.byte	0xc7
 1992 0806 82000000 		.4byte	0x82
 1993 080a 01       		.uleb128 0x1
 1994 080b 53       		.byte	0x53
 1995 080c 00       		.byte	0
 1996 080d 18       		.uleb128 0x18
 1997 080e 28000000 		.4byte	.LBB9
 1998 0812 06000000 		.4byte	.LBE9-.LBB9
 1999 0816 28080000 		.4byte	0x828
 2000 081a 19       		.uleb128 0x19
 2001 081b 746D7000 		.ascii	"tmp\000"
 2002 081f 01       		.byte	0x1
 2003 0820 D0       		.byte	0xd0
 2004 0821 82000000 		.4byte	0x82
 2005 0825 01       		.uleb128 0x1
 2006 0826 53       		.byte	0x53
 2007 0827 00       		.byte	0
ARM GAS  /tmp/ccS3EMNv.s 			page 38


 2008 0828 1A       		.uleb128 0x1a
 2009 0829 10000000 		.4byte	.LVL39
 2010 082d F90B0000 		.4byte	0xbf9
 2011 0831 1B       		.uleb128 0x1b
 2012 0832 1C000000 		.4byte	.LVL40
 2013 0836 000C0000 		.4byte	0xc00
 2014 083a 48080000 		.4byte	0x848
 2015 083e 1C       		.uleb128 0x1c
 2016 083f 01       		.uleb128 0x1
 2017 0840 50       		.byte	0x50
 2018 0841 05       		.uleb128 0x5
 2019 0842 03       		.byte	0x3
 2020 0843 D4000000 		.4byte	.LC11
 2021 0847 00       		.byte	0
 2022 0848 1A       		.uleb128 0x1a
 2023 0849 28000000 		.4byte	.LVL42
 2024 084d 230C0000 		.4byte	0xc23
 2025 0851 1B       		.uleb128 0x1b
 2026 0852 38000000 		.4byte	.LVL44
 2027 0856 5F0C0000 		.4byte	0xc5f
 2028 085a 65080000 		.4byte	0x865
 2029 085e 1C       		.uleb128 0x1c
 2030 085f 01       		.uleb128 0x1
 2031 0860 50       		.byte	0x50
 2032 0861 02       		.uleb128 0x2
 2033 0862 74       		.byte	0x74
 2034 0863 00       		.sleb128 0
 2035 0864 00       		.byte	0
 2036 0865 1D       		.uleb128 0x1d
 2037 0866 46000000 		.4byte	.LVL48
 2038 086a 000C0000 		.4byte	0xc00
 2039 086e 1C       		.uleb128 0x1c
 2040 086f 01       		.uleb128 0x1
 2041 0870 50       		.byte	0x50
 2042 0871 05       		.uleb128 0x5
 2043 0872 03       		.byte	0x3
 2044 0873 C0000000 		.4byte	.LC10
 2045 0877 00       		.byte	0
 2046 0878 00       		.byte	0
 2047 0879 20       		.uleb128 0x20
 2048 087a 4F000000 		.4byte	.LASF77
 2049 087e 01       		.byte	0x1
 2050 087f E1       		.byte	0xe1
 2051 0880 2C000000 		.4byte	0x2c
 2052 0884 00000000 		.4byte	.LFB125
 2053 0888 3C000000 		.4byte	.LFE125-.LFB125
 2054 088c 01       		.uleb128 0x1
 2055 088d 9C       		.byte	0x9c
 2056 088e 00090000 		.4byte	0x900
 2057 0892 17       		.uleb128 0x17
 2058 0893 2B050000 		.4byte	.LASF71
 2059 0897 01       		.byte	0x1
 2060 0898 E1       		.byte	0xe1
 2061 0899 89030000 		.4byte	0x389
 2062 089d E4010000 		.4byte	.LLST11
 2063 08a1 18       		.uleb128 0x18
 2064 08a2 20000000 		.4byte	.LBB10
ARM GAS  /tmp/ccS3EMNv.s 			page 39


 2065 08a6 0C000000 		.4byte	.LBE10-.LBB10
 2066 08aa CC080000 		.4byte	0x8cc
 2067 08ae 21       		.uleb128 0x21
 2068 08af 6E00     		.ascii	"n\000"
 2069 08b1 01       		.byte	0x1
 2070 08b2 E8       		.byte	0xe8
 2071 08b3 2C000000 		.4byte	0x2c
 2072 08b7 02020000 		.4byte	.LLST12
 2073 08bb 1D       		.uleb128 0x1d
 2074 08bc 26000000 		.4byte	.LVL53
 2075 08c0 5F0C0000 		.4byte	0xc5f
 2076 08c4 1C       		.uleb128 0x1c
 2077 08c5 01       		.uleb128 0x1
 2078 08c6 50       		.byte	0x50
 2079 08c7 02       		.uleb128 0x2
 2080 08c8 74       		.byte	0x74
 2081 08c9 00       		.sleb128 0
 2082 08ca 00       		.byte	0
 2083 08cb 00       		.byte	0
 2084 08cc 1A       		.uleb128 0x1a
 2085 08cd 08000000 		.4byte	.LVL50
 2086 08d1 580C0000 		.4byte	0xc58
 2087 08d5 1B       		.uleb128 0x1b
 2088 08d6 16000000 		.4byte	.LVL51
 2089 08da 000C0000 		.4byte	0xc00
 2090 08de EC080000 		.4byte	0x8ec
 2091 08e2 1C       		.uleb128 0x1c
 2092 08e3 01       		.uleb128 0x1
 2093 08e4 50       		.byte	0x50
 2094 08e5 05       		.uleb128 0x5
 2095 08e6 03       		.byte	0x3
 2096 08e7 FC000000 		.4byte	.LC13
 2097 08eb 00       		.byte	0
 2098 08ec 1D       		.uleb128 0x1d
 2099 08ed 32000000 		.4byte	.LVL55
 2100 08f1 000C0000 		.4byte	0xc00
 2101 08f5 1C       		.uleb128 0x1c
 2102 08f6 01       		.uleb128 0x1
 2103 08f7 50       		.byte	0x50
 2104 08f8 05       		.uleb128 0x5
 2105 08f9 03       		.byte	0x3
 2106 08fa E8000000 		.4byte	.LC12
 2107 08fe 00       		.byte	0
 2108 08ff 00       		.byte	0
 2109 0900 14       		.uleb128 0x14
 2110 0901 F6000000 		.4byte	.LASF78
 2111 0905 01       		.byte	0x1
 2112 0906 FA       		.byte	0xfa
 2113 0907 00000000 		.4byte	.LFB126
 2114 090b 64000000 		.4byte	.LFE126-.LFB126
 2115 090f 01       		.uleb128 0x1
 2116 0910 9C       		.byte	0x9c
 2117 0911 EB090000 		.4byte	0x9eb
 2118 0915 17       		.uleb128 0x17
 2119 0916 2B050000 		.4byte	.LASF71
 2120 091a 01       		.byte	0x1
 2121 091b FA       		.byte	0xfa
ARM GAS  /tmp/ccS3EMNv.s 			page 40


 2122 091c 89030000 		.4byte	0x389
 2123 0920 15020000 		.4byte	.LLST13
 2124 0924 1E       		.uleb128 0x1e
 2125 0925 6E00     		.ascii	"n\000"
 2126 0927 01       		.byte	0x1
 2127 0928 FA       		.byte	0xfa
 2128 0929 2C000000 		.4byte	0x2c
 2129 092d 49020000 		.4byte	.LLST14
 2130 0931 17       		.uleb128 0x17
 2131 0932 F5040000 		.4byte	.LASF57
 2132 0936 01       		.byte	0x1
 2133 0937 FA       		.byte	0xfa
 2134 0938 A9000000 		.4byte	0xa9
 2135 093c 7D020000 		.4byte	.LLST15
 2136 0940 18       		.uleb128 0x18
 2137 0941 12000000 		.4byte	.LBB11
 2138 0945 06000000 		.4byte	.LBE11-.LBB11
 2139 0949 5B090000 		.4byte	0x95b
 2140 094d 19       		.uleb128 0x19
 2141 094e 746D7000 		.ascii	"tmp\000"
 2142 0952 01       		.byte	0x1
 2143 0953 FF       		.byte	0xff
 2144 0954 82000000 		.4byte	0x82
 2145 0958 01       		.uleb128 0x1
 2146 0959 53       		.byte	0x53
 2147 095a 00       		.byte	0
 2148 095b 18       		.uleb128 0x18
 2149 095c 40000000 		.4byte	.LBB12
 2150 0960 08000000 		.4byte	.LBE12-.LBB12
 2151 0964 77090000 		.4byte	0x977
 2152 0968 22       		.uleb128 0x22
 2153 0969 746D7000 		.ascii	"tmp\000"
 2154 096d 01       		.byte	0x1
 2155 096e 0701     		.2byte	0x107
 2156 0970 82000000 		.4byte	0x82
 2157 0974 01       		.uleb128 0x1
 2158 0975 53       		.byte	0x53
 2159 0976 00       		.byte	0
 2160 0977 1B       		.uleb128 0x1b
 2161 0978 12000000 		.4byte	.LVL58
 2162 097c 000C0000 		.4byte	0xc00
 2163 0980 8E090000 		.4byte	0x98e
 2164 0984 1C       		.uleb128 0x1c
 2165 0985 01       		.uleb128 0x1
 2166 0986 50       		.byte	0x50
 2167 0987 05       		.uleb128 0x5
 2168 0988 03       		.byte	0x3
 2169 0989 10010000 		.4byte	.LC14
 2170 098d 00       		.byte	0
 2171 098e 1A       		.uleb128 0x1a
 2172 098f 1C000000 		.4byte	.LVL59
 2173 0993 F90B0000 		.4byte	0xbf9
 2174 0997 1B       		.uleb128 0x1b
 2175 0998 28000000 		.4byte	.LVL60
 2176 099c 000C0000 		.4byte	0xc00
 2177 09a0 AE090000 		.4byte	0x9ae
 2178 09a4 1C       		.uleb128 0x1c
ARM GAS  /tmp/ccS3EMNv.s 			page 41


 2179 09a5 01       		.uleb128 0x1
 2180 09a6 50       		.byte	0x50
 2181 09a7 05       		.uleb128 0x5
 2182 09a8 03       		.byte	0x3
 2183 09a9 28010000 		.4byte	.LC15
 2184 09ad 00       		.byte	0
 2185 09ae 1B       		.uleb128 0x1b
 2186 09af 38000000 		.4byte	.LVL61
 2187 09b3 750C0000 		.4byte	0xc75
 2188 09b7 CE090000 		.4byte	0x9ce
 2189 09bb 1C       		.uleb128 0x1c
 2190 09bc 01       		.uleb128 0x1
 2191 09bd 52       		.byte	0x52
 2192 09be 02       		.uleb128 0x2
 2193 09bf 76       		.byte	0x76
 2194 09c0 00       		.sleb128 0
 2195 09c1 1C       		.uleb128 0x1c
 2196 09c2 01       		.uleb128 0x1
 2197 09c3 51       		.byte	0x51
 2198 09c4 02       		.uleb128 0x2
 2199 09c5 75       		.byte	0x75
 2200 09c6 00       		.sleb128 0
 2201 09c7 1C       		.uleb128 0x1c
 2202 09c8 01       		.uleb128 0x1
 2203 09c9 50       		.byte	0x50
 2204 09ca 02       		.uleb128 0x2
 2205 09cb 74       		.byte	0x74
 2206 09cc 00       		.sleb128 0
 2207 09cd 00       		.byte	0
 2208 09ce 1A       		.uleb128 0x1a
 2209 09cf 40000000 		.4byte	.LVL62
 2210 09d3 230C0000 		.4byte	0xc23
 2211 09d7 1D       		.uleb128 0x1d
 2212 09d8 54000000 		.4byte	.LVL65
 2213 09dc 000C0000 		.4byte	0xc00
 2214 09e0 1C       		.uleb128 0x1c
 2215 09e1 01       		.uleb128 0x1
 2216 09e2 50       		.byte	0x50
 2217 09e3 05       		.uleb128 0x5
 2218 09e4 03       		.byte	0x3
 2219 09e5 40010000 		.4byte	.LC16
 2220 09e9 00       		.byte	0
 2221 09ea 00       		.byte	0
 2222 09eb 23       		.uleb128 0x23
 2223 09ec FB040000 		.4byte	.LASF79
 2224 09f0 01       		.byte	0x1
 2225 09f1 1601     		.2byte	0x116
 2226 09f3 00000000 		.4byte	.LFB127
 2227 09f7 54000000 		.4byte	.LFE127-.LFB127
 2228 09fb 01       		.uleb128 0x1
 2229 09fc 9C       		.byte	0x9c
 2230 09fd 9A0A0000 		.4byte	0xa9a
 2231 0a01 24       		.uleb128 0x24
 2232 0a02 2B050000 		.4byte	.LASF71
 2233 0a06 01       		.byte	0x1
 2234 0a07 1601     		.2byte	0x116
 2235 0a09 89030000 		.4byte	0x389
ARM GAS  /tmp/ccS3EMNv.s 			page 42


 2236 0a0d B1020000 		.4byte	.LLST16
 2237 0a11 25       		.uleb128 0x25
 2238 0a12 6E00     		.ascii	"n\000"
 2239 0a14 01       		.byte	0x1
 2240 0a15 1601     		.2byte	0x116
 2241 0a17 2C000000 		.4byte	0x2c
 2242 0a1b CF020000 		.4byte	.LLST17
 2243 0a1f 24       		.uleb128 0x24
 2244 0a20 F5040000 		.4byte	.LASF57
 2245 0a24 01       		.byte	0x1
 2246 0a25 1601     		.2byte	0x116
 2247 0a27 A9000000 		.4byte	0xa9
 2248 0a2b ED020000 		.4byte	.LLST18
 2249 0a2f 1A       		.uleb128 0x1a
 2250 0a30 0C000000 		.4byte	.LVL67
 2251 0a34 580C0000 		.4byte	0xc58
 2252 0a38 1B       		.uleb128 0x1b
 2253 0a39 16000000 		.4byte	.LVL68
 2254 0a3d 000C0000 		.4byte	0xc00
 2255 0a41 4F0A0000 		.4byte	0xa4f
 2256 0a45 1C       		.uleb128 0x1c
 2257 0a46 01       		.uleb128 0x1
 2258 0a47 50       		.byte	0x50
 2259 0a48 05       		.uleb128 0x5
 2260 0a49 03       		.byte	0x3
 2261 0a4a 58010000 		.4byte	.LC17
 2262 0a4e 00       		.byte	0
 2263 0a4f 1B       		.uleb128 0x1b
 2264 0a50 22000000 		.4byte	.LVL69
 2265 0a54 000C0000 		.4byte	0xc00
 2266 0a58 660A0000 		.4byte	0xa66
 2267 0a5c 1C       		.uleb128 0x1c
 2268 0a5d 01       		.uleb128 0x1
 2269 0a5e 50       		.byte	0x50
 2270 0a5f 05       		.uleb128 0x5
 2271 0a60 03       		.byte	0x3
 2272 0a61 70010000 		.4byte	.LC18
 2273 0a65 00       		.byte	0
 2274 0a66 1B       		.uleb128 0x1b
 2275 0a67 32000000 		.4byte	.LVL70
 2276 0a6b 750C0000 		.4byte	0xc75
 2277 0a6f 860A0000 		.4byte	0xa86
 2278 0a73 1C       		.uleb128 0x1c
 2279 0a74 01       		.uleb128 0x1
 2280 0a75 52       		.byte	0x52
 2281 0a76 02       		.uleb128 0x2
 2282 0a77 76       		.byte	0x76
 2283 0a78 00       		.sleb128 0
 2284 0a79 1C       		.uleb128 0x1c
 2285 0a7a 01       		.uleb128 0x1
 2286 0a7b 51       		.byte	0x51
 2287 0a7c 02       		.uleb128 0x2
 2288 0a7d 75       		.byte	0x75
 2289 0a7e 00       		.sleb128 0
 2290 0a7f 1C       		.uleb128 0x1c
 2291 0a80 01       		.uleb128 0x1
 2292 0a81 50       		.byte	0x50
ARM GAS  /tmp/ccS3EMNv.s 			page 43


 2293 0a82 02       		.uleb128 0x2
 2294 0a83 74       		.byte	0x74
 2295 0a84 00       		.sleb128 0
 2296 0a85 00       		.byte	0
 2297 0a86 1D       		.uleb128 0x1d
 2298 0a87 44000000 		.4byte	.LVL72
 2299 0a8b 000C0000 		.4byte	0xc00
 2300 0a8f 1C       		.uleb128 0x1c
 2301 0a90 01       		.uleb128 0x1
 2302 0a91 50       		.byte	0x50
 2303 0a92 05       		.uleb128 0x5
 2304 0a93 03       		.byte	0x3
 2305 0a94 88010000 		.4byte	.LC19
 2306 0a98 00       		.byte	0
 2307 0a99 00       		.byte	0
 2308 0a9a 26       		.uleb128 0x26
 2309 0a9b 7A010000 		.4byte	.LASF80
 2310 0a9f 01       		.byte	0x1
 2311 0aa0 3001     		.2byte	0x130
 2312 0aa2 2C000000 		.4byte	0x2c
 2313 0aa6 00000000 		.4byte	.LFB128
 2314 0aaa 50000000 		.4byte	.LFE128-.LFB128
 2315 0aae 01       		.uleb128 0x1
 2316 0aaf 9C       		.byte	0x9c
 2317 0ab0 5B0B0000 		.4byte	0xb5b
 2318 0ab4 24       		.uleb128 0x24
 2319 0ab5 2B050000 		.4byte	.LASF71
 2320 0ab9 01       		.byte	0x1
 2321 0aba 3001     		.2byte	0x130
 2322 0abc 89030000 		.4byte	0x389
 2323 0ac0 0B030000 		.4byte	.LLST19
 2324 0ac4 27       		.uleb128 0x27
 2325 0ac5 6E00     		.ascii	"n\000"
 2326 0ac7 01       		.byte	0x1
 2327 0ac8 3101     		.2byte	0x131
 2328 0aca 2C000000 		.4byte	0x2c
 2329 0ace 3F030000 		.4byte	.LLST20
 2330 0ad2 18       		.uleb128 0x18
 2331 0ad3 06000000 		.4byte	.LBB13
 2332 0ad7 06000000 		.4byte	.LBE13-.LBB13
 2333 0adb EE0A0000 		.4byte	0xaee
 2334 0adf 22       		.uleb128 0x22
 2335 0ae0 746D7000 		.ascii	"tmp\000"
 2336 0ae4 01       		.byte	0x1
 2337 0ae5 3501     		.2byte	0x135
 2338 0ae7 82000000 		.4byte	0x82
 2339 0aeb 01       		.uleb128 0x1
 2340 0aec 53       		.byte	0x53
 2341 0aed 00       		.byte	0
 2342 0aee 18       		.uleb128 0x18
 2343 0aef 28000000 		.4byte	.LBB14
 2344 0af3 06000000 		.4byte	.LBE14-.LBB14
 2345 0af7 0A0B0000 		.4byte	0xb0a
 2346 0afb 22       		.uleb128 0x22
 2347 0afc 746D7000 		.ascii	"tmp\000"
 2348 0b00 01       		.byte	0x1
 2349 0b01 3F01     		.2byte	0x13f
ARM GAS  /tmp/ccS3EMNv.s 			page 44


 2350 0b03 82000000 		.4byte	0x82
 2351 0b07 01       		.uleb128 0x1
 2352 0b08 53       		.byte	0x53
 2353 0b09 00       		.byte	0
 2354 0b0a 1A       		.uleb128 0x1a
 2355 0b0b 10000000 		.4byte	.LVL75
 2356 0b0f F90B0000 		.4byte	0xbf9
 2357 0b13 1B       		.uleb128 0x1b
 2358 0b14 1C000000 		.4byte	.LVL76
 2359 0b18 000C0000 		.4byte	0xc00
 2360 0b1c 2A0B0000 		.4byte	0xb2a
 2361 0b20 1C       		.uleb128 0x1c
 2362 0b21 01       		.uleb128 0x1
 2363 0b22 50       		.byte	0x50
 2364 0b23 05       		.uleb128 0x5
 2365 0b24 03       		.byte	0x3
 2366 0b25 B4010000 		.4byte	.LC21
 2367 0b29 00       		.byte	0
 2368 0b2a 1A       		.uleb128 0x1a
 2369 0b2b 28000000 		.4byte	.LVL78
 2370 0b2f 230C0000 		.4byte	0xc23
 2371 0b33 1B       		.uleb128 0x1b
 2372 0b34 38000000 		.4byte	.LVL80
 2373 0b38 910C0000 		.4byte	0xc91
 2374 0b3c 470B0000 		.4byte	0xb47
 2375 0b40 1C       		.uleb128 0x1c
 2376 0b41 01       		.uleb128 0x1
 2377 0b42 50       		.byte	0x50
 2378 0b43 02       		.uleb128 0x2
 2379 0b44 74       		.byte	0x74
 2380 0b45 00       		.sleb128 0
 2381 0b46 00       		.byte	0
 2382 0b47 1D       		.uleb128 0x1d
 2383 0b48 46000000 		.4byte	.LVL84
 2384 0b4c 000C0000 		.4byte	0xc00
 2385 0b50 1C       		.uleb128 0x1c
 2386 0b51 01       		.uleb128 0x1
 2387 0b52 50       		.byte	0x50
 2388 0b53 05       		.uleb128 0x5
 2389 0b54 03       		.byte	0x3
 2390 0b55 A0010000 		.4byte	.LC20
 2391 0b59 00       		.byte	0
 2392 0b5a 00       		.byte	0
 2393 0b5b 26       		.uleb128 0x26
 2394 0b5c 08020000 		.4byte	.LASF81
 2395 0b60 01       		.byte	0x1
 2396 0b61 5001     		.2byte	0x150
 2397 0b63 2C000000 		.4byte	0x2c
 2398 0b67 00000000 		.4byte	.LFB129
 2399 0b6b 3C000000 		.4byte	.LFE129-.LFB129
 2400 0b6f 01       		.uleb128 0x1
 2401 0b70 9C       		.byte	0x9c
 2402 0b71 E50B0000 		.4byte	0xbe5
 2403 0b75 24       		.uleb128 0x24
 2404 0b76 2B050000 		.4byte	.LASF71
 2405 0b7a 01       		.byte	0x1
 2406 0b7b 5001     		.2byte	0x150
ARM GAS  /tmp/ccS3EMNv.s 			page 45


 2407 0b7d 89030000 		.4byte	0x389
 2408 0b81 5D030000 		.4byte	.LLST21
 2409 0b85 18       		.uleb128 0x18
 2410 0b86 20000000 		.4byte	.LBB15
 2411 0b8a 0C000000 		.4byte	.LBE15-.LBB15
 2412 0b8e B10B0000 		.4byte	0xbb1
 2413 0b92 27       		.uleb128 0x27
 2414 0b93 6E00     		.ascii	"n\000"
 2415 0b95 01       		.byte	0x1
 2416 0b96 5801     		.2byte	0x158
 2417 0b98 2C000000 		.4byte	0x2c
 2418 0b9c 7B030000 		.4byte	.LLST22
 2419 0ba0 1D       		.uleb128 0x1d
 2420 0ba1 26000000 		.4byte	.LVL89
 2421 0ba5 910C0000 		.4byte	0xc91
 2422 0ba9 1C       		.uleb128 0x1c
 2423 0baa 01       		.uleb128 0x1
 2424 0bab 50       		.byte	0x50
 2425 0bac 02       		.uleb128 0x2
 2426 0bad 74       		.byte	0x74
 2427 0bae 00       		.sleb128 0
 2428 0baf 00       		.byte	0
 2429 0bb0 00       		.byte	0
 2430 0bb1 1A       		.uleb128 0x1a
 2431 0bb2 08000000 		.4byte	.LVL86
 2432 0bb6 580C0000 		.4byte	0xc58
 2433 0bba 1B       		.uleb128 0x1b
 2434 0bbb 16000000 		.4byte	.LVL87
 2435 0bbf 000C0000 		.4byte	0xc00
 2436 0bc3 D10B0000 		.4byte	0xbd1
 2437 0bc7 1C       		.uleb128 0x1c
 2438 0bc8 01       		.uleb128 0x1
 2439 0bc9 50       		.byte	0x50
 2440 0bca 05       		.uleb128 0x5
 2441 0bcb 03       		.byte	0x3
 2442 0bcc E4010000 		.4byte	.LC23
 2443 0bd0 00       		.byte	0
 2444 0bd1 1D       		.uleb128 0x1d
 2445 0bd2 32000000 		.4byte	.LVL91
 2446 0bd6 000C0000 		.4byte	0xc00
 2447 0bda 1C       		.uleb128 0x1c
 2448 0bdb 01       		.uleb128 0x1
 2449 0bdc 50       		.byte	0x50
 2450 0bdd 05       		.uleb128 0x5
 2451 0bde 03       		.byte	0x3
 2452 0bdf CC010000 		.4byte	.LC22
 2453 0be3 00       		.byte	0
 2454 0be4 00       		.byte	0
 2455 0be5 28       		.uleb128 0x28
 2456 0be6 14050000 		.4byte	.LASF95
 2457 0bea 09       		.byte	0x9
 2458 0beb 9806     		.2byte	0x698
 2459 0bed CE000000 		.4byte	0xce
 2460 0bf1 29       		.uleb128 0x29
 2461 0bf2 EC010000 		.4byte	.LASF82
 2462 0bf6 07       		.byte	0x7
 2463 0bf7 BB01     		.2byte	0x1bb
ARM GAS  /tmp/ccS3EMNv.s 			page 46


 2464 0bf9 2A       		.uleb128 0x2a
 2465 0bfa 30020000 		.4byte	.LASF83
 2466 0bfe 08       		.byte	0x8
 2467 0bff E0       		.byte	0xe0
 2468 0c00 2B       		.uleb128 0x2b
 2469 0c01 C9010000 		.4byte	.LASF84
 2470 0c05 08       		.byte	0x8
 2471 0c06 EF       		.byte	0xef
 2472 0c07 110C0000 		.4byte	0xc11
 2473 0c0b 13       		.uleb128 0x13
 2474 0c0c B7000000 		.4byte	0xb7
 2475 0c10 00       		.byte	0
 2476 0c11 2C       		.uleb128 0x2c
 2477 0c12 BA010000 		.4byte	.LASF85
 2478 0c16 07       		.byte	0x7
 2479 0c17 BC01     		.2byte	0x1bc
 2480 0c19 230C0000 		.4byte	0xc23
 2481 0c1d 13       		.uleb128 0x13
 2482 0c1e 89030000 		.4byte	0x389
 2483 0c22 00       		.byte	0
 2484 0c23 2A       		.uleb128 0x2a
 2485 0c24 19020000 		.4byte	.LASF86
 2486 0c28 08       		.byte	0x8
 2487 0c29 E1       		.byte	0xe1
 2488 0c2a 2C       		.uleb128 0x2c
 2489 0c2b 41050000 		.4byte	.LASF87
 2490 0c2f 07       		.byte	0x7
 2491 0c30 BD01     		.2byte	0x1bd
 2492 0c32 3C0C0000 		.4byte	0xc3c
 2493 0c36 13       		.uleb128 0x13
 2494 0c37 89030000 		.4byte	0x389
 2495 0c3b 00       		.byte	0
 2496 0c3c 2C       		.uleb128 0x2c
 2497 0c3d 66010000 		.4byte	.LASF88
 2498 0c41 07       		.byte	0x7
 2499 0c42 BE01     		.2byte	0x1be
 2500 0c44 580C0000 		.4byte	0xc58
 2501 0c48 13       		.uleb128 0x13
 2502 0c49 89030000 		.4byte	0x389
 2503 0c4d 13       		.uleb128 0x13
 2504 0c4e 2C000000 		.4byte	0x2c
 2505 0c52 13       		.uleb128 0x13
 2506 0c53 0B070000 		.4byte	0x70b
 2507 0c57 00       		.byte	0
 2508 0c58 2A       		.uleb128 0x2a
 2509 0c59 11000000 		.4byte	.LASF89
 2510 0c5d 08       		.byte	0x8
 2511 0c5e E6       		.byte	0xe6
 2512 0c5f 2D       		.uleb128 0x2d
 2513 0c60 81040000 		.4byte	.LASF96
 2514 0c64 07       		.byte	0x7
 2515 0c65 BF01     		.2byte	0x1bf
 2516 0c67 2C000000 		.4byte	0x2c
 2517 0c6b 750C0000 		.4byte	0xc75
 2518 0c6f 13       		.uleb128 0x13
 2519 0c70 89030000 		.4byte	0x389
 2520 0c74 00       		.byte	0
ARM GAS  /tmp/ccS3EMNv.s 			page 47


 2521 0c75 2C       		.uleb128 0x2c
 2522 0c76 3A040000 		.4byte	.LASF90
 2523 0c7a 07       		.byte	0x7
 2524 0c7b C001     		.2byte	0x1c0
 2525 0c7d 910C0000 		.4byte	0xc91
 2526 0c81 13       		.uleb128 0x13
 2527 0c82 89030000 		.4byte	0x389
 2528 0c86 13       		.uleb128 0x13
 2529 0c87 2C000000 		.4byte	0x2c
 2530 0c8b 13       		.uleb128 0x13
 2531 0c8c A9000000 		.4byte	0xa9
 2532 0c90 00       		.byte	0
 2533 0c91 2E       		.uleb128 0x2e
 2534 0c92 76000000 		.4byte	.LASF91
 2535 0c96 07       		.byte	0x7
 2536 0c97 C101     		.2byte	0x1c1
 2537 0c99 2C000000 		.4byte	0x2c
 2538 0c9d 13       		.uleb128 0x13
 2539 0c9e 89030000 		.4byte	0x389
 2540 0ca2 00       		.byte	0
 2541 0ca3 00       		.byte	0
 2542              		.section	.debug_abbrev,"",%progbits
 2543              	.Ldebug_abbrev0:
 2544 0000 01       		.uleb128 0x1
 2545 0001 11       		.uleb128 0x11
 2546 0002 01       		.byte	0x1
 2547 0003 25       		.uleb128 0x25
 2548 0004 0E       		.uleb128 0xe
 2549 0005 13       		.uleb128 0x13
 2550 0006 0B       		.uleb128 0xb
 2551 0007 03       		.uleb128 0x3
 2552 0008 0E       		.uleb128 0xe
 2553 0009 1B       		.uleb128 0x1b
 2554 000a 0E       		.uleb128 0xe
 2555 000b 55       		.uleb128 0x55
 2556 000c 17       		.uleb128 0x17
 2557 000d 11       		.uleb128 0x11
 2558 000e 01       		.uleb128 0x1
 2559 000f 10       		.uleb128 0x10
 2560 0010 17       		.uleb128 0x17
 2561 0011 00       		.byte	0
 2562 0012 00       		.byte	0
 2563 0013 02       		.uleb128 0x2
 2564 0014 24       		.uleb128 0x24
 2565 0015 00       		.byte	0
 2566 0016 0B       		.uleb128 0xb
 2567 0017 0B       		.uleb128 0xb
 2568 0018 3E       		.uleb128 0x3e
 2569 0019 0B       		.uleb128 0xb
 2570 001a 03       		.uleb128 0x3
 2571 001b 08       		.uleb128 0x8
 2572 001c 00       		.byte	0
 2573 001d 00       		.byte	0
 2574 001e 03       		.uleb128 0x3
 2575 001f 16       		.uleb128 0x16
 2576 0020 00       		.byte	0
 2577 0021 03       		.uleb128 0x3
ARM GAS  /tmp/ccS3EMNv.s 			page 48


 2578 0022 0E       		.uleb128 0xe
 2579 0023 3A       		.uleb128 0x3a
 2580 0024 0B       		.uleb128 0xb
 2581 0025 3B       		.uleb128 0x3b
 2582 0026 0B       		.uleb128 0xb
 2583 0027 49       		.uleb128 0x49
 2584 0028 13       		.uleb128 0x13
 2585 0029 00       		.byte	0
 2586 002a 00       		.byte	0
 2587 002b 04       		.uleb128 0x4
 2588 002c 24       		.uleb128 0x24
 2589 002d 00       		.byte	0
 2590 002e 0B       		.uleb128 0xb
 2591 002f 0B       		.uleb128 0xb
 2592 0030 3E       		.uleb128 0x3e
 2593 0031 0B       		.uleb128 0xb
 2594 0032 03       		.uleb128 0x3
 2595 0033 0E       		.uleb128 0xe
 2596 0034 00       		.byte	0
 2597 0035 00       		.byte	0
 2598 0036 05       		.uleb128 0x5
 2599 0037 0F       		.uleb128 0xf
 2600 0038 00       		.byte	0
 2601 0039 0B       		.uleb128 0xb
 2602 003a 0B       		.uleb128 0xb
 2603 003b 00       		.byte	0
 2604 003c 00       		.byte	0
 2605 003d 06       		.uleb128 0x6
 2606 003e 35       		.uleb128 0x35
 2607 003f 00       		.byte	0
 2608 0040 49       		.uleb128 0x49
 2609 0041 13       		.uleb128 0x13
 2610 0042 00       		.byte	0
 2611 0043 00       		.byte	0
 2612 0044 07       		.uleb128 0x7
 2613 0045 0F       		.uleb128 0xf
 2614 0046 00       		.byte	0
 2615 0047 0B       		.uleb128 0xb
 2616 0048 0B       		.uleb128 0xb
 2617 0049 49       		.uleb128 0x49
 2618 004a 13       		.uleb128 0x13
 2619 004b 00       		.byte	0
 2620 004c 00       		.byte	0
 2621 004d 08       		.uleb128 0x8
 2622 004e 26       		.uleb128 0x26
 2623 004f 00       		.byte	0
 2624 0050 49       		.uleb128 0x49
 2625 0051 13       		.uleb128 0x13
 2626 0052 00       		.byte	0
 2627 0053 00       		.byte	0
 2628 0054 09       		.uleb128 0x9
 2629 0055 13       		.uleb128 0x13
 2630 0056 01       		.byte	0x1
 2631 0057 0B       		.uleb128 0xb
 2632 0058 0B       		.uleb128 0xb
 2633 0059 3A       		.uleb128 0x3a
 2634 005a 0B       		.uleb128 0xb
ARM GAS  /tmp/ccS3EMNv.s 			page 49


 2635 005b 3B       		.uleb128 0x3b
 2636 005c 05       		.uleb128 0x5
 2637 005d 01       		.uleb128 0x1
 2638 005e 13       		.uleb128 0x13
 2639 005f 00       		.byte	0
 2640 0060 00       		.byte	0
 2641 0061 0A       		.uleb128 0xa
 2642 0062 0D       		.uleb128 0xd
 2643 0063 00       		.byte	0
 2644 0064 03       		.uleb128 0x3
 2645 0065 08       		.uleb128 0x8
 2646 0066 3A       		.uleb128 0x3a
 2647 0067 0B       		.uleb128 0xb
 2648 0068 3B       		.uleb128 0x3b
 2649 0069 05       		.uleb128 0x5
 2650 006a 49       		.uleb128 0x49
 2651 006b 13       		.uleb128 0x13
 2652 006c 38       		.uleb128 0x38
 2653 006d 0B       		.uleb128 0xb
 2654 006e 00       		.byte	0
 2655 006f 00       		.byte	0
 2656 0070 0B       		.uleb128 0xb
 2657 0071 0D       		.uleb128 0xd
 2658 0072 00       		.byte	0
 2659 0073 03       		.uleb128 0x3
 2660 0074 0E       		.uleb128 0xe
 2661 0075 3A       		.uleb128 0x3a
 2662 0076 0B       		.uleb128 0xb
 2663 0077 3B       		.uleb128 0x3b
 2664 0078 05       		.uleb128 0x5
 2665 0079 49       		.uleb128 0x49
 2666 007a 13       		.uleb128 0x13
 2667 007b 38       		.uleb128 0x38
 2668 007c 0B       		.uleb128 0xb
 2669 007d 00       		.byte	0
 2670 007e 00       		.byte	0
 2671 007f 0C       		.uleb128 0xc
 2672 0080 16       		.uleb128 0x16
 2673 0081 00       		.byte	0
 2674 0082 03       		.uleb128 0x3
 2675 0083 0E       		.uleb128 0xe
 2676 0084 3A       		.uleb128 0x3a
 2677 0085 0B       		.uleb128 0xb
 2678 0086 3B       		.uleb128 0x3b
 2679 0087 05       		.uleb128 0x5
 2680 0088 49       		.uleb128 0x49
 2681 0089 13       		.uleb128 0x13
 2682 008a 00       		.byte	0
 2683 008b 00       		.byte	0
 2684 008c 0D       		.uleb128 0xd
 2685 008d 13       		.uleb128 0x13
 2686 008e 01       		.byte	0x1
 2687 008f 0B       		.uleb128 0xb
 2688 0090 0B       		.uleb128 0xb
 2689 0091 3A       		.uleb128 0x3a
 2690 0092 0B       		.uleb128 0xb
 2691 0093 3B       		.uleb128 0x3b
ARM GAS  /tmp/ccS3EMNv.s 			page 50


 2692 0094 0B       		.uleb128 0xb
 2693 0095 01       		.uleb128 0x1
 2694 0096 13       		.uleb128 0x13
 2695 0097 00       		.byte	0
 2696 0098 00       		.byte	0
 2697 0099 0E       		.uleb128 0xe
 2698 009a 0D       		.uleb128 0xd
 2699 009b 00       		.byte	0
 2700 009c 03       		.uleb128 0x3
 2701 009d 0E       		.uleb128 0xe
 2702 009e 3A       		.uleb128 0x3a
 2703 009f 0B       		.uleb128 0xb
 2704 00a0 3B       		.uleb128 0x3b
 2705 00a1 0B       		.uleb128 0xb
 2706 00a2 49       		.uleb128 0x49
 2707 00a3 13       		.uleb128 0x13
 2708 00a4 38       		.uleb128 0x38
 2709 00a5 0B       		.uleb128 0xb
 2710 00a6 00       		.byte	0
 2711 00a7 00       		.byte	0
 2712 00a8 0F       		.uleb128 0xf
 2713 00a9 04       		.uleb128 0x4
 2714 00aa 01       		.byte	0x1
 2715 00ab 0B       		.uleb128 0xb
 2716 00ac 0B       		.uleb128 0xb
 2717 00ad 3A       		.uleb128 0x3a
 2718 00ae 0B       		.uleb128 0xb
 2719 00af 3B       		.uleb128 0x3b
 2720 00b0 0B       		.uleb128 0xb
 2721 00b1 01       		.uleb128 0x1
 2722 00b2 13       		.uleb128 0x13
 2723 00b3 00       		.byte	0
 2724 00b4 00       		.byte	0
 2725 00b5 10       		.uleb128 0x10
 2726 00b6 28       		.uleb128 0x28
 2727 00b7 00       		.byte	0
 2728 00b8 03       		.uleb128 0x3
 2729 00b9 0E       		.uleb128 0xe
 2730 00ba 1C       		.uleb128 0x1c
 2731 00bb 0D       		.uleb128 0xd
 2732 00bc 00       		.byte	0
 2733 00bd 00       		.byte	0
 2734 00be 11       		.uleb128 0x11
 2735 00bf 13       		.uleb128 0x13
 2736 00c0 01       		.byte	0x1
 2737 00c1 03       		.uleb128 0x3
 2738 00c2 0E       		.uleb128 0xe
 2739 00c3 0B       		.uleb128 0xb
 2740 00c4 0B       		.uleb128 0xb
 2741 00c5 3A       		.uleb128 0x3a
 2742 00c6 0B       		.uleb128 0xb
 2743 00c7 3B       		.uleb128 0x3b
 2744 00c8 05       		.uleb128 0x5
 2745 00c9 01       		.uleb128 0x1
 2746 00ca 13       		.uleb128 0x13
 2747 00cb 00       		.byte	0
 2748 00cc 00       		.byte	0
ARM GAS  /tmp/ccS3EMNv.s 			page 51


 2749 00cd 12       		.uleb128 0x12
 2750 00ce 15       		.uleb128 0x15
 2751 00cf 01       		.byte	0x1
 2752 00d0 27       		.uleb128 0x27
 2753 00d1 19       		.uleb128 0x19
 2754 00d2 01       		.uleb128 0x1
 2755 00d3 13       		.uleb128 0x13
 2756 00d4 00       		.byte	0
 2757 00d5 00       		.byte	0
 2758 00d6 13       		.uleb128 0x13
 2759 00d7 05       		.uleb128 0x5
 2760 00d8 00       		.byte	0
 2761 00d9 49       		.uleb128 0x49
 2762 00da 13       		.uleb128 0x13
 2763 00db 00       		.byte	0
 2764 00dc 00       		.byte	0
 2765 00dd 14       		.uleb128 0x14
 2766 00de 2E       		.uleb128 0x2e
 2767 00df 01       		.byte	0x1
 2768 00e0 3F       		.uleb128 0x3f
 2769 00e1 19       		.uleb128 0x19
 2770 00e2 03       		.uleb128 0x3
 2771 00e3 0E       		.uleb128 0xe
 2772 00e4 3A       		.uleb128 0x3a
 2773 00e5 0B       		.uleb128 0xb
 2774 00e6 3B       		.uleb128 0x3b
 2775 00e7 0B       		.uleb128 0xb
 2776 00e8 27       		.uleb128 0x27
 2777 00e9 19       		.uleb128 0x19
 2778 00ea 11       		.uleb128 0x11
 2779 00eb 01       		.uleb128 0x1
 2780 00ec 12       		.uleb128 0x12
 2781 00ed 06       		.uleb128 0x6
 2782 00ee 40       		.uleb128 0x40
 2783 00ef 18       		.uleb128 0x18
 2784 00f0 9742     		.uleb128 0x2117
 2785 00f2 19       		.uleb128 0x19
 2786 00f3 01       		.uleb128 0x1
 2787 00f4 13       		.uleb128 0x13
 2788 00f5 00       		.byte	0
 2789 00f6 00       		.byte	0
 2790 00f7 15       		.uleb128 0x15
 2791 00f8 898201   		.uleb128 0x4109
 2792 00fb 00       		.byte	0
 2793 00fc 11       		.uleb128 0x11
 2794 00fd 01       		.uleb128 0x1
 2795 00fe 9542     		.uleb128 0x2115
 2796 0100 19       		.uleb128 0x19
 2797 0101 31       		.uleb128 0x31
 2798 0102 13       		.uleb128 0x13
 2799 0103 00       		.byte	0
 2800 0104 00       		.byte	0
 2801 0105 16       		.uleb128 0x16
 2802 0106 05       		.uleb128 0x5
 2803 0107 00       		.byte	0
 2804 0108 03       		.uleb128 0x3
 2805 0109 0E       		.uleb128 0xe
ARM GAS  /tmp/ccS3EMNv.s 			page 52


 2806 010a 3A       		.uleb128 0x3a
 2807 010b 0B       		.uleb128 0xb
 2808 010c 3B       		.uleb128 0x3b
 2809 010d 0B       		.uleb128 0xb
 2810 010e 49       		.uleb128 0x49
 2811 010f 13       		.uleb128 0x13
 2812 0110 02       		.uleb128 0x2
 2813 0111 18       		.uleb128 0x18
 2814 0112 00       		.byte	0
 2815 0113 00       		.byte	0
 2816 0114 17       		.uleb128 0x17
 2817 0115 05       		.uleb128 0x5
 2818 0116 00       		.byte	0
 2819 0117 03       		.uleb128 0x3
 2820 0118 0E       		.uleb128 0xe
 2821 0119 3A       		.uleb128 0x3a
 2822 011a 0B       		.uleb128 0xb
 2823 011b 3B       		.uleb128 0x3b
 2824 011c 0B       		.uleb128 0xb
 2825 011d 49       		.uleb128 0x49
 2826 011e 13       		.uleb128 0x13
 2827 011f 02       		.uleb128 0x2
 2828 0120 17       		.uleb128 0x17
 2829 0121 00       		.byte	0
 2830 0122 00       		.byte	0
 2831 0123 18       		.uleb128 0x18
 2832 0124 0B       		.uleb128 0xb
 2833 0125 01       		.byte	0x1
 2834 0126 11       		.uleb128 0x11
 2835 0127 01       		.uleb128 0x1
 2836 0128 12       		.uleb128 0x12
 2837 0129 06       		.uleb128 0x6
 2838 012a 01       		.uleb128 0x1
 2839 012b 13       		.uleb128 0x13
 2840 012c 00       		.byte	0
 2841 012d 00       		.byte	0
 2842 012e 19       		.uleb128 0x19
 2843 012f 34       		.uleb128 0x34
 2844 0130 00       		.byte	0
 2845 0131 03       		.uleb128 0x3
 2846 0132 08       		.uleb128 0x8
 2847 0133 3A       		.uleb128 0x3a
 2848 0134 0B       		.uleb128 0xb
 2849 0135 3B       		.uleb128 0x3b
 2850 0136 0B       		.uleb128 0xb
 2851 0137 49       		.uleb128 0x49
 2852 0138 13       		.uleb128 0x13
 2853 0139 02       		.uleb128 0x2
 2854 013a 18       		.uleb128 0x18
 2855 013b 00       		.byte	0
 2856 013c 00       		.byte	0
 2857 013d 1A       		.uleb128 0x1a
 2858 013e 898201   		.uleb128 0x4109
 2859 0141 00       		.byte	0
 2860 0142 11       		.uleb128 0x11
 2861 0143 01       		.uleb128 0x1
 2862 0144 31       		.uleb128 0x31
ARM GAS  /tmp/ccS3EMNv.s 			page 53


 2863 0145 13       		.uleb128 0x13
 2864 0146 00       		.byte	0
 2865 0147 00       		.byte	0
 2866 0148 1B       		.uleb128 0x1b
 2867 0149 898201   		.uleb128 0x4109
 2868 014c 01       		.byte	0x1
 2869 014d 11       		.uleb128 0x11
 2870 014e 01       		.uleb128 0x1
 2871 014f 31       		.uleb128 0x31
 2872 0150 13       		.uleb128 0x13
 2873 0151 01       		.uleb128 0x1
 2874 0152 13       		.uleb128 0x13
 2875 0153 00       		.byte	0
 2876 0154 00       		.byte	0
 2877 0155 1C       		.uleb128 0x1c
 2878 0156 8A8201   		.uleb128 0x410a
 2879 0159 00       		.byte	0
 2880 015a 02       		.uleb128 0x2
 2881 015b 18       		.uleb128 0x18
 2882 015c 9142     		.uleb128 0x2111
 2883 015e 18       		.uleb128 0x18
 2884 015f 00       		.byte	0
 2885 0160 00       		.byte	0
 2886 0161 1D       		.uleb128 0x1d
 2887 0162 898201   		.uleb128 0x4109
 2888 0165 01       		.byte	0x1
 2889 0166 11       		.uleb128 0x11
 2890 0167 01       		.uleb128 0x1
 2891 0168 31       		.uleb128 0x31
 2892 0169 13       		.uleb128 0x13
 2893 016a 00       		.byte	0
 2894 016b 00       		.byte	0
 2895 016c 1E       		.uleb128 0x1e
 2896 016d 05       		.uleb128 0x5
 2897 016e 00       		.byte	0
 2898 016f 03       		.uleb128 0x3
 2899 0170 08       		.uleb128 0x8
 2900 0171 3A       		.uleb128 0x3a
 2901 0172 0B       		.uleb128 0xb
 2902 0173 3B       		.uleb128 0x3b
 2903 0174 0B       		.uleb128 0xb
 2904 0175 49       		.uleb128 0x49
 2905 0176 13       		.uleb128 0x13
 2906 0177 02       		.uleb128 0x2
 2907 0178 17       		.uleb128 0x17
 2908 0179 00       		.byte	0
 2909 017a 00       		.byte	0
 2910 017b 1F       		.uleb128 0x1f
 2911 017c 26       		.uleb128 0x26
 2912 017d 00       		.byte	0
 2913 017e 00       		.byte	0
 2914 017f 00       		.byte	0
 2915 0180 20       		.uleb128 0x20
 2916 0181 2E       		.uleb128 0x2e
 2917 0182 01       		.byte	0x1
 2918 0183 3F       		.uleb128 0x3f
 2919 0184 19       		.uleb128 0x19
ARM GAS  /tmp/ccS3EMNv.s 			page 54


 2920 0185 03       		.uleb128 0x3
 2921 0186 0E       		.uleb128 0xe
 2922 0187 3A       		.uleb128 0x3a
 2923 0188 0B       		.uleb128 0xb
 2924 0189 3B       		.uleb128 0x3b
 2925 018a 0B       		.uleb128 0xb
 2926 018b 27       		.uleb128 0x27
 2927 018c 19       		.uleb128 0x19
 2928 018d 49       		.uleb128 0x49
 2929 018e 13       		.uleb128 0x13
 2930 018f 11       		.uleb128 0x11
 2931 0190 01       		.uleb128 0x1
 2932 0191 12       		.uleb128 0x12
 2933 0192 06       		.uleb128 0x6
 2934 0193 40       		.uleb128 0x40
 2935 0194 18       		.uleb128 0x18
 2936 0195 9742     		.uleb128 0x2117
 2937 0197 19       		.uleb128 0x19
 2938 0198 01       		.uleb128 0x1
 2939 0199 13       		.uleb128 0x13
 2940 019a 00       		.byte	0
 2941 019b 00       		.byte	0
 2942 019c 21       		.uleb128 0x21
 2943 019d 34       		.uleb128 0x34
 2944 019e 00       		.byte	0
 2945 019f 03       		.uleb128 0x3
 2946 01a0 08       		.uleb128 0x8
 2947 01a1 3A       		.uleb128 0x3a
 2948 01a2 0B       		.uleb128 0xb
 2949 01a3 3B       		.uleb128 0x3b
 2950 01a4 0B       		.uleb128 0xb
 2951 01a5 49       		.uleb128 0x49
 2952 01a6 13       		.uleb128 0x13
 2953 01a7 02       		.uleb128 0x2
 2954 01a8 17       		.uleb128 0x17
 2955 01a9 00       		.byte	0
 2956 01aa 00       		.byte	0
 2957 01ab 22       		.uleb128 0x22
 2958 01ac 34       		.uleb128 0x34
 2959 01ad 00       		.byte	0
 2960 01ae 03       		.uleb128 0x3
 2961 01af 08       		.uleb128 0x8
 2962 01b0 3A       		.uleb128 0x3a
 2963 01b1 0B       		.uleb128 0xb
 2964 01b2 3B       		.uleb128 0x3b
 2965 01b3 05       		.uleb128 0x5
 2966 01b4 49       		.uleb128 0x49
 2967 01b5 13       		.uleb128 0x13
 2968 01b6 02       		.uleb128 0x2
 2969 01b7 18       		.uleb128 0x18
 2970 01b8 00       		.byte	0
 2971 01b9 00       		.byte	0
 2972 01ba 23       		.uleb128 0x23
 2973 01bb 2E       		.uleb128 0x2e
 2974 01bc 01       		.byte	0x1
 2975 01bd 3F       		.uleb128 0x3f
 2976 01be 19       		.uleb128 0x19
ARM GAS  /tmp/ccS3EMNv.s 			page 55


 2977 01bf 03       		.uleb128 0x3
 2978 01c0 0E       		.uleb128 0xe
 2979 01c1 3A       		.uleb128 0x3a
 2980 01c2 0B       		.uleb128 0xb
 2981 01c3 3B       		.uleb128 0x3b
 2982 01c4 05       		.uleb128 0x5
 2983 01c5 27       		.uleb128 0x27
 2984 01c6 19       		.uleb128 0x19
 2985 01c7 11       		.uleb128 0x11
 2986 01c8 01       		.uleb128 0x1
 2987 01c9 12       		.uleb128 0x12
 2988 01ca 06       		.uleb128 0x6
 2989 01cb 40       		.uleb128 0x40
 2990 01cc 18       		.uleb128 0x18
 2991 01cd 9742     		.uleb128 0x2117
 2992 01cf 19       		.uleb128 0x19
 2993 01d0 01       		.uleb128 0x1
 2994 01d1 13       		.uleb128 0x13
 2995 01d2 00       		.byte	0
 2996 01d3 00       		.byte	0
 2997 01d4 24       		.uleb128 0x24
 2998 01d5 05       		.uleb128 0x5
 2999 01d6 00       		.byte	0
 3000 01d7 03       		.uleb128 0x3
 3001 01d8 0E       		.uleb128 0xe
 3002 01d9 3A       		.uleb128 0x3a
 3003 01da 0B       		.uleb128 0xb
 3004 01db 3B       		.uleb128 0x3b
 3005 01dc 05       		.uleb128 0x5
 3006 01dd 49       		.uleb128 0x49
 3007 01de 13       		.uleb128 0x13
 3008 01df 02       		.uleb128 0x2
 3009 01e0 17       		.uleb128 0x17
 3010 01e1 00       		.byte	0
 3011 01e2 00       		.byte	0
 3012 01e3 25       		.uleb128 0x25
 3013 01e4 05       		.uleb128 0x5
 3014 01e5 00       		.byte	0
 3015 01e6 03       		.uleb128 0x3
 3016 01e7 08       		.uleb128 0x8
 3017 01e8 3A       		.uleb128 0x3a
 3018 01e9 0B       		.uleb128 0xb
 3019 01ea 3B       		.uleb128 0x3b
 3020 01eb 05       		.uleb128 0x5
 3021 01ec 49       		.uleb128 0x49
 3022 01ed 13       		.uleb128 0x13
 3023 01ee 02       		.uleb128 0x2
 3024 01ef 17       		.uleb128 0x17
 3025 01f0 00       		.byte	0
 3026 01f1 00       		.byte	0
 3027 01f2 26       		.uleb128 0x26
 3028 01f3 2E       		.uleb128 0x2e
 3029 01f4 01       		.byte	0x1
 3030 01f5 3F       		.uleb128 0x3f
 3031 01f6 19       		.uleb128 0x19
 3032 01f7 03       		.uleb128 0x3
 3033 01f8 0E       		.uleb128 0xe
ARM GAS  /tmp/ccS3EMNv.s 			page 56


 3034 01f9 3A       		.uleb128 0x3a
 3035 01fa 0B       		.uleb128 0xb
 3036 01fb 3B       		.uleb128 0x3b
 3037 01fc 05       		.uleb128 0x5
 3038 01fd 27       		.uleb128 0x27
 3039 01fe 19       		.uleb128 0x19
 3040 01ff 49       		.uleb128 0x49
 3041 0200 13       		.uleb128 0x13
 3042 0201 11       		.uleb128 0x11
 3043 0202 01       		.uleb128 0x1
 3044 0203 12       		.uleb128 0x12
 3045 0204 06       		.uleb128 0x6
 3046 0205 40       		.uleb128 0x40
 3047 0206 18       		.uleb128 0x18
 3048 0207 9742     		.uleb128 0x2117
 3049 0209 19       		.uleb128 0x19
 3050 020a 01       		.uleb128 0x1
 3051 020b 13       		.uleb128 0x13
 3052 020c 00       		.byte	0
 3053 020d 00       		.byte	0
 3054 020e 27       		.uleb128 0x27
 3055 020f 34       		.uleb128 0x34
 3056 0210 00       		.byte	0
 3057 0211 03       		.uleb128 0x3
 3058 0212 08       		.uleb128 0x8
 3059 0213 3A       		.uleb128 0x3a
 3060 0214 0B       		.uleb128 0xb
 3061 0215 3B       		.uleb128 0x3b
 3062 0216 05       		.uleb128 0x5
 3063 0217 49       		.uleb128 0x49
 3064 0218 13       		.uleb128 0x13
 3065 0219 02       		.uleb128 0x2
 3066 021a 17       		.uleb128 0x17
 3067 021b 00       		.byte	0
 3068 021c 00       		.byte	0
 3069 021d 28       		.uleb128 0x28
 3070 021e 34       		.uleb128 0x34
 3071 021f 00       		.byte	0
 3072 0220 03       		.uleb128 0x3
 3073 0221 0E       		.uleb128 0xe
 3074 0222 3A       		.uleb128 0x3a
 3075 0223 0B       		.uleb128 0xb
 3076 0224 3B       		.uleb128 0x3b
 3077 0225 05       		.uleb128 0x5
 3078 0226 49       		.uleb128 0x49
 3079 0227 13       		.uleb128 0x13
 3080 0228 3F       		.uleb128 0x3f
 3081 0229 19       		.uleb128 0x19
 3082 022a 3C       		.uleb128 0x3c
 3083 022b 19       		.uleb128 0x19
 3084 022c 00       		.byte	0
 3085 022d 00       		.byte	0
 3086 022e 29       		.uleb128 0x29
 3087 022f 2E       		.uleb128 0x2e
 3088 0230 00       		.byte	0
 3089 0231 3F       		.uleb128 0x3f
 3090 0232 19       		.uleb128 0x19
ARM GAS  /tmp/ccS3EMNv.s 			page 57


 3091 0233 03       		.uleb128 0x3
 3092 0234 0E       		.uleb128 0xe
 3093 0235 3A       		.uleb128 0x3a
 3094 0236 0B       		.uleb128 0xb
 3095 0237 3B       		.uleb128 0x3b
 3096 0238 05       		.uleb128 0x5
 3097 0239 27       		.uleb128 0x27
 3098 023a 19       		.uleb128 0x19
 3099 023b 3C       		.uleb128 0x3c
 3100 023c 19       		.uleb128 0x19
 3101 023d 00       		.byte	0
 3102 023e 00       		.byte	0
 3103 023f 2A       		.uleb128 0x2a
 3104 0240 2E       		.uleb128 0x2e
 3105 0241 00       		.byte	0
 3106 0242 3F       		.uleb128 0x3f
 3107 0243 19       		.uleb128 0x19
 3108 0244 03       		.uleb128 0x3
 3109 0245 0E       		.uleb128 0xe
 3110 0246 3A       		.uleb128 0x3a
 3111 0247 0B       		.uleb128 0xb
 3112 0248 3B       		.uleb128 0x3b
 3113 0249 0B       		.uleb128 0xb
 3114 024a 27       		.uleb128 0x27
 3115 024b 19       		.uleb128 0x19
 3116 024c 3C       		.uleb128 0x3c
 3117 024d 19       		.uleb128 0x19
 3118 024e 00       		.byte	0
 3119 024f 00       		.byte	0
 3120 0250 2B       		.uleb128 0x2b
 3121 0251 2E       		.uleb128 0x2e
 3122 0252 01       		.byte	0x1
 3123 0253 3F       		.uleb128 0x3f
 3124 0254 19       		.uleb128 0x19
 3125 0255 03       		.uleb128 0x3
 3126 0256 0E       		.uleb128 0xe
 3127 0257 3A       		.uleb128 0x3a
 3128 0258 0B       		.uleb128 0xb
 3129 0259 3B       		.uleb128 0x3b
 3130 025a 0B       		.uleb128 0xb
 3131 025b 27       		.uleb128 0x27
 3132 025c 19       		.uleb128 0x19
 3133 025d 3C       		.uleb128 0x3c
 3134 025e 19       		.uleb128 0x19
 3135 025f 01       		.uleb128 0x1
 3136 0260 13       		.uleb128 0x13
 3137 0261 00       		.byte	0
 3138 0262 00       		.byte	0
 3139 0263 2C       		.uleb128 0x2c
 3140 0264 2E       		.uleb128 0x2e
 3141 0265 01       		.byte	0x1
 3142 0266 3F       		.uleb128 0x3f
 3143 0267 19       		.uleb128 0x19
 3144 0268 03       		.uleb128 0x3
 3145 0269 0E       		.uleb128 0xe
 3146 026a 3A       		.uleb128 0x3a
 3147 026b 0B       		.uleb128 0xb
ARM GAS  /tmp/ccS3EMNv.s 			page 58


 3148 026c 3B       		.uleb128 0x3b
 3149 026d 05       		.uleb128 0x5
 3150 026e 27       		.uleb128 0x27
 3151 026f 19       		.uleb128 0x19
 3152 0270 3C       		.uleb128 0x3c
 3153 0271 19       		.uleb128 0x19
 3154 0272 01       		.uleb128 0x1
 3155 0273 13       		.uleb128 0x13
 3156 0274 00       		.byte	0
 3157 0275 00       		.byte	0
 3158 0276 2D       		.uleb128 0x2d
 3159 0277 2E       		.uleb128 0x2e
 3160 0278 01       		.byte	0x1
 3161 0279 3F       		.uleb128 0x3f
 3162 027a 19       		.uleb128 0x19
 3163 027b 03       		.uleb128 0x3
 3164 027c 0E       		.uleb128 0xe
 3165 027d 3A       		.uleb128 0x3a
 3166 027e 0B       		.uleb128 0xb
 3167 027f 3B       		.uleb128 0x3b
 3168 0280 05       		.uleb128 0x5
 3169 0281 27       		.uleb128 0x27
 3170 0282 19       		.uleb128 0x19
 3171 0283 49       		.uleb128 0x49
 3172 0284 13       		.uleb128 0x13
 3173 0285 3C       		.uleb128 0x3c
 3174 0286 19       		.uleb128 0x19
 3175 0287 01       		.uleb128 0x1
 3176 0288 13       		.uleb128 0x13
 3177 0289 00       		.byte	0
 3178 028a 00       		.byte	0
 3179 028b 2E       		.uleb128 0x2e
 3180 028c 2E       		.uleb128 0x2e
 3181 028d 01       		.byte	0x1
 3182 028e 3F       		.uleb128 0x3f
 3183 028f 19       		.uleb128 0x19
 3184 0290 03       		.uleb128 0x3
 3185 0291 0E       		.uleb128 0xe
 3186 0292 3A       		.uleb128 0x3a
 3187 0293 0B       		.uleb128 0xb
 3188 0294 3B       		.uleb128 0x3b
 3189 0295 05       		.uleb128 0x5
 3190 0296 27       		.uleb128 0x27
 3191 0297 19       		.uleb128 0x19
 3192 0298 49       		.uleb128 0x49
 3193 0299 13       		.uleb128 0x13
 3194 029a 3C       		.uleb128 0x3c
 3195 029b 19       		.uleb128 0x19
 3196 029c 00       		.byte	0
 3197 029d 00       		.byte	0
 3198 029e 00       		.byte	0
 3199              		.section	.debug_loc,"",%progbits
 3200              	.Ldebug_loc0:
 3201              	.LLST0:
 3202 0000 00000000 		.4byte	.LVL2
 3203 0004 0A000000 		.4byte	.LVL3
 3204 0008 0100     		.2byte	0x1
ARM GAS  /tmp/ccS3EMNv.s 			page 59


 3205 000a 50       		.byte	0x50
 3206 000b 0A000000 		.4byte	.LVL3
 3207 000f 3C000000 		.4byte	.LVL8
 3208 0013 0100     		.2byte	0x1
 3209 0015 54       		.byte	0x54
 3210 0016 3C000000 		.4byte	.LVL8
 3211 001a 3E000000 		.4byte	.LVL9
 3212 001e 0100     		.2byte	0x1
 3213 0020 50       		.byte	0x50
 3214 0021 3E000000 		.4byte	.LVL9
 3215 0025 4C000000 		.4byte	.LFE120
 3216 0029 0100     		.2byte	0x1
 3217 002b 54       		.byte	0x54
 3218 002c 00000000 		.4byte	0
 3219 0030 00000000 		.4byte	0
 3220              	.LLST1:
 3221 0034 00000000 		.4byte	.LVL2
 3222 0038 0A000000 		.4byte	.LVL3
 3223 003c 0100     		.2byte	0x1
 3224 003e 51       		.byte	0x51
 3225 003f 0A000000 		.4byte	.LVL3
 3226 0043 3C000000 		.4byte	.LVL8
 3227 0047 0100     		.2byte	0x1
 3228 0049 55       		.byte	0x55
 3229 004a 3C000000 		.4byte	.LVL8
 3230 004e 41000000 		.4byte	.LVL10-1
 3231 0052 0100     		.2byte	0x1
 3232 0054 51       		.byte	0x51
 3233 0055 41000000 		.4byte	.LVL10-1
 3234 0059 4C000000 		.4byte	.LFE120
 3235 005d 0100     		.2byte	0x1
 3236 005f 55       		.byte	0x55
 3237 0060 00000000 		.4byte	0
 3238 0064 00000000 		.4byte	0
 3239              	.LLST2:
 3240 0068 00000000 		.4byte	.LVL11
 3241 006c 06000000 		.4byte	.LVL12
 3242 0070 0100     		.2byte	0x1
 3243 0072 50       		.byte	0x50
 3244 0073 06000000 		.4byte	.LVL12
 3245 0077 3C000000 		.4byte	.LVL17
 3246 007b 0100     		.2byte	0x1
 3247 007d 54       		.byte	0x54
 3248 007e 3C000000 		.4byte	.LVL17
 3249 0082 3E000000 		.4byte	.LVL18
 3250 0086 0100     		.2byte	0x1
 3251 0088 50       		.byte	0x50
 3252 0089 3E000000 		.4byte	.LVL18
 3253 008d 4C000000 		.4byte	.LFE121
 3254 0091 0100     		.2byte	0x1
 3255 0093 54       		.byte	0x54
 3256 0094 00000000 		.4byte	0
 3257 0098 00000000 		.4byte	0
 3258              	.LLST3:
 3259 009c 00000000 		.4byte	.LVL20
 3260 00a0 0E000000 		.4byte	.LVL21
 3261 00a4 0100     		.2byte	0x1
ARM GAS  /tmp/ccS3EMNv.s 			page 60


 3262 00a6 50       		.byte	0x50
 3263 00a7 0E000000 		.4byte	.LVL21
 3264 00ab 48000000 		.4byte	.LVL27
 3265 00af 0100     		.2byte	0x1
 3266 00b1 54       		.byte	0x54
 3267 00b2 48000000 		.4byte	.LVL27
 3268 00b6 4E000000 		.4byte	.LVL28
 3269 00ba 0100     		.2byte	0x1
 3270 00bc 50       		.byte	0x50
 3271 00bd 4E000000 		.4byte	.LVL28
 3272 00c1 64000000 		.4byte	.LFE122
 3273 00c5 0100     		.2byte	0x1
 3274 00c7 54       		.byte	0x54
 3275 00c8 00000000 		.4byte	0
 3276 00cc 00000000 		.4byte	0
 3277              	.LLST4:
 3278 00d0 00000000 		.4byte	.LVL20
 3279 00d4 11000000 		.4byte	.LVL22-1
 3280 00d8 0100     		.2byte	0x1
 3281 00da 51       		.byte	0x51
 3282 00db 11000000 		.4byte	.LVL22-1
 3283 00df 48000000 		.4byte	.LVL27
 3284 00e3 0100     		.2byte	0x1
 3285 00e5 55       		.byte	0x55
 3286 00e6 48000000 		.4byte	.LVL27
 3287 00ea 4E000000 		.4byte	.LVL28
 3288 00ee 0100     		.2byte	0x1
 3289 00f0 51       		.byte	0x51
 3290 00f1 4E000000 		.4byte	.LVL28
 3291 00f5 64000000 		.4byte	.LFE122
 3292 00f9 0100     		.2byte	0x1
 3293 00fb 55       		.byte	0x55
 3294 00fc 00000000 		.4byte	0
 3295 0100 00000000 		.4byte	0
 3296              	.LLST5:
 3297 0104 00000000 		.4byte	.LVL20
 3298 0108 11000000 		.4byte	.LVL22-1
 3299 010c 0100     		.2byte	0x1
 3300 010e 52       		.byte	0x52
 3301 010f 11000000 		.4byte	.LVL22-1
 3302 0113 48000000 		.4byte	.LVL27
 3303 0117 0100     		.2byte	0x1
 3304 0119 56       		.byte	0x56
 3305 011a 48000000 		.4byte	.LVL27
 3306 011e 4E000000 		.4byte	.LVL28
 3307 0122 0100     		.2byte	0x1
 3308 0124 52       		.byte	0x52
 3309 0125 4E000000 		.4byte	.LVL28
 3310 0129 64000000 		.4byte	.LFE122
 3311 012d 0100     		.2byte	0x1
 3312 012f 56       		.byte	0x56
 3313 0130 00000000 		.4byte	0
 3314 0134 00000000 		.4byte	0
 3315              	.LLST6:
 3316 0138 00000000 		.4byte	.LVL30
 3317 013c 0B000000 		.4byte	.LVL31-1
 3318 0140 0100     		.2byte	0x1
ARM GAS  /tmp/ccS3EMNv.s 			page 61


 3319 0142 50       		.byte	0x50
 3320 0143 0B000000 		.4byte	.LVL31-1
 3321 0147 54000000 		.4byte	.LFE123
 3322 014b 0100     		.2byte	0x1
 3323 014d 54       		.byte	0x54
 3324 014e 00000000 		.4byte	0
 3325 0152 00000000 		.4byte	0
 3326              	.LLST7:
 3327 0156 00000000 		.4byte	.LVL30
 3328 015a 0B000000 		.4byte	.LVL31-1
 3329 015e 0100     		.2byte	0x1
 3330 0160 51       		.byte	0x51
 3331 0161 0B000000 		.4byte	.LVL31-1
 3332 0165 54000000 		.4byte	.LFE123
 3333 0169 0100     		.2byte	0x1
 3334 016b 55       		.byte	0x55
 3335 016c 00000000 		.4byte	0
 3336 0170 00000000 		.4byte	0
 3337              	.LLST8:
 3338 0174 00000000 		.4byte	.LVL30
 3339 0178 0B000000 		.4byte	.LVL31-1
 3340 017c 0100     		.2byte	0x1
 3341 017e 52       		.byte	0x52
 3342 017f 0B000000 		.4byte	.LVL31-1
 3343 0183 54000000 		.4byte	.LFE123
 3344 0187 0100     		.2byte	0x1
 3345 0189 56       		.byte	0x56
 3346 018a 00000000 		.4byte	0
 3347 018e 00000000 		.4byte	0
 3348              	.LLST9:
 3349 0192 00000000 		.4byte	.LVL37
 3350 0196 06000000 		.4byte	.LVL38
 3351 019a 0100     		.2byte	0x1
 3352 019c 50       		.byte	0x50
 3353 019d 06000000 		.4byte	.LVL38
 3354 01a1 40000000 		.4byte	.LVL46
 3355 01a5 0100     		.2byte	0x1
 3356 01a7 54       		.byte	0x54
 3357 01a8 40000000 		.4byte	.LVL46
 3358 01ac 42000000 		.4byte	.LVL47
 3359 01b0 0100     		.2byte	0x1
 3360 01b2 50       		.byte	0x50
 3361 01b3 42000000 		.4byte	.LVL47
 3362 01b7 50000000 		.4byte	.LFE124
 3363 01bb 0100     		.2byte	0x1
 3364 01bd 54       		.byte	0x54
 3365 01be 00000000 		.4byte	0
 3366 01c2 00000000 		.4byte	0
 3367              	.LLST10:
 3368 01c6 24000000 		.4byte	.LVL41
 3369 01ca 32000000 		.4byte	.LVL43
 3370 01ce 0100     		.2byte	0x1
 3371 01d0 55       		.byte	0x55
 3372 01d1 3C000000 		.4byte	.LVL45
 3373 01d5 40000000 		.4byte	.LVL46
 3374 01d9 0100     		.2byte	0x1
 3375 01db 50       		.byte	0x50
ARM GAS  /tmp/ccS3EMNv.s 			page 62


 3376 01dc 00000000 		.4byte	0
 3377 01e0 00000000 		.4byte	0
 3378              	.LLST11:
 3379 01e4 00000000 		.4byte	.LVL49
 3380 01e8 07000000 		.4byte	.LVL50-1
 3381 01ec 0100     		.2byte	0x1
 3382 01ee 50       		.byte	0x50
 3383 01ef 07000000 		.4byte	.LVL50-1
 3384 01f3 3C000000 		.4byte	.LFE125
 3385 01f7 0100     		.2byte	0x1
 3386 01f9 54       		.byte	0x54
 3387 01fa 00000000 		.4byte	0
 3388 01fe 00000000 		.4byte	0
 3389              	.LLST12:
 3390 0202 26000000 		.4byte	.LVL53
 3391 0206 2C000000 		.4byte	.LVL54
 3392 020a 0100     		.2byte	0x1
 3393 020c 50       		.byte	0x50
 3394 020d 00000000 		.4byte	0
 3395 0211 00000000 		.4byte	0
 3396              	.LLST13:
 3397 0215 00000000 		.4byte	.LVL56
 3398 0219 0E000000 		.4byte	.LVL57
 3399 021d 0100     		.2byte	0x1
 3400 021f 50       		.byte	0x50
 3401 0220 0E000000 		.4byte	.LVL57
 3402 0224 48000000 		.4byte	.LVL63
 3403 0228 0100     		.2byte	0x1
 3404 022a 54       		.byte	0x54
 3405 022b 48000000 		.4byte	.LVL63
 3406 022f 4E000000 		.4byte	.LVL64
 3407 0233 0100     		.2byte	0x1
 3408 0235 50       		.byte	0x50
 3409 0236 4E000000 		.4byte	.LVL64
 3410 023a 64000000 		.4byte	.LFE126
 3411 023e 0100     		.2byte	0x1
 3412 0240 54       		.byte	0x54
 3413 0241 00000000 		.4byte	0
 3414 0245 00000000 		.4byte	0
 3415              	.LLST14:
 3416 0249 00000000 		.4byte	.LVL56
 3417 024d 11000000 		.4byte	.LVL58-1
 3418 0251 0100     		.2byte	0x1
 3419 0253 51       		.byte	0x51
 3420 0254 11000000 		.4byte	.LVL58-1
 3421 0258 48000000 		.4byte	.LVL63
 3422 025c 0100     		.2byte	0x1
 3423 025e 55       		.byte	0x55
 3424 025f 48000000 		.4byte	.LVL63
 3425 0263 4E000000 		.4byte	.LVL64
 3426 0267 0100     		.2byte	0x1
 3427 0269 51       		.byte	0x51
 3428 026a 4E000000 		.4byte	.LVL64
 3429 026e 64000000 		.4byte	.LFE126
 3430 0272 0100     		.2byte	0x1
 3431 0274 55       		.byte	0x55
 3432 0275 00000000 		.4byte	0
ARM GAS  /tmp/ccS3EMNv.s 			page 63


 3433 0279 00000000 		.4byte	0
 3434              	.LLST15:
 3435 027d 00000000 		.4byte	.LVL56
 3436 0281 11000000 		.4byte	.LVL58-1
 3437 0285 0100     		.2byte	0x1
 3438 0287 52       		.byte	0x52
 3439 0288 11000000 		.4byte	.LVL58-1
 3440 028c 48000000 		.4byte	.LVL63
 3441 0290 0100     		.2byte	0x1
 3442 0292 56       		.byte	0x56
 3443 0293 48000000 		.4byte	.LVL63
 3444 0297 4E000000 		.4byte	.LVL64
 3445 029b 0100     		.2byte	0x1
 3446 029d 52       		.byte	0x52
 3447 029e 4E000000 		.4byte	.LVL64
 3448 02a2 64000000 		.4byte	.LFE126
 3449 02a6 0100     		.2byte	0x1
 3450 02a8 56       		.byte	0x56
 3451 02a9 00000000 		.4byte	0
 3452 02ad 00000000 		.4byte	0
 3453              	.LLST16:
 3454 02b1 00000000 		.4byte	.LVL66
 3455 02b5 0B000000 		.4byte	.LVL67-1
 3456 02b9 0100     		.2byte	0x1
 3457 02bb 50       		.byte	0x50
 3458 02bc 0B000000 		.4byte	.LVL67-1
 3459 02c0 54000000 		.4byte	.LFE127
 3460 02c4 0100     		.2byte	0x1
 3461 02c6 54       		.byte	0x54
 3462 02c7 00000000 		.4byte	0
 3463 02cb 00000000 		.4byte	0
 3464              	.LLST17:
 3465 02cf 00000000 		.4byte	.LVL66
 3466 02d3 0B000000 		.4byte	.LVL67-1
 3467 02d7 0100     		.2byte	0x1
 3468 02d9 51       		.byte	0x51
 3469 02da 0B000000 		.4byte	.LVL67-1
 3470 02de 54000000 		.4byte	.LFE127
 3471 02e2 0100     		.2byte	0x1
 3472 02e4 55       		.byte	0x55
 3473 02e5 00000000 		.4byte	0
 3474 02e9 00000000 		.4byte	0
 3475              	.LLST18:
 3476 02ed 00000000 		.4byte	.LVL66
 3477 02f1 0B000000 		.4byte	.LVL67-1
 3478 02f5 0100     		.2byte	0x1
 3479 02f7 52       		.byte	0x52
 3480 02f8 0B000000 		.4byte	.LVL67-1
 3481 02fc 54000000 		.4byte	.LFE127
 3482 0300 0100     		.2byte	0x1
 3483 0302 56       		.byte	0x56
 3484 0303 00000000 		.4byte	0
 3485 0307 00000000 		.4byte	0
 3486              	.LLST19:
 3487 030b 00000000 		.4byte	.LVL73
 3488 030f 06000000 		.4byte	.LVL74
 3489 0313 0100     		.2byte	0x1
ARM GAS  /tmp/ccS3EMNv.s 			page 64


 3490 0315 50       		.byte	0x50
 3491 0316 06000000 		.4byte	.LVL74
 3492 031a 40000000 		.4byte	.LVL82
 3493 031e 0100     		.2byte	0x1
 3494 0320 54       		.byte	0x54
 3495 0321 40000000 		.4byte	.LVL82
 3496 0325 42000000 		.4byte	.LVL83
 3497 0329 0100     		.2byte	0x1
 3498 032b 50       		.byte	0x50
 3499 032c 42000000 		.4byte	.LVL83
 3500 0330 50000000 		.4byte	.LFE128
 3501 0334 0100     		.2byte	0x1
 3502 0336 54       		.byte	0x54
 3503 0337 00000000 		.4byte	0
 3504 033b 00000000 		.4byte	0
 3505              	.LLST20:
 3506 033f 24000000 		.4byte	.LVL77
 3507 0343 32000000 		.4byte	.LVL79
 3508 0347 0100     		.2byte	0x1
 3509 0349 55       		.byte	0x55
 3510 034a 3C000000 		.4byte	.LVL81
 3511 034e 40000000 		.4byte	.LVL82
 3512 0352 0100     		.2byte	0x1
 3513 0354 50       		.byte	0x50
 3514 0355 00000000 		.4byte	0
 3515 0359 00000000 		.4byte	0
 3516              	.LLST21:
 3517 035d 00000000 		.4byte	.LVL85
 3518 0361 07000000 		.4byte	.LVL86-1
 3519 0365 0100     		.2byte	0x1
 3520 0367 50       		.byte	0x50
 3521 0368 07000000 		.4byte	.LVL86-1
 3522 036c 3C000000 		.4byte	.LFE129
 3523 0370 0100     		.2byte	0x1
 3524 0372 54       		.byte	0x54
 3525 0373 00000000 		.4byte	0
 3526 0377 00000000 		.4byte	0
 3527              	.LLST22:
 3528 037b 26000000 		.4byte	.LVL89
 3529 037f 2C000000 		.4byte	.LVL90
 3530 0383 0100     		.2byte	0x1
 3531 0385 50       		.byte	0x50
 3532 0386 00000000 		.4byte	0
 3533 038a 00000000 		.4byte	0
 3534              		.section	.debug_aranges,"",%progbits
 3535 0000 74000000 		.4byte	0x74
 3536 0004 0200     		.2byte	0x2
 3537 0006 00000000 		.4byte	.Ldebug_info0
 3538 000a 04       		.byte	0x4
 3539 000b 00       		.byte	0
 3540 000c 0000     		.2byte	0
 3541 000e 0000     		.2byte	0
 3542 0010 00000000 		.4byte	.LFB118
 3543 0014 04000000 		.4byte	.LFE118-.LFB118
 3544 0018 00000000 		.4byte	.LFB119
 3545 001c 0E000000 		.4byte	.LFE119-.LFB119
 3546 0020 00000000 		.4byte	.LFB120
ARM GAS  /tmp/ccS3EMNv.s 			page 65


 3547 0024 4C000000 		.4byte	.LFE120-.LFB120
 3548 0028 00000000 		.4byte	.LFB121
 3549 002c 4C000000 		.4byte	.LFE121-.LFB121
 3550 0030 00000000 		.4byte	.LFB122
 3551 0034 64000000 		.4byte	.LFE122-.LFB122
 3552 0038 00000000 		.4byte	.LFB123
 3553 003c 54000000 		.4byte	.LFE123-.LFB123
 3554 0040 00000000 		.4byte	.LFB124
 3555 0044 50000000 		.4byte	.LFE124-.LFB124
 3556 0048 00000000 		.4byte	.LFB125
 3557 004c 3C000000 		.4byte	.LFE125-.LFB125
 3558 0050 00000000 		.4byte	.LFB126
 3559 0054 64000000 		.4byte	.LFE126-.LFB126
 3560 0058 00000000 		.4byte	.LFB127
 3561 005c 54000000 		.4byte	.LFE127-.LFB127
 3562 0060 00000000 		.4byte	.LFB128
 3563 0064 50000000 		.4byte	.LFE128-.LFB128
 3564 0068 00000000 		.4byte	.LFB129
 3565 006c 3C000000 		.4byte	.LFE129-.LFB129
 3566 0070 00000000 		.4byte	0
 3567 0074 00000000 		.4byte	0
 3568              		.section	.debug_ranges,"",%progbits
 3569              	.Ldebug_ranges0:
 3570 0000 00000000 		.4byte	.LFB118
 3571 0004 04000000 		.4byte	.LFE118
 3572 0008 00000000 		.4byte	.LFB119
 3573 000c 0E000000 		.4byte	.LFE119
 3574 0010 00000000 		.4byte	.LFB120
 3575 0014 4C000000 		.4byte	.LFE120
 3576 0018 00000000 		.4byte	.LFB121
 3577 001c 4C000000 		.4byte	.LFE121
 3578 0020 00000000 		.4byte	.LFB122
 3579 0024 64000000 		.4byte	.LFE122
 3580 0028 00000000 		.4byte	.LFB123
 3581 002c 54000000 		.4byte	.LFE123
 3582 0030 00000000 		.4byte	.LFB124
 3583 0034 50000000 		.4byte	.LFE124
 3584 0038 00000000 		.4byte	.LFB125
 3585 003c 3C000000 		.4byte	.LFE125
 3586 0040 00000000 		.4byte	.LFB126
 3587 0044 64000000 		.4byte	.LFE126
 3588 0048 00000000 		.4byte	.LFB127
 3589 004c 54000000 		.4byte	.LFE127
 3590 0050 00000000 		.4byte	.LFB128
 3591 0054 50000000 		.4byte	.LFE128
 3592 0058 00000000 		.4byte	.LFB129
 3593 005c 3C000000 		.4byte	.LFE129
 3594 0060 00000000 		.4byte	0
 3595 0064 00000000 		.4byte	0
 3596              		.section	.debug_line,"",%progbits
 3597              	.Ldebug_line0:
 3598 0000 8E030000 		.section	.debug_str,"MS",%progbits,1
 3598      02008B01 
 3598      00000201 
 3598      FB0E0D00 
 3598      01010101 
 3599              	.LASF41:
ARM GAS  /tmp/ccS3EMNv.s 			page 66


 3600 0000 55415254 		.ascii	"UART_TX_COMPLETE\000"
 3600      5F54585F 
 3600      434F4D50 
 3600      4C455445 
 3600      00
 3601              	.LASF89:
 3602 0011 63684462 		.ascii	"chDbgCheckClassI\000"
 3602      67436865 
 3602      636B436C 
 3602      61737349 
 3602      00
 3603              	.LASF70:
 3604 0022 75617274 		.ascii	"uartStart\000"
 3604      53746172 
 3604      7400
 3605              	.LASF53:
 3606 002c 75736172 		.ascii	"usart\000"
 3606      7400
 3607              	.LASF75:
 3608 0032 75617274 		.ascii	"uartStartSendI\000"
 3608      53746172 
 3608      7453656E 
 3608      644900
 3609              	.LASF51:
 3610 0041 72787374 		.ascii	"rxstate\000"
 3610      61746500 
 3611              	.LASF49:
 3612 0049 73746174 		.ascii	"state\000"
 3612      6500
 3613              	.LASF77:
 3614 004f 75617274 		.ascii	"uartStopSendI\000"
 3614      53746F70 
 3614      53656E64 
 3614      4900
 3615              	.LASF2:
 3616 005d 73697A65 		.ascii	"size_t\000"
 3616      5F7400
 3617              	.LASF65:
 3618 0064 72786572 		.ascii	"rxerr_cb\000"
 3618      725F6362 
 3618      00
 3619              	.LASF15:
 3620 006d 73697A65 		.ascii	"sizetype\000"
 3620      74797065 
 3620      00
 3621              	.LASF91:
 3622 0076 75617274 		.ascii	"uart_lld_stop_receive\000"
 3622      5F6C6C64 
 3622      5F73746F 
 3622      705F7265 
 3622      63656976 
 3623              	.LASF67:
 3624 008c 55415254 		.ascii	"UARTConfig\000"
 3624      436F6E66 
 3624      696700
 3625              	.LASF50:
 3626 0097 74787374 		.ascii	"txstate\000"
ARM GAS  /tmp/ccS3EMNv.s 			page 67


 3626      61746500 
 3627              	.LASF76:
 3628 009f 75617274 		.ascii	"uartStopSend\000"
 3628      53746F70 
 3628      53656E64 
 3628      00
 3629              	.LASF61:
 3630 00ac 7478656E 		.ascii	"txend1_cb\000"
 3630      64315F63 
 3630      6200
 3631              	.LASF28:
 3632 00b6 55534152 		.ascii	"USART_TypeDef\000"
 3632      545F5479 
 3632      70654465 
 3632      6600
 3633              	.LASF5:
 3634 00c4 73686F72 		.ascii	"short int\000"
 3634      7420696E 
 3634      7400
 3635              	.LASF52:
 3636 00ce 636F6E66 		.ascii	"config\000"
 3636      696700
 3637              	.LASF73:
 3638 00d5 75617274 		.ascii	"uartStartSend\000"
 3638      53746172 
 3638      7453656E 
 3638      6400
 3639              	.LASF34:
 3640 00e3 73746D33 		.ascii	"stm32_dma_stream_t\000"
 3640      325F646D 
 3640      615F7374 
 3640      7265616D 
 3640      5F7400
 3641              	.LASF78:
 3642 00f6 75617274 		.ascii	"uartStartReceive\000"
 3642      53746172 
 3642      74526563 
 3642      65697665 
 3642      00
 3643              	.LASF3:
 3644 0107 75696E74 		.ascii	"uint8_t\000"
 3644      385F7400 
 3645              	.LASF33:
 3646 010f 76656374 		.ascii	"vector\000"
 3646      6F7200
 3647              	.LASF44:
 3648 0116 55415254 		.ascii	"UART_RX_ACTIVE\000"
 3648      5F52585F 
 3648      41435449 
 3648      564500
 3649              	.LASF60:
 3650 0125 75617274 		.ascii	"uartecb_t\000"
 3650      6563625F 
 3650      7400
 3651              	.LASF1:
 3652 012f 7369676E 		.ascii	"signed char\000"
 3652      65642063 
ARM GAS  /tmp/ccS3EMNv.s 			page 68


 3652      68617200 
 3653              	.LASF69:
 3654 013b 75617274 		.ascii	"uartObjectInit\000"
 3654      4F626A65 
 3654      6374496E 
 3654      697400
 3655              	.LASF39:
 3656 014a 55415254 		.ascii	"UART_TX_IDLE\000"
 3656      5F54585F 
 3656      49444C45 
 3656      00
 3657              	.LASF40:
 3658 0157 55415254 		.ascii	"UART_TX_ACTIVE\000"
 3658      5F54585F 
 3658      41435449 
 3658      564500
 3659              	.LASF88:
 3660 0166 75617274 		.ascii	"uart_lld_start_send\000"
 3660      5F6C6C64 
 3660      5F737461 
 3660      72745F73 
 3660      656E6400 
 3661              	.LASF80:
 3662 017a 75617274 		.ascii	"uartStopReceive\000"
 3662      53746F70 
 3662      52656365 
 3662      69766500 
 3663              	.LASF9:
 3664 018a 6C6F6E67 		.ascii	"long int\000"
 3664      20696E74 
 3664      00
 3665              	.LASF58:
 3666 0193 75617274 		.ascii	"uartcb_t\000"
 3666      63625F74 
 3666      00
 3667              	.LASF46:
 3668 019c 75617274 		.ascii	"uartrxstate_t\000"
 3668      72787374 
 3668      6174655F 
 3668      7400
 3669              	.LASF62:
 3670 01aa 7478656E 		.ascii	"txend2_cb\000"
 3670      64325F63 
 3670      6200
 3671              	.LASF55:
 3672 01b4 646D6172 		.ascii	"dmarx\000"
 3672      7800
 3673              	.LASF85:
 3674 01ba 75617274 		.ascii	"uart_lld_start\000"
 3674      5F6C6C64 
 3674      5F737461 
 3674      727400
 3675              	.LASF84:
 3676 01c9 63684462 		.ascii	"chDbgPanic\000"
 3676      6750616E 
 3676      696300
 3677              	.LASF18:
ARM GAS  /tmp/ccS3EMNv.s 			page 69


 3678 01d4 43504152 		.ascii	"CPAR\000"
 3678      00
 3679              	.LASF22:
 3680 01d9 47545052 		.ascii	"GTPR\000"
 3680      00
 3681              	.LASF42:
 3682 01de 75617274 		.ascii	"uarttxstate_t\000"
 3682      74787374 
 3682      6174655F 
 3682      7400
 3683              	.LASF82:
 3684 01ec 75617274 		.ascii	"uart_lld_init\000"
 3684      5F6C6C64 
 3684      5F696E69 
 3684      7400
 3685              	.LASF4:
 3686 01fa 756E7369 		.ascii	"unsigned char\000"
 3686      676E6564 
 3686      20636861 
 3686      7200
 3687              	.LASF81:
 3688 0208 75617274 		.ascii	"uartStopReceiveI\000"
 3688      53746F70 
 3688      52656365 
 3688      69766549 
 3688      00
 3689              	.LASF86:
 3690 0219 6462675F 		.ascii	"dbg_check_unlock\000"
 3690      63686563 
 3690      6B5F756E 
 3690      6C6F636B 
 3690      00
 3691              	.LASF56:
 3692 022a 646D6174 		.ascii	"dmatx\000"
 3692      7800
 3693              	.LASF83:
 3694 0230 6462675F 		.ascii	"dbg_check_lock\000"
 3694      63686563 
 3694      6B5F6C6F 
 3694      636B00
 3695              	.LASF13:
 3696 023f 6C6F6E67 		.ascii	"long long unsigned int\000"
 3696      206C6F6E 
 3696      6720756E 
 3696      7369676E 
 3696      65642069 
 3697              	.LASF54:
 3698 0256 646D616D 		.ascii	"dmamode\000"
 3698      6F646500 
 3699              	.LASF10:
 3700 025e 75696E74 		.ascii	"uint32_t\000"
 3700      33325F74 
 3700      00
 3701              	.LASF32:
 3702 0267 73656C66 		.ascii	"selfindex\000"
 3702      696E6465 
 3702      7800
ARM GAS  /tmp/ccS3EMNv.s 			page 70


 3703              	.LASF0:
 3704 0271 756E7369 		.ascii	"unsigned int\000"
 3704      676E6564 
 3704      20696E74 
 3704      00
 3705              	.LASF6:
 3706 027e 75696E74 		.ascii	"uint16_t\000"
 3706      31365F74 
 3706      00
 3707              	.LASF59:
 3708 0287 75617274 		.ascii	"uartccb_t\000"
 3708      6363625F 
 3708      7400
 3709              	.LASF66:
 3710 0291 73706565 		.ascii	"speed\000"
 3710      6400
 3711              	.LASF45:
 3712 0297 55415254 		.ascii	"UART_RX_COMPLETE\000"
 3712      5F52585F 
 3712      434F4D50 
 3712      4C455445 
 3712      00
 3713              	.LASF47:
 3714 02a8 75617274 		.ascii	"uartflags_t\000"
 3714      666C6167 
 3714      735F7400 
 3715              	.LASF68:
 3716 02b4 75617274 		.ascii	"uartInit\000"
 3716      496E6974 
 3716      00
 3717              	.LASF38:
 3718 02bd 75617274 		.ascii	"uartstate_t\000"
 3718      73746174 
 3718      655F7400 
 3719              	.LASF7:
 3720 02c9 73686F72 		.ascii	"short unsigned int\000"
 3720      7420756E 
 3720      7369676E 
 3720      65642069 
 3720      6E7400
 3721              	.LASF24:
 3722 02dc 52544F52 		.ascii	"RTOR\000"
 3722      00
 3723              	.LASF20:
 3724 02e1 444D415F 		.ascii	"DMA_Channel_TypeDef\000"
 3724      4368616E 
 3724      6E656C5F 
 3724      54797065 
 3724      44656600 
 3725              	.LASF74:
 3726 02f5 74786275 		.ascii	"txbuf\000"
 3726      6600
 3727              	.LASF17:
 3728 02fb 434E4454 		.ascii	"CNDTR\000"
 3728      5200
 3729              	.LASF16:
 3730 0301 63686172 		.ascii	"char\000"
ARM GAS  /tmp/ccS3EMNv.s 			page 71


 3730      00
 3731              	.LASF8:
 3732 0306 696E7433 		.ascii	"int32_t\000"
 3732      325F7400 
 3733              	.LASF14:
 3734 030e 5F426F6F 		.ascii	"_Bool\000"
 3734      6C00
 3735              	.LASF29:
 3736 0314 6368616E 		.ascii	"channel\000"
 3736      6E656C00 
 3737              	.LASF25:
 3738 031c 52455345 		.ascii	"RESERVED3\000"
 3738      52564544 
 3738      3300
 3739              	.LASF21:
 3740 0326 52455345 		.ascii	"RESERVED1\000"
 3740      52564544 
 3740      3100
 3741              	.LASF23:
 3742 0330 52455345 		.ascii	"RESERVED2\000"
 3742      52564544 
 3742      3200
 3743              	.LASF92:
 3744 033a 474E5520 		.ascii	"GNU C 4.8.3 20131129 (release) [ARM/embedded-4_8-br"
 3744      4320342E 
 3744      382E3320 
 3744      32303133 
 3744      31313239 
 3745 036d 616E6368 		.ascii	"anch revision 205641] -mcpu=cortex-m4 -mno-thumb-in"
 3745      20726576 
 3745      6973696F 
 3745      6E203230 
 3745      35363431 
 3746 03a0 74657277 		.ascii	"terwork -mthumb -ggdb -O2 -fomit-frame-pointer -fal"
 3746      6F726B20 
 3746      2D6D7468 
 3746      756D6220 
 3746      2D676764 
 3747 03d3 69676E2D 		.ascii	"ign-functions=16 -ffunction-sections -fdata-section"
 3747      66756E63 
 3747      74696F6E 
 3747      733D3136 
 3747      202D6666 
 3748 0406 73202D66 		.ascii	"s -fno-common\000"
 3748      6E6F2D63 
 3748      6F6D6D6F 
 3748      6E00
 3749              	.LASF26:
 3750 0414 52455345 		.ascii	"RESERVED4\000"
 3750      52564544 
 3750      3400
 3751              	.LASF27:
 3752 041e 52455345 		.ascii	"RESERVED5\000"
 3752      52564544 
 3752      3500
 3753              	.LASF11:
 3754 0428 6C6F6E67 		.ascii	"long unsigned int\000"
ARM GAS  /tmp/ccS3EMNv.s 			page 72


 3754      20756E73 
 3754      69676E65 
 3754      6420696E 
 3754      7400
 3755              	.LASF90:
 3756 043a 75617274 		.ascii	"uart_lld_start_receive\000"
 3756      5F6C6C64 
 3756      5F737461 
 3756      72745F72 
 3756      65636569 
 3757              	.LASF19:
 3758 0451 434D4152 		.ascii	"CMAR\000"
 3758      00
 3759              	.LASF37:
 3760 0456 55415254 		.ascii	"UART_READY\000"
 3760      5F524541 
 3760      445900
 3761              	.LASF63:
 3762 0461 7278656E 		.ascii	"rxend_cb\000"
 3762      645F6362 
 3762      00
 3763              	.LASF43:
 3764 046a 55415254 		.ascii	"UART_RX_IDLE\000"
 3764      5F52585F 
 3764      49444C45 
 3764      00
 3765              	.LASF64:
 3766 0477 72786368 		.ascii	"rxchar_cb\000"
 3766      61725F63 
 3766      6200
 3767              	.LASF96:
 3768 0481 75617274 		.ascii	"uart_lld_stop_send\000"
 3768      5F6C6C64 
 3768      5F73746F 
 3768      705F7365 
 3768      6E6400
 3769              	.LASF94:
 3770 0494 2F686F6D 		.ascii	"/home/john/git/ChibiOS-RT/testhal/STM32F30x/UART\000"
 3770      652F6A6F 
 3770      686E2F67 
 3770      69742F43 
 3770      68696269 
 3771              	.LASF35:
 3772 04c5 55415254 		.ascii	"UART_UNINIT\000"
 3772      5F554E49 
 3772      4E495400 
 3773              	.LASF93:
 3774 04d1 2E2E2F2E 		.ascii	"../../../os/hal/src/uart.c\000"
 3774      2E2F2E2E 
 3774      2F6F732F 
 3774      68616C2F 
 3774      7372632F 
 3775              	.LASF72:
 3776 04ec 75617274 		.ascii	"uartStop\000"
 3776      53746F70 
 3776      00
 3777              	.LASF57:
ARM GAS  /tmp/ccS3EMNv.s 			page 73


 3778 04f5 72786275 		.ascii	"rxbuf\000"
 3778      6600
 3779              	.LASF79:
 3780 04fb 75617274 		.ascii	"uartStartReceiveI\000"
 3780      53746172 
 3780      74526563 
 3780      65697665 
 3780      4900
 3781              	.LASF31:
 3782 050d 69736869 		.ascii	"ishift\000"
 3782      667400
 3783              	.LASF95:
 3784 0514 49544D5F 		.ascii	"ITM_RxBuffer\000"
 3784      52784275 
 3784      66666572 
 3784      00
 3785              	.LASF36:
 3786 0521 55415254 		.ascii	"UART_STOP\000"
 3786      5F53544F 
 3786      5000
 3787              	.LASF71:
 3788 052b 75617274 		.ascii	"uartp\000"
 3788      7000
 3789              	.LASF48:
 3790 0531 55415254 		.ascii	"UARTDriver\000"
 3790      44726976 
 3790      657200
 3791              	.LASF30:
 3792 053c 69666372 		.ascii	"ifcr\000"
 3792      00
 3793              	.LASF87:
 3794 0541 75617274 		.ascii	"uart_lld_stop\000"
 3794      5F6C6C64 
 3794      5F73746F 
 3794      7000
 3795              	.LASF12:
 3796 054f 6C6F6E67 		.ascii	"long long int\000"
 3796      206C6F6E 
 3796      6720696E 
 3796      7400
 3797              		.ident	"GCC: (GNU Tools for ARM Embedded Processors) 4.8.3 20131129 (release) [ARM/embedded-4_8-br
ARM GAS  /tmp/ccS3EMNv.s 			page 74


DEFINED SYMBOLS
                            *ABS*:0000000000000000 uart.c
     /tmp/ccS3EMNv.s:19     .text.uartInit:0000000000000000 $t
     /tmp/ccS3EMNv.s:25     .text.uartInit:0000000000000000 uartInit
     /tmp/ccS3EMNv.s:40     .text.uartObjectInit:0000000000000000 $t
     /tmp/ccS3EMNv.s:46     .text.uartObjectInit:0000000000000000 uartObjectInit
     /tmp/ccS3EMNv.s:70     .text.uartStart:0000000000000000 $t
     /tmp/ccS3EMNv.s:76     .text.uartStart:0000000000000000 uartStart
     /tmp/ccS3EMNv.s:152    .text.uartStart:0000000000000044 $d
     /tmp/ccS3EMNv.s:158    .text.uartStop:0000000000000000 $t
     /tmp/ccS3EMNv.s:164    .text.uartStop:0000000000000000 uartStop
     /tmp/ccS3EMNv.s:238    .text.uartStop:0000000000000044 $d
     /tmp/ccS3EMNv.s:244    .text.uartStartSend:0000000000000000 $t
     /tmp/ccS3EMNv.s:250    .text.uartStartSend:0000000000000000 uartStartSend
     /tmp/ccS3EMNv.s:339    .text.uartStartSend:0000000000000058 $d
     /tmp/ccS3EMNv.s:346    .text.uartStartSendI:0000000000000000 $t
     /tmp/ccS3EMNv.s:352    .text.uartStartSendI:0000000000000000 uartStartSendI
     /tmp/ccS3EMNv.s:421    .text.uartStartSendI:0000000000000048 $d
     /tmp/ccS3EMNv.s:428    .text.uartStopSend:0000000000000000 $t
     /tmp/ccS3EMNv.s:434    .text.uartStopSend:0000000000000000 uartStopSend
     /tmp/ccS3EMNv.s:517    .text.uartStopSend:0000000000000048 $d
     /tmp/ccS3EMNv.s:523    .text.uartStopSendI:0000000000000000 $t
     /tmp/ccS3EMNv.s:529    .text.uartStopSendI:0000000000000000 uartStopSendI
     /tmp/ccS3EMNv.s:588    .text.uartStopSendI:0000000000000034 $d
     /tmp/ccS3EMNv.s:594    .text.uartStartReceive:0000000000000000 $t
     /tmp/ccS3EMNv.s:600    .text.uartStartReceive:0000000000000000 uartStartReceive
     /tmp/ccS3EMNv.s:689    .text.uartStartReceive:0000000000000058 $d
     /tmp/ccS3EMNv.s:696    .text.uartStartReceiveI:0000000000000000 $t
     /tmp/ccS3EMNv.s:702    .text.uartStartReceiveI:0000000000000000 uartStartReceiveI
     /tmp/ccS3EMNv.s:771    .text.uartStartReceiveI:0000000000000048 $d
     /tmp/ccS3EMNv.s:778    .text.uartStopReceive:0000000000000000 $t
     /tmp/ccS3EMNv.s:784    .text.uartStopReceive:0000000000000000 uartStopReceive
     /tmp/ccS3EMNv.s:867    .text.uartStopReceive:0000000000000048 $d
     /tmp/ccS3EMNv.s:873    .text.uartStopReceiveI:0000000000000000 $t
     /tmp/ccS3EMNv.s:879    .text.uartStopReceiveI:0000000000000000 uartStopReceiveI
     /tmp/ccS3EMNv.s:938    .text.uartStopReceiveI:0000000000000034 $d
     /tmp/ccS3EMNv.s:944    .rodata.str1.4:0000000000000000 $d
                     .debug_frame:0000000000000010 $d
     /tmp/ccS3EMNv.s:157    .text.uartStart:000000000000004c $t
     /tmp/ccS3EMNv.s:243    .text.uartStop:000000000000004c $t
     /tmp/ccS3EMNv.s:345    .text.uartStartSend:0000000000000064 $t
     /tmp/ccS3EMNv.s:427    .text.uartStartSendI:0000000000000054 $t
     /tmp/ccS3EMNv.s:593    .text.uartStopSendI:000000000000003c $t
     /tmp/ccS3EMNv.s:695    .text.uartStartReceive:0000000000000064 $t
     /tmp/ccS3EMNv.s:777    .text.uartStartReceiveI:0000000000000054 $t
     /tmp/ccS3EMNv.s:943    .text.uartStopReceiveI:000000000000003c $t

UNDEFINED SYMBOLS
uart_lld_init
dbg_check_lock
chDbgPanic
uart_lld_start
dbg_check_unlock
uart_lld_stop
uart_lld_start_send
chDbgCheckClassI
uart_lld_stop_send
ARM GAS  /tmp/ccS3EMNv.s 			page 75


uart_lld_start_receive
uart_lld_stop_receive
