ARM GAS  /tmp/ccS3EMNv.s 			page 1


   1              		.syntax unified
   2              		.cpu cortex-m4
   3              		.fpu softvfp
   4              		.eabi_attribute 20, 1
   5              		.eabi_attribute 21, 1
   6              		.eabi_attribute 23, 3
   7              		.eabi_attribute 24, 1
   8              		.eabi_attribute 25, 1
   9              		.eabi_attribute 26, 1
  10              		.eabi_attribute 30, 2
  11              		.eabi_attribute 34, 1
  12              		.eabi_attribute 18, 4
  13              		.thumb
  14              		.file	"uart.c"
  15              		.text
  16              	.Ltext0:
  17              		.cfi_sections	.debug_frame
  18              		.section	.text.uartInit,"ax",%progbits
  19              		.align	2
  20              		.p2align 4,,15
  21              		.global	uartInit
  22              		.thumb
  23              		.thumb_func
  24              		.type	uartInit, %function
  25              	uartInit:
  26              	.LFB118:
  27              		.file 1 "../../../os/hal/src/uart.c"
  28              		.loc 1 61 0
  29              		.cfi_startproc
  30              		@ args = 0, pretend = 0, frame = 0
  31              		@ frame_needed = 0, uses_anonymous_args = 0
  32              		@ link register save eliminated.
  33              		.loc 1 63 0
  34 0000 FFF7FEBF 		b	uart_lld_init
  35              	.LVL0:
  36              		.cfi_endproc
  37              	.LFE118:
  38              		.size	uartInit, .-uartInit
  39 0004 AFF30080 		.section	.text.uartObjectInit,"ax",%progbits
  39      AFF30080 
  39      AFF30080 
  40              		.align	2
  41              		.p2align 4,,15
  42              		.global	uartObjectInit
  43              		.thumb
  44              		.thumb_func
  45              		.type	uartObjectInit, %function
  46              	uartObjectInit:
  47              	.LFB119:
  48              		.loc 1 73 0
  49              		.cfi_startproc
  50              		@ args = 0, pretend = 0, frame = 0
  51              		@ frame_needed = 0, uses_anonymous_args = 0
  52              		@ link register save eliminated.
  53              	.LVL1:
  54              		.loc 1 76 0
  55 0000 0023     		movs	r3, #0
ARM GAS  /tmp/ccS3EMNv.s 			page 2


  56              		.loc 1 75 0
  57 0002 0122     		movs	r2, #1
  58 0004 0270     		strb	r2, [r0]
  59              		.loc 1 76 0
  60 0006 4370     		strb	r3, [r0, #1]
  61              		.loc 1 77 0
  62 0008 8370     		strb	r3, [r0, #2]
  63              		.loc 1 78 0
  64 000a 4360     		str	r3, [r0, #4]
  65 000c 7047     		bx	lr
  66              		.cfi_endproc
  67              	.LFE119:
  68              		.size	uartObjectInit, .-uartObjectInit
  69 000e 00BF     		.section	.text.uartStart,"ax",%progbits
  70              		.align	2
  71              		.p2align 4,,15
  72              		.global	uartStart
  73              		.thumb
  74              		.thumb_func
  75              		.type	uartStart, %function
  76              	uartStart:
  77              	.LFB120:
  78              		.loc 1 93 0
  79              		.cfi_startproc
  80              		@ args = 0, pretend = 0, frame = 0
  81              		@ frame_needed = 0, uses_anonymous_args = 0
  82              	.LVL2:
  83 0000 38B5     		push	{r3, r4, r5, lr}
  84              		.cfi_def_cfa_offset 16
  85              		.cfi_offset 3, -16
  86              		.cfi_offset 4, -12
  87              		.cfi_offset 5, -8
  88              		.cfi_offset 14, -4
  89              		.loc 1 95 0
  90 0002 0446     		mov	r4, r0
  91              		.loc 1 93 0
  92 0004 0D46     		mov	r5, r1
  93              		.loc 1 95 0
  94 0006 C8B1     		cbz	r0, .L4
  95              		.loc 1 95 0 is_stmt 0 discriminator 2
  96 0008 C1B1     		cbz	r1, .L4
  97              	.LVL3:
  98              	.L5:
  99              	.LBB2:
 100              		.loc 1 97 0 is_stmt 1
 101 000a 2023     		movs	r3, #32
 102              	@ 97 "../../../os/hal/src/uart.c" 1
 103 000c 83F31188 		msr     BASEPRI, r3
 104              	@ 0 "" 2
 105              		.thumb
 106              	.LBE2:
 107 0010 FFF7FEFF 		bl	dbg_check_lock
 108              	.LVL4:
 109              		.loc 1 98 0
 110 0014 2378     		ldrb	r3, [r4]	@ zero_extendqisi2
 111 0016 013B     		subs	r3, r3, #1
 112 0018 DBB2     		uxtb	r3, r3
ARM GAS  /tmp/ccS3EMNv.s 			page 3


 113 001a 012B     		cmp	r3, #1
 114 001c 02D9     		bls	.L6
 115              		.loc 1 98 0 is_stmt 0 discriminator 1
 116 001e 0948     		ldr	r0, .L11
 117 0020 FFF7FEFF 		bl	chDbgPanic
 118              	.LVL5:
 119              	.L6:
 120              		.loc 1 102 0 is_stmt 1
 121 0024 2046     		mov	r0, r4
 122              		.loc 1 101 0
 123 0026 6560     		str	r5, [r4, #4]
 124              		.loc 1 102 0
 125 0028 FFF7FEFF 		bl	uart_lld_start
 126              	.LVL6:
 127              		.loc 1 103 0
 128 002c 0223     		movs	r3, #2
 129 002e 2370     		strb	r3, [r4]
 130              		.loc 1 104 0
 131 0030 FFF7FEFF 		bl	dbg_check_unlock
 132              	.LVL7:
 133              	.LBB3:
 134 0034 0023     		movs	r3, #0
 135              	@ 104 "../../../os/hal/src/uart.c" 1
 136 0036 83F31188 		msr     BASEPRI, r3
 137              	@ 0 "" 2
 138              		.thumb
 139 003a 38BD     		pop	{r3, r4, r5, pc}
 140              	.LVL8:
 141              	.L4:
 142              	.LBE3:
 143              		.loc 1 95 0 discriminator 1
 144 003c 0248     		ldr	r0, .L11+4
 145              	.LVL9:
 146 003e FFF7FEFF 		bl	chDbgPanic
 147              	.LVL10:
 148 0042 E2E7     		b	.L5
 149              	.L12:
 150              		.align	2
 151              	.L11:
 152 0044 10000000 		.word	.LC1
 153 0048 00000000 		.word	.LC0
 154              		.cfi_endproc
 155              	.LFE120:
 156              		.size	uartStart, .-uartStart
 157 004c AFF30080 		.section	.text.uartStop,"ax",%progbits
 158              		.align	2
 159              		.p2align 4,,15
 160              		.global	uartStop
 161              		.thumb
 162              		.thumb_func
 163              		.type	uartStop, %function
 164              	uartStop:
 165              	.LFB121:
 166              		.loc 1 114 0
 167              		.cfi_startproc
 168              		@ args = 0, pretend = 0, frame = 0
 169              		@ frame_needed = 0, uses_anonymous_args = 0
ARM GAS  /tmp/ccS3EMNv.s 			page 4


 170              	.LVL11:
 171 0000 38B5     		push	{r3, r4, r5, lr}
 172              		.cfi_def_cfa_offset 16
 173              		.cfi_offset 3, -16
 174              		.cfi_offset 4, -12
 175              		.cfi_offset 5, -8
 176              		.cfi_offset 14, -4
 177              		.loc 1 116 0
 178 0002 0446     		mov	r4, r0
 179 0004 D0B1     		cbz	r0, .L16
 180              	.LVL12:
 181              	.L14:
 182              	.LBB4:
 183              		.loc 1 118 0
 184 0006 2023     		movs	r3, #32
 185              	@ 118 "../../../os/hal/src/uart.c" 1
 186 0008 83F31188 		msr     BASEPRI, r3
 187              	@ 0 "" 2
 188              		.thumb
 189              	.LBE4:
 190 000c FFF7FEFF 		bl	dbg_check_lock
 191              	.LVL13:
 192              		.loc 1 119 0
 193 0010 2378     		ldrb	r3, [r4]	@ zero_extendqisi2
 194 0012 013B     		subs	r3, r3, #1
 195 0014 DBB2     		uxtb	r3, r3
 196 0016 012B     		cmp	r3, #1
 197 0018 02D9     		bls	.L15
 198              		.loc 1 119 0 is_stmt 0 discriminator 1
 199 001a 0A48     		ldr	r0, .L17
 200 001c FFF7FEFF 		bl	chDbgPanic
 201              	.LVL14:
 202              	.L15:
 203              		.loc 1 122 0 is_stmt 1
 204 0020 2046     		mov	r0, r4
 205 0022 FFF7FEFF 		bl	uart_lld_stop
 206              	.LVL15:
 207              		.loc 1 124 0
 208 0026 0025     		movs	r5, #0
 209              		.loc 1 123 0
 210 0028 0123     		movs	r3, #1
 211 002a 2370     		strb	r3, [r4]
 212              		.loc 1 124 0
 213 002c 6570     		strb	r5, [r4, #1]
 214              		.loc 1 125 0
 215 002e A570     		strb	r5, [r4, #2]
 216              		.loc 1 126 0
 217 0030 FFF7FEFF 		bl	dbg_check_unlock
 218              	.LVL16:
 219              	.LBB5:
 220 0034 2B46     		mov	r3, r5
 221              	@ 126 "../../../os/hal/src/uart.c" 1
 222 0036 83F31188 		msr     BASEPRI, r3
 223              	@ 0 "" 2
 224              		.thumb
 225 003a 38BD     		pop	{r3, r4, r5, pc}
 226              	.LVL17:
ARM GAS  /tmp/ccS3EMNv.s 			page 5


 227              	.L16:
 228              	.LBE5:
 229              		.loc 1 116 0 discriminator 1
 230 003c 0248     		ldr	r0, .L17+4
 231              	.LVL18:
 232 003e FFF7FEFF 		bl	chDbgPanic
 233              	.LVL19:
 234 0042 E0E7     		b	.L14
 235              	.L18:
 236              		.align	2
 237              	.L17:
 238 0044 30000000 		.word	.LC3
 239 0048 20000000 		.word	.LC2
 240              		.cfi_endproc
 241              	.LFE121:
 242              		.size	uartStop, .-uartStop
 243 004c AFF30080 		.section	.text.uartStartSend,"ax",%progbits
 244              		.align	2
 245              		.p2align 4,,15
 246              		.global	uartStartSend
 247              		.thumb
 248              		.thumb_func
 249              		.type	uartStartSend, %function
 250              	uartStartSend:
 251              	.LFB122:
 252              		.loc 1 140 0
 253              		.cfi_startproc
 254              		@ args = 0, pretend = 0, frame = 0
 255              		@ frame_needed = 0, uses_anonymous_args = 0
 256              	.LVL20:
 257 0000 70B5     		push	{r4, r5, r6, lr}
 258              		.cfi_def_cfa_offset 16
 259              		.cfi_offset 4, -16
 260              		.cfi_offset 5, -12
 261              		.cfi_offset 6, -8
 262              		.cfi_offset 14, -4
 263              		.loc 1 142 0
 264 0002 0446     		mov	r4, r0
 265              		.loc 1 140 0
 266 0004 0D46     		mov	r5, r1
 267 0006 1646     		mov	r6, r2
 268              		.loc 1 142 0
 269 0008 00B1     		cbz	r0, .L20
 270              		.loc 1 142 0 is_stmt 0 discriminator 2
 271 000a E9B9     		cbnz	r1, .L33
 272              	.L20:
 273              		.loc 1 142 0 discriminator 1
 274 000c 1248     		ldr	r0, .L35
 275              	.LVL21:
 276 000e FFF7FEFF 		bl	chDbgPanic
 277              	.LVL22:
 278              	.L21:
 279              	.LBB6:
 280              		.loc 1 145 0 is_stmt 1
 281 0012 2023     		movs	r3, #32
 282              	@ 145 "../../../os/hal/src/uart.c" 1
 283 0014 83F31188 		msr     BASEPRI, r3
ARM GAS  /tmp/ccS3EMNv.s 			page 6


 284              	@ 0 "" 2
 285              		.thumb
 286              	.LBE6:
 287 0018 FFF7FEFF 		bl	dbg_check_lock
 288              	.LVL23:
 289              		.loc 1 146 0
 290 001c 2378     		ldrb	r3, [r4]	@ zero_extendqisi2
 291 001e 022B     		cmp	r3, #2
 292 0020 02D0     		beq	.L22
 293              		.loc 1 146 0 is_stmt 0 discriminator 1
 294 0022 0E48     		ldr	r0, .L35+4
 295 0024 FFF7FEFF 		bl	chDbgPanic
 296              	.LVL24:
 297              	.L22:
 298              		.loc 1 148 0 is_stmt 1
 299 0028 6378     		ldrb	r3, [r4, #1]	@ zero_extendqisi2
 300 002a 012B     		cmp	r3, #1
 301 002c 0FD0     		beq	.L34
 302              	.L23:
 303              		.loc 1 151 0
 304 002e 2946     		mov	r1, r5
 305 0030 3246     		mov	r2, r6
 306 0032 2046     		mov	r0, r4
 307 0034 FFF7FEFF 		bl	uart_lld_start_send
 308              	.LVL25:
 309              		.loc 1 152 0
 310 0038 0123     		movs	r3, #1
 311 003a 6370     		strb	r3, [r4, #1]
 312              		.loc 1 153 0
 313 003c FFF7FEFF 		bl	dbg_check_unlock
 314              	.LVL26:
 315              	.LBB7:
 316 0040 0023     		movs	r3, #0
 317              	@ 153 "../../../os/hal/src/uart.c" 1
 318 0042 83F31188 		msr     BASEPRI, r3
 319              	@ 0 "" 2
 320              		.thumb
 321 0046 70BD     		pop	{r4, r5, r6, pc}
 322              	.LVL27:
 323              	.L33:
 324              	.LBE7:
 325              		.loc 1 142 0 discriminator 1
 326 0048 002A     		cmp	r2, #0
 327 004a E2D1     		bne	.L21
 328 004c DEE7     		b	.L20
 329              	.LVL28:
 330              	.L34:
 331              		.loc 1 148 0 discriminator 1
 332 004e 0448     		ldr	r0, .L35+8
 333 0050 FFF7FEFF 		bl	chDbgPanic
 334              	.LVL29:
 335 0054 EBE7     		b	.L23
 336              	.L36:
 337 0056 00BF     		.align	2
 338              	.L35:
 339 0058 40000000 		.word	.LC4
 340 005c 54000000 		.word	.LC5
ARM GAS  /tmp/ccS3EMNv.s 			page 7


 341 0060 68000000 		.word	.LC6
 342              		.cfi_endproc
 343              	.LFE122:
 344              		.size	uartStartSend, .-uartStartSend
 345 0064 AFF30080 		.section	.text.uartStartSendI,"ax",%progbits
 345      AFF30080 
 345      AFF30080 
 346              		.align	2
 347              		.p2align 4,,15
 348              		.global	uartStartSendI
 349              		.thumb
 350              		.thumb_func
 351              		.type	uartStartSendI, %function
 352              	uartStartSendI:
 353              	.LFB123:
 354              		.loc 1 168 0
 355              		.cfi_startproc
 356              		@ args = 0, pretend = 0, frame = 0
 357              		@ frame_needed = 0, uses_anonymous_args = 0
 358              	.LVL30:
 359 0000 70B5     		push	{r4, r5, r6, lr}
 360              		.cfi_def_cfa_offset 16
 361              		.cfi_offset 4, -16
 362              		.cfi_offset 5, -12
 363              		.cfi_offset 6, -8
 364              		.cfi_offset 14, -4
 365              		.loc 1 168 0
 366 0002 0446     		mov	r4, r0
 367 0004 0D46     		mov	r5, r1
 368 0006 1646     		mov	r6, r2
 369              		.loc 1 170 0
 370 0008 FFF7FEFF 		bl	chDbgCheckClassI
 371              	.LVL31:
 372              		.loc 1 171 0
 373 000c 04B1     		cbz	r4, .L38
 374              		.loc 1 171 0 is_stmt 0 discriminator 2
 375 000e 9DB9     		cbnz	r5, .L51
 376              	.L38:
 377              		.loc 1 171 0 discriminator 1
 378 0010 0D48     		ldr	r0, .L53
 379 0012 FFF7FEFF 		bl	chDbgPanic
 380              	.LVL32:
 381              	.L39:
 382              		.loc 1 173 0 is_stmt 1
 383 0016 2378     		ldrb	r3, [r4]	@ zero_extendqisi2
 384 0018 022B     		cmp	r3, #2
 385 001a 02D0     		beq	.L40
 386              		.loc 1 173 0 is_stmt 0 discriminator 1
 387 001c 0B48     		ldr	r0, .L53+4
 388 001e FFF7FEFF 		bl	chDbgPanic
 389              	.LVL33:
 390              	.L40:
 391              		.loc 1 175 0 is_stmt 1
 392 0022 6378     		ldrb	r3, [r4, #1]	@ zero_extendqisi2
 393 0024 012B     		cmp	r3, #1
 394 0026 0AD0     		beq	.L52
 395              	.L41:
ARM GAS  /tmp/ccS3EMNv.s 			page 8


 396              		.loc 1 178 0
 397 0028 2946     		mov	r1, r5
 398 002a 3246     		mov	r2, r6
 399 002c 2046     		mov	r0, r4
 400 002e FFF7FEFF 		bl	uart_lld_start_send
 401              	.LVL34:
 402              		.loc 1 179 0
 403 0032 0123     		movs	r3, #1
 404 0034 6370     		strb	r3, [r4, #1]
 405 0036 70BD     		pop	{r4, r5, r6, pc}
 406              	.LVL35:
 407              	.L51:
 408              		.loc 1 171 0 discriminator 1
 409 0038 002E     		cmp	r6, #0
 410 003a ECD1     		bne	.L39
 411 003c E8E7     		b	.L38
 412              	.L52:
 413              		.loc 1 175 0 discriminator 1
 414 003e 0448     		ldr	r0, .L53+8
 415 0040 FFF7FEFF 		bl	chDbgPanic
 416              	.LVL36:
 417 0044 F0E7     		b	.L41
 418              	.L54:
 419 0046 00BF     		.align	2
 420              	.L53:
 421 0048 7C000000 		.word	.LC7
 422 004c 90000000 		.word	.LC8
 423 0050 A8000000 		.word	.LC9
 424              		.cfi_endproc
 425              	.LFE123:
 426              		.size	uartStartSendI, .-uartStartSendI
 427 0054 AFF30080 		.section	.text.uartStopSend,"ax",%progbits
 427      AFF30080 
 427      AFF30080 
 428              		.align	2
 429              		.p2align 4,,15
 430              		.global	uartStopSend
 431              		.thumb
 432              		.thumb_func
 433              		.type	uartStopSend, %function
 434              	uartStopSend:
 435              	.LFB124:
 436              		.loc 1 194 0
 437              		.cfi_startproc
 438              		@ args = 0, pretend = 0, frame = 0
 439              		@ frame_needed = 0, uses_anonymous_args = 0
 440              	.LVL37:
 441 0000 38B5     		push	{r3, r4, r5, lr}
 442              		.cfi_def_cfa_offset 16
 443              		.cfi_offset 3, -16
 444              		.cfi_offset 4, -12
 445              		.cfi_offset 5, -8
 446              		.cfi_offset 14, -4
 447              		.loc 1 197 0
 448 0002 0446     		mov	r4, r0
 449 0004 E0B1     		cbz	r0, .L63
 450              	.LVL38:
ARM GAS  /tmp/ccS3EMNv.s 			page 9


 451              	.L56:
 452              	.LBB8:
 453              		.loc 1 199 0
 454 0006 2023     		movs	r3, #32
 455              	@ 199 "../../../os/hal/src/uart.c" 1
 456 0008 83F31188 		msr     BASEPRI, r3
 457              	@ 0 "" 2
 458              		.thumb
 459              	.LBE8:
 460 000c FFF7FEFF 		bl	dbg_check_lock
 461              	.LVL39:
 462              		.loc 1 200 0
 463 0010 2378     		ldrb	r3, [r4]	@ zero_extendqisi2
 464 0012 022B     		cmp	r3, #2
 465 0014 02D0     		beq	.L57
 466              		.loc 1 200 0 is_stmt 0 discriminator 1
 467 0016 0C48     		ldr	r0, .L65
 468 0018 FFF7FEFF 		bl	chDbgPanic
 469              	.LVL40:
 470              	.L57:
 471              		.loc 1 202 0 is_stmt 1
 472 001c 6378     		ldrb	r3, [r4, #1]	@ zero_extendqisi2
 473 001e 012B     		cmp	r3, #1
 474 0020 07D0     		beq	.L64
 475              		.loc 1 207 0
 476 0022 0025     		movs	r5, #0
 477              	.L58:
 478              	.LVL41:
 479              		.loc 1 208 0
 480 0024 FFF7FEFF 		bl	dbg_check_unlock
 481              	.LVL42:
 482              	.LBB9:
 483 0028 0023     		movs	r3, #0
 484              	@ 208 "../../../os/hal/src/uart.c" 1
 485 002a 83F31188 		msr     BASEPRI, r3
 486              	@ 0 "" 2
 487              		.thumb
 488              	.LBE9:
 489              		.loc 1 210 0
 490 002e 2846     		mov	r0, r5
 491 0030 38BD     		pop	{r3, r4, r5, pc}
 492              	.LVL43:
 493              	.L64:
 494              		.loc 1 203 0
 495 0032 2046     		mov	r0, r4
 496 0034 FFF7FEFF 		bl	uart_lld_stop_send
 497              	.LVL44:
 498              		.loc 1 204 0
 499 0038 0023     		movs	r3, #0
 500              		.loc 1 203 0
 501 003a 0546     		mov	r5, r0
 502              	.LVL45:
 503              		.loc 1 204 0
 504 003c 6370     		strb	r3, [r4, #1]
 505 003e F1E7     		b	.L58
 506              	.LVL46:
 507              	.L63:
ARM GAS  /tmp/ccS3EMNv.s 			page 10


 508              		.loc 1 197 0 discriminator 1
 509 0040 0248     		ldr	r0, .L65+4
 510              	.LVL47:
 511 0042 FFF7FEFF 		bl	chDbgPanic
 512              	.LVL48:
 513 0046 DEE7     		b	.L56
 514              	.L66:
 515              		.align	2
 516              	.L65:
 517 0048 D4000000 		.word	.LC11
 518 004c C0000000 		.word	.LC10
 519              		.cfi_endproc
 520              	.LFE124:
 521              		.size	uartStopSend, .-uartStopSend
 522              		.section	.text.uartStopSendI,"ax",%progbits
 523              		.align	2
 524              		.p2align 4,,15
 525              		.global	uartStopSendI
 526              		.thumb
 527              		.thumb_func
 528              		.type	uartStopSendI, %function
 529              	uartStopSendI:
 530              	.LFB125:
 531              		.loc 1 225 0
 532              		.cfi_startproc
 533              		@ args = 0, pretend = 0, frame = 0
 534              		@ frame_needed = 0, uses_anonymous_args = 0
 535              	.LVL49:
 536 0000 10B5     		push	{r4, lr}
 537              		.cfi_def_cfa_offset 8
 538              		.cfi_offset 4, -8
 539              		.cfi_offset 14, -4
 540              		.loc 1 225 0
 541 0002 0446     		mov	r4, r0
 542              		.loc 1 227 0
 543 0004 FFF7FEFF 		bl	chDbgCheckClassI
 544              	.LVL50:
 545              		.loc 1 228 0
 546 0008 84B1     		cbz	r4, .L75
 547              	.L68:
 548              		.loc 1 229 0
 549 000a 2378     		ldrb	r3, [r4]	@ zero_extendqisi2
 550 000c 022B     		cmp	r3, #2
 551 000e 02D0     		beq	.L69
 552              		.loc 1 229 0 is_stmt 0 discriminator 1
 553 0010 0848     		ldr	r0, .L77
 554 0012 FFF7FEFF 		bl	chDbgPanic
 555              	.LVL51:
 556              	.L69:
 557              		.loc 1 231 0 is_stmt 1
 558 0016 6378     		ldrb	r3, [r4, #1]	@ zero_extendqisi2
 559 0018 012B     		cmp	r3, #1
 560 001a 01D0     		beq	.L76
 561              		.loc 1 236 0
 562 001c 0020     		movs	r0, #0
 563              		.loc 1 237 0
 564 001e 10BD     		pop	{r4, pc}
ARM GAS  /tmp/ccS3EMNv.s 			page 11


 565              	.LVL52:
 566              	.L76:
 567              	.LBB10:
 568              		.loc 1 232 0
 569 0020 2046     		mov	r0, r4
 570 0022 FFF7FEFF 		bl	uart_lld_stop_send
 571              	.LVL53:
 572              		.loc 1 233 0
 573 0026 0023     		movs	r3, #0
 574 0028 6370     		strb	r3, [r4, #1]
 575              		.loc 1 234 0
 576 002a 10BD     		pop	{r4, pc}
 577              	.LVL54:
 578              	.L75:
 579              	.LBE10:
 580              		.loc 1 228 0 discriminator 1
 581 002c 0248     		ldr	r0, .L77+4
 582 002e FFF7FEFF 		bl	chDbgPanic
 583              	.LVL55:
 584 0032 EAE7     		b	.L68
 585              	.L78:
 586              		.align	2
 587              	.L77:
 588 0034 FC000000 		.word	.LC13
 589 0038 E8000000 		.word	.LC12
 590              		.cfi_endproc
 591              	.LFE125:
 592              		.size	uartStopSendI, .-uartStopSendI
 593 003c AFF30080 		.section	.text.uartStartReceive,"ax",%progbits
 594              		.align	2
 595              		.p2align 4,,15
 596              		.global	uartStartReceive
 597              		.thumb
 598              		.thumb_func
 599              		.type	uartStartReceive, %function
 600              	uartStartReceive:
 601              	.LFB126:
 602              		.loc 1 250 0
 603              		.cfi_startproc
 604              		@ args = 0, pretend = 0, frame = 0
 605              		@ frame_needed = 0, uses_anonymous_args = 0
 606              	.LVL56:
 607 0000 70B5     		push	{r4, r5, r6, lr}
 608              		.cfi_def_cfa_offset 16
 609              		.cfi_offset 4, -16
 610              		.cfi_offset 5, -12
 611              		.cfi_offset 6, -8
 612              		.cfi_offset 14, -4
 613              		.loc 1 252 0
 614 0002 0446     		mov	r4, r0
 615              		.loc 1 250 0
 616 0004 0D46     		mov	r5, r1
 617 0006 1646     		mov	r6, r2
 618              		.loc 1 252 0
 619 0008 00B1     		cbz	r0, .L80
 620              		.loc 1 252 0 is_stmt 0 discriminator 2
 621 000a E9B9     		cbnz	r1, .L93
ARM GAS  /tmp/ccS3EMNv.s 			page 12


 622              	.L80:
 623              		.loc 1 252 0 discriminator 1
 624 000c 1248     		ldr	r0, .L95
 625              	.LVL57:
 626 000e FFF7FEFF 		bl	chDbgPanic
 627              	.LVL58:
 628              	.L81:
 629              	.LBB11:
 630              		.loc 1 255 0 is_stmt 1
 631 0012 2023     		movs	r3, #32
 632              	@ 255 "../../../os/hal/src/uart.c" 1
 633 0014 83F31188 		msr     BASEPRI, r3
 634              	@ 0 "" 2
 635              		.thumb
 636              	.LBE11:
 637 0018 FFF7FEFF 		bl	dbg_check_lock
 638              	.LVL59:
 639              		.loc 1 256 0
 640 001c 2378     		ldrb	r3, [r4]	@ zero_extendqisi2
 641 001e 022B     		cmp	r3, #2
 642 0020 02D0     		beq	.L82
 643              		.loc 1 256 0 is_stmt 0 discriminator 1
 644 0022 0E48     		ldr	r0, .L95+4
 645 0024 FFF7FEFF 		bl	chDbgPanic
 646              	.LVL60:
 647              	.L82:
 648              		.loc 1 258 0 is_stmt 1
 649 0028 A378     		ldrb	r3, [r4, #2]	@ zero_extendqisi2
 650 002a 012B     		cmp	r3, #1
 651 002c 0FD0     		beq	.L94
 652              	.L83:
 653              		.loc 1 261 0
 654 002e 2946     		mov	r1, r5
 655 0030 3246     		mov	r2, r6
 656 0032 2046     		mov	r0, r4
 657 0034 FFF7FEFF 		bl	uart_lld_start_receive
 658              	.LVL61:
 659              		.loc 1 262 0
 660 0038 0123     		movs	r3, #1
 661 003a A370     		strb	r3, [r4, #2]
 662              		.loc 1 263 0
 663 003c FFF7FEFF 		bl	dbg_check_unlock
 664              	.LVL62:
 665              	.LBB12:
 666 0040 0023     		movs	r3, #0
 667              	@ 263 "../../../os/hal/src/uart.c" 1
 668 0042 83F31188 		msr     BASEPRI, r3
 669              	@ 0 "" 2
 670              		.thumb
 671 0046 70BD     		pop	{r4, r5, r6, pc}
 672              	.LVL63:
 673              	.L93:
 674              	.LBE12:
 675              		.loc 1 252 0 discriminator 1
 676 0048 002A     		cmp	r2, #0
 677 004a E2D1     		bne	.L81
 678 004c DEE7     		b	.L80
ARM GAS  /tmp/ccS3EMNv.s 			page 13


 679              	.LVL64:
 680              	.L94:
 681              		.loc 1 258 0 discriminator 1
 682 004e 0448     		ldr	r0, .L95+8
 683 0050 FFF7FEFF 		bl	chDbgPanic
 684              	.LVL65:
 685 0054 EBE7     		b	.L83
 686              	.L96:
 687 0056 00BF     		.align	2
 688              	.L95:
 689 0058 10010000 		.word	.LC14
 690 005c 28010000 		.word	.LC15
 691 0060 40010000 		.word	.LC16
 692              		.cfi_endproc
 693              	.LFE126:
 694              		.size	uartStartReceive, .-uartStartReceive
 695 0064 AFF30080 		.section	.text.uartStartReceiveI,"ax",%progbits
 695      AFF30080 
 695      AFF30080 
 696              		.align	2
 697              		.p2align 4,,15
 698              		.global	uartStartReceiveI
 699              		.thumb
 700              		.thumb_func
 701              		.type	uartStartReceiveI, %function
 702              	uartStartReceiveI:
 703              	.LFB127:
 704              		.loc 1 278 0
 705              		.cfi_startproc
 706              		@ args = 0, pretend = 0, frame = 0
 707              		@ frame_needed = 0, uses_anonymous_args = 0
 708              	.LVL66:
 709 0000 70B5     		push	{r4, r5, r6, lr}
 710              		.cfi_def_cfa_offset 16
 711              		.cfi_offset 4, -16
 712              		.cfi_offset 5, -12
 713              		.cfi_offset 6, -8
 714              		.cfi_offset 14, -4
 715              		.loc 1 278 0
 716 0002 0446     		mov	r4, r0
 717 0004 0D46     		mov	r5, r1
 718 0006 1646     		mov	r6, r2
 719              		.loc 1 280 0
 720 0008 FFF7FEFF 		bl	chDbgCheckClassI
 721              	.LVL67:
 722              		.loc 1 281 0
 723 000c 04B1     		cbz	r4, .L98
 724              		.loc 1 281 0 is_stmt 0 discriminator 2
 725 000e 9DB9     		cbnz	r5, .L111
 726              	.L98:
 727              		.loc 1 281 0 discriminator 1
 728 0010 0D48     		ldr	r0, .L113
 729 0012 FFF7FEFF 		bl	chDbgPanic
 730              	.LVL68:
 731              	.L99:
 732              		.loc 1 283 0 is_stmt 1
 733 0016 2378     		ldrb	r3, [r4]	@ zero_extendqisi2
ARM GAS  /tmp/ccS3EMNv.s 			page 14


 734 0018 022B     		cmp	r3, #2
 735 001a 02D0     		beq	.L100
 736              		.loc 1 283 0 is_stmt 0 discriminator 1
 737 001c 0B48     		ldr	r0, .L113+4
 738 001e FFF7FEFF 		bl	chDbgPanic
 739              	.LVL69:
 740              	.L100:
 741              		.loc 1 285 0 is_stmt 1
 742 0022 A378     		ldrb	r3, [r4, #2]	@ zero_extendqisi2
 743 0024 012B     		cmp	r3, #1
 744 0026 0AD0     		beq	.L112
 745              	.L101:
 746              		.loc 1 288 0
 747 0028 2946     		mov	r1, r5
 748 002a 3246     		mov	r2, r6
 749 002c 2046     		mov	r0, r4
 750 002e FFF7FEFF 		bl	uart_lld_start_receive
 751              	.LVL70:
 752              		.loc 1 289 0
 753 0032 0123     		movs	r3, #1
 754 0034 A370     		strb	r3, [r4, #2]
 755 0036 70BD     		pop	{r4, r5, r6, pc}
 756              	.LVL71:
 757              	.L111:
 758              		.loc 1 281 0 discriminator 1
 759 0038 002E     		cmp	r6, #0
 760 003a ECD1     		bne	.L99
 761 003c E8E7     		b	.L98
 762              	.L112:
 763              		.loc 1 285 0 discriminator 1
 764 003e 0448     		ldr	r0, .L113+8
 765 0040 FFF7FEFF 		bl	chDbgPanic
 766              	.LVL72:
 767 0044 F0E7     		b	.L101
 768              	.L114:
 769 0046 00BF     		.align	2
 770              	.L113:
 771 0048 58010000 		.word	.LC17
 772 004c 70010000 		.word	.LC18
 773 0050 88010000 		.word	.LC19
 774              		.cfi_endproc
 775              	.LFE127:
 776              		.size	uartStartReceiveI, .-uartStartReceiveI
 777 0054 AFF30080 		.section	.text.uartStopReceive,"ax",%progbits
 777      AFF30080 
 777      AFF30080 
 778              		.align	2
 779              		.p2align 4,,15
 780              		.global	uartStopReceive
 781              		.thumb
 782              		.thumb_func
 783              		.type	uartStopReceive, %function
 784              	uartStopReceive:
 785              	.LFB128:
 786              		.loc 1 304 0
 787              		.cfi_startproc
 788              		@ args = 0, pretend = 0, frame = 0
ARM GAS  /tmp/ccS3EMNv.s 			page 15


 789              		@ frame_needed = 0, uses_anonymous_args = 0
 790              	.LVL73:
 791 0000 38B5     		push	{r3, r4, r5, lr}
 792              		.cfi_def_cfa_offset 16
 793              		.cfi_offset 3, -16
 794              		.cfi_offset 4, -12
 795              		.cfi_offset 5, -8
 796              		.cfi_offset 14, -4
 797              		.loc 1 307 0
 798 0002 0446     		mov	r4, r0
 799 0004 E0B1     		cbz	r0, .L123
 800              	.LVL74:
 801              	.L116:
 802              	.LBB13:
 803              		.loc 1 309 0
 804 0006 2023     		movs	r3, #32
 805              	@ 309 "../../../os/hal/src/uart.c" 1
 806 0008 83F31188 		msr     BASEPRI, r3
 807              	@ 0 "" 2
 808              		.thumb
 809              	.LBE13:
 810 000c FFF7FEFF 		bl	dbg_check_lock
 811              	.LVL75:
 812              		.loc 1 310 0
 813 0010 2378     		ldrb	r3, [r4]	@ zero_extendqisi2
 814 0012 022B     		cmp	r3, #2
 815 0014 02D0     		beq	.L117
 816              		.loc 1 310 0 is_stmt 0 discriminator 1
 817 0016 0C48     		ldr	r0, .L125
 818 0018 FFF7FEFF 		bl	chDbgPanic
 819              	.LVL76:
 820              	.L117:
 821              		.loc 1 313 0 is_stmt 1
 822 001c A378     		ldrb	r3, [r4, #2]	@ zero_extendqisi2
 823 001e 012B     		cmp	r3, #1
 824 0020 07D0     		beq	.L124
 825              		.loc 1 318 0
 826 0022 0025     		movs	r5, #0
 827              	.L118:
 828              	.LVL77:
 829              		.loc 1 319 0
 830 0024 FFF7FEFF 		bl	dbg_check_unlock
 831              	.LVL78:
 832              	.LBB14:
 833 0028 0023     		movs	r3, #0
 834              	@ 319 "../../../os/hal/src/uart.c" 1
 835 002a 83F31188 		msr     BASEPRI, r3
 836              	@ 0 "" 2
 837              		.thumb
 838              	.LBE14:
 839              		.loc 1 321 0
 840 002e 2846     		mov	r0, r5
 841 0030 38BD     		pop	{r3, r4, r5, pc}
 842              	.LVL79:
 843              	.L124:
 844              		.loc 1 314 0
 845 0032 2046     		mov	r0, r4
ARM GAS  /tmp/ccS3EMNv.s 			page 16


 846 0034 FFF7FEFF 		bl	uart_lld_stop_receive
 847              	.LVL80:
 848              		.loc 1 315 0
 849 0038 0023     		movs	r3, #0
 850              		.loc 1 314 0
 851 003a 0546     		mov	r5, r0
 852              	.LVL81:
 853              		.loc 1 315 0
 854 003c A370     		strb	r3, [r4, #2]
 855 003e F1E7     		b	.L118
 856              	.LVL82:
 857              	.L123:
 858              		.loc 1 307 0 discriminator 1
 859 0040 0248     		ldr	r0, .L125+4
 860              	.LVL83:
 861 0042 FFF7FEFF 		bl	chDbgPanic
 862              	.LVL84:
 863 0046 DEE7     		b	.L116
 864              	.L126:
 865              		.align	2
 866              	.L125:
 867 0048 B4010000 		.word	.LC21
 868 004c A0010000 		.word	.LC20
 869              		.cfi_endproc
 870              	.LFE128:
 871              		.size	uartStopReceive, .-uartStopReceive
 872              		.section	.text.uartStopReceiveI,"ax",%progbits
 873              		.align	2
 874              		.p2align 4,,15
 875              		.global	uartStopReceiveI
 876              		.thumb
 877              		.thumb_func
 878              		.type	uartStopReceiveI, %function
 879              	uartStopReceiveI:
 880              	.LFB129:
 881              		.loc 1 336 0
 882              		.cfi_startproc
 883              		@ args = 0, pretend = 0, frame = 0
 884              		@ frame_needed = 0, uses_anonymous_args = 0
 885              	.LVL85:
 886 0000 10B5     		push	{r4, lr}
 887              		.cfi_def_cfa_offset 8
 888              		.cfi_offset 4, -8
 889              		.cfi_offset 14, -4
 890              		.loc 1 336 0
 891 0002 0446     		mov	r4, r0
 892              		.loc 1 338 0
 893 0004 FFF7FEFF 		bl	chDbgCheckClassI
 894              	.LVL86:
 895              		.loc 1 339 0
 896 0008 84B1     		cbz	r4, .L135
 897              	.L128:
 898              		.loc 1 340 0
 899 000a 2378     		ldrb	r3, [r4]	@ zero_extendqisi2
 900 000c 022B     		cmp	r3, #2
 901 000e 02D0     		beq	.L129
 902              		.loc 1 340 0 is_stmt 0 discriminator 1
ARM GAS  /tmp/ccS3EMNv.s 			page 17


 903 0010 0848     		ldr	r0, .L137
 904 0012 FFF7FEFF 		bl	chDbgPanic
 905              	.LVL87:
 906              	.L129:
 907              		.loc 1 343 0 is_stmt 1
 908 0016 A378     		ldrb	r3, [r4, #2]	@ zero_extendqisi2
 909 0018 012B     		cmp	r3, #1
 910 001a 01D0     		beq	.L136
 911              		.loc 1 348 0
 912 001c 0020     		movs	r0, #0
 913              		.loc 1 349 0
 914 001e 10BD     		pop	{r4, pc}
 915              	.LVL88:
 916              	.L136:
 917              	.LBB15:
 918              		.loc 1 344 0
 919 0020 2046     		mov	r0, r4
 920 0022 FFF7FEFF 		bl	uart_lld_stop_receive
 921              	.LVL89:
 922              		.loc 1 345 0
 923 0026 0023     		movs	r3, #0
 924 0028 A370     		strb	r3, [r4, #2]
 925              		.loc 1 346 0
 926 002a 10BD     		pop	{r4, pc}
 927              	.LVL90:
 928              	.L135:
 929              	.LBE15:
 930              		.loc 1 339 0 discriminator 1
 931 002c 0248     		ldr	r0, .L137+4
 932 002e FFF7FEFF 		bl	chDbgPanic
 933              	.LVL91:
 934 0032 EAE7     		b	.L128
 935              	.L138:
 936              		.align	2
 937              	.L137:
 938 0034 E4010000 		.word	.LC23
 939 0038 CC010000 		.word	.LC22
 940              		.cfi_endproc
 941              	.LFE129:
 942              		.size	uartStopReceiveI, .-uartStopReceiveI
 943 003c AFF30080 		.section	.rodata.str1.4,"aMS",%progbits,1
 944              		.align	2
 945              	.LC0:
 946 0000 22756172 		.ascii	"\"uartStart\"()\000"
 946      74537461 
 946      72742228 
 946      2900
 947 000e 0000     		.space	2
 948              	.LC1:
 949 0010 75617274 		.ascii	"uartStart(), #1\000"
 949      53746172 
 949      7428292C 
 949      20233100 
 950              	.LC2:
 951 0020 22756172 		.ascii	"\"uartStop\"()\000"
 951      7453746F 
 951      70222829 
ARM GAS  /tmp/ccS3EMNv.s 			page 18


 951      00
 952 002d 000000   		.space	3
 953              	.LC3:
 954 0030 75617274 		.ascii	"uartStop(), #1\000"
 954      53746F70 
 954      28292C20 
 954      233100
 955 003f 00       		.space	1
 956              	.LC4:
 957 0040 22756172 		.ascii	"\"uartStartSend\"()\000"
 957      74537461 
 957      72745365 
 957      6E642228 
 957      2900
 958 0052 0000     		.space	2
 959              	.LC5:
 960 0054 75617274 		.ascii	"uartStartSend(), #1\000"
 960      53746172 
 960      7453656E 
 960      6428292C 
 960      20233100 
 961              	.LC6:
 962 0068 75617274 		.ascii	"uartStartSend(), #2\000"
 962      53746172 
 962      7453656E 
 962      6428292C 
 962      20233200 
 963              	.LC7:
 964 007c 22756172 		.ascii	"\"uartStartSendI\"()\000"
 964      74537461 
 964      72745365 
 964      6E644922 
 964      282900
 965 008f 00       		.space	1
 966              	.LC8:
 967 0090 75617274 		.ascii	"uartStartSendI(), #1\000"
 967      53746172 
 967      7453656E 
 967      64492829 
 967      2C202331 
 968 00a5 000000   		.space	3
 969              	.LC9:
 970 00a8 75617274 		.ascii	"uartStartSendI(), #2\000"
 970      53746172 
 970      7453656E 
 970      64492829 
 970      2C202332 
 971 00bd 000000   		.space	3
 972              	.LC10:
 973 00c0 22756172 		.ascii	"\"uartStopSend\"()\000"
 973      7453746F 
 973      7053656E 
 973      64222829 
 973      00
 974 00d1 000000   		.space	3
 975              	.LC11:
 976 00d4 75617274 		.ascii	"uartStopSend(), #1\000"
ARM GAS  /tmp/ccS3EMNv.s 			page 19


 976      53746F70 
 976      53656E64 
 976      28292C20 
 976      233100
 977 00e7 00       		.space	1
 978              	.LC12:
 979 00e8 22756172 		.ascii	"\"uartStopSendI\"()\000"
 979      7453746F 
 979      7053656E 
 979      64492228 
 979      2900
 980 00fa 0000     		.space	2
 981              	.LC13:
 982 00fc 75617274 		.ascii	"uartStopSendI(), #1\000"
 982      53746F70 
 982      53656E64 
 982      4928292C 
 982      20233100 
 983              	.LC14:
 984 0110 22756172 		.ascii	"\"uartStartReceive\"()\000"
 984      74537461 
 984      72745265 
 984      63656976 
 984      65222829 
 985 0125 000000   		.space	3
 986              	.LC15:
 987 0128 75617274 		.ascii	"uartStartReceive(), #1\000"
 987      53746172 
 987      74526563 
 987      65697665 
 987      28292C20 
 988 013f 00       		.space	1
 989              	.LC16:
 990 0140 75617274 		.ascii	"uartStartReceive(), #2\000"
 990      53746172 
 990      74526563 
 990      65697665 
 990      28292C20 
 991 0157 00       		.space	1
 992              	.LC17:
 993 0158 22756172 		.ascii	"\"uartStartReceiveI\"()\000"
 993      74537461 
 993      72745265 
 993      63656976 
 993      65492228 
 994 016e 0000     		.space	2
 995              	.LC18:
 996 0170 75617274 		.ascii	"uartStartReceiveI(), #1\000"
 996      53746172 
 996      74526563 
 996      65697665 
 996      4928292C 
 997              	.LC19:
 998 0188 75617274 		.ascii	"uartStartReceiveI(), #2\000"
 998      53746172 
 998      74526563 
 998      65697665 
ARM GAS  /tmp/ccS3EMNv.s 			page 20


 998      4928292C 
 999              	.LC20:
 1000 01a0 22756172 		.ascii	"\"uartStopReceive\"()\000"
 1000      7453746F 
 1000      70526563 
 1000      65697665 
 1000      22282900 
 1001              	.LC21:
 1002 01b4 75617274 		.ascii	"uartStopReceive(), #1\000"
 1002      53746F70 
 1002      52656365 
 1002      69766528 
 1002      292C2023 
 1003 01ca 0000     		.space	2
 1004              	.LC22:
 1005 01cc 22756172 		.ascii	"\"uartStopReceiveI\"()\000"
 1005      7453746F 
 1005      70526563 
 1005      65697665 
 1005      49222829 
 1006 01e1 000000   		.space	3
 1007              	.LC23:
 1008 01e4 75617274 		.ascii	"uartStopReceiveI(), #1\000"
 1008      53746F70 
 1008      52656365 
 1008      69766549 
 1008      28292C20 
 1009 01fb 00       		.text
 1010              	.Letext0:
 1011              		.file 2 "/usr/lib/gcc/arm-none-eabi/4.8.3/include/stddef.h"
 1012              		.file 3 "/usr/arm-none-eabi/include/stdint.h"
 1013              		.file 4 "../../../os/hal/platforms/STM32F30x/stm32f30x.h"
 1014              		.file 5 "../../../os/hal/platforms/STM32F30x/stm32_dma.h"
 1015              		.file 6 "../../../os/hal/include/uart.h"
 1016              		.file 7 "../../../os/hal/platforms/STM32/USARTv2/uart_lld.h"
 1017              		.file 8 "../../../os/kernel/include/chdebug.h"
 1018              		.file 9 "../../../os/ports/common/ARMCMx/CMSIS/include/core_cm4.h"